(dp1
S'id'
p2
(dp3
S'type'
p4
S'id'
p5
sS'sortable'
p6
I1
sS'sql'
p7
S'INTEGER PRIMARY KEY AUTOINCREMENT'
p8
ssS'lived'
p9
(dp10
g4
S'string'
p11
sg6
I4
sg7
S'CHAR(512)'
p12
ssS'location'
p13
(dp14
g4
S'reference locations'
p15
sg6
I3
sg7
S'INTEGER REFERENCES locations (id) ON DELETE CASCADE'
p16
ssS'name'
p17
(dp18
g4
g11
sg6
I2
sg7
S'CHAR(512)'
p19
ss.