(dp1
S'lived'
p2
(dp3
S'type'
p4
S'string'
p5
sS'sortable'
p6
I4
sS'sql'
p7
S'CHAR(512)'
p8
ssS'id'
p9
(dp10
g4
S'id'
p11
sg6
I1
sg7
S'INTEGER PRIMARY KEY AUTOINCREMENT'
p12
ssS'name'
p13
(dp14
g4
g5
sg6
I2
sg7
S'CHAR(512)'
p15
ssS'location'
p16
(dp17
g4
S'reference locations'
p18
sg6
I3
sg7
S'INTEGER REFERENCES locations(id) ON DELETE CASCADE'
p19
ss.