(dp1
S'genres'
p2
(dp3
S'type'
p4
S'list:reference db.genres'
p5
sS'sortable'
p6
I5
sS'sql'
p7
S'TEXT'
p8
ssS'lived'
p9
(dp10
g4
S'string'
p11
sg6
I4
sg7
S'CHAR(512)'
p12
ssS'name'
p13
(dp14
g4
g11
sg6
I2
sg7
S'CHAR(512)'
p15
ssS'notes'
p16
(dp17
g4
S'text'
p18
sg6
I6
sg7
S'TEXT'
p19
ssS'id'
p20
(dp21
g4
S'id'
p22
sg6
I1
sg7
S'INTEGER PRIMARY KEY AUTOINCREMENT'
p23
ssS'location'
p24
(dp25
g4
S'list:reference db.locations'
p26
sg6
I3
sg7
g8
ss.