(dp1
S'output'
p2
S''
sS'layer'
p3
S'/home/ian/web2py/applications/topoi/controllers/plugin_ajaxselect.py'
p4
sS'code'
p5
S'from gluon.sqlhtml import OptionsWidget\n\n\ndef set_widget():\n    """\n    creates an instance of the OptionsWidget class defined in gluon.sqlhtml and returns the result to populate the ajax LOAD field\n    """\n\n    #get variables to build widget for the proper field, with proper current value\n    table = request.args[0]\n    field = request.args[1]\n    value = request.args[2]\n\n    the_table = db[table]\n    the_field = the_table[field]\n    print the_field\n\n    w = OptionsWidget.widget(the_field, value)\n\n    f = SQLFORM(the_field)\n\n    #create button to trigger adding dialog\n    bid = table + \'_\' + field + \'_option_add_trigger\'\n    button = A(\'Add New\', _href=\'#\', _id=bid, _class=\'option_add_trigger\')\n\n    return dict(widget = w, button = button, form = f)\n\nresponse._vars=response._caller(set_widget)\n'
p6
sS'snapshot'
p7
(dp8
S'exception'
p9
(dp10
S'__hash__'
p11
S"<method-wrapper '__hash__' of exceptions.AttributeError object>"
p12
sS'__setattr__'
p13
S"<method-wrapper '__setattr__' of exceptions.AttributeError object>"
p14
sS'__reduce_ex__'
p15
S'<built-in method __reduce_ex__ of exceptions.AttributeError object>'
p16
sS'__getslice__'
p17
S"<method-wrapper '__getslice__' of exceptions.AttributeError object>"
p18
sS'__getitem__'
p19
S"<method-wrapper '__getitem__' of exceptions.AttributeError object>"
p20
sS'__setstate__'
p21
S'<built-in method __setstate__ of exceptions.AttributeError object>'
p22
sS'args'
p23
S'("\'Expression\' object has no attribute \'writable\'",)'
p24
sS'__reduce__'
p25
S'<built-in method __reduce__ of exceptions.AttributeError object>'
p26
sS'__str__'
p27
S"<method-wrapper '__str__' of exceptions.AttributeError object>"
p28
sS'__format__'
p29
S'<built-in method __format__ of exceptions.AttributeError object>'
p30
sS'__getattribute__'
p31
S"<method-wrapper '__getattribute__' of exceptions.AttributeError object>"
p32
sS'__class__'
p33
S"<type 'exceptions.AttributeError'>"
p34
sS'__unicode__'
p35
S'<built-in method __unicode__ of exceptions.AttributeError object>'
p36
sS'__delattr__'
p37
S"<method-wrapper '__delattr__' of exceptions.AttributeError object>"
p38
sS'__subclasshook__'
p39
S'<built-in method __subclasshook__ of type object>'
p40
sS'__repr__'
p41
S"<method-wrapper '__repr__' of exceptions.AttributeError object>"
p42
sS'__dict__'
p43
S'{}'
p44
sS'__sizeof__'
p45
S'<built-in method __sizeof__ of exceptions.AttributeError object>'
p46
sS'__doc__'
p47
S"'Attribute not found.'"
p48
sS'__init__'
p49
S"<method-wrapper '__init__' of exceptions.AttributeError object>"
p50
sS'__new__'
p51
S'<built-in method __new__ of type object>'
p52
ssS'evalue'
p53
S"'Expression' object has no attribute 'writable'"
p54
sS'request'
p55
ccopy_reg
_reconstructor
p56
(cgluon.html
BEAUTIFY
p57
c__builtin__
object
p58
NtRp59
(dp60
S'attributes'
p61
(dp62
sS'components'
p63
(lp64
g56
(cgluon.html
TABLE
p65
g58
NtRp66
(dp67
g61
(dp68
S'level'
p69
I5
ssS'parent'
p70
Nsg63
(lp71
g56
(cgluon.html
TR
p72
g58
NtRp73
(dp74
g61
(dp75
sg70
g66
sg63
(lp76
g56
(cgluon.html
TD
p77
g58
NtRp78
(dp79
g61
(dp80
S'_style'
p81
S'font-weight:bold;'
p82
ssg70
g73
sg63
(lp83
S'ajax'
p84
asbag56
(g77
g58
NtRp85
(dp86
g61
(dp87
S'_valign'
p88
S'top'
p89
ssg70
g73
sg63
(lp90
S':'
asbag56
(g77
g58
NtRp91
(dp92
g61
(dp93
sg70
g73
sg63
(lp94
g56
(g57
g58
NtRp95
(dp96
g61
(dp97
g69
I5
ssg70
g91
sg63
(lp98
S'True'
p99
asbasbasbag56
(g72
g58
NtRp100
(dp101
g61
(dp102
sg70
g66
sg63
(lp103
g56
(g77
g58
NtRp104
(dp105
g61
(dp106
g81
g82
ssg70
g100
sg63
(lp107
S'application'
p108
asbag56
(g77
g58
NtRp109
(dp110
g61
(dp111
g88
g89
ssg70
g100
sg63
(lp112
S':'
asbag56
(g77
g58
NtRp113
(dp114
g61
(dp115
sg70
g100
sg63
(lp116
g56
(g57
g58
NtRp117
(dp118
g61
(dp119
g69
I5
ssg70
g113
sg63
(lp120
S'topoi'
p121
asbasbasbag56
(g72
g58
NtRp122
(dp123
g61
(dp124
sg70
g66
sg63
(lp125
g56
(g77
g58
NtRp126
(dp127
g61
(dp128
g81
g82
ssg70
g122
sg63
(lp129
g23
asbag56
(g77
g58
NtRp130
(dp131
g61
(dp132
g88
g89
ssg70
g122
sg63
(lp133
S':'
asbag56
(g77
g58
NtRp134
(dp135
g61
(dp136
sg70
g122
sg63
(lp137
g56
(g57
g58
NtRp138
(dp139
g61
(dp140
g69
I5
ssg70
g134
sg63
(lp141
g56
(g65
g58
NtRp142
(dp143
g61
(dp144
g69
I4
ssg70
Nsg63
(lp145
g56
(g72
g58
NtRp146
(dp147
g61
(dp148
sg70
g142
sg63
(lp149
g56
(g77
g58
NtRp150
(dp151
g61
(dp152
sg70
g146
sg63
(lp153
g56
(g57
g58
NtRp154
(dp155
g61
(dp156
g69
I4
ssg70
g150
sg63
(lp157
S'notes'
p158
asbasbasbag56
(g72
g58
NtRp159
(dp160
g61
(dp161
sg70
g142
sg63
(lp162
g56
(g77
g58
NtRp163
(dp164
g61
(dp165
sg70
g159
sg63
(lp166
g56
(g57
g58
NtRp167
(dp168
g61
(dp169
g69
I4
ssg70
g163
sg63
(lp170
S'author'
p171
asbasbasbag56
(g72
g58
NtRp172
(dp173
g61
(dp174
sg70
g142
sg63
(lp175
g56
(g77
g58
NtRp176
(dp177
g61
(dp178
sg70
g172
sg63
(lp179
g56
(g57
g58
NtRp180
(dp181
g61
(dp182
g69
I4
ssg70
g176
sg63
(lp183
S'10'
p184
asbasbasbasbasbasbasbag56
(g72
g58
NtRp185
(dp186
g61
(dp187
sg70
g66
sg63
(lp188
g56
(g77
g58
NtRp189
(dp190
g61
(dp191
g81
g82
ssg70
g185
sg63
(lp192
S'body'
p193
asbag56
(g77
g58
NtRp194
(dp195
g61
(dp196
g88
g89
ssg70
g185
sg63
(lp197
S':'
asbag56
(g77
g58
NtRp198
(dp199
g61
(dp200
sg70
g185
sg63
(lp201
g56
(g57
g58
NtRp202
(dp203
g61
(dp204
g69
I5
ssg70
g198
sg63
(lp205
S'<cStringIO.StringO object at 0x2f75960>'
p206
asbasbasbag56
(g72
g58
NtRp207
(dp208
g61
(dp209
sg70
g66
sg63
(lp210
g56
(g77
g58
NtRp211
(dp212
g61
(dp213
g81
g82
ssg70
g207
sg63
(lp214
S'cid'
p215
asbag56
(g77
g58
NtRp216
(dp217
g61
(dp218
g88
g89
ssg70
g207
sg63
(lp219
S':'
asbag56
(g77
g58
NtRp220
(dp221
g61
(dp222
sg70
g207
sg63
(lp223
g56
(g57
g58
NtRp224
(dp225
g61
(dp226
g69
I5
ssg70
g220
sg63
(lp227
S'notes_author'
p228
asbasbasbag56
(g72
g58
NtRp229
(dp230
g61
(dp231
sg70
g66
sg63
(lp232
g56
(g77
g58
NtRp233
(dp234
g61
(dp235
g81
g82
ssg70
g229
sg63
(lp236
S'client'
p237
asbag56
(g77
g58
NtRp238
(dp239
g61
(dp240
g88
g89
ssg70
g229
sg63
(lp241
S':'
asbag56
(g77
g58
NtRp242
(dp243
g61
(dp244
sg70
g229
sg63
(lp245
g56
(g57
g58
NtRp246
(dp247
g61
(dp248
g69
I5
ssg70
g242
sg63
(lp249
S'127.0.0.1'
p250
asbasbasbag56
(g72
g58
NtRp251
(dp252
g61
(dp253
sg70
g66
sg63
(lp254
g56
(g77
g58
NtRp255
(dp256
g61
(dp257
g81
g82
ssg70
g251
sg63
(lp258
S'controller'
p259
asbag56
(g77
g58
NtRp260
(dp261
g61
(dp262
g88
g89
ssg70
g251
sg63
(lp263
S':'
asbag56
(g77
g58
NtRp264
(dp265
g61
(dp266
sg70
g251
sg63
(lp267
g56
(g57
g58
NtRp268
(dp269
g61
(dp270
g69
I5
ssg70
g264
sg63
(lp271
S'plugin_ajaxselect'
p272
asbasbasbag56
(g72
g58
NtRp273
(dp274
g61
(dp275
sg70
g66
sg63
(lp276
g56
(g77
g58
NtRp277
(dp278
g61
(dp279
g81
g82
ssg70
g273
sg63
(lp280
S'cookies'
p281
asbag56
(g77
g58
NtRp282
(dp283
g61
(dp284
g88
g89
ssg70
g273
sg63
(lp285
S':'
asbag56
(g77
g58
NtRp286
(dp287
g61
(dp288
sg70
g273
sg63
(lp289
g56
(g57
g58
NtRp290
(dp291
g61
(dp292
g69
I5
ssg70
g286
sg63
(lp293
g56
(g65
g58
NtRp294
(dp295
g61
(dp296
g69
I4
ssg70
Nsg63
(lp297
g56
(g72
g58
NtRp298
(dp299
g61
(dp300
sg70
g294
sg63
(lp301
g56
(g77
g58
NtRp302
(dp303
g61
(dp304
g81
g82
ssg70
g298
sg63
(lp305
S'session_id_admin'
p306
asbag56
(g77
g58
NtRp307
(dp308
g61
(dp309
g88
g89
ssg70
g298
sg63
(lp310
S':'
asbag56
(g77
g58
NtRp311
(dp312
g61
(dp313
sg70
g298
sg63
(lp314
g56
(g57
g58
NtRp315
(dp316
g61
(dp317
g69
I4
ssg70
g311
sg63
(lp318
g56
(g65
g58
NtRp319
(dp320
g61
(dp321
g69
I3
ssg70
Nsg63
(lp322
g56
(g72
g58
NtRp323
(dp324
g61
(dp325
sg70
g319
sg63
(lp326
g56
(g77
g58
NtRp327
(dp328
g61
(dp329
g81
g82
ssg70
g323
sg63
(lp330
S'comment'
p331
asbag56
(g77
g58
NtRp332
(dp333
g61
(dp334
g88
g89
ssg70
g323
sg63
(lp335
S':'
asbag56
(g77
g58
NtRp336
(dp337
g61
(dp338
sg70
g323
sg63
(lp339
g56
(g57
g58
NtRp340
(dp341
g61
(dp342
g69
I3
ssg70
g336
sg63
(lp343
S''
asbasbasbag56
(g72
g58
NtRp344
(dp345
g61
(dp346
sg70
g319
sg63
(lp347
g56
(g77
g58
NtRp348
(dp349
g61
(dp350
g81
g82
ssg70
g344
sg63
(lp351
S'domain'
p352
asbag56
(g77
g58
NtRp353
(dp354
g61
(dp355
g88
g89
ssg70
g344
sg63
(lp356
S':'
asbag56
(g77
g58
NtRp357
(dp358
g61
(dp359
sg70
g344
sg63
(lp360
g56
(g57
g58
NtRp361
(dp362
g61
(dp363
g69
I3
ssg70
g357
sg63
(lp364
S''
asbasbasbag56
(g72
g58
NtRp365
(dp366
g61
(dp367
sg70
g319
sg63
(lp368
g56
(g77
g58
NtRp369
(dp370
g61
(dp371
g81
g82
ssg70
g365
sg63
(lp372
S'expires'
p373
asbag56
(g77
g58
NtRp374
(dp375
g61
(dp376
g88
g89
ssg70
g365
sg63
(lp377
S':'
asbag56
(g77
g58
NtRp378
(dp379
g61
(dp380
sg70
g365
sg63
(lp381
g56
(g57
g58
NtRp382
(dp383
g61
(dp384
g69
I3
ssg70
g378
sg63
(lp385
S''
asbasbasbag56
(g72
g58
NtRp386
(dp387
g61
(dp388
sg70
g319
sg63
(lp389
g56
(g77
g58
NtRp390
(dp391
g61
(dp392
g81
g82
ssg70
g386
sg63
(lp393
S'httponly'
p394
asbag56
(g77
g58
NtRp395
(dp396
g61
(dp397
g88
g89
ssg70
g386
sg63
(lp398
S':'
asbag56
(g77
g58
NtRp399
(dp400
g61
(dp401
sg70
g386
sg63
(lp402
g56
(g57
g58
NtRp403
(dp404
g61
(dp405
g69
I3
ssg70
g399
sg63
(lp406
S''
asbasbasbag56
(g72
g58
NtRp407
(dp408
g61
(dp409
sg70
g319
sg63
(lp410
g56
(g77
g58
NtRp411
(dp412
g61
(dp413
g81
g82
ssg70
g407
sg63
(lp414
S'max-age'
p415
asbag56
(g77
g58
NtRp416
(dp417
g61
(dp418
g88
g89
ssg70
g407
sg63
(lp419
S':'
asbag56
(g77
g58
NtRp420
(dp421
g61
(dp422
sg70
g407
sg63
(lp423
g56
(g57
g58
NtRp424
(dp425
g61
(dp426
g69
I3
ssg70
g420
sg63
(lp427
S''
asbasbasbag56
(g72
g58
NtRp428
(dp429
g61
(dp430
sg70
g319
sg63
(lp431
g56
(g77
g58
NtRp432
(dp433
g61
(dp434
g81
g82
ssg70
g428
sg63
(lp435
S'path'
p436
asbag56
(g77
g58
NtRp437
(dp438
g61
(dp439
g88
g89
ssg70
g428
sg63
(lp440
S':'
asbag56
(g77
g58
NtRp441
(dp442
g61
(dp443
sg70
g428
sg63
(lp444
g56
(g57
g58
NtRp445
(dp446
g61
(dp447
g69
I3
ssg70
g441
sg63
(lp448
S''
asbasbasbag56
(g72
g58
NtRp449
(dp450
g61
(dp451
sg70
g319
sg63
(lp452
g56
(g77
g58
NtRp453
(dp454
g61
(dp455
g81
g82
ssg70
g449
sg63
(lp456
S'secure'
p457
asbag56
(g77
g58
NtRp458
(dp459
g61
(dp460
g88
g89
ssg70
g449
sg63
(lp461
S':'
asbag56
(g77
g58
NtRp462
(dp463
g61
(dp464
sg70
g449
sg63
(lp465
g56
(g57
g58
NtRp466
(dp467
g61
(dp468
g69
I3
ssg70
g462
sg63
(lp469
S''
asbasbasbag56
(g72
g58
NtRp470
(dp471
g61
(dp472
sg70
g319
sg63
(lp473
g56
(g77
g58
NtRp474
(dp475
g61
(dp476
g81
g82
ssg70
g470
sg63
(lp477
S'version'
p478
asbag56
(g77
g58
NtRp479
(dp480
g61
(dp481
g88
g89
ssg70
g470
sg63
(lp482
S':'
asbag56
(g77
g58
NtRp483
(dp484
g61
(dp485
sg70
g470
sg63
(lp486
g56
(g57
g58
NtRp487
(dp488
g61
(dp489
g69
I3
ssg70
g483
sg63
(lp490
S''
asbasbasbasbasbasbasbag56
(g72
g58
NtRp491
(dp492
g61
(dp493
sg70
g294
sg63
(lp494
g56
(g77
g58
NtRp495
(dp496
g61
(dp497
g81
g82
ssg70
g491
sg63
(lp498
S'session_id_topoi'
p499
asbag56
(g77
g58
NtRp500
(dp501
g61
(dp502
g88
g89
ssg70
g491
sg63
(lp503
S':'
asbag56
(g77
g58
NtRp504
(dp505
g61
(dp506
sg70
g491
sg63
(lp507
g56
(g57
g58
NtRp508
(dp509
g61
(dp510
g69
I4
ssg70
g504
sg63
(lp511
g56
(g65
g58
NtRp512
(dp513
g61
(dp514
g69
I3
ssg70
Nsg63
(lp515
g56
(g72
g58
NtRp516
(dp517
g61
(dp518
sg70
g512
sg63
(lp519
g56
(g77
g58
NtRp520
(dp521
g61
(dp522
g81
g82
ssg70
g516
sg63
(lp523
g331
asbag56
(g77
g58
NtRp524
(dp525
g61
(dp526
g88
g89
ssg70
g516
sg63
(lp527
S':'
asbag56
(g77
g58
NtRp528
(dp529
g61
(dp530
sg70
g516
sg63
(lp531
g56
(g57
g58
NtRp532
(dp533
g61
(dp534
g69
I3
ssg70
g528
sg63
(lp535
S''
asbasbasbag56
(g72
g58
NtRp536
(dp537
g61
(dp538
sg70
g512
sg63
(lp539
g56
(g77
g58
NtRp540
(dp541
g61
(dp542
g81
g82
ssg70
g536
sg63
(lp543
g352
asbag56
(g77
g58
NtRp544
(dp545
g61
(dp546
g88
g89
ssg70
g536
sg63
(lp547
S':'
asbag56
(g77
g58
NtRp548
(dp549
g61
(dp550
sg70
g536
sg63
(lp551
g56
(g57
g58
NtRp552
(dp553
g61
(dp554
g69
I3
ssg70
g548
sg63
(lp555
S''
asbasbasbag56
(g72
g58
NtRp556
(dp557
g61
(dp558
sg70
g512
sg63
(lp559
g56
(g77
g58
NtRp560
(dp561
g61
(dp562
g81
g82
ssg70
g556
sg63
(lp563
g373
asbag56
(g77
g58
NtRp564
(dp565
g61
(dp566
g88
g89
ssg70
g556
sg63
(lp567
S':'
asbag56
(g77
g58
NtRp568
(dp569
g61
(dp570
sg70
g556
sg63
(lp571
g56
(g57
g58
NtRp572
(dp573
g61
(dp574
g69
I3
ssg70
g568
sg63
(lp575
S''
asbasbasbag56
(g72
g58
NtRp576
(dp577
g61
(dp578
sg70
g512
sg63
(lp579
g56
(g77
g58
NtRp580
(dp581
g61
(dp582
g81
g82
ssg70
g576
sg63
(lp583
g394
asbag56
(g77
g58
NtRp584
(dp585
g61
(dp586
g88
g89
ssg70
g576
sg63
(lp587
S':'
asbag56
(g77
g58
NtRp588
(dp589
g61
(dp590
sg70
g576
sg63
(lp591
g56
(g57
g58
NtRp592
(dp593
g61
(dp594
g69
I3
ssg70
g588
sg63
(lp595
S''
asbasbasbag56
(g72
g58
NtRp596
(dp597
g61
(dp598
sg70
g512
sg63
(lp599
g56
(g77
g58
NtRp600
(dp601
g61
(dp602
g81
g82
ssg70
g596
sg63
(lp603
g415
asbag56
(g77
g58
NtRp604
(dp605
g61
(dp606
g88
g89
ssg70
g596
sg63
(lp607
S':'
asbag56
(g77
g58
NtRp608
(dp609
g61
(dp610
sg70
g596
sg63
(lp611
g56
(g57
g58
NtRp612
(dp613
g61
(dp614
g69
I3
ssg70
g608
sg63
(lp615
S''
asbasbasbag56
(g72
g58
NtRp616
(dp617
g61
(dp618
sg70
g512
sg63
(lp619
g56
(g77
g58
NtRp620
(dp621
g61
(dp622
g81
g82
ssg70
g616
sg63
(lp623
g436
asbag56
(g77
g58
NtRp624
(dp625
g61
(dp626
g88
g89
ssg70
g616
sg63
(lp627
S':'
asbag56
(g77
g58
NtRp628
(dp629
g61
(dp630
sg70
g616
sg63
(lp631
g56
(g57
g58
NtRp632
(dp633
g61
(dp634
g69
I3
ssg70
g628
sg63
(lp635
S''
asbasbasbag56
(g72
g58
NtRp636
(dp637
g61
(dp638
sg70
g512
sg63
(lp639
g56
(g77
g58
NtRp640
(dp641
g61
(dp642
g81
g82
ssg70
g636
sg63
(lp643
g457
asbag56
(g77
g58
NtRp644
(dp645
g61
(dp646
g88
g89
ssg70
g636
sg63
(lp647
S':'
asbag56
(g77
g58
NtRp648
(dp649
g61
(dp650
sg70
g636
sg63
(lp651
g56
(g57
g58
NtRp652
(dp653
g61
(dp654
g69
I3
ssg70
g648
sg63
(lp655
S''
asbasbasbag56
(g72
g58
NtRp656
(dp657
g61
(dp658
sg70
g512
sg63
(lp659
g56
(g77
g58
NtRp660
(dp661
g61
(dp662
g81
g82
ssg70
g656
sg63
(lp663
g478
asbag56
(g77
g58
NtRp664
(dp665
g61
(dp666
g88
g89
ssg70
g656
sg63
(lp667
S':'
asbag56
(g77
g58
NtRp668
(dp669
g61
(dp670
sg70
g656
sg63
(lp671
g56
(g57
g58
NtRp672
(dp673
g61
(dp674
g69
I3
ssg70
g668
sg63
(lp675
S''
asbasbasbasbasbasbasbasbasbasbasbag56
(g72
g58
NtRp676
(dp677
g61
(dp678
sg70
g66
sg63
(lp679
g56
(g77
g58
NtRp680
(dp681
g61
(dp682
g81
g82
ssg70
g676
sg63
(lp683
S'env'
p684
asbag56
(g77
g58
NtRp685
(dp686
g61
(dp687
g88
g89
ssg70
g676
sg63
(lp688
S':'
asbag56
(g77
g58
NtRp689
(dp690
g61
(dp691
sg70
g676
sg63
(lp692
g56
(g57
g58
NtRp693
(dp694
g61
(dp695
g69
I5
ssg70
g689
sg63
(lp696
g56
(g65
g58
NtRp697
(dp698
g61
(dp699
g69
I4
ssg70
Nsg63
(lp700
g56
(g72
g58
NtRp701
(dp702
g61
(dp703
sg70
g697
sg63
(lp704
g56
(g77
g58
NtRp705
(dp706
g61
(dp707
g81
g82
ssg70
g701
sg63
(lp708
S'app_folders'
p709
asbag56
(g77
g58
NtRp710
(dp711
g61
(dp712
g88
g89
ssg70
g701
sg63
(lp713
S':'
asbag56
(g77
g58
NtRp714
(dp715
g61
(dp716
sg70
g701
sg63
(lp717
g56
(g57
g58
NtRp718
(dp719
g61
(dp720
g69
I4
ssg70
g714
sg63
(lp721
S"set(['/home/ian/web2py/applications/topoi/', '/home/ian/web2py/applications/welcome/', '/home/ian/web2py/applications/admin/'])"
p722
asbasbasbag56
(g72
g58
NtRp723
(dp724
g61
(dp725
sg70
g697
sg63
(lp726
g56
(g77
g58
NtRp727
(dp728
g61
(dp729
g81
g82
ssg70
g723
sg63
(lp730
S'applications_parent'
p731
asbag56
(g77
g58
NtRp732
(dp733
g61
(dp734
g88
g89
ssg70
g723
sg63
(lp735
S':'
asbag56
(g77
g58
NtRp736
(dp737
g61
(dp738
sg70
g723
sg63
(lp739
g56
(g57
g58
NtRp740
(dp741
g61
(dp742
g69
I4
ssg70
g736
sg63
(lp743
S'/home/ian/web2py'
p744
asbasbasbag56
(g72
g58
NtRp745
(dp746
g61
(dp747
sg70
g697
sg63
(lp748
g56
(g77
g58
NtRp749
(dp750
g61
(dp751
g81
g82
ssg70
g745
sg63
(lp752
S'cmd_args'
p753
asbag56
(g77
g58
NtRp754
(dp755
g61
(dp756
g88
g89
ssg70
g745
sg63
(lp757
S':'
asbag56
(g77
g58
NtRp758
(dp759
g61
(dp760
sg70
g745
sg63
(lp761
g56
(g57
g58
NtRp762
(dp763
g61
(dp764
g69
I4
ssg70
g758
sg63
(lp765
g56
(g65
g58
NtRp766
(dp767
g61
(dp768
g69
I3
ssg70
Nsg63
(lp769
sbasbasbasbag56
(g72
g58
NtRp770
(dp771
g61
(dp772
sg70
g697
sg63
(lp773
g56
(g77
g58
NtRp774
(dp775
g61
(dp776
g81
g82
ssg70
g770
sg63
(lp777
S'cmd_options'
p778
asbag56
(g77
g58
NtRp779
(dp780
g61
(dp781
g88
g89
ssg70
g770
sg63
(lp782
S':'
asbag56
(g77
g58
NtRp783
(dp784
g61
(dp785
sg70
g770
sg63
(lp786
g56
(g57
g58
NtRp787
(dp788
g61
(dp789
g69
I4
ssg70
g783
sg63
(lp790
S"<Values at 0x2a387e8: {'verbose': False, 'ip': '127.0.0.1', 'shutdown_timeout': 5, 'taskbar': False, 'nocron': False, 'pid_filename': 'httpserver.pid', 'maxthreads': None, 'softcron': False, 'server_name': 'Ariel-ubuntu', 'bpython': False, 'nogui': False, 'port': 8000, 'extcron': False, 'debuglevel': 30, 'test': None, 'folder': '/home/ian/web2py', 'config': '', 'import_models': False, 'winservice': '', 'shell': None, 'run': '', 'log_filename': 'httpserver.log', 'args': [''], 'ssl_ca_certificate': None, 'scheduler': None, 'profiler_filename': None, 'ssl_private_key': '', 'password': '<ask>', 'request_queue_size': 5, 'ssl_certificate': '', 'cronjob': False, 'plain': False, 'quiet': False, 'interfaces': None, 'minthreads': None, 'timeout': 10, 'numthreads': None, 'nobanner': False}>"
p791
asbasbasbag56
(g72
g58
NtRp792
(dp793
g61
(dp794
sg70
g697
sg63
(lp795
g56
(g77
g58
NtRp796
(dp797
g61
(dp798
g81
g82
ssg70
g792
sg63
(lp799
S'db_sessions'
p800
asbag56
(g77
g58
NtRp801
(dp802
g61
(dp803
g88
g89
ssg70
g792
sg63
(lp804
S':'
asbag56
(g77
g58
NtRp805
(dp806
g61
(dp807
sg70
g792
sg63
(lp808
g56
(g57
g58
NtRp809
(dp810
g61
(dp811
g69
I4
ssg70
g805
sg63
(lp812
S'set([])'
p813
asbasbasbag56
(g72
g58
NtRp814
(dp815
g61
(dp816
sg70
g697
sg63
(lp817
g56
(g77
g58
NtRp818
(dp819
g61
(dp820
g81
g82
ssg70
g814
sg63
(lp821
S'debugging'
p822
asbag56
(g77
g58
NtRp823
(dp824
g61
(dp825
g88
g89
ssg70
g814
sg63
(lp826
S':'
asbag56
(g77
g58
NtRp827
(dp828
g61
(dp829
sg70
g814
sg63
(lp830
g56
(g57
g58
NtRp831
(dp832
g61
(dp833
g69
I4
ssg70
g827
sg63
(lp834
S'False'
p835
asbasbasbag56
(g72
g58
NtRp836
(dp837
g61
(dp838
sg70
g697
sg63
(lp839
g56
(g77
g58
NtRp840
(dp841
g61
(dp842
g81
g82
ssg70
g836
sg63
(lp843
S'gluon_parent'
p844
asbag56
(g77
g58
NtRp845
(dp846
g61
(dp847
g88
g89
ssg70
g836
sg63
(lp848
S':'
asbag56
(g77
g58
NtRp849
(dp850
g61
(dp851
sg70
g836
sg63
(lp852
g56
(g57
g58
NtRp853
(dp854
g61
(dp855
g69
I4
ssg70
g849
sg63
(lp856
S'/home/ian/web2py'
p857
asbasbasbag56
(g72
g58
NtRp858
(dp859
g61
(dp860
sg70
g697
sg63
(lp861
g56
(g77
g58
NtRp862
(dp863
g61
(dp864
g81
g82
ssg70
g858
sg63
(lp865
S'http_accept'
p866
asbag56
(g77
g58
NtRp867
(dp868
g61
(dp869
g88
g89
ssg70
g858
sg63
(lp870
S':'
asbag56
(g77
g58
NtRp871
(dp872
g61
(dp873
sg70
g858
sg63
(lp874
g56
(g57
g58
NtRp875
(dp876
g61
(dp877
g69
I4
ssg70
g871
sg63
(lp878
S'*/*'
p879
asbasbasbag56
(g72
g58
NtRp880
(dp881
g61
(dp882
sg70
g697
sg63
(lp883
g56
(g77
g58
NtRp884
(dp885
g61
(dp886
g81
g82
ssg70
g880
sg63
(lp887
S'http_accept_charset'
p888
asbag56
(g77
g58
NtRp889
(dp890
g61
(dp891
g88
g89
ssg70
g880
sg63
(lp892
S':'
asbag56
(g77
g58
NtRp893
(dp894
g61
(dp895
sg70
g880
sg63
(lp896
g56
(g57
g58
NtRp897
(dp898
g61
(dp899
g69
I4
ssg70
g893
sg63
(lp900
S'ISO-8859-1,utf-8;q=0.7,*;q=0.7'
p901
asbasbasbag56
(g72
g58
NtRp902
(dp903
g61
(dp904
sg70
g697
sg63
(lp905
g56
(g77
g58
NtRp906
(dp907
g61
(dp908
g81
g82
ssg70
g902
sg63
(lp909
S'http_accept_encoding'
p910
asbag56
(g77
g58
NtRp911
(dp912
g61
(dp913
g88
g89
ssg70
g902
sg63
(lp914
S':'
asbag56
(g77
g58
NtRp915
(dp916
g61
(dp917
sg70
g902
sg63
(lp918
g56
(g57
g58
NtRp919
(dp920
g61
(dp921
g69
I4
ssg70
g915
sg63
(lp922
S'gzip, deflate'
p923
asbasbasbag56
(g72
g58
NtRp924
(dp925
g61
(dp926
sg70
g697
sg63
(lp927
g56
(g77
g58
NtRp928
(dp929
g61
(dp930
g81
g82
ssg70
g924
sg63
(lp931
S'http_accept_language'
p932
asbag56
(g77
g58
NtRp933
(dp934
g61
(dp935
g88
g89
ssg70
g924
sg63
(lp936
S':'
asbag56
(g77
g58
NtRp937
(dp938
g61
(dp939
sg70
g924
sg63
(lp940
g56
(g57
g58
NtRp941
(dp942
g61
(dp943
g69
I4
ssg70
g937
sg63
(lp944
S'en-us,en;q=0.5'
p945
asbasbasbag56
(g72
g58
NtRp946
(dp947
g61
(dp948
sg70
g697
sg63
(lp949
g56
(g77
g58
NtRp950
(dp951
g61
(dp952
g81
g82
ssg70
g946
sg63
(lp953
S'http_connection'
p954
asbag56
(g77
g58
NtRp955
(dp956
g61
(dp957
g88
g89
ssg70
g946
sg63
(lp958
S':'
asbag56
(g77
g58
NtRp959
(dp960
g61
(dp961
sg70
g946
sg63
(lp962
g56
(g57
g58
NtRp963
(dp964
g61
(dp965
g69
I4
ssg70
g959
sg63
(lp966
S'keep-alive'
p967
asbasbasbag56
(g72
g58
NtRp968
(dp969
g61
(dp970
sg70
g697
sg63
(lp971
g56
(g77
g58
NtRp972
(dp973
g61
(dp974
g81
g82
ssg70
g968
sg63
(lp975
S'http_cookie'
p976
asbag56
(g77
g58
NtRp977
(dp978
g61
(dp979
g88
g89
ssg70
g968
sg63
(lp980
S':'
asbag56
(g77
g58
NtRp981
(dp982
g61
(dp983
sg70
g968
sg63
(lp984
g56
(g57
g58
NtRp985
(dp986
g61
(dp987
g69
I4
ssg70
g981
sg63
(lp988
S'__utma_a2a=9789918665.1351576430.1320019504.1320019504.1320019504.1; session_id_topoi=127.0.0.1-b1942b41-f41c-40ad-b7d8-81fd2be1e58f; session_id_admin=127.0.0.1-198f9deb-093c-4095-9ced-7bd3c9ee0d23'
p989
asbasbasbag56
(g72
g58
NtRp990
(dp991
g61
(dp992
sg70
g697
sg63
(lp993
g56
(g77
g58
NtRp994
(dp995
g61
(dp996
g81
g82
ssg70
g990
sg63
(lp997
S'http_host'
p998
asbag56
(g77
g58
NtRp999
(dp1000
g61
(dp1001
g88
g89
ssg70
g990
sg63
(lp1002
S':'
asbag56
(g77
g58
NtRp1003
(dp1004
g61
(dp1005
sg70
g990
sg63
(lp1006
g56
(g57
g58
NtRp1007
(dp1008
g61
(dp1009
g69
I4
ssg70
g1003
sg63
(lp1010
S'127.0.0.1:8000'
p1011
asbasbasbag56
(g72
g58
NtRp1012
(dp1013
g61
(dp1014
sg70
g697
sg63
(lp1015
g56
(g77
g58
NtRp1016
(dp1017
g61
(dp1018
g81
g82
ssg70
g1012
sg63
(lp1019
S'http_referer'
p1020
asbag56
(g77
g58
NtRp1021
(dp1022
g61
(dp1023
g88
g89
ssg70
g1012
sg63
(lp1024
S':'
asbag56
(g77
g58
NtRp1025
(dp1026
g61
(dp1027
sg70
g1012
sg63
(lp1028
g56
(g57
g58
NtRp1029
(dp1030
g61
(dp1031
g69
I4
ssg70
g1025
sg63
(lp1032
S'http://127.0.0.1:8000/topoi/plugin_listandedit/list/notes/2?fields=author&fields=work&fields=reference'
p1033
asbasbasbag56
(g72
g58
NtRp1034
(dp1035
g61
(dp1036
sg70
g697
sg63
(lp1037
g56
(g77
g58
NtRp1038
(dp1039
g61
(dp1040
g81
g82
ssg70
g1034
sg63
(lp1041
S'http_user_agent'
p1042
asbag56
(g77
g58
NtRp1043
(dp1044
g61
(dp1045
g88
g89
ssg70
g1034
sg63
(lp1046
S':'
asbag56
(g77
g58
NtRp1047
(dp1048
g61
(dp1049
sg70
g1034
sg63
(lp1050
g56
(g57
g58
NtRp1051
(dp1052
g61
(dp1053
g69
I4
ssg70
g1047
sg63
(lp1054
S'Mozilla/5.0 (Ubuntu; X11; Linux x86_64; rv:8.0) Gecko/20100101 Firefox/8.0'
p1055
asbasbasbag56
(g72
g58
NtRp1056
(dp1057
g61
(dp1058
sg70
g697
sg63
(lp1059
g56
(g77
g58
NtRp1060
(dp1061
g61
(dp1062
g81
g82
ssg70
g1056
sg63
(lp1063
S'http_web2py_component_element'
p1064
asbag56
(g77
g58
NtRp1065
(dp1066
g61
(dp1067
g88
g89
ssg70
g1056
sg63
(lp1068
S':'
asbag56
(g77
g58
NtRp1069
(dp1070
g61
(dp1071
sg70
g1056
sg63
(lp1072
g56
(g57
g58
NtRp1073
(dp1074
g61
(dp1075
g69
I4
ssg70
g1069
sg63
(lp1076
g228
asbasbasbag56
(g72
g58
NtRp1077
(dp1078
g61
(dp1079
sg70
g697
sg63
(lp1080
g56
(g77
g58
NtRp1081
(dp1082
g61
(dp1083
g81
g82
ssg70
g1077
sg63
(lp1084
S'http_web2py_component_location'
p1085
asbag56
(g77
g58
NtRp1086
(dp1087
g61
(dp1088
g88
g89
ssg70
g1077
sg63
(lp1089
S':'
asbag56
(g77
g58
NtRp1090
(dp1091
g61
(dp1092
sg70
g1077
sg63
(lp1093
g56
(g57
g58
NtRp1094
(dp1095
g61
(dp1096
g69
I4
ssg70
g1090
sg63
(lp1097
S'http://127.0.0.1:8000/topoi/plugin_listandedit/list/notes/2?fields=author&fields=work&fields=reference#'
p1098
asbasbasbag56
(g72
g58
NtRp1099
(dp1100
g61
(dp1101
sg70
g697
sg63
(lp1102
g56
(g77
g58
NtRp1103
(dp1104
g61
(dp1105
g81
g82
ssg70
g1099
sg63
(lp1106
S'http_x_requested_with'
p1107
asbag56
(g77
g58
NtRp1108
(dp1109
g61
(dp1110
g88
g89
ssg70
g1099
sg63
(lp1111
S':'
asbag56
(g77
g58
NtRp1112
(dp1113
g61
(dp1114
sg70
g1099
sg63
(lp1115
g56
(g57
g58
NtRp1116
(dp1117
g61
(dp1118
g69
I4
ssg70
g1112
sg63
(lp1119
S'XMLHttpRequest'
p1120
asbasbasbag56
(g72
g58
NtRp1121
(dp1122
g61
(dp1123
sg70
g697
sg63
(lp1124
g56
(g77
g58
NtRp1125
(dp1126
g61
(dp1127
g81
g82
ssg70
g1121
sg63
(lp1128
S'is_jython'
p1129
asbag56
(g77
g58
NtRp1130
(dp1131
g61
(dp1132
g88
g89
ssg70
g1121
sg63
(lp1133
S':'
asbag56
(g77
g58
NtRp1134
(dp1135
g61
(dp1136
sg70
g1121
sg63
(lp1137
g56
(g57
g58
NtRp1138
(dp1139
g61
(dp1140
g69
I4
ssg70
g1134
sg63
(lp1141
g835
asbasbasbag56
(g72
g58
NtRp1142
(dp1143
g61
(dp1144
sg70
g697
sg63
(lp1145
g56
(g77
g58
NtRp1146
(dp1147
g61
(dp1148
g81
g82
ssg70
g1142
sg63
(lp1149
S'path_info'
p1150
asbag56
(g77
g58
NtRp1151
(dp1152
g61
(dp1153
g88
g89
ssg70
g1142
sg63
(lp1154
S':'
asbag56
(g77
g58
NtRp1155
(dp1156
g61
(dp1157
sg70
g1142
sg63
(lp1158
g56
(g57
g58
NtRp1159
(dp1160
g61
(dp1161
g69
I4
ssg70
g1155
sg63
(lp1162
S'/topoi/plugin_ajaxselect/set_widget.load/notes/author/10'
p1163
asbasbasbag56
(g72
g58
NtRp1164
(dp1165
g61
(dp1166
sg70
g697
sg63
(lp1167
g56
(g77
g58
NtRp1168
(dp1169
g61
(dp1170
g81
g82
ssg70
g1164
sg63
(lp1171
S'query_string'
p1172
asbag56
(g77
g58
NtRp1173
(dp1174
g61
(dp1175
g88
g89
ssg70
g1164
sg63
(lp1176
S':'
asbag56
(g77
g58
NtRp1177
(dp1178
g61
(dp1179
sg70
g1164
sg63
(lp1180
g56
(g57
g58
NtRp1181
(dp1182
g61
(dp1183
g69
I4
ssg70
g1177
sg63
(lp1184
S''
asbasbasbag56
(g72
g58
NtRp1185
(dp1186
g61
(dp1187
sg70
g697
sg63
(lp1188
g56
(g77
g58
NtRp1189
(dp1190
g61
(dp1191
g81
g82
ssg70
g1185
sg63
(lp1192
S'remote_addr'
p1193
asbag56
(g77
g58
NtRp1194
(dp1195
g61
(dp1196
g88
g89
ssg70
g1185
sg63
(lp1197
S':'
asbag56
(g77
g58
NtRp1198
(dp1199
g61
(dp1200
sg70
g1185
sg63
(lp1201
g56
(g57
g58
NtRp1202
(dp1203
g61
(dp1204
g69
I4
ssg70
g1198
sg63
(lp1205
g250
asbasbasbag56
(g72
g58
NtRp1206
(dp1207
g61
(dp1208
sg70
g697
sg63
(lp1209
g56
(g77
g58
NtRp1210
(dp1211
g61
(dp1212
g81
g82
ssg70
g1206
sg63
(lp1213
S'remote_port'
p1214
asbag56
(g77
g58
NtRp1215
(dp1216
g61
(dp1217
g88
g89
ssg70
g1206
sg63
(lp1218
S':'
asbag56
(g77
g58
NtRp1219
(dp1220
g61
(dp1221
sg70
g1206
sg63
(lp1222
g56
(g57
g58
NtRp1223
(dp1224
g61
(dp1225
g69
I4
ssg70
g1219
sg63
(lp1226
S'36813'
p1227
asbasbasbag56
(g72
g58
NtRp1228
(dp1229
g61
(dp1230
sg70
g697
sg63
(lp1231
g56
(g77
g58
NtRp1232
(dp1233
g61
(dp1234
g81
g82
ssg70
g1228
sg63
(lp1235
S'request_method'
p1236
asbag56
(g77
g58
NtRp1237
(dp1238
g61
(dp1239
g88
g89
ssg70
g1228
sg63
(lp1240
S':'
asbag56
(g77
g58
NtRp1241
(dp1242
g61
(dp1243
sg70
g1228
sg63
(lp1244
g56
(g57
g58
NtRp1245
(dp1246
g61
(dp1247
g69
I4
ssg70
g1241
sg63
(lp1248
S'GET'
p1249
asbasbasbag56
(g72
g58
NtRp1250
(dp1251
g61
(dp1252
sg70
g697
sg63
(lp1253
g56
(g77
g58
NtRp1254
(dp1255
g61
(dp1256
g81
g82
ssg70
g1250
sg63
(lp1257
S'script_name'
p1258
asbag56
(g77
g58
NtRp1259
(dp1260
g61
(dp1261
g88
g89
ssg70
g1250
sg63
(lp1262
S':'
asbag56
(g77
g58
NtRp1263
(dp1264
g61
(dp1265
sg70
g1250
sg63
(lp1266
g56
(g57
g58
NtRp1267
(dp1268
g61
(dp1269
g69
I4
ssg70
g1263
sg63
(lp1270
S''
asbasbasbag56
(g72
g58
NtRp1271
(dp1272
g61
(dp1273
sg70
g697
sg63
(lp1274
g56
(g77
g58
NtRp1275
(dp1276
g61
(dp1277
g81
g82
ssg70
g1271
sg63
(lp1278
S'server_name'
p1279
asbag56
(g77
g58
NtRp1280
(dp1281
g61
(dp1282
g88
g89
ssg70
g1271
sg63
(lp1283
S':'
asbag56
(g77
g58
NtRp1284
(dp1285
g61
(dp1286
sg70
g1271
sg63
(lp1287
g56
(g57
g58
NtRp1288
(dp1289
g61
(dp1290
g69
I4
ssg70
g1284
sg63
(lp1291
S'Ariel-ubuntu'
p1292
asbasbasbag56
(g72
g58
NtRp1293
(dp1294
g61
(dp1295
sg70
g697
sg63
(lp1296
g56
(g77
g58
NtRp1297
(dp1298
g61
(dp1299
g81
g82
ssg70
g1293
sg63
(lp1300
S'server_port'
p1301
asbag56
(g77
g58
NtRp1302
(dp1303
g61
(dp1304
g88
g89
ssg70
g1293
sg63
(lp1305
S':'
asbag56
(g77
g58
NtRp1306
(dp1307
g61
(dp1308
sg70
g1293
sg63
(lp1309
g56
(g57
g58
NtRp1310
(dp1311
g61
(dp1312
g69
I4
ssg70
g1306
sg63
(lp1313
S'8000'
p1314
asbasbasbag56
(g72
g58
NtRp1315
(dp1316
g61
(dp1317
sg70
g697
sg63
(lp1318
g56
(g77
g58
NtRp1319
(dp1320
g61
(dp1321
g81
g82
ssg70
g1315
sg63
(lp1322
S'server_protocol'
p1323
asbag56
(g77
g58
NtRp1324
(dp1325
g61
(dp1326
g88
g89
ssg70
g1315
sg63
(lp1327
S':'
asbag56
(g77
g58
NtRp1328
(dp1329
g61
(dp1330
sg70
g1315
sg63
(lp1331
g56
(g57
g58
NtRp1332
(dp1333
g61
(dp1334
g69
I4
ssg70
g1328
sg63
(lp1335
S'HTTP/1.1'
p1336
asbasbasbag56
(g72
g58
NtRp1337
(dp1338
g61
(dp1339
sg70
g697
sg63
(lp1340
g56
(g77
g58
NtRp1341
(dp1342
g61
(dp1343
g81
g82
ssg70
g1337
sg63
(lp1344
S'server_software'
p1345
asbag56
(g77
g58
NtRp1346
(dp1347
g61
(dp1348
g88
g89
ssg70
g1337
sg63
(lp1349
S':'
asbag56
(g77
g58
NtRp1350
(dp1351
g61
(dp1352
sg70
g1337
sg63
(lp1353
g56
(g57
g58
NtRp1354
(dp1355
g61
(dp1356
g69
I4
ssg70
g1350
sg63
(lp1357
S'Rocket 1.2.4'
p1358
asbasbasbag56
(g72
g58
NtRp1359
(dp1360
g61
(dp1361
sg70
g697
sg63
(lp1362
g56
(g77
g58
NtRp1363
(dp1364
g61
(dp1365
g81
g82
ssg70
g1359
sg63
(lp1366
S'web2py_crontype'
p1367
asbag56
(g77
g58
NtRp1368
(dp1369
g61
(dp1370
g88
g89
ssg70
g1359
sg63
(lp1371
S':'
asbag56
(g77
g58
NtRp1372
(dp1373
g61
(dp1374
sg70
g1359
sg63
(lp1375
g56
(g57
g58
NtRp1376
(dp1377
g61
(dp1378
g69
I4
ssg70
g1372
sg63
(lp1379
S'hard'
p1380
asbasbasbag56
(g72
g58
NtRp1381
(dp1382
g61
(dp1383
sg70
g697
sg63
(lp1384
g56
(g77
g58
NtRp1385
(dp1386
g61
(dp1387
g81
g82
ssg70
g1381
sg63
(lp1388
S'web2py_path'
p1389
asbag56
(g77
g58
NtRp1390
(dp1391
g61
(dp1392
g88
g89
ssg70
g1381
sg63
(lp1393
S':'
asbag56
(g77
g58
NtRp1394
(dp1395
g61
(dp1396
sg70
g1381
sg63
(lp1397
g56
(g57
g58
NtRp1398
(dp1399
g61
(dp1400
g69
I4
ssg70
g1394
sg63
(lp1401
g744
asbasbasbag56
(g72
g58
NtRp1402
(dp1403
g61
(dp1404
sg70
g697
sg63
(lp1405
g56
(g77
g58
NtRp1406
(dp1407
g61
(dp1408
g81
g82
ssg70
g1402
sg63
(lp1409
S'web2py_version'
p1410
asbag56
(g77
g58
NtRp1411
(dp1412
g61
(dp1413
g88
g89
ssg70
g1402
sg63
(lp1414
S':'
asbag56
(g77
g58
NtRp1415
(dp1416
g61
(dp1417
sg70
g1402
sg63
(lp1418
g56
(g57
g58
NtRp1419
(dp1420
g61
(dp1421
g69
I4
ssg70
g1415
sg63
(lp1422
g56
(g65
g58
NtRp1423
(dp1424
g61
(dp1425
g69
I3
ssg70
Nsg63
(lp1426
g56
(g72
g58
NtRp1427
(dp1428
g61
(dp1429
sg70
g1423
sg63
(lp1430
g56
(g77
g58
NtRp1431
(dp1432
g61
(dp1433
sg70
g1427
sg63
(lp1434
g56
(g57
g58
NtRp1435
(dp1436
g61
(dp1437
g69
I3
ssg70
g1431
sg63
(lp1438
S'1'
asbasbasbag56
(g72
g58
NtRp1439
(dp1440
g61
(dp1441
sg70
g1423
sg63
(lp1442
g56
(g77
g58
NtRp1443
(dp1444
g61
(dp1445
sg70
g1439
sg63
(lp1446
g56
(g57
g58
NtRp1447
(dp1448
g61
(dp1449
g69
I3
ssg70
g1443
sg63
(lp1450
S'99'
p1451
asbasbasbag56
(g72
g58
NtRp1452
(dp1453
g61
(dp1454
sg70
g1423
sg63
(lp1455
g56
(g77
g58
NtRp1456
(dp1457
g61
(dp1458
sg70
g1452
sg63
(lp1459
g56
(g57
g58
NtRp1460
(dp1461
g61
(dp1462
g69
I3
ssg70
g1456
sg63
(lp1463
S'2'
asbasbasbag56
(g72
g58
NtRp1464
(dp1465
g61
(dp1466
sg70
g1423
sg63
(lp1467
g56
(g77
g58
NtRp1468
(dp1469
g61
(dp1470
sg70
g1464
sg63
(lp1471
g56
(g57
g58
NtRp1472
(dp1473
g61
(dp1474
g69
I3
ssg70
g1468
sg63
(lp1475
S'datetime.datetime(2011, 9, 26, 6, 55, 33)'
p1476
asbasbasbag56
(g72
g58
NtRp1477
(dp1478
g61
(dp1479
sg70
g1423
sg63
(lp1480
g56
(g77
g58
NtRp1481
(dp1482
g61
(dp1483
sg70
g1477
sg63
(lp1484
g56
(g57
g58
NtRp1485
(dp1486
g61
(dp1487
g69
I3
ssg70
g1481
sg63
(lp1488
S'stable'
p1489
asbasbasbasbasbasbasbag56
(g72
g58
NtRp1490
(dp1491
g61
(dp1492
sg70
g697
sg63
(lp1493
g56
(g77
g58
NtRp1494
(dp1495
g61
(dp1496
g81
g82
ssg70
g1490
sg63
(lp1497
S'wsgi_errors'
p1498
asbag56
(g77
g58
NtRp1499
(dp1500
g61
(dp1501
g88
g89
ssg70
g1490
sg63
(lp1502
S':'
asbag56
(g77
g58
NtRp1503
(dp1504
g61
(dp1505
sg70
g1490
sg63
(lp1506
g56
(g57
g58
NtRp1507
(dp1508
g61
(dp1509
g69
I4
ssg70
g1503
sg63
(lp1510
S"<open file '<stderr>', mode 'w' at 0x7fa63791d270>"
p1511
asbasbasbag56
(g72
g58
NtRp1512
(dp1513
g61
(dp1514
sg70
g697
sg63
(lp1515
g56
(g77
g58
NtRp1516
(dp1517
g61
(dp1518
g81
g82
ssg70
g1512
sg63
(lp1519
S'wsgi_file_wrapper'
p1520
asbag56
(g77
g58
NtRp1521
(dp1522
g61
(dp1523
g88
g89
ssg70
g1512
sg63
(lp1524
S':'
asbag56
(g77
g58
NtRp1525
(dp1526
g61
(dp1527
sg70
g1512
sg63
(lp1528
g56
(g57
g58
NtRp1529
(dp1530
g61
(dp1531
g69
I4
ssg70
g1525
sg63
(lp1532
S'<class wsgiref.util.FileWrapper at 0x2901808>'
p1533
asbasbasbag56
(g72
g58
NtRp1534
(dp1535
g61
(dp1536
sg70
g697
sg63
(lp1537
g56
(g77
g58
NtRp1538
(dp1539
g61
(dp1540
g81
g82
ssg70
g1534
sg63
(lp1541
S'wsgi_input'
p1542
asbag56
(g77
g58
NtRp1543
(dp1544
g61
(dp1545
g88
g89
ssg70
g1534
sg63
(lp1546
S':'
asbag56
(g77
g58
NtRp1547
(dp1548
g61
(dp1549
sg70
g1534
sg63
(lp1550
g56
(g57
g58
NtRp1551
(dp1552
g61
(dp1553
g69
I4
ssg70
g1547
sg63
(lp1554
S'<socket._fileobject object at 0x3105950>'
p1555
asbasbasbag56
(g72
g58
NtRp1556
(dp1557
g61
(dp1558
sg70
g697
sg63
(lp1559
g56
(g77
g58
NtRp1560
(dp1561
g61
(dp1562
g81
g82
ssg70
g1556
sg63
(lp1563
S'wsgi_multiprocess'
p1564
asbag56
(g77
g58
NtRp1565
(dp1566
g61
(dp1567
g88
g89
ssg70
g1556
sg63
(lp1568
S':'
asbag56
(g77
g58
NtRp1569
(dp1570
g61
(dp1571
sg70
g1556
sg63
(lp1572
g56
(g57
g58
NtRp1573
(dp1574
g61
(dp1575
g69
I4
ssg70
g1569
sg63
(lp1576
g835
asbasbasbag56
(g72
g58
NtRp1577
(dp1578
g61
(dp1579
sg70
g697
sg63
(lp1580
g56
(g77
g58
NtRp1581
(dp1582
g61
(dp1583
g81
g82
ssg70
g1577
sg63
(lp1584
S'wsgi_multithread'
p1585
asbag56
(g77
g58
NtRp1586
(dp1587
g61
(dp1588
g88
g89
ssg70
g1577
sg63
(lp1589
S':'
asbag56
(g77
g58
NtRp1590
(dp1591
g61
(dp1592
sg70
g1577
sg63
(lp1593
g56
(g57
g58
NtRp1594
(dp1595
g61
(dp1596
g69
I4
ssg70
g1590
sg63
(lp1597
g99
asbasbasbag56
(g72
g58
NtRp1598
(dp1599
g61
(dp1600
sg70
g697
sg63
(lp1601
g56
(g77
g58
NtRp1602
(dp1603
g61
(dp1604
g81
g82
ssg70
g1598
sg63
(lp1605
S'wsgi_run_once'
p1606
asbag56
(g77
g58
NtRp1607
(dp1608
g61
(dp1609
g88
g89
ssg70
g1598
sg63
(lp1610
S':'
asbag56
(g77
g58
NtRp1611
(dp1612
g61
(dp1613
sg70
g1598
sg63
(lp1614
g56
(g57
g58
NtRp1615
(dp1616
g61
(dp1617
g69
I4
ssg70
g1611
sg63
(lp1618
g835
asbasbasbag56
(g72
g58
NtRp1619
(dp1620
g61
(dp1621
sg70
g697
sg63
(lp1622
g56
(g77
g58
NtRp1623
(dp1624
g61
(dp1625
g81
g82
ssg70
g1619
sg63
(lp1626
S'wsgi_url_scheme'
p1627
asbag56
(g77
g58
NtRp1628
(dp1629
g61
(dp1630
g88
g89
ssg70
g1619
sg63
(lp1631
S':'
asbag56
(g77
g58
NtRp1632
(dp1633
g61
(dp1634
sg70
g1619
sg63
(lp1635
g56
(g57
g58
NtRp1636
(dp1637
g61
(dp1638
g69
I4
ssg70
g1632
sg63
(lp1639
S'http'
p1640
asbasbasbag56
(g72
g58
NtRp1641
(dp1642
g61
(dp1643
sg70
g697
sg63
(lp1644
g56
(g77
g58
NtRp1645
(dp1646
g61
(dp1647
g81
g82
ssg70
g1641
sg63
(lp1648
S'wsgi_version'
p1649
asbag56
(g77
g58
NtRp1650
(dp1651
g61
(dp1652
g88
g89
ssg70
g1641
sg63
(lp1653
S':'
asbag56
(g77
g58
NtRp1654
(dp1655
g61
(dp1656
sg70
g1641
sg63
(lp1657
g56
(g57
g58
NtRp1658
(dp1659
g61
(dp1660
g69
I4
ssg70
g1654
sg63
(lp1661
g56
(g65
g58
NtRp1662
(dp1663
g61
(dp1664
g69
I3
ssg70
Nsg63
(lp1665
g56
(g72
g58
NtRp1666
(dp1667
g61
(dp1668
sg70
g1662
sg63
(lp1669
g56
(g77
g58
NtRp1670
(dp1671
g61
(dp1672
sg70
g1666
sg63
(lp1673
g56
(g57
g58
NtRp1674
(dp1675
g61
(dp1676
g69
I3
ssg70
g1670
sg63
(lp1677
S'1'
asbasbasbag56
(g72
g58
NtRp1678
(dp1679
g61
(dp1680
sg70
g1662
sg63
(lp1681
g56
(g77
g58
NtRp1682
(dp1683
g61
(dp1684
sg70
g1678
sg63
(lp1685
g56
(g57
g58
NtRp1686
(dp1687
g61
(dp1688
g69
I3
ssg70
g1682
sg63
(lp1689
S'0'
asbasbasbasbasbasbasbasbasbasbasbag56
(g72
g58
NtRp1690
(dp1691
g61
(dp1692
sg70
g66
sg63
(lp1693
g56
(g77
g58
NtRp1694
(dp1695
g61
(dp1696
g81
g82
ssg70
g1690
sg63
(lp1697
S'extension'
p1698
asbag56
(g77
g58
NtRp1699
(dp1700
g61
(dp1701
g88
g89
ssg70
g1690
sg63
(lp1702
S':'
asbag56
(g77
g58
NtRp1703
(dp1704
g61
(dp1705
sg70
g1690
sg63
(lp1706
g56
(g57
g58
NtRp1707
(dp1708
g61
(dp1709
g69
I5
ssg70
g1703
sg63
(lp1710
S'load'
p1711
asbasbasbag56
(g72
g58
NtRp1712
(dp1713
g61
(dp1714
sg70
g66
sg63
(lp1715
g56
(g77
g58
NtRp1716
(dp1717
g61
(dp1718
g81
g82
ssg70
g1712
sg63
(lp1719
S'folder'
p1720
asbag56
(g77
g58
NtRp1721
(dp1722
g61
(dp1723
g88
g89
ssg70
g1712
sg63
(lp1724
S':'
asbag56
(g77
g58
NtRp1725
(dp1726
g61
(dp1727
sg70
g1712
sg63
(lp1728
g56
(g57
g58
NtRp1729
(dp1730
g61
(dp1731
g69
I5
ssg70
g1725
sg63
(lp1732
S'/home/ian/web2py/applications/topoi/'
p1733
asbasbasbag56
(g72
g58
NtRp1734
(dp1735
g61
(dp1736
sg70
g66
sg63
(lp1737
g56
(g77
g58
NtRp1738
(dp1739
g61
(dp1740
g81
g82
ssg70
g1734
sg63
(lp1741
S'function'
p1742
asbag56
(g77
g58
NtRp1743
(dp1744
g61
(dp1745
g88
g89
ssg70
g1734
sg63
(lp1746
S':'
asbag56
(g77
g58
NtRp1747
(dp1748
g61
(dp1749
sg70
g1734
sg63
(lp1750
g56
(g57
g58
NtRp1751
(dp1752
g61
(dp1753
g69
I5
ssg70
g1747
sg63
(lp1754
S'set_widget'
p1755
asbasbasbag56
(g72
g58
NtRp1756
(dp1757
g61
(dp1758
sg70
g66
sg63
(lp1759
g56
(g77
g58
NtRp1760
(dp1761
g61
(dp1762
g81
g82
ssg70
g1756
sg63
(lp1763
S'get_vars'
p1764
asbag56
(g77
g58
NtRp1765
(dp1766
g61
(dp1767
g88
g89
ssg70
g1756
sg63
(lp1768
S':'
asbag56
(g77
g58
NtRp1769
(dp1770
g61
(dp1771
sg70
g1756
sg63
(lp1772
g56
(g57
g58
NtRp1773
(dp1774
g61
(dp1775
g69
I5
ssg70
g1769
sg63
(lp1776
g56
(g65
g58
NtRp1777
(dp1778
g61
(dp1779
g69
I4
ssg70
Nsg63
(lp1780
sbasbasbasbag56
(g72
g58
NtRp1781
(dp1782
g61
(dp1783
sg70
g66
sg63
(lp1784
g56
(g77
g58
NtRp1785
(dp1786
g61
(dp1787
g81
g82
ssg70
g1781
sg63
(lp1788
S'global_settings'
p1789
asbag56
(g77
g58
NtRp1790
(dp1791
g61
(dp1792
g88
g89
ssg70
g1781
sg63
(lp1793
S':'
asbag56
(g77
g58
NtRp1794
(dp1795
g61
(dp1796
sg70
g1781
sg63
(lp1797
g56
(g57
g58
NtRp1798
(dp1799
g61
(dp1800
g69
I5
ssg70
g1794
sg63
(lp1801
g56
(g65
g58
NtRp1802
(dp1803
g61
(dp1804
g69
I4
ssg70
Nsg63
(lp1805
g56
(g72
g58
NtRp1806
(dp1807
g61
(dp1808
sg70
g1802
sg63
(lp1809
g56
(g77
g58
NtRp1810
(dp1811
g61
(dp1812
g81
g82
ssg70
g1806
sg63
(lp1813
g709
asbag56
(g77
g58
NtRp1814
(dp1815
g61
(dp1816
g88
g89
ssg70
g1806
sg63
(lp1817
S':'
asbag56
(g77
g58
NtRp1818
(dp1819
g61
(dp1820
sg70
g1806
sg63
(lp1821
g56
(g57
g58
NtRp1822
(dp1823
g61
(dp1824
g69
I4
ssg70
g1818
sg63
(lp1825
S"set(['/home/ian/web2py/applications/topoi/', '/home/ian/web2py/applications/welcome/', '/home/ian/web2py/applications/admin/'])"
p1826
asbasbasbag56
(g72
g58
NtRp1827
(dp1828
g61
(dp1829
sg70
g1802
sg63
(lp1830
g56
(g77
g58
NtRp1831
(dp1832
g61
(dp1833
g81
g82
ssg70
g1827
sg63
(lp1834
g731
asbag56
(g77
g58
NtRp1835
(dp1836
g61
(dp1837
g88
g89
ssg70
g1827
sg63
(lp1838
S':'
asbag56
(g77
g58
NtRp1839
(dp1840
g61
(dp1841
sg70
g1827
sg63
(lp1842
g56
(g57
g58
NtRp1843
(dp1844
g61
(dp1845
g69
I4
ssg70
g1839
sg63
(lp1846
g744
asbasbasbag56
(g72
g58
NtRp1847
(dp1848
g61
(dp1849
sg70
g1802
sg63
(lp1850
g56
(g77
g58
NtRp1851
(dp1852
g61
(dp1853
g81
g82
ssg70
g1847
sg63
(lp1854
g753
asbag56
(g77
g58
NtRp1855
(dp1856
g61
(dp1857
g88
g89
ssg70
g1847
sg63
(lp1858
S':'
asbag56
(g77
g58
NtRp1859
(dp1860
g61
(dp1861
sg70
g1847
sg63
(lp1862
g56
(g57
g58
NtRp1863
(dp1864
g61
(dp1865
g69
I4
ssg70
g1859
sg63
(lp1866
g56
(g65
g58
NtRp1867
(dp1868
g61
(dp1869
g69
I3
ssg70
Nsg63
(lp1870
sbasbasbasbag56
(g72
g58
NtRp1871
(dp1872
g61
(dp1873
sg70
g1802
sg63
(lp1874
g56
(g77
g58
NtRp1875
(dp1876
g61
(dp1877
g81
g82
ssg70
g1871
sg63
(lp1878
g778
asbag56
(g77
g58
NtRp1879
(dp1880
g61
(dp1881
g88
g89
ssg70
g1871
sg63
(lp1882
S':'
asbag56
(g77
g58
NtRp1883
(dp1884
g61
(dp1885
sg70
g1871
sg63
(lp1886
g56
(g57
g58
NtRp1887
(dp1888
g61
(dp1889
g69
I4
ssg70
g1883
sg63
(lp1890
S"<Values at 0x2a387e8: {'verbose': False, 'ip': '127.0.0.1', 'shutdown_timeout': 5, 'taskbar': False, 'nocron': False, 'pid_filename': 'httpserver.pid', 'maxthreads': None, 'softcron': False, 'server_name': 'Ariel-ubuntu', 'bpython': False, 'nogui': False, 'port': 8000, 'extcron': False, 'debuglevel': 30, 'test': None, 'folder': '/home/ian/web2py', 'config': '', 'import_models': False, 'winservice': '', 'shell': None, 'run': '', 'log_filename': 'httpserver.log', 'args': [''], 'ssl_ca_certificate': None, 'scheduler': None, 'profiler_filename': None, 'ssl_private_key': '', 'password': '<ask>', 'request_queue_size': 5, 'ssl_certificate': '', 'cronjob': False, 'plain': False, 'quiet': False, 'interfaces': None, 'minthreads': None, 'timeout': 10, 'numthreads': None, 'nobanner': False}>"
p1891
asbasbasbag56
(g72
g58
NtRp1892
(dp1893
g61
(dp1894
sg70
g1802
sg63
(lp1895
g56
(g77
g58
NtRp1896
(dp1897
g61
(dp1898
g81
g82
ssg70
g1892
sg63
(lp1899
g800
asbag56
(g77
g58
NtRp1900
(dp1901
g61
(dp1902
g88
g89
ssg70
g1892
sg63
(lp1903
S':'
asbag56
(g77
g58
NtRp1904
(dp1905
g61
(dp1906
sg70
g1892
sg63
(lp1907
g56
(g57
g58
NtRp1908
(dp1909
g61
(dp1910
g69
I4
ssg70
g1904
sg63
(lp1911
S'set([])'
p1912
asbasbasbag56
(g72
g58
NtRp1913
(dp1914
g61
(dp1915
sg70
g1802
sg63
(lp1916
g56
(g77
g58
NtRp1917
(dp1918
g61
(dp1919
g81
g82
ssg70
g1913
sg63
(lp1920
g822
asbag56
(g77
g58
NtRp1921
(dp1922
g61
(dp1923
g88
g89
ssg70
g1913
sg63
(lp1924
S':'
asbag56
(g77
g58
NtRp1925
(dp1926
g61
(dp1927
sg70
g1913
sg63
(lp1928
g56
(g57
g58
NtRp1929
(dp1930
g61
(dp1931
g69
I4
ssg70
g1925
sg63
(lp1932
g835
asbasbasbag56
(g72
g58
NtRp1933
(dp1934
g61
(dp1935
sg70
g1802
sg63
(lp1936
g56
(g77
g58
NtRp1937
(dp1938
g61
(dp1939
g81
g82
ssg70
g1933
sg63
(lp1940
g844
asbag56
(g77
g58
NtRp1941
(dp1942
g61
(dp1943
g88
g89
ssg70
g1933
sg63
(lp1944
S':'
asbag56
(g77
g58
NtRp1945
(dp1946
g61
(dp1947
sg70
g1933
sg63
(lp1948
g56
(g57
g58
NtRp1949
(dp1950
g61
(dp1951
g69
I4
ssg70
g1945
sg63
(lp1952
g857
asbasbasbag56
(g72
g58
NtRp1953
(dp1954
g61
(dp1955
sg70
g1802
sg63
(lp1956
g56
(g77
g58
NtRp1957
(dp1958
g61
(dp1959
g81
g82
ssg70
g1953
sg63
(lp1960
g1129
asbag56
(g77
g58
NtRp1961
(dp1962
g61
(dp1963
g88
g89
ssg70
g1953
sg63
(lp1964
S':'
asbag56
(g77
g58
NtRp1965
(dp1966
g61
(dp1967
sg70
g1953
sg63
(lp1968
g56
(g57
g58
NtRp1969
(dp1970
g61
(dp1971
g69
I4
ssg70
g1965
sg63
(lp1972
g835
asbasbasbag56
(g72
g58
NtRp1973
(dp1974
g61
(dp1975
sg70
g1802
sg63
(lp1976
g56
(g77
g58
NtRp1977
(dp1978
g61
(dp1979
g81
g82
ssg70
g1973
sg63
(lp1980
g1367
asbag56
(g77
g58
NtRp1981
(dp1982
g61
(dp1983
g88
g89
ssg70
g1973
sg63
(lp1984
S':'
asbag56
(g77
g58
NtRp1985
(dp1986
g61
(dp1987
sg70
g1973
sg63
(lp1988
g56
(g57
g58
NtRp1989
(dp1990
g61
(dp1991
g69
I4
ssg70
g1985
sg63
(lp1992
g1380
asbasbasbag56
(g72
g58
NtRp1993
(dp1994
g61
(dp1995
sg70
g1802
sg63
(lp1996
g56
(g77
g58
NtRp1997
(dp1998
g61
(dp1999
g81
g82
ssg70
g1993
sg63
(lp2000
g1410
asbag56
(g77
g58
NtRp2001
(dp2002
g61
(dp2003
g88
g89
ssg70
g1993
sg63
(lp2004
S':'
asbag56
(g77
g58
NtRp2005
(dp2006
g61
(dp2007
sg70
g1993
sg63
(lp2008
g56
(g57
g58
NtRp2009
(dp2010
g61
(dp2011
g69
I4
ssg70
g2005
sg63
(lp2012
g56
(g65
g58
NtRp2013
(dp2014
g61
(dp2015
g69
I3
ssg70
Nsg63
(lp2016
g56
(g72
g58
NtRp2017
(dp2018
g61
(dp2019
sg70
g2013
sg63
(lp2020
g56
(g77
g58
NtRp2021
(dp2022
g61
(dp2023
sg70
g2017
sg63
(lp2024
g56
(g57
g58
NtRp2025
(dp2026
g61
(dp2027
g69
I3
ssg70
g2021
sg63
(lp2028
S'1'
asbasbasbag56
(g72
g58
NtRp2029
(dp2030
g61
(dp2031
sg70
g2013
sg63
(lp2032
g56
(g77
g58
NtRp2033
(dp2034
g61
(dp2035
sg70
g2029
sg63
(lp2036
g56
(g57
g58
NtRp2037
(dp2038
g61
(dp2039
g69
I3
ssg70
g2033
sg63
(lp2040
S'99'
p2041
asbasbasbag56
(g72
g58
NtRp2042
(dp2043
g61
(dp2044
sg70
g2013
sg63
(lp2045
g56
(g77
g58
NtRp2046
(dp2047
g61
(dp2048
sg70
g2042
sg63
(lp2049
g56
(g57
g58
NtRp2050
(dp2051
g61
(dp2052
g69
I3
ssg70
g2046
sg63
(lp2053
S'2'
asbasbasbag56
(g72
g58
NtRp2054
(dp2055
g61
(dp2056
sg70
g2013
sg63
(lp2057
g56
(g77
g58
NtRp2058
(dp2059
g61
(dp2060
sg70
g2054
sg63
(lp2061
g56
(g57
g58
NtRp2062
(dp2063
g61
(dp2064
g69
I3
ssg70
g2058
sg63
(lp2065
S'datetime.datetime(2011, 9, 26, 6, 55, 33)'
p2066
asbasbasbag56
(g72
g58
NtRp2067
(dp2068
g61
(dp2069
sg70
g2013
sg63
(lp2070
g56
(g77
g58
NtRp2071
(dp2072
g61
(dp2073
sg70
g2067
sg63
(lp2074
g56
(g57
g58
NtRp2075
(dp2076
g61
(dp2077
g69
I3
ssg70
g2071
sg63
(lp2078
g1489
asbasbasbasbasbasbasbasbasbasbasbag56
(g72
g58
NtRp2079
(dp2080
g61
(dp2081
sg70
g66
sg63
(lp2082
g56
(g77
g58
NtRp2083
(dp2084
g61
(dp2085
g81
g82
ssg70
g2079
sg63
(lp2086
S'is_https'
p2087
asbag56
(g77
g58
NtRp2088
(dp2089
g61
(dp2090
g88
g89
ssg70
g2079
sg63
(lp2091
S':'
asbag56
(g77
g58
NtRp2092
(dp2093
g61
(dp2094
sg70
g2079
sg63
(lp2095
g56
(g57
g58
NtRp2096
(dp2097
g61
(dp2098
g69
I5
ssg70
g2092
sg63
(lp2099
g835
asbasbasbag56
(g72
g58
NtRp2100
(dp2101
g61
(dp2102
sg70
g66
sg63
(lp2103
g56
(g77
g58
NtRp2104
(dp2105
g61
(dp2106
g81
g82
ssg70
g2100
sg63
(lp2107
S'is_local'
p2108
asbag56
(g77
g58
NtRp2109
(dp2110
g61
(dp2111
g88
g89
ssg70
g2100
sg63
(lp2112
S':'
asbag56
(g77
g58
NtRp2113
(dp2114
g61
(dp2115
sg70
g2100
sg63
(lp2116
g56
(g57
g58
NtRp2117
(dp2118
g61
(dp2119
g69
I5
ssg70
g2113
sg63
(lp2120
g99
asbasbasbag56
(g72
g58
NtRp2121
(dp2122
g61
(dp2123
sg70
g66
sg63
(lp2124
g56
(g77
g58
NtRp2125
(dp2126
g61
(dp2127
g81
g82
ssg70
g2121
sg63
(lp2128
S'is_restful'
p2129
asbag56
(g77
g58
NtRp2130
(dp2131
g61
(dp2132
g88
g89
ssg70
g2121
sg63
(lp2133
S':'
asbag56
(g77
g58
NtRp2134
(dp2135
g61
(dp2136
sg70
g2121
sg63
(lp2137
g56
(g57
g58
NtRp2138
(dp2139
g61
(dp2140
g69
I5
ssg70
g2134
sg63
(lp2141
g835
asbasbasbag56
(g72
g58
NtRp2142
(dp2143
g61
(dp2144
sg70
g66
sg63
(lp2145
g56
(g77
g58
NtRp2146
(dp2147
g61
(dp2148
g81
g82
ssg70
g2142
sg63
(lp2149
S'now'
p2150
asbag56
(g77
g58
NtRp2151
(dp2152
g61
(dp2153
g88
g89
ssg70
g2142
sg63
(lp2154
S':'
asbag56
(g77
g58
NtRp2155
(dp2156
g61
(dp2157
sg70
g2142
sg63
(lp2158
g56
(g57
g58
NtRp2159
(dp2160
g61
(dp2161
g69
I5
ssg70
g2155
sg63
(lp2162
S'datetime.datetime(2011, 12, 14, 20, 9, 58, 186017)'
p2163
asbasbasbag56
(g72
g58
NtRp2164
(dp2165
g61
(dp2166
sg70
g66
sg63
(lp2167
g56
(g77
g58
NtRp2168
(dp2169
g61
(dp2170
g81
g82
ssg70
g2164
sg63
(lp2171
S'post_vars'
p2172
asbag56
(g77
g58
NtRp2173
(dp2174
g61
(dp2175
g88
g89
ssg70
g2164
sg63
(lp2176
S':'
asbag56
(g77
g58
NtRp2177
(dp2178
g61
(dp2179
sg70
g2164
sg63
(lp2180
g56
(g57
g58
NtRp2181
(dp2182
g61
(dp2183
g69
I5
ssg70
g2177
sg63
(lp2184
g56
(g65
g58
NtRp2185
(dp2186
g61
(dp2187
g69
I4
ssg70
Nsg63
(lp2188
sbasbasbasbag56
(g72
g58
NtRp2189
(dp2190
g61
(dp2191
sg70
g66
sg63
(lp2192
g56
(g77
g58
NtRp2193
(dp2194
g61
(dp2195
g81
g82
ssg70
g2189
sg63
(lp2196
S'raw_args'
p2197
asbag56
(g77
g58
NtRp2198
(dp2199
g61
(dp2200
g88
g89
ssg70
g2189
sg63
(lp2201
S':'
asbag56
(g77
g58
NtRp2202
(dp2203
g61
(dp2204
sg70
g2189
sg63
(lp2205
g56
(g57
g58
NtRp2206
(dp2207
g61
(dp2208
g69
I5
ssg70
g2202
sg63
(lp2209
S'notes/author/10'
p2210
asbasbasbag56
(g72
g58
NtRp2211
(dp2212
g61
(dp2213
sg70
g66
sg63
(lp2214
g56
(g77
g58
NtRp2215
(dp2216
g61
(dp2217
g81
g82
ssg70
g2211
sg63
(lp2218
S'raw_extension'
p2219
asbag56
(g77
g58
NtRp2220
(dp2221
g61
(dp2222
g88
g89
ssg70
g2211
sg63
(lp2223
S':'
asbag56
(g77
g58
NtRp2224
(dp2225
g61
(dp2226
sg70
g2211
sg63
(lp2227
g56
(g57
g58
NtRp2228
(dp2229
g61
(dp2230
g69
I5
ssg70
g2224
sg63
(lp2231
g1711
asbasbasbag56
(g72
g58
NtRp2232
(dp2233
g61
(dp2234
sg70
g66
sg63
(lp2235
g56
(g77
g58
NtRp2236
(dp2237
g61
(dp2238
g81
g82
ssg70
g2232
sg63
(lp2239
S'url'
p2240
asbag56
(g77
g58
NtRp2241
(dp2242
g61
(dp2243
g88
g89
ssg70
g2232
sg63
(lp2244
S':'
asbag56
(g77
g58
NtRp2245
(dp2246
g61
(dp2247
sg70
g2232
sg63
(lp2248
g56
(g57
g58
NtRp2249
(dp2250
g61
(dp2251
g69
I5
ssg70
g2245
sg63
(lp2252
S'/topoi/plugin_ajaxselect/set_widget.load/notes/author/10'
p2253
asbasbasbag56
(g72
g58
NtRp2254
(dp2255
g61
(dp2256
sg70
g66
sg63
(lp2257
g56
(g77
g58
NtRp2258
(dp2259
g61
(dp2260
g81
g82
ssg70
g2254
sg63
(lp2261
S'utcnow'
p2262
asbag56
(g77
g58
NtRp2263
(dp2264
g61
(dp2265
g88
g89
ssg70
g2254
sg63
(lp2266
S':'
asbag56
(g77
g58
NtRp2267
(dp2268
g61
(dp2269
sg70
g2254
sg63
(lp2270
g56
(g57
g58
NtRp2271
(dp2272
g61
(dp2273
g69
I5
ssg70
g2267
sg63
(lp2274
S'datetime.datetime(2011, 12, 15, 1, 9, 58, 186084)'
p2275
asbasbasbag56
(g72
g58
NtRp2276
(dp2277
g61
(dp2278
sg70
g66
sg63
(lp2279
g56
(g77
g58
NtRp2280
(dp2281
g61
(dp2282
g81
g82
ssg70
g2276
sg63
(lp2283
S'uuid'
p2284
asbag56
(g77
g58
NtRp2285
(dp2286
g61
(dp2287
g88
g89
ssg70
g2276
sg63
(lp2288
S':'
asbag56
(g77
g58
NtRp2289
(dp2290
g61
(dp2291
sg70
g2276
sg63
(lp2292
g56
(g57
g58
NtRp2293
(dp2294
g61
(dp2295
g69
I5
ssg70
g2289
sg63
(lp2296
S'topoi/127.0.0.1.2011-12-14.20-09-58.0763bd46-7ddf-4d61-acd2-14d102253568'
p2297
asbasbasbag56
(g72
g58
NtRp2298
(dp2299
g61
(dp2300
sg70
g66
sg63
(lp2301
g56
(g77
g58
NtRp2302
(dp2303
g61
(dp2304
g81
g82
ssg70
g2298
sg63
(lp2305
S'vars'
p2306
asbag56
(g77
g58
NtRp2307
(dp2308
g61
(dp2309
g88
g89
ssg70
g2298
sg63
(lp2310
S':'
asbag56
(g77
g58
NtRp2311
(dp2312
g61
(dp2313
sg70
g2298
sg63
(lp2314
g56
(g57
g58
NtRp2315
(dp2316
g61
(dp2317
g69
I5
ssg70
g2311
sg63
(lp2318
g56
(g65
g58
NtRp2319
(dp2320
g61
(dp2321
g69
I4
ssg70
Nsg63
(lp2322
sbasbasbasbag56
(g72
g58
NtRp2323
(dp2324
g61
(dp2325
sg70
g66
sg63
(lp2326
g56
(g77
g58
NtRp2327
(dp2328
g61
(dp2329
g81
g82
ssg70
g2323
sg63
(lp2330
S'wsgi'
p2331
asbag56
(g77
g58
NtRp2332
(dp2333
g61
(dp2334
g88
g89
ssg70
g2323
sg63
(lp2335
S':'
asbag56
(g77
g58
NtRp2336
(dp2337
g61
(dp2338
sg70
g2323
sg63
(lp2339
g56
(g57
g58
NtRp2340
(dp2341
g61
(dp2342
g69
I5
ssg70
g2336
sg63
(lp2343
g56
(g65
g58
NtRp2344
(dp2345
g61
(dp2346
g69
I4
ssg70
Nsg63
(lp2347
g56
(g72
g58
NtRp2348
(dp2349
g61
(dp2350
sg70
g2344
sg63
(lp2351
g56
(g77
g58
NtRp2352
(dp2353
g61
(dp2354
g81
g82
ssg70
g2348
sg63
(lp2355
S'environ'
p2356
asbag56
(g77
g58
NtRp2357
(dp2358
g61
(dp2359
g88
g89
ssg70
g2348
sg63
(lp2360
S':'
asbag56
(g77
g58
NtRp2361
(dp2362
g61
(dp2363
sg70
g2348
sg63
(lp2364
g56
(g57
g58
NtRp2365
(dp2366
g61
(dp2367
g69
I4
ssg70
g2361
sg63
(lp2368
g56
(g65
g58
NtRp2369
(dp2370
g61
(dp2371
g69
I3
ssg70
Nsg63
(lp2372
g56
(g72
g58
NtRp2373
(dp2374
g61
(dp2375
sg70
g2369
sg63
(lp2376
g56
(g77
g58
NtRp2377
(dp2378
g61
(dp2379
g81
g82
ssg70
g2373
sg63
(lp2380
S'HTTP_ACCEPT'
p2381
asbag56
(g77
g58
NtRp2382
(dp2383
g61
(dp2384
g88
g89
ssg70
g2373
sg63
(lp2385
S':'
asbag56
(g77
g58
NtRp2386
(dp2387
g61
(dp2388
sg70
g2373
sg63
(lp2389
g56
(g57
g58
NtRp2390
(dp2391
g61
(dp2392
g69
I3
ssg70
g2386
sg63
(lp2393
g879
asbasbasbag56
(g72
g58
NtRp2394
(dp2395
g61
(dp2396
sg70
g2369
sg63
(lp2397
g56
(g77
g58
NtRp2398
(dp2399
g61
(dp2400
g81
g82
ssg70
g2394
sg63
(lp2401
S'HTTP_ACCEPT_CHARSET'
p2402
asbag56
(g77
g58
NtRp2403
(dp2404
g61
(dp2405
g88
g89
ssg70
g2394
sg63
(lp2406
S':'
asbag56
(g77
g58
NtRp2407
(dp2408
g61
(dp2409
sg70
g2394
sg63
(lp2410
g56
(g57
g58
NtRp2411
(dp2412
g61
(dp2413
g69
I3
ssg70
g2407
sg63
(lp2414
g901
asbasbasbag56
(g72
g58
NtRp2415
(dp2416
g61
(dp2417
sg70
g2369
sg63
(lp2418
g56
(g77
g58
NtRp2419
(dp2420
g61
(dp2421
g81
g82
ssg70
g2415
sg63
(lp2422
S'HTTP_ACCEPT_ENCODING'
p2423
asbag56
(g77
g58
NtRp2424
(dp2425
g61
(dp2426
g88
g89
ssg70
g2415
sg63
(lp2427
S':'
asbag56
(g77
g58
NtRp2428
(dp2429
g61
(dp2430
sg70
g2415
sg63
(lp2431
g56
(g57
g58
NtRp2432
(dp2433
g61
(dp2434
g69
I3
ssg70
g2428
sg63
(lp2435
g923
asbasbasbag56
(g72
g58
NtRp2436
(dp2437
g61
(dp2438
sg70
g2369
sg63
(lp2439
g56
(g77
g58
NtRp2440
(dp2441
g61
(dp2442
g81
g82
ssg70
g2436
sg63
(lp2443
S'HTTP_ACCEPT_LANGUAGE'
p2444
asbag56
(g77
g58
NtRp2445
(dp2446
g61
(dp2447
g88
g89
ssg70
g2436
sg63
(lp2448
S':'
asbag56
(g77
g58
NtRp2449
(dp2450
g61
(dp2451
sg70
g2436
sg63
(lp2452
g56
(g57
g58
NtRp2453
(dp2454
g61
(dp2455
g69
I3
ssg70
g2449
sg63
(lp2456
g945
asbasbasbag56
(g72
g58
NtRp2457
(dp2458
g61
(dp2459
sg70
g2369
sg63
(lp2460
g56
(g77
g58
NtRp2461
(dp2462
g61
(dp2463
g81
g82
ssg70
g2457
sg63
(lp2464
S'HTTP_CONNECTION'
p2465
asbag56
(g77
g58
NtRp2466
(dp2467
g61
(dp2468
g88
g89
ssg70
g2457
sg63
(lp2469
S':'
asbag56
(g77
g58
NtRp2470
(dp2471
g61
(dp2472
sg70
g2457
sg63
(lp2473
g56
(g57
g58
NtRp2474
(dp2475
g61
(dp2476
g69
I3
ssg70
g2470
sg63
(lp2477
g967
asbasbasbag56
(g72
g58
NtRp2478
(dp2479
g61
(dp2480
sg70
g2369
sg63
(lp2481
g56
(g77
g58
NtRp2482
(dp2483
g61
(dp2484
g81
g82
ssg70
g2478
sg63
(lp2485
S'HTTP_COOKIE'
p2486
asbag56
(g77
g58
NtRp2487
(dp2488
g61
(dp2489
g88
g89
ssg70
g2478
sg63
(lp2490
S':'
asbag56
(g77
g58
NtRp2491
(dp2492
g61
(dp2493
sg70
g2478
sg63
(lp2494
g56
(g57
g58
NtRp2495
(dp2496
g61
(dp2497
g69
I3
ssg70
g2491
sg63
(lp2498
g989
asbasbasbag56
(g72
g58
NtRp2499
(dp2500
g61
(dp2501
sg70
g2369
sg63
(lp2502
g56
(g77
g58
NtRp2503
(dp2504
g61
(dp2505
g81
g82
ssg70
g2499
sg63
(lp2506
S'HTTP_HOST'
p2507
asbag56
(g77
g58
NtRp2508
(dp2509
g61
(dp2510
g88
g89
ssg70
g2499
sg63
(lp2511
S':'
asbag56
(g77
g58
NtRp2512
(dp2513
g61
(dp2514
sg70
g2499
sg63
(lp2515
g56
(g57
g58
NtRp2516
(dp2517
g61
(dp2518
g69
I3
ssg70
g2512
sg63
(lp2519
g1011
asbasbasbag56
(g72
g58
NtRp2520
(dp2521
g61
(dp2522
sg70
g2369
sg63
(lp2523
g56
(g77
g58
NtRp2524
(dp2525
g61
(dp2526
g81
g82
ssg70
g2520
sg63
(lp2527
S'HTTP_REFERER'
p2528
asbag56
(g77
g58
NtRp2529
(dp2530
g61
(dp2531
g88
g89
ssg70
g2520
sg63
(lp2532
S':'
asbag56
(g77
g58
NtRp2533
(dp2534
g61
(dp2535
sg70
g2520
sg63
(lp2536
g56
(g57
g58
NtRp2537
(dp2538
g61
(dp2539
g69
I3
ssg70
g2533
sg63
(lp2540
g1033
asbasbasbag56
(g72
g58
NtRp2541
(dp2542
g61
(dp2543
sg70
g2369
sg63
(lp2544
g56
(g77
g58
NtRp2545
(dp2546
g61
(dp2547
g81
g82
ssg70
g2541
sg63
(lp2548
S'HTTP_USER_AGENT'
p2549
asbag56
(g77
g58
NtRp2550
(dp2551
g61
(dp2552
g88
g89
ssg70
g2541
sg63
(lp2553
S':'
asbag56
(g77
g58
NtRp2554
(dp2555
g61
(dp2556
sg70
g2541
sg63
(lp2557
g56
(g57
g58
NtRp2558
(dp2559
g61
(dp2560
g69
I3
ssg70
g2554
sg63
(lp2561
g1055
asbasbasbag56
(g72
g58
NtRp2562
(dp2563
g61
(dp2564
sg70
g2369
sg63
(lp2565
g56
(g77
g58
NtRp2566
(dp2567
g61
(dp2568
g81
g82
ssg70
g2562
sg63
(lp2569
S'HTTP_WEB2PY_COMPONENT_ELEMENT'
p2570
asbag56
(g77
g58
NtRp2571
(dp2572
g61
(dp2573
g88
g89
ssg70
g2562
sg63
(lp2574
S':'
asbag56
(g77
g58
NtRp2575
(dp2576
g61
(dp2577
sg70
g2562
sg63
(lp2578
g56
(g57
g58
NtRp2579
(dp2580
g61
(dp2581
g69
I3
ssg70
g2575
sg63
(lp2582
g228
asbasbasbag56
(g72
g58
NtRp2583
(dp2584
g61
(dp2585
sg70
g2369
sg63
(lp2586
g56
(g77
g58
NtRp2587
(dp2588
g61
(dp2589
g81
g82
ssg70
g2583
sg63
(lp2590
S'HTTP_WEB2PY_COMPONENT_LOCATION'
p2591
asbag56
(g77
g58
NtRp2592
(dp2593
g61
(dp2594
g88
g89
ssg70
g2583
sg63
(lp2595
S':'
asbag56
(g77
g58
NtRp2596
(dp2597
g61
(dp2598
sg70
g2583
sg63
(lp2599
g56
(g57
g58
NtRp2600
(dp2601
g61
(dp2602
g69
I3
ssg70
g2596
sg63
(lp2603
g1098
asbasbasbag56
(g72
g58
NtRp2604
(dp2605
g61
(dp2606
sg70
g2369
sg63
(lp2607
g56
(g77
g58
NtRp2608
(dp2609
g61
(dp2610
g81
g82
ssg70
g2604
sg63
(lp2611
S'HTTP_X_REQUESTED_WITH'
p2612
asbag56
(g77
g58
NtRp2613
(dp2614
g61
(dp2615
g88
g89
ssg70
g2604
sg63
(lp2616
S':'
asbag56
(g77
g58
NtRp2617
(dp2618
g61
(dp2619
sg70
g2604
sg63
(lp2620
g56
(g57
g58
NtRp2621
(dp2622
g61
(dp2623
g69
I3
ssg70
g2617
sg63
(lp2624
g1120
asbasbasbag56
(g72
g58
NtRp2625
(dp2626
g61
(dp2627
sg70
g2369
sg63
(lp2628
g56
(g77
g58
NtRp2629
(dp2630
g61
(dp2631
g81
g82
ssg70
g2625
sg63
(lp2632
S'PATH_INFO'
p2633
asbag56
(g77
g58
NtRp2634
(dp2635
g61
(dp2636
g88
g89
ssg70
g2625
sg63
(lp2637
S':'
asbag56
(g77
g58
NtRp2638
(dp2639
g61
(dp2640
sg70
g2625
sg63
(lp2641
g56
(g57
g58
NtRp2642
(dp2643
g61
(dp2644
g69
I3
ssg70
g2638
sg63
(lp2645
g1163
asbasbasbag56
(g72
g58
NtRp2646
(dp2647
g61
(dp2648
sg70
g2369
sg63
(lp2649
g56
(g77
g58
NtRp2650
(dp2651
g61
(dp2652
g81
g82
ssg70
g2646
sg63
(lp2653
S'QUERY_STRING'
p2654
asbag56
(g77
g58
NtRp2655
(dp2656
g61
(dp2657
g88
g89
ssg70
g2646
sg63
(lp2658
S':'
asbag56
(g77
g58
NtRp2659
(dp2660
g61
(dp2661
sg70
g2646
sg63
(lp2662
g56
(g57
g58
NtRp2663
(dp2664
g61
(dp2665
g69
I3
ssg70
g2659
sg63
(lp2666
S''
asbasbasbag56
(g72
g58
NtRp2667
(dp2668
g61
(dp2669
sg70
g2369
sg63
(lp2670
g56
(g77
g58
NtRp2671
(dp2672
g61
(dp2673
g81
g82
ssg70
g2667
sg63
(lp2674
S'REMOTE_ADDR'
p2675
asbag56
(g77
g58
NtRp2676
(dp2677
g61
(dp2678
g88
g89
ssg70
g2667
sg63
(lp2679
S':'
asbag56
(g77
g58
NtRp2680
(dp2681
g61
(dp2682
sg70
g2667
sg63
(lp2683
g56
(g57
g58
NtRp2684
(dp2685
g61
(dp2686
g69
I3
ssg70
g2680
sg63
(lp2687
g250
asbasbasbag56
(g72
g58
NtRp2688
(dp2689
g61
(dp2690
sg70
g2369
sg63
(lp2691
g56
(g77
g58
NtRp2692
(dp2693
g61
(dp2694
g81
g82
ssg70
g2688
sg63
(lp2695
S'REMOTE_PORT'
p2696
asbag56
(g77
g58
NtRp2697
(dp2698
g61
(dp2699
g88
g89
ssg70
g2688
sg63
(lp2700
S':'
asbag56
(g77
g58
NtRp2701
(dp2702
g61
(dp2703
sg70
g2688
sg63
(lp2704
g56
(g57
g58
NtRp2705
(dp2706
g61
(dp2707
g69
I3
ssg70
g2701
sg63
(lp2708
g1227
asbasbasbag56
(g72
g58
NtRp2709
(dp2710
g61
(dp2711
sg70
g2369
sg63
(lp2712
g56
(g77
g58
NtRp2713
(dp2714
g61
(dp2715
g81
g82
ssg70
g2709
sg63
(lp2716
S'REQUEST_METHOD'
p2717
asbag56
(g77
g58
NtRp2718
(dp2719
g61
(dp2720
g88
g89
ssg70
g2709
sg63
(lp2721
S':'
asbag56
(g77
g58
NtRp2722
(dp2723
g61
(dp2724
sg70
g2709
sg63
(lp2725
g56
(g57
g58
NtRp2726
(dp2727
g61
(dp2728
g69
I3
ssg70
g2722
sg63
(lp2729
g1249
asbasbasbag56
(g72
g58
NtRp2730
(dp2731
g61
(dp2732
sg70
g2369
sg63
(lp2733
g56
(g77
g58
NtRp2734
(dp2735
g61
(dp2736
g81
g82
ssg70
g2730
sg63
(lp2737
S'SCRIPT_NAME'
p2738
asbag56
(g77
g58
NtRp2739
(dp2740
g61
(dp2741
g88
g89
ssg70
g2730
sg63
(lp2742
S':'
asbag56
(g77
g58
NtRp2743
(dp2744
g61
(dp2745
sg70
g2730
sg63
(lp2746
g56
(g57
g58
NtRp2747
(dp2748
g61
(dp2749
g69
I3
ssg70
g2743
sg63
(lp2750
S''
asbasbasbag56
(g72
g58
NtRp2751
(dp2752
g61
(dp2753
sg70
g2369
sg63
(lp2754
g56
(g77
g58
NtRp2755
(dp2756
g61
(dp2757
g81
g82
ssg70
g2751
sg63
(lp2758
S'SERVER_NAME'
p2759
asbag56
(g77
g58
NtRp2760
(dp2761
g61
(dp2762
g88
g89
ssg70
g2751
sg63
(lp2763
S':'
asbag56
(g77
g58
NtRp2764
(dp2765
g61
(dp2766
sg70
g2751
sg63
(lp2767
g56
(g57
g58
NtRp2768
(dp2769
g61
(dp2770
g69
I3
ssg70
g2764
sg63
(lp2771
g1292
asbasbasbag56
(g72
g58
NtRp2772
(dp2773
g61
(dp2774
sg70
g2369
sg63
(lp2775
g56
(g77
g58
NtRp2776
(dp2777
g61
(dp2778
g81
g82
ssg70
g2772
sg63
(lp2779
S'SERVER_PORT'
p2780
asbag56
(g77
g58
NtRp2781
(dp2782
g61
(dp2783
g88
g89
ssg70
g2772
sg63
(lp2784
S':'
asbag56
(g77
g58
NtRp2785
(dp2786
g61
(dp2787
sg70
g2772
sg63
(lp2788
g56
(g57
g58
NtRp2789
(dp2790
g61
(dp2791
g69
I3
ssg70
g2785
sg63
(lp2792
g1314
asbasbasbag56
(g72
g58
NtRp2793
(dp2794
g61
(dp2795
sg70
g2369
sg63
(lp2796
g56
(g77
g58
NtRp2797
(dp2798
g61
(dp2799
g81
g82
ssg70
g2793
sg63
(lp2800
S'SERVER_PROTOCOL'
p2801
asbag56
(g77
g58
NtRp2802
(dp2803
g61
(dp2804
g88
g89
ssg70
g2793
sg63
(lp2805
S':'
asbag56
(g77
g58
NtRp2806
(dp2807
g61
(dp2808
sg70
g2793
sg63
(lp2809
g56
(g57
g58
NtRp2810
(dp2811
g61
(dp2812
g69
I3
ssg70
g2806
sg63
(lp2813
g1336
asbasbasbag56
(g72
g58
NtRp2814
(dp2815
g61
(dp2816
sg70
g2369
sg63
(lp2817
g56
(g77
g58
NtRp2818
(dp2819
g61
(dp2820
g81
g82
ssg70
g2814
sg63
(lp2821
S'SERVER_SOFTWARE'
p2822
asbag56
(g77
g58
NtRp2823
(dp2824
g61
(dp2825
g88
g89
ssg70
g2814
sg63
(lp2826
S':'
asbag56
(g77
g58
NtRp2827
(dp2828
g61
(dp2829
sg70
g2814
sg63
(lp2830
g56
(g57
g58
NtRp2831
(dp2832
g61
(dp2833
g69
I3
ssg70
g2827
sg63
(lp2834
g1358
asbasbasbag56
(g72
g58
NtRp2835
(dp2836
g61
(dp2837
sg70
g2369
sg63
(lp2838
g56
(g77
g58
NtRp2839
(dp2840
g61
(dp2841
g81
g82
ssg70
g2835
sg63
(lp2842
S'wsgi.errors'
p2843
asbag56
(g77
g58
NtRp2844
(dp2845
g61
(dp2846
g88
g89
ssg70
g2835
sg63
(lp2847
S':'
asbag56
(g77
g58
NtRp2848
(dp2849
g61
(dp2850
sg70
g2835
sg63
(lp2851
g56
(g57
g58
NtRp2852
(dp2853
g61
(dp2854
g69
I3
ssg70
g2848
sg63
(lp2855
S"<open file '<stderr>', mode 'w' at 0x7fa63791d270>"
p2856
asbasbasbag56
(g72
g58
NtRp2857
(dp2858
g61
(dp2859
sg70
g2369
sg63
(lp2860
g56
(g77
g58
NtRp2861
(dp2862
g61
(dp2863
g81
g82
ssg70
g2857
sg63
(lp2864
S'wsgi.file_wrapper'
p2865
asbag56
(g77
g58
NtRp2866
(dp2867
g61
(dp2868
g88
g89
ssg70
g2857
sg63
(lp2869
S':'
asbag56
(g77
g58
NtRp2870
(dp2871
g61
(dp2872
sg70
g2857
sg63
(lp2873
g56
(g57
g58
NtRp2874
(dp2875
g61
(dp2876
g69
I3
ssg70
g2870
sg63
(lp2877
S'<class wsgiref.util.FileWrapper at 0x2901808>'
p2878
asbasbasbag56
(g72
g58
NtRp2879
(dp2880
g61
(dp2881
sg70
g2369
sg63
(lp2882
g56
(g77
g58
NtRp2883
(dp2884
g61
(dp2885
g81
g82
ssg70
g2879
sg63
(lp2886
S'wsgi.input'
p2887
asbag56
(g77
g58
NtRp2888
(dp2889
g61
(dp2890
g88
g89
ssg70
g2879
sg63
(lp2891
S':'
asbag56
(g77
g58
NtRp2892
(dp2893
g61
(dp2894
sg70
g2879
sg63
(lp2895
g56
(g57
g58
NtRp2896
(dp2897
g61
(dp2898
g69
I3
ssg70
g2892
sg63
(lp2899
S'<cStringIO.StringO object at 0x2f75960>'
p2900
asbasbasbag56
(g72
g58
NtRp2901
(dp2902
g61
(dp2903
sg70
g2369
sg63
(lp2904
g56
(g77
g58
NtRp2905
(dp2906
g61
(dp2907
g81
g82
ssg70
g2901
sg63
(lp2908
S'wsgi.multiprocess'
p2909
asbag56
(g77
g58
NtRp2910
(dp2911
g61
(dp2912
g88
g89
ssg70
g2901
sg63
(lp2913
S':'
asbag56
(g77
g58
NtRp2914
(dp2915
g61
(dp2916
sg70
g2901
sg63
(lp2917
g56
(g57
g58
NtRp2918
(dp2919
g61
(dp2920
g69
I3
ssg70
g2914
sg63
(lp2921
g835
asbasbasbag56
(g72
g58
NtRp2922
(dp2923
g61
(dp2924
sg70
g2369
sg63
(lp2925
g56
(g77
g58
NtRp2926
(dp2927
g61
(dp2928
g81
g82
ssg70
g2922
sg63
(lp2929
S'wsgi.multithread'
p2930
asbag56
(g77
g58
NtRp2931
(dp2932
g61
(dp2933
g88
g89
ssg70
g2922
sg63
(lp2934
S':'
asbag56
(g77
g58
NtRp2935
(dp2936
g61
(dp2937
sg70
g2922
sg63
(lp2938
g56
(g57
g58
NtRp2939
(dp2940
g61
(dp2941
g69
I3
ssg70
g2935
sg63
(lp2942
g99
asbasbasbag56
(g72
g58
NtRp2943
(dp2944
g61
(dp2945
sg70
g2369
sg63
(lp2946
g56
(g77
g58
NtRp2947
(dp2948
g61
(dp2949
g81
g82
ssg70
g2943
sg63
(lp2950
S'wsgi.run_once'
p2951
asbag56
(g77
g58
NtRp2952
(dp2953
g61
(dp2954
g88
g89
ssg70
g2943
sg63
(lp2955
S':'
asbag56
(g77
g58
NtRp2956
(dp2957
g61
(dp2958
sg70
g2943
sg63
(lp2959
g56
(g57
g58
NtRp2960
(dp2961
g61
(dp2962
g69
I3
ssg70
g2956
sg63
(lp2963
g835
asbasbasbag56
(g72
g58
NtRp2964
(dp2965
g61
(dp2966
sg70
g2369
sg63
(lp2967
g56
(g77
g58
NtRp2968
(dp2969
g61
(dp2970
g81
g82
ssg70
g2964
sg63
(lp2971
S'wsgi.url_scheme'
p2972
asbag56
(g77
g58
NtRp2973
(dp2974
g61
(dp2975
g88
g89
ssg70
g2964
sg63
(lp2976
S':'
asbag56
(g77
g58
NtRp2977
(dp2978
g61
(dp2979
sg70
g2964
sg63
(lp2980
g56
(g57
g58
NtRp2981
(dp2982
g61
(dp2983
g69
I3
ssg70
g2977
sg63
(lp2984
g1640
asbasbasbag56
(g72
g58
NtRp2985
(dp2986
g61
(dp2987
sg70
g2369
sg63
(lp2988
g56
(g77
g58
NtRp2989
(dp2990
g61
(dp2991
g81
g82
ssg70
g2985
sg63
(lp2992
S'wsgi.version'
p2993
asbag56
(g77
g58
NtRp2994
(dp2995
g61
(dp2996
g88
g89
ssg70
g2985
sg63
(lp2997
S':'
asbag56
(g77
g58
NtRp2998
(dp2999
g61
(dp3000
sg70
g2985
sg63
(lp3001
g56
(g57
g58
NtRp3002
(dp3003
g61
(dp3004
g69
I3
ssg70
g2998
sg63
(lp3005
S'1'
asbasbasbasbasbasbasbasbasbasbasbasbasbsS'frames'
p3006
(lp3007
(dp3008
S'file'
p3009
S'/home/ian/web2py/gluon/restricted.py'
p3010
sS'dump'
p3011
(dp3012
S'environment'
p3013
S"{'A': <class 'gluon.html.A'>, 'AjaxSelect': <class applications.topoi.modules.plugin_ajaxselect.AjaxSelect>, 'Auth': <class 'gluon.tools.Auth'>, 'B': <class 'gluon.html.B'>, 'BEAUTIFY': <class 'gluon.html.BEAUTIFY'>, 'BODY': <class 'gluon.html.BODY'>, 'BR': <class 'gluon.html.BR'>, 'BUTTON': <class 'gluon.html.BUTTON'>, 'CAT': <class 'gluon.html.CAT'>, 'CENTER': <class 'gluon.html.CENTER'>, ...}"
p3014
sS'ccode'
p3015
S'<code object <module> at 0x36cee30, file "/home/.../topoi/controllers/plugin_ajaxselect.py", line 1>'
p3016
ssS'lnum'
p3017
I194
sS'lines'
p3018
(dp3019
I192
S'        else:'
p3020
sI193
S'            ccode = compile2(code,layer)'
p3021
sI194
S'        exec ccode in environment'
p3022
sI195
S'    except HTTP:'
p3023
sI196
S'        raise'
p3024
sI197
S'    except Exception, error:'
p3025
sI198
S'        # XXX Show exception in Wing IDE if running in debugger'
p3026
sI189
S'    try:'
p3027
sI190
S'        if type(code) == types.CodeType:'
p3028
sI191
S'            ccode = code'
p3029
ssS'call'
p3030
S"(code='from gluon.sqlhtml import OptionsWidget\\n\\n\\ndef se... f)\\n\\nresponse._vars=response._caller(set_widget)\\n', environment={'A': <class 'gluon.html.A'>, 'AjaxSelect': <class applications.topoi.modules.plugin_ajaxselect.AjaxSelect>, 'Auth': <class 'gluon.tools.Auth'>, 'B': <class 'gluon.html.B'>, 'BEAUTIFY': <class 'gluon.html.BEAUTIFY'>, 'BODY': <class 'gluon.html.BODY'>, 'BR': <class 'gluon.html.BR'>, 'BUTTON': <class 'gluon.html.BUTTON'>, 'CAT': <class 'gluon.html.CAT'>, 'CENTER': <class 'gluon.html.CENTER'>, ...}, layer='/home/ian/web2py/applications/topoi/controllers/plugin_ajaxselect.py')"
p3031
sS'func'
p3032
S'restricted'
p3033
sa(dp3034
g3009
S'/home/ian/web2py/applications/topoi/controllers/plugin_ajaxselect.py'
p3035
sg3011
(dp3036
sg3017
I28
sg3018
(dp3037
I17
S''
sI18
S'    w = OptionsWidget.widget(the_field, value)'
p3038
sI19
S''
sI20
S'    f = SQLFORM(the_field)'
p3039
sI21
S''
sI22
S'    #create button to trigger adding dialog'
p3040
sI23
S"    bid = table + '_' + field + '_option_add_trigger'"
p3041
sI24
S"    button = A('Add New', _href='#', _id=bid, _class='option_add_trigger')"
p3042
sI25
S''
sI26
S'    return dict(widget = w, button = button, form = f)'
p3043
ssg3030
S'()'
p3044
sg3032
S'<module>'
p3045
sa(dp3046
g3009
S'/home/ian/web2py/gluon/globals.py'
p3047
sg3011
(dp3048
S'self'
p3049
S'undefined'
p3050
sS'f'
S'<function set_widget>'
p3051
ssg3017
I149
sg3018
(dp3052
I144
S'        self.meta = Storage()      # used by web2py_ajax.html'
p3053
sI145
S'        self.menu = []             # used by the default view layout'
p3054
sI146
S'        self.files = []            # used by web2py_ajax.html'
p3055
sI147
S'        self.generic_patterns = [] # patterns to allow generic views'
p3056
sI148
S'        self._vars = None'
p3057
sI149
S'        self._caller = lambda f: f()'
p3058
sI150
S'        self._view_environment = None'
p3059
sI151
S'        self._custom_commit = None'
p3060
sI152
S'        self._custom_rollback = None'
p3061
sI153
S''
ssg3030
S'(f=<function set_widget>)'
p3062
sg3032
S'<lambda>'
p3063
sa(dp3064
g3009
S'/home/ian/web2py/applications/topoi/controllers/plugin_ajaxselect.py'
p3065
sg3011
(dp3066
S'global SQLFORM'
p3067
S"<class 'gluon.sqlhtml.SQLFORM'>"
p3068
sS'the_field'
p3069
S'<gluon.dal.Field object>'
p3070
sS'f'
g3050
ssg3017
I20
sg3018
(dp3071
I15
S'    the_field = the_table[field]'
p3072
sI16
S'    print the_field'
p3073
sI17
S''
sI18
S'    w = OptionsWidget.widget(the_field, value)'
p3074
sI19
S''
sI20
S'    f = SQLFORM(the_field)'
p3075
sI21
S''
sI22
S'    #create button to trigger adding dialog'
p3076
sI23
S"    bid = table + '_' + field + '_option_add_trigger'"
p3077
sI24
S"    button = A('Add New', _href='#', _id=bid, _class='option_add_trigger')"
p3078
ssg3030
S'()'
p3079
sg3032
S'set_widget'
p3080
sa(dp3081
g3009
S'/home/ian/web2py/gluon/sqlhtml.py'
p3082
sg3011
(dp3083
S'f.name'
p3084
g3050
sS'f'
S'<gluon.dal.Expression object>'
p3085
sS'fields'
p3086
S'None'
p3087
sS'f.readable'
p3088
g3050
sS'ignore_rw'
p3089
g835
sS'f.compute'
p3090
g3050
sS'table'
p3091
S'<gluon.dal.Field object>'
p3092
sS'f.writable'
p3093
g3050
ssg3017
I735
sg3018
(dp3094
I736
S'        self.fields = fields'
p3095
sI737
S''
sI738
S'        # make sure we have an id'
p3096
sI739
S'        if self.fields[0] != table.fields[0] and \\'
p3097
sI730
S"        keyed = hasattr(table,'_primarykey')"
p3098
sI731
S''
sI732
S'        # if no fields are provided, build it from the provided table'
p3099
sI733
S'        # will only use writable or readable fields, unless forced to ignore'
p3100
sI734
S'        if fields is None:'
p3101
sI735
S'            fields = [f.name for f in table if (ignore_rw or f.writable or f.readable) and not f.compute]'
p3102
ssg3030
S"(self=<gluon.sqlhtml.SQLFORM object>, table=<gluon.dal.Field object>, record=None, deletable=False, linkto=None, upload=None, fields=None, labels=None, col3={}, submit_button='Submit', delete_label='Check to delete:', showid=True, readonly=False, comments=True, keepopts=[], ignore_rw=False, record_id=None, formstyle='table3cols', buttons=['submit'], separator=': ', **attributes={})"
p3103
sg3032
g49
sasS'pyver'
p3104
S'Python 2.7.2+: /usr/bin/python2.7'
p3105
sS'session'
p3106
g56
(g57
g58
NtRp3107
(dp3108
g61
(dp3109
sg63
(lp3110
g56
(g65
g58
NtRp3111
(dp3112
g61
(dp3113
g69
I5
ssg70
Nsg63
(lp3114
sbasbsS'etype'
p3115
S"<type 'exceptions.AttributeError'>"
p3116
sS'date'
p3117
S'Wed Dec 14 20:09:58 2011'
p3118
sS'response'
p3119
g56
(g57
g58
NtRp3120
(dp3121
g61
(dp3122
sg63
(lp3123
g56
(g65
g58
NtRp3124
(dp3125
g61
(dp3126
g69
I5
ssg70
Nsg63
(lp3127
g56
(g72
g58
NtRp3128
(dp3129
g61
(dp3130
sg70
g3124
sg63
(lp3131
g56
(g77
g58
NtRp3132
(dp3133
g61
(dp3134
g81
g82
ssg70
g3128
sg63
(lp3135
g193
asbag56
(g77
g58
NtRp3136
(dp3137
g61
(dp3138
g88
g89
ssg70
g3128
sg63
(lp3139
S':'
asbag56
(g77
g58
NtRp3140
(dp3141
g61
(dp3142
sg70
g3128
sg63
(lp3143
g56
(g57
g58
NtRp3144
(dp3145
g61
(dp3146
g69
I5
ssg70
g3140
sg63
(lp3147
S'<cStringIO.StringO object at 0x2a4a110>'
p3148
asbasbasbag56
(g72
g58
NtRp3149
(dp3150
g61
(dp3151
sg70
g3124
sg63
(lp3152
g56
(g77
g58
NtRp3153
(dp3154
g61
(dp3155
g81
g82
ssg70
g3149
sg63
(lp3156
g281
asbag56
(g77
g58
NtRp3157
(dp3158
g61
(dp3159
g88
g89
ssg70
g3149
sg63
(lp3160
S':'
asbag56
(g77
g58
NtRp3161
(dp3162
g61
(dp3163
sg70
g3149
sg63
(lp3164
g56
(g57
g58
NtRp3165
(dp3166
g61
(dp3167
g69
I5
ssg70
g3161
sg63
(lp3168
g56
(g65
g58
NtRp3169
(dp3170
g61
(dp3171
g69
I4
ssg70
Nsg63
(lp3172
g56
(g72
g58
NtRp3173
(dp3174
g61
(dp3175
sg70
g3169
sg63
(lp3176
g56
(g77
g58
NtRp3177
(dp3178
g61
(dp3179
g81
g82
ssg70
g3173
sg63
(lp3180
S'session_id_topoi'
p3181
asbag56
(g77
g58
NtRp3182
(dp3183
g61
(dp3184
g88
g89
ssg70
g3173
sg63
(lp3185
S':'
asbag56
(g77
g58
NtRp3186
(dp3187
g61
(dp3188
sg70
g3173
sg63
(lp3189
g56
(g57
g58
NtRp3190
(dp3191
g61
(dp3192
g69
I4
ssg70
g3186
sg63
(lp3193
g56
(g65
g58
NtRp3194
(dp3195
g61
(dp3196
g69
I3
ssg70
Nsg63
(lp3197
g56
(g72
g58
NtRp3198
(dp3199
g61
(dp3200
sg70
g3194
sg63
(lp3201
g56
(g77
g58
NtRp3202
(dp3203
g61
(dp3204
g81
g82
ssg70
g3198
sg63
(lp3205
g331
asbag56
(g77
g58
NtRp3206
(dp3207
g61
(dp3208
g88
g89
ssg70
g3198
sg63
(lp3209
S':'
asbag56
(g77
g58
NtRp3210
(dp3211
g61
(dp3212
sg70
g3198
sg63
(lp3213
g56
(g57
g58
NtRp3214
(dp3215
g61
(dp3216
g69
I3
ssg70
g3210
sg63
(lp3217
S''
asbasbasbag56
(g72
g58
NtRp3218
(dp3219
g61
(dp3220
sg70
g3194
sg63
(lp3221
g56
(g77
g58
NtRp3222
(dp3223
g61
(dp3224
g81
g82
ssg70
g3218
sg63
(lp3225
g352
asbag56
(g77
g58
NtRp3226
(dp3227
g61
(dp3228
g88
g89
ssg70
g3218
sg63
(lp3229
S':'
asbag56
(g77
g58
NtRp3230
(dp3231
g61
(dp3232
sg70
g3218
sg63
(lp3233
g56
(g57
g58
NtRp3234
(dp3235
g61
(dp3236
g69
I3
ssg70
g3230
sg63
(lp3237
S''
asbasbasbag56
(g72
g58
NtRp3238
(dp3239
g61
(dp3240
sg70
g3194
sg63
(lp3241
g56
(g77
g58
NtRp3242
(dp3243
g61
(dp3244
g81
g82
ssg70
g3238
sg63
(lp3245
g373
asbag56
(g77
g58
NtRp3246
(dp3247
g61
(dp3248
g88
g89
ssg70
g3238
sg63
(lp3249
S':'
asbag56
(g77
g58
NtRp3250
(dp3251
g61
(dp3252
sg70
g3238
sg63
(lp3253
g56
(g57
g58
NtRp3254
(dp3255
g61
(dp3256
g69
I3
ssg70
g3250
sg63
(lp3257
S''
asbasbasbag56
(g72
g58
NtRp3258
(dp3259
g61
(dp3260
sg70
g3194
sg63
(lp3261
g56
(g77
g58
NtRp3262
(dp3263
g61
(dp3264
g81
g82
ssg70
g3258
sg63
(lp3265
g394
asbag56
(g77
g58
NtRp3266
(dp3267
g61
(dp3268
g88
g89
ssg70
g3258
sg63
(lp3269
S':'
asbag56
(g77
g58
NtRp3270
(dp3271
g61
(dp3272
sg70
g3258
sg63
(lp3273
g56
(g57
g58
NtRp3274
(dp3275
g61
(dp3276
g69
I3
ssg70
g3270
sg63
(lp3277
S''
asbasbasbag56
(g72
g58
NtRp3278
(dp3279
g61
(dp3280
sg70
g3194
sg63
(lp3281
g56
(g77
g58
NtRp3282
(dp3283
g61
(dp3284
g81
g82
ssg70
g3278
sg63
(lp3285
g415
asbag56
(g77
g58
NtRp3286
(dp3287
g61
(dp3288
g88
g89
ssg70
g3278
sg63
(lp3289
S':'
asbag56
(g77
g58
NtRp3290
(dp3291
g61
(dp3292
sg70
g3278
sg63
(lp3293
g56
(g57
g58
NtRp3294
(dp3295
g61
(dp3296
g69
I3
ssg70
g3290
sg63
(lp3297
S''
asbasbasbag56
(g72
g58
NtRp3298
(dp3299
g61
(dp3300
sg70
g3194
sg63
(lp3301
g56
(g77
g58
NtRp3302
(dp3303
g61
(dp3304
g81
g82
ssg70
g3298
sg63
(lp3305
g436
asbag56
(g77
g58
NtRp3306
(dp3307
g61
(dp3308
g88
g89
ssg70
g3298
sg63
(lp3309
S':'
asbag56
(g77
g58
NtRp3310
(dp3311
g61
(dp3312
sg70
g3298
sg63
(lp3313
g56
(g57
g58
NtRp3314
(dp3315
g61
(dp3316
g69
I3
ssg70
g3310
sg63
(lp3317
S'/'
asbasbasbag56
(g72
g58
NtRp3318
(dp3319
g61
(dp3320
sg70
g3194
sg63
(lp3321
g56
(g77
g58
NtRp3322
(dp3323
g61
(dp3324
g81
g82
ssg70
g3318
sg63
(lp3325
g457
asbag56
(g77
g58
NtRp3326
(dp3327
g61
(dp3328
g88
g89
ssg70
g3318
sg63
(lp3329
S':'
asbag56
(g77
g58
NtRp3330
(dp3331
g61
(dp3332
sg70
g3318
sg63
(lp3333
g56
(g57
g58
NtRp3334
(dp3335
g61
(dp3336
g69
I3
ssg70
g3330
sg63
(lp3337
S''
asbasbasbag56
(g72
g58
NtRp3338
(dp3339
g61
(dp3340
sg70
g3194
sg63
(lp3341
g56
(g77
g58
NtRp3342
(dp3343
g61
(dp3344
g81
g82
ssg70
g3338
sg63
(lp3345
g478
asbag56
(g77
g58
NtRp3346
(dp3347
g61
(dp3348
g88
g89
ssg70
g3338
sg63
(lp3349
S':'
asbag56
(g77
g58
NtRp3350
(dp3351
g61
(dp3352
sg70
g3338
sg63
(lp3353
g56
(g57
g58
NtRp3354
(dp3355
g61
(dp3356
g69
I3
ssg70
g3350
sg63
(lp3357
S''
asbasbasbasbasbasbasbasbasbasbasbag56
(g72
g58
NtRp3358
(dp3359
g61
(dp3360
sg70
g3124
sg63
(lp3361
g56
(g77
g58
NtRp3362
(dp3363
g61
(dp3364
g81
g82
ssg70
g3358
sg63
(lp3365
S'files'
p3366
asbag56
(g77
g58
NtRp3367
(dp3368
g61
(dp3369
g88
g89
ssg70
g3358
sg63
(lp3370
S':'
asbag56
(g77
g58
NtRp3371
(dp3372
g61
(dp3373
sg70
g3358
sg63
(lp3374
g56
(g57
g58
NtRp3375
(dp3376
g61
(dp3377
g69
I5
ssg70
g3371
sg63
(lp3378
g56
(g65
g58
NtRp3379
(dp3380
g61
(dp3381
g69
I4
ssg70
Nsg63
(lp3382
sbasbasbasbag56
(g72
g58
NtRp3383
(dp3384
g61
(dp3385
sg70
g3124
sg63
(lp3386
g56
(g77
g58
NtRp3387
(dp3388
g61
(dp3389
g81
g82
ssg70
g3383
sg63
(lp3390
S'flash'
p3391
asbag56
(g77
g58
NtRp3392
(dp3393
g61
(dp3394
g88
g89
ssg70
g3383
sg63
(lp3395
S':'
asbag56
(g77
g58
NtRp3396
(dp3397
g61
(dp3398
sg70
g3383
sg63
(lp3399
g56
(g57
g58
NtRp3400
(dp3401
g61
(dp3402
g69
I5
ssg70
g3396
sg63
(lp3403
S''
asbasbasbag56
(g72
g58
NtRp3404
(dp3405
g61
(dp3406
sg70
g3124
sg63
(lp3407
g56
(g77
g58
NtRp3408
(dp3409
g61
(dp3410
g81
g82
ssg70
g3404
sg63
(lp3411
S'generic_patterns'
p3412
asbag56
(g77
g58
NtRp3413
(dp3414
g61
(dp3415
g88
g89
ssg70
g3404
sg63
(lp3416
S':'
asbag56
(g77
g58
NtRp3417
(dp3418
g61
(dp3419
sg70
g3404
sg63
(lp3420
g56
(g57
g58
NtRp3421
(dp3422
g61
(dp3423
g69
I5
ssg70
g3417
sg63
(lp3424
g56
(g65
g58
NtRp3425
(dp3426
g61
(dp3427
g69
I4
ssg70
Nsg63
(lp3428
g56
(g72
g58
NtRp3429
(dp3430
g61
(dp3431
sg70
g3425
sg63
(lp3432
g56
(g77
g58
NtRp3433
(dp3434
g61
(dp3435
sg70
g3429
sg63
(lp3436
g56
(g57
g58
NtRp3437
(dp3438
g61
(dp3439
g69
I4
ssg70
g3433
sg63
(lp3440
S'*'
asbasbasbasbasbasbasbag56
(g72
g58
NtRp3441
(dp3442
g61
(dp3443
sg70
g3124
sg63
(lp3444
g56
(g77
g58
NtRp3445
(dp3446
g61
(dp3447
g81
g82
ssg70
g3441
sg63
(lp3448
S'headers'
p3449
asbag56
(g77
g58
NtRp3450
(dp3451
g61
(dp3452
g88
g89
ssg70
g3441
sg63
(lp3453
S':'
asbag56
(g77
g58
NtRp3454
(dp3455
g61
(dp3456
sg70
g3441
sg63
(lp3457
g56
(g57
g58
NtRp3458
(dp3459
g61
(dp3460
g69
I5
ssg70
g3454
sg63
(lp3461
g56
(g65
g58
NtRp3462
(dp3463
g61
(dp3464
g69
I4
ssg70
Nsg63
(lp3465
g56
(g72
g58
NtRp3466
(dp3467
g61
(dp3468
sg70
g3462
sg63
(lp3469
g56
(g77
g58
NtRp3470
(dp3471
g61
(dp3472
g81
g82
ssg70
g3466
sg63
(lp3473
S'Cache-Control'
p3474
asbag56
(g77
g58
NtRp3475
(dp3476
g61
(dp3477
g88
g89
ssg70
g3466
sg63
(lp3478
S':'
asbag56
(g77
g58
NtRp3479
(dp3480
g61
(dp3481
sg70
g3466
sg63
(lp3482
g56
(g57
g58
NtRp3483
(dp3484
g61
(dp3485
g69
I4
ssg70
g3479
sg63
(lp3486
S'no-store, no-cache, must-revalidate, post-check=0, pre-check=0'
p3487
asbasbasbag56
(g72
g58
NtRp3488
(dp3489
g61
(dp3490
sg70
g3462
sg63
(lp3491
g56
(g77
g58
NtRp3492
(dp3493
g61
(dp3494
g81
g82
ssg70
g3488
sg63
(lp3495
S'Content-Type'
p3496
asbag56
(g77
g58
NtRp3497
(dp3498
g61
(dp3499
g88
g89
ssg70
g3488
sg63
(lp3500
S':'
asbag56
(g77
g58
NtRp3501
(dp3502
g61
(dp3503
sg70
g3488
sg63
(lp3504
g56
(g57
g58
NtRp3505
(dp3506
g61
(dp3507
g69
I4
ssg70
g3501
sg63
(lp3508
S'text/html; charset=utf-8'
p3509
asbasbasbag56
(g72
g58
NtRp3510
(dp3511
g61
(dp3512
sg70
g3462
sg63
(lp3513
g56
(g77
g58
NtRp3514
(dp3515
g61
(dp3516
g81
g82
ssg70
g3510
sg63
(lp3517
S'Expires'
p3518
asbag56
(g77
g58
NtRp3519
(dp3520
g61
(dp3521
g88
g89
ssg70
g3510
sg63
(lp3522
S':'
asbag56
(g77
g58
NtRp3523
(dp3524
g61
(dp3525
sg70
g3510
sg63
(lp3526
g56
(g57
g58
NtRp3527
(dp3528
g61
(dp3529
g69
I4
ssg70
g3523
sg63
(lp3530
S'Thu, 15 Dec 2011 01:09:58 GMT'
p3531
asbasbasbag56
(g72
g58
NtRp3532
(dp3533
g61
(dp3534
sg70
g3462
sg63
(lp3535
g56
(g77
g58
NtRp3536
(dp3537
g61
(dp3538
g81
g82
ssg70
g3532
sg63
(lp3539
S'Pragma'
p3540
asbag56
(g77
g58
NtRp3541
(dp3542
g61
(dp3543
g88
g89
ssg70
g3532
sg63
(lp3544
S':'
asbag56
(g77
g58
NtRp3545
(dp3546
g61
(dp3547
sg70
g3532
sg63
(lp3548
g56
(g57
g58
NtRp3549
(dp3550
g61
(dp3551
g69
I4
ssg70
g3545
sg63
(lp3552
S'no-cache'
p3553
asbasbasbag56
(g72
g58
NtRp3554
(dp3555
g61
(dp3556
sg70
g3462
sg63
(lp3557
g56
(g77
g58
NtRp3558
(dp3559
g61
(dp3560
g81
g82
ssg70
g3554
sg63
(lp3561
S'X-Powered-By'
p3562
asbag56
(g77
g58
NtRp3563
(dp3564
g61
(dp3565
g88
g89
ssg70
g3554
sg63
(lp3566
S':'
asbag56
(g77
g58
NtRp3567
(dp3568
g61
(dp3569
sg70
g3554
sg63
(lp3570
g56
(g57
g58
NtRp3571
(dp3572
g61
(dp3573
g69
I4
ssg70
g3567
sg63
(lp3574
S'web2py'
p3575
asbasbasbasbasbasbasbag56
(g72
g58
NtRp3576
(dp3577
g61
(dp3578
sg70
g3124
sg63
(lp3579
g56
(g77
g58
NtRp3580
(dp3581
g61
(dp3582
g81
g82
ssg70
g3576
sg63
(lp3583
S'menu'
p3584
asbag56
(g77
g58
NtRp3585
(dp3586
g61
(dp3587
g88
g89
ssg70
g3576
sg63
(lp3588
S':'
asbag56
(g77
g58
NtRp3589
(dp3590
g61
(dp3591
sg70
g3576
sg63
(lp3592
g56
(g57
g58
NtRp3593
(dp3594
g61
(dp3595
g69
I5
ssg70
g3589
sg63
(lp3596
g56
(g65
g58
NtRp3597
(dp3598
g61
(dp3599
g69
I4
ssg70
Nsg63
(lp3600
g56
(g72
g58
NtRp3601
(dp3602
g61
(dp3603
sg70
g3597
sg63
(lp3604
g56
(g77
g58
NtRp3605
(dp3606
g61
(dp3607
sg70
g3601
sg63
(lp3608
g56
(g57
g58
NtRp3609
(dp3610
g61
(dp3611
g69
I4
ssg70
g3605
sg63
(lp3612
g56
(g65
g58
NtRp3613
(dp3614
g61
(dp3615
g69
I3
ssg70
Nsg63
(lp3616
g56
(g72
g58
NtRp3617
(dp3618
g61
(dp3619
sg70
g3613
sg63
(lp3620
g56
(g77
g58
NtRp3621
(dp3622
g61
(dp3623
sg70
g3617
sg63
(lp3624
g56
(g57
g58
NtRp3625
(dp3626
g61
(dp3627
g69
I3
ssg70
g3621
sg63
(lp3628
cgluon.languages
lazyT_unpickle
p3629
(S't\x04\x00\x00\x00Home'
tRp3630
asbasbasbag56
(g72
g58
NtRp3631
(dp3632
g61
(dp3633
sg70
g3613
sg63
(lp3634
g56
(g77
g58
NtRp3635
(dp3636
g61
(dp3637
sg70
g3631
sg63
(lp3638
g56
(g57
g58
NtRp3639
(dp3640
g61
(dp3641
g69
I3
ssg70
g3635
sg63
(lp3642
g835
asbasbasbag56
(g72
g58
NtRp3643
(dp3644
g61
(dp3645
sg70
g3613
sg63
(lp3646
g56
(g77
g58
NtRp3647
(dp3648
g61
(dp3649
sg70
g3643
sg63
(lp3650
g56
(g57
g58
NtRp3651
(dp3652
g61
(dp3653
g69
I3
ssg70
g3647
sg63
(lp3654
S'/topoi/default/index.load'
p3655
asbasbasbag56
(g72
g58
NtRp3656
(dp3657
g61
(dp3658
sg70
g3613
sg63
(lp3659
g56
(g77
g58
NtRp3660
(dp3661
g61
(dp3662
sg70
g3656
sg63
(lp3663
g56
(g57
g58
NtRp3664
(dp3665
g61
(dp3666
g69
I3
ssg70
g3660
sg63
(lp3667
g56
(g65
g58
NtRp3668
(dp3669
g61
(dp3670
g69
I2
ssg70
Nsg63
(lp3671
sbasbasbasbasbasbasbasbag56
(g72
g58
NtRp3672
(dp3673
g61
(dp3674
sg70
g3597
sg63
(lp3675
g56
(g77
g58
NtRp3676
(dp3677
g61
(dp3678
sg70
g3672
sg63
(lp3679
g56
(g57
g58
NtRp3680
(dp3681
g61
(dp3682
g69
I4
ssg70
g3676
sg63
(lp3683
g56
(g65
g58
NtRp3684
(dp3685
g61
(dp3686
g69
I3
ssg70
Nsg63
(lp3687
g56
(g72
g58
NtRp3688
(dp3689
g61
(dp3690
sg70
g3684
sg63
(lp3691
g56
(g77
g58
NtRp3692
(dp3693
g61
(dp3694
sg70
g3688
sg63
(lp3695
g56
(g57
g58
NtRp3696
(dp3697
g61
(dp3698
g69
I3
ssg70
g3692
sg63
(lp3699
g3629
(S't\x01\x00\x00\x00S'
tRp3700
asbasbasbag56
(g72
g58
NtRp3701
(dp3702
g61
(dp3703
sg70
g3684
sg63
(lp3704
g56
(g77
g58
NtRp3705
(dp3706
g61
(dp3707
sg70
g3701
sg63
(lp3708
g56
(g57
g58
NtRp3709
(dp3710
g61
(dp3711
g69
I3
ssg70
g3705
sg63
(lp3712
g835
asbasbasbag56
(g72
g58
NtRp3713
(dp3714
g61
(dp3715
sg70
g3684
sg63
(lp3716
g56
(g77
g58
NtRp3717
(dp3718
g61
(dp3719
sg70
g3713
sg63
(lp3720
g56
(g57
g58
NtRp3721
(dp3722
g61
(dp3723
g69
I3
ssg70
g3717
sg63
(lp3724
S'/admin/default/design/topoi.load'
p3725
asbasbasbag56
(g72
g58
NtRp3726
(dp3727
g61
(dp3728
sg70
g3684
sg63
(lp3729
g56
(g77
g58
NtRp3730
(dp3731
g61
(dp3732
sg70
g3726
sg63
(lp3733
g56
(g57
g58
NtRp3734
(dp3735
g61
(dp3736
g69
I3
ssg70
g3730
sg63
(lp3737
g56
(g65
g58
NtRp3738
(dp3739
g61
(dp3740
g69
I2
ssg70
Nsg63
(lp3741
g56
(g72
g58
NtRp3742
(dp3743
g61
(dp3744
sg70
g3738
sg63
(lp3745
g56
(g77
g58
NtRp3746
(dp3747
g61
(dp3748
sg70
g3742
sg63
(lp3749
g56
(g57
g58
NtRp3750
(dp3751
g61
(dp3752
g69
I2
ssg70
g3746
sg63
(lp3753
g56
(g65
g58
NtRp3754
(dp3755
g61
(dp3756
g69
I1
ssg70
Nsg63
(lp3757
g56
(g72
g58
NtRp3758
(dp3759
g61
(dp3760
sg70
g3754
sg63
(lp3761
g56
(g77
g58
NtRp3762
(dp3763
g61
(dp3764
sg70
g3758
sg63
(lp3765
g56
(g57
g58
NtRp3766
(dp3767
g61
(dp3768
g69
I1
ssg70
g3762
sg63
(lp3769
g3629
(S't\n\x00\x00\x00Controller'
tRp3770
asbasbasbag56
(g72
g58
NtRp3771
(dp3772
g61
(dp3773
sg70
g3754
sg63
(lp3774
g56
(g77
g58
NtRp3775
(dp3776
g61
(dp3777
sg70
g3771
sg63
(lp3778
g56
(g57
g58
NtRp3779
(dp3780
g61
(dp3781
g69
I1
ssg70
g3775
sg63
(lp3782
I00
asbasbasbag56
(g72
g58
NtRp3783
(dp3784
g61
(dp3785
sg70
g3754
sg63
(lp3786
g56
(g77
g58
NtRp3787
(dp3788
g61
(dp3789
sg70
g3783
sg63
(lp3790
g56
(g57
g58
NtRp3791
(dp3792
g61
(dp3793
g69
I1
ssg70
g3787
sg63
(lp3794
S'/admin/default/edit/topoi/controllers/plugin_ajaxselect.py'
p3795
asbasbasbasbasbasbasbag56
(g72
g58
NtRp3796
(dp3797
g61
(dp3798
sg70
g3738
sg63
(lp3799
g56
(g77
g58
NtRp3800
(dp3801
g61
(dp3802
sg70
g3796
sg63
(lp3803
g56
(g57
g58
NtRp3804
(dp3805
g61
(dp3806
g69
I2
ssg70
g3800
sg63
(lp3807
g56
(g65
g58
NtRp3808
(dp3809
g61
(dp3810
g69
I1
ssg70
Nsg63
(lp3811
g56
(g72
g58
NtRp3812
(dp3813
g61
(dp3814
sg70
g3808
sg63
(lp3815
g56
(g77
g58
NtRp3816
(dp3817
g61
(dp3818
sg70
g3812
sg63
(lp3819
g56
(g57
g58
NtRp3820
(dp3821
g61
(dp3822
g69
I1
ssg70
g3816
sg63
(lp3823
g3629
(S't\x04\x00\x00\x00View'
tRp3824
asbasbasbag56
(g72
g58
NtRp3825
(dp3826
g61
(dp3827
sg70
g3808
sg63
(lp3828
g56
(g77
g58
NtRp3829
(dp3830
g61
(dp3831
sg70
g3825
sg63
(lp3832
g56
(g57
g58
NtRp3833
(dp3834
g61
(dp3835
g69
I1
ssg70
g3829
sg63
(lp3836
I00
asbasbasbag56
(g72
g58
NtRp3837
(dp3838
g61
(dp3839
sg70
g3808
sg63
(lp3840
g56
(g77
g58
NtRp3841
(dp3842
g61
(dp3843
sg70
g3837
sg63
(lp3844
g56
(g57
g58
NtRp3845
(dp3846
g61
(dp3847
g69
I1
ssg70
g3841
sg63
(lp3848
S'/admin/default/edit/topoi/views/plugin_ajaxselect/set_widget.load'
p3849
asbasbasbasbasbasbasbag56
(g72
g58
NtRp3850
(dp3851
g61
(dp3852
sg70
g3738
sg63
(lp3853
g56
(g77
g58
NtRp3854
(dp3855
g61
(dp3856
sg70
g3850
sg63
(lp3857
g56
(g57
g58
NtRp3858
(dp3859
g61
(dp3860
g69
I2
ssg70
g3854
sg63
(lp3861
g56
(g65
g58
NtRp3862
(dp3863
g61
(dp3864
g69
I1
ssg70
Nsg63
(lp3865
g56
(g72
g58
NtRp3866
(dp3867
g61
(dp3868
sg70
g3862
sg63
(lp3869
g56
(g77
g58
NtRp3870
(dp3871
g61
(dp3872
sg70
g3866
sg63
(lp3873
g56
(g57
g58
NtRp3874
(dp3875
g61
(dp3876
g69
I1
ssg70
g3870
sg63
(lp3877
g3629
(S't\x06\x00\x00\x00Layout'
tRp3878
asbasbasbag56
(g72
g58
NtRp3879
(dp3880
g61
(dp3881
sg70
g3862
sg63
(lp3882
g56
(g77
g58
NtRp3883
(dp3884
g61
(dp3885
sg70
g3879
sg63
(lp3886
g56
(g57
g58
NtRp3887
(dp3888
g61
(dp3889
g69
I1
ssg70
g3883
sg63
(lp3890
I00
asbasbasbag56
(g72
g58
NtRp3891
(dp3892
g61
(dp3893
sg70
g3862
sg63
(lp3894
g56
(g77
g58
NtRp3895
(dp3896
g61
(dp3897
sg70
g3891
sg63
(lp3898
g56
(g57
g58
NtRp3899
(dp3900
g61
(dp3901
g69
I1
ssg70
g3895
sg63
(lp3902
S'/admin/default/edit/topoi/views/layout.html'
p3903
asbasbasbasbasbasbasbag56
(g72
g58
NtRp3904
(dp3905
g61
(dp3906
sg70
g3738
sg63
(lp3907
g56
(g77
g58
NtRp3908
(dp3909
g61
(dp3910
sg70
g3904
sg63
(lp3911
g56
(g57
g58
NtRp3912
(dp3913
g61
(dp3914
g69
I2
ssg70
g3908
sg63
(lp3915
g56
(g65
g58
NtRp3916
(dp3917
g61
(dp3918
g69
I1
ssg70
Nsg63
(lp3919
g56
(g72
g58
NtRp3920
(dp3921
g61
(dp3922
sg70
g3916
sg63
(lp3923
g56
(g77
g58
NtRp3924
(dp3925
g61
(dp3926
sg70
g3920
sg63
(lp3927
g56
(g57
g58
NtRp3928
(dp3929
g61
(dp3930
g69
I1
ssg70
g3924
sg63
(lp3931
g3629
(S't\n\x00\x00\x00Stylesheet'
tRp3932
asbasbasbag56
(g72
g58
NtRp3933
(dp3934
g61
(dp3935
sg70
g3916
sg63
(lp3936
g56
(g77
g58
NtRp3937
(dp3938
g61
(dp3939
sg70
g3933
sg63
(lp3940
g56
(g57
g58
NtRp3941
(dp3942
g61
(dp3943
g69
I1
ssg70
g3937
sg63
(lp3944
I00
asbasbasbag56
(g72
g58
NtRp3945
(dp3946
g61
(dp3947
sg70
g3916
sg63
(lp3948
g56
(g77
g58
NtRp3949
(dp3950
g61
(dp3951
sg70
g3945
sg63
(lp3952
g56
(g57
g58
NtRp3953
(dp3954
g61
(dp3955
g69
I1
ssg70
g3949
sg63
(lp3956
S'/admin/default/edit/topoi/static/base.css'
p3957
asbasbasbasbasbasbasbag56
(g72
g58
NtRp3958
(dp3959
g61
(dp3960
sg70
g3738
sg63
(lp3961
g56
(g77
g58
NtRp3962
(dp3963
g61
(dp3964
sg70
g3958
sg63
(lp3965
g56
(g57
g58
NtRp3966
(dp3967
g61
(dp3968
g69
I2
ssg70
g3962
sg63
(lp3969
g56
(g65
g58
NtRp3970
(dp3971
g61
(dp3972
g69
I1
ssg70
Nsg63
(lp3973
g56
(g72
g58
NtRp3974
(dp3975
g61
(dp3976
sg70
g3970
sg63
(lp3977
g56
(g77
g58
NtRp3978
(dp3979
g61
(dp3980
sg70
g3974
sg63
(lp3981
g56
(g57
g58
NtRp3982
(dp3983
g61
(dp3984
g69
I1
ssg70
g3978
sg63
(lp3985
g3629
(S's\x08\x00\x00\x00DB Model'
tRp3986
asbasbasbag56
(g72
g58
NtRp3987
(dp3988
g61
(dp3989
sg70
g3970
sg63
(lp3990
g56
(g77
g58
NtRp3991
(dp3992
g61
(dp3993
sg70
g3987
sg63
(lp3994
g56
(g57
g58
NtRp3995
(dp3996
g61
(dp3997
g69
I1
ssg70
g3991
sg63
(lp3998
I00
asbasbasbag56
(g72
g58
NtRp3999
(dp4000
g61
(dp4001
sg70
g3970
sg63
(lp4002
g56
(g77
g58
NtRp4003
(dp4004
g61
(dp4005
sg70
g3999
sg63
(lp4006
g56
(g57
g58
NtRp4007
(dp4008
g61
(dp4009
g69
I1
ssg70
g4003
sg63
(lp4010
S'/admin/default/edit/topoi/models/db.py'
p4011
asbasbasbasbasbasbasbag56
(g72
g58
NtRp4012
(dp4013
g61
(dp4014
sg70
g3738
sg63
(lp4015
g56
(g77
g58
NtRp4016
(dp4017
g61
(dp4018
sg70
g4012
sg63
(lp4019
g56
(g57
g58
NtRp4020
(dp4021
g61
(dp4022
g69
I2
ssg70
g4016
sg63
(lp4023
g56
(g65
g58
NtRp4024
(dp4025
g61
(dp4026
g69
I1
ssg70
Nsg63
(lp4027
g56
(g72
g58
NtRp4028
(dp4029
g61
(dp4030
sg70
g4024
sg63
(lp4031
g56
(g77
g58
NtRp4032
(dp4033
g61
(dp4034
sg70
g4028
sg63
(lp4035
g56
(g57
g58
NtRp4036
(dp4037
g61
(dp4038
g69
I1
ssg70
g4032
sg63
(lp4039
g3629
(S's\n\x00\x00\x00Menu Model'
tRp4040
asbasbasbag56
(g72
g58
NtRp4041
(dp4042
g61
(dp4043
sg70
g4024
sg63
(lp4044
g56
(g77
g58
NtRp4045
(dp4046
g61
(dp4047
sg70
g4041
sg63
(lp4048
g56
(g57
g58
NtRp4049
(dp4050
g61
(dp4051
g69
I1
ssg70
g4045
sg63
(lp4052
I00
asbasbasbag56
(g72
g58
NtRp4053
(dp4054
g61
(dp4055
sg70
g4024
sg63
(lp4056
g56
(g77
g58
NtRp4057
(dp4058
g61
(dp4059
sg70
g4053
sg63
(lp4060
g56
(g57
g58
NtRp4061
(dp4062
g61
(dp4063
g69
I1
ssg70
g4057
sg63
(lp4064
S'/admin/default/edit/topoi/models/menu.py'
p4065
asbasbasbasbasbasbasbag56
(g72
g58
NtRp4066
(dp4067
g61
(dp4068
sg70
g3738
sg63
(lp4069
g56
(g77
g58
NtRp4070
(dp4071
g61
(dp4072
sg70
g4066
sg63
(lp4073
g56
(g57
g58
NtRp4074
(dp4075
g61
(dp4076
g69
I2
ssg70
g4070
sg63
(lp4077
g56
(g65
g58
NtRp4078
(dp4079
g61
(dp4080
g69
I1
ssg70
Nsg63
(lp4081
g56
(g72
g58
NtRp4082
(dp4083
g61
(dp4084
sg70
g4078
sg63
(lp4085
g56
(g77
g58
NtRp4086
(dp4087
g61
(dp4088
sg70
g4082
sg63
(lp4089
g56
(g57
g58
NtRp4090
(dp4091
g61
(dp4092
g69
I1
ssg70
g4086
sg63
(lp4093
g3629
(S't\x08\x00\x00\x00Database'
tRp4094
asbasbasbag56
(g72
g58
NtRp4095
(dp4096
g61
(dp4097
sg70
g4078
sg63
(lp4098
g56
(g77
g58
NtRp4099
(dp4100
g61
(dp4101
sg70
g4095
sg63
(lp4102
g56
(g57
g58
NtRp4103
(dp4104
g61
(dp4105
g69
I1
ssg70
g4099
sg63
(lp4106
I00
asbasbasbag56
(g72
g58
NtRp4107
(dp4108
g61
(dp4109
sg70
g4078
sg63
(lp4110
g56
(g77
g58
NtRp4111
(dp4112
g61
(dp4113
sg70
g4107
sg63
(lp4114
g56
(g57
g58
NtRp4115
(dp4116
g61
(dp4117
g69
I1
ssg70
g4111
sg63
(lp4118
S'/topoi/appadmin/index.load'
p4119
asbasbasbasbasbasbasbag56
(g72
g58
NtRp4120
(dp4121
g61
(dp4122
sg70
g3738
sg63
(lp4123
g56
(g77
g58
NtRp4124
(dp4125
g61
(dp4126
sg70
g4120
sg63
(lp4127
g56
(g57
g58
NtRp4128
(dp4129
g61
(dp4130
g69
I2
ssg70
g4124
sg63
(lp4131
g56
(g65
g58
NtRp4132
(dp4133
g61
(dp4134
g69
I1
ssg70
Nsg63
(lp4135
g56
(g72
g58
NtRp4136
(dp4137
g61
(dp4138
sg70
g4132
sg63
(lp4139
g56
(g77
g58
NtRp4140
(dp4141
g61
(dp4142
sg70
g4136
sg63
(lp4143
g56
(g57
g58
NtRp4144
(dp4145
g61
(dp4146
g69
I1
ssg70
g4140
sg63
(lp4147
g3629
(S't\x06\x00\x00\x00Errors'
tRp4148
asbasbasbag56
(g72
g58
NtRp4149
(dp4150
g61
(dp4151
sg70
g4132
sg63
(lp4152
g56
(g77
g58
NtRp4153
(dp4154
g61
(dp4155
sg70
g4149
sg63
(lp4156
g56
(g57
g58
NtRp4157
(dp4158
g61
(dp4159
g69
I1
ssg70
g4153
sg63
(lp4160
I00
asbasbasbag56
(g72
g58
NtRp4161
(dp4162
g61
(dp4163
sg70
g4132
sg63
(lp4164
g56
(g77
g58
NtRp4165
(dp4166
g61
(dp4167
sg70
g4161
sg63
(lp4168
g56
(g57
g58
NtRp4169
(dp4170
g61
(dp4171
g69
I1
ssg70
g4165
sg63
(lp4172
S'/admin/default/errors/topoi.load'
p4173
asbasbasbasbasbasbasbag56
(g72
g58
NtRp4174
(dp4175
g61
(dp4176
sg70
g3738
sg63
(lp4177
g56
(g77
g58
NtRp4178
(dp4179
g61
(dp4180
sg70
g4174
sg63
(lp4181
g56
(g57
g58
NtRp4182
(dp4183
g61
(dp4184
g69
I2
ssg70
g4178
sg63
(lp4185
g56
(g65
g58
NtRp4186
(dp4187
g61
(dp4188
g69
I1
ssg70
Nsg63
(lp4189
g56
(g72
g58
NtRp4190
(dp4191
g61
(dp4192
sg70
g4186
sg63
(lp4193
g56
(g77
g58
NtRp4194
(dp4195
g61
(dp4196
sg70
g4190
sg63
(lp4197
g56
(g57
g58
NtRp4198
(dp4199
g61
(dp4200
g69
I1
ssg70
g4194
sg63
(lp4201
g3629
(S't\x05\x00\x00\x00About'
tRp4202
asbasbasbag56
(g72
g58
NtRp4203
(dp4204
g61
(dp4205
sg70
g4186
sg63
(lp4206
g56
(g77
g58
NtRp4207
(dp4208
g61
(dp4209
sg70
g4203
sg63
(lp4210
g56
(g57
g58
NtRp4211
(dp4212
g61
(dp4213
g69
I1
ssg70
g4207
sg63
(lp4214
I00
asbasbasbag56
(g72
g58
NtRp4215
(dp4216
g61
(dp4217
sg70
g4186
sg63
(lp4218
g56
(g77
g58
NtRp4219
(dp4220
g61
(dp4221
sg70
g4215
sg63
(lp4222
g56
(g57
g58
NtRp4223
(dp4224
g61
(dp4225
g69
I1
ssg70
g4219
sg63
(lp4226
S'/admin/default/about/topoi.load'
p4227
asbasbasbasbasbasbasbasbasbasbasbasbasbasbasbasbasbasbasbag56
(g72
g58
NtRp4228
(dp4229
g61
(dp4230
sg70
g3124
sg63
(lp4231
g56
(g77
g58
NtRp4232
(dp4233
g61
(dp4234
g81
g82
ssg70
g4228
sg63
(lp4235
S'meta'
p4236
asbag56
(g77
g58
NtRp4237
(dp4238
g61
(dp4239
g88
g89
ssg70
g4228
sg63
(lp4240
S':'
asbag56
(g77
g58
NtRp4241
(dp4242
g61
(dp4243
sg70
g4228
sg63
(lp4244
g56
(g57
g58
NtRp4245
(dp4246
g61
(dp4247
g69
I5
ssg70
g4241
sg63
(lp4248
g56
(g65
g58
NtRp4249
(dp4250
g61
(dp4251
g69
I4
ssg70
Nsg63
(lp4252
g56
(g72
g58
NtRp4253
(dp4254
g61
(dp4255
sg70
g4249
sg63
(lp4256
g56
(g77
g58
NtRp4257
(dp4258
g61
(dp4259
g81
g82
ssg70
g4253
sg63
(lp4260
S'author'
p4261
asbag56
(g77
g58
NtRp4262
(dp4263
g61
(dp4264
g88
g89
ssg70
g4253
sg63
(lp4265
S':'
asbag56
(g77
g58
NtRp4266
(dp4267
g61
(dp4268
sg70
g4253
sg63
(lp4269
g56
(g57
g58
NtRp4270
(dp4271
g61
(dp4272
g69
I4
ssg70
g4266
sg63
(lp4273
S'Ian W. Scott'
p4274
asbasbasbag56
(g72
g58
NtRp4275
(dp4276
g61
(dp4277
sg70
g4249
sg63
(lp4278
g56
(g77
g58
NtRp4279
(dp4280
g61
(dp4281
g81
g82
ssg70
g4275
sg63
(lp4282
S'copyright'
p4283
asbag56
(g77
g58
NtRp4284
(dp4285
g61
(dp4286
g88
g89
ssg70
g4275
sg63
(lp4287
S':'
asbag56
(g77
g58
NtRp4288
(dp4289
g61
(dp4290
sg70
g4275
sg63
(lp4291
g56
(g57
g58
NtRp4292
(dp4293
g61
(dp4294
g69
I4
ssg70
g4288
sg63
(lp4295
S'Copyright 2011'
p4296
asbasbasbag56
(g72
g58
NtRp4297
(dp4298
g61
(dp4299
sg70
g4249
sg63
(lp4300
g56
(g77
g58
NtRp4301
(dp4302
g61
(dp4303
g81
g82
ssg70
g4297
sg63
(lp4304
S'description'
p4305
asbag56
(g77
g58
NtRp4306
(dp4307
g61
(dp4308
g88
g89
ssg70
g4297
sg63
(lp4309
S':'
asbag56
(g77
g58
NtRp4310
(dp4311
g61
(dp4312
sg70
g4297
sg63
(lp4313
g56
(g57
g58
NtRp4314
(dp4315
g61
(dp4316
g69
I4
ssg70
g4310
sg63
(lp4317
S'A web-app for managing primary-text research in the humanities.'
p4318
asbasbasbag56
(g72
g58
NtRp4319
(dp4320
g61
(dp4321
sg70
g4249
sg63
(lp4322
g56
(g77
g58
NtRp4323
(dp4324
g61
(dp4325
g81
g82
ssg70
g4319
sg63
(lp4326
S'generator'
p4327
asbag56
(g77
g58
NtRp4328
(dp4329
g61
(dp4330
g88
g89
ssg70
g4319
sg63
(lp4331
S':'
asbag56
(g77
g58
NtRp4332
(dp4333
g61
(dp4334
sg70
g4319
sg63
(lp4335
g56
(g57
g58
NtRp4336
(dp4337
g61
(dp4338
g69
I4
ssg70
g4332
sg63
(lp4339
S'Web2py Enterprise Framework'
p4340
asbasbasbag56
(g72
g58
NtRp4341
(dp4342
g61
(dp4343
sg70
g4249
sg63
(lp4344
g56
(g77
g58
NtRp4345
(dp4346
g61
(dp4347
g81
g82
ssg70
g4341
sg63
(lp4348
S'keywords'
p4349
asbag56
(g77
g58
NtRp4350
(dp4351
g61
(dp4352
g88
g89
ssg70
g4341
sg63
(lp4353
S':'
asbag56
(g77
g58
NtRp4354
(dp4355
g61
(dp4356
sg70
g4341
sg63
(lp4357
g56
(g57
g58
NtRp4358
(dp4359
g61
(dp4360
g69
I4
ssg70
g4354
sg63
(lp4361
S'research, humanities, biblical'
p4362
asbasbasbasbasbasbasbag56
(g72
g58
NtRp4363
(dp4364
g61
(dp4365
sg70
g3124
sg63
(lp4366
g56
(g77
g58
NtRp4367
(dp4368
g61
(dp4369
g81
g82
ssg70
g4363
sg63
(lp4370
S'postprocessing'
p4371
asbag56
(g77
g58
NtRp4372
(dp4373
g61
(dp4374
g88
g89
ssg70
g4363
sg63
(lp4375
S':'
asbag56
(g77
g58
NtRp4376
(dp4377
g61
(dp4378
sg70
g4363
sg63
(lp4379
g56
(g57
g58
NtRp4380
(dp4381
g61
(dp4382
g69
I5
ssg70
g4376
sg63
(lp4383
g56
(g65
g58
NtRp4384
(dp4385
g61
(dp4386
g69
I4
ssg70
Nsg63
(lp4387
sbasbasbasbag56
(g72
g58
NtRp4388
(dp4389
g61
(dp4390
sg70
g3124
sg63
(lp4391
g56
(g77
g58
NtRp4392
(dp4393
g61
(dp4394
g81
g82
ssg70
g4388
sg63
(lp4395
S'session_file'
p4396
asbag56
(g77
g58
NtRp4397
(dp4398
g61
(dp4399
g88
g89
ssg70
g4388
sg63
(lp4400
S':'
asbag56
(g77
g58
NtRp4401
(dp4402
g61
(dp4403
sg70
g4388
sg63
(lp4404
g56
(g57
g58
NtRp4405
(dp4406
g61
(dp4407
g69
I5
ssg70
g4401
sg63
(lp4408
S"<open file '/home/ian/web2py/applications/topoi/sessions/127.0.0.1-b1942b41-f41c-40ad-b7d8-81fd2be1e58f', mode 'rb+' at 0x36b3c00>"
p4409
asbasbasbag56
(g72
g58
NtRp4410
(dp4411
g61
(dp4412
sg70
g3124
sg63
(lp4413
g56
(g77
g58
NtRp4414
(dp4415
g61
(dp4416
g81
g82
ssg70
g4410
sg63
(lp4417
S'session_filename'
p4418
asbag56
(g77
g58
NtRp4419
(dp4420
g61
(dp4421
g88
g89
ssg70
g4410
sg63
(lp4422
S':'
asbag56
(g77
g58
NtRp4423
(dp4424
g61
(dp4425
sg70
g4410
sg63
(lp4426
g56
(g57
g58
NtRp4427
(dp4428
g61
(dp4429
g69
I5
ssg70
g4423
sg63
(lp4430
S'/home/ian/web2py/applications/topoi/sessions/127.0.0.1-b1942b41-f41c-40ad-b7d8-81fd2be1e58f'
p4431
asbasbasbag56
(g72
g58
NtRp4432
(dp4433
g61
(dp4434
sg70
g3124
sg63
(lp4435
g56
(g77
g58
NtRp4436
(dp4437
g61
(dp4438
g81
g82
ssg70
g4432
sg63
(lp4439
S'session_id'
p4440
asbag56
(g77
g58
NtRp4441
(dp4442
g61
(dp4443
g88
g89
ssg70
g4432
sg63
(lp4444
S':'
asbag56
(g77
g58
NtRp4445
(dp4446
g61
(dp4447
sg70
g4432
sg63
(lp4448
g56
(g57
g58
NtRp4449
(dp4450
g61
(dp4451
g69
I5
ssg70
g4445
sg63
(lp4452
S'127.0.0.1-b1942b41-f41c-40ad-b7d8-81fd2be1e58f'
p4453
asbasbasbag56
(g72
g58
NtRp4454
(dp4455
g61
(dp4456
sg70
g3124
sg63
(lp4457
g56
(g77
g58
NtRp4458
(dp4459
g61
(dp4460
g81
g82
ssg70
g4454
sg63
(lp4461
S'session_id_name'
p4462
asbag56
(g77
g58
NtRp4463
(dp4464
g61
(dp4465
g88
g89
ssg70
g4454
sg63
(lp4466
S':'
asbag56
(g77
g58
NtRp4467
(dp4468
g61
(dp4469
sg70
g4454
sg63
(lp4470
g56
(g57
g58
NtRp4471
(dp4472
g61
(dp4473
g69
I5
ssg70
g4467
sg63
(lp4474
g3181
asbasbasbag56
(g72
g58
NtRp4475
(dp4476
g61
(dp4477
sg70
g3124
sg63
(lp4478
g56
(g77
g58
NtRp4479
(dp4480
g61
(dp4481
g81
g82
ssg70
g4475
sg63
(lp4482
S'session_locked'
p4483
asbag56
(g77
g58
NtRp4484
(dp4485
g61
(dp4486
g88
g89
ssg70
g4475
sg63
(lp4487
S':'
asbag56
(g77
g58
NtRp4488
(dp4489
g61
(dp4490
sg70
g4475
sg63
(lp4491
g56
(g57
g58
NtRp4492
(dp4493
g61
(dp4494
g69
I5
ssg70
g4488
sg63
(lp4495
g99
asbasbasbag56
(g72
g58
NtRp4496
(dp4497
g61
(dp4498
sg70
g3124
sg63
(lp4499
g56
(g77
g58
NtRp4500
(dp4501
g61
(dp4502
g81
g82
ssg70
g4496
sg63
(lp4503
S'session_new'
p4504
asbag56
(g77
g58
NtRp4505
(dp4506
g61
(dp4507
g88
g89
ssg70
g4496
sg63
(lp4508
S':'
asbag56
(g77
g58
NtRp4509
(dp4510
g61
(dp4511
sg70
g4496
sg63
(lp4512
g56
(g57
g58
NtRp4513
(dp4514
g61
(dp4515
g69
I5
ssg70
g4509
sg63
(lp4516
g835
asbasbasbag56
(g72
g58
NtRp4517
(dp4518
g61
(dp4519
sg70
g3124
sg63
(lp4520
g56
(g77
g58
NtRp4521
(dp4522
g61
(dp4523
g81
g82
ssg70
g4517
sg63
(lp4524
S'status'
p4525
asbag56
(g77
g58
NtRp4526
(dp4527
g61
(dp4528
g88
g89
ssg70
g4517
sg63
(lp4529
S':'
asbag56
(g77
g58
NtRp4530
(dp4531
g61
(dp4532
sg70
g4517
sg63
(lp4533
g56
(g57
g58
NtRp4534
(dp4535
g61
(dp4536
g69
I5
ssg70
g4530
sg63
(lp4537
S'200'
p4538
asbasbasbag56
(g72
g58
NtRp4539
(dp4540
g61
(dp4541
sg70
g3124
sg63
(lp4542
g56
(g77
g58
NtRp4543
(dp4544
g61
(dp4545
g81
g82
ssg70
g4539
sg63
(lp4546
S'subtitle'
p4547
asbag56
(g77
g58
NtRp4548
(dp4549
g61
(dp4550
g88
g89
ssg70
g4539
sg63
(lp4551
S':'
asbag56
(g77
g58
NtRp4552
(dp4553
g61
(dp4554
sg70
g4539
sg63
(lp4555
g56
(g57
g58
NtRp4556
(dp4557
g61
(dp4558
g69
I5
ssg70
g4552
sg63
(lp4559
g3629
(S's;\x00\x00\x00A tool for managing primary-text research in the humanities'
tRp4560
asbasbasbag56
(g72
g58
NtRp4561
(dp4562
g61
(dp4563
sg70
g3124
sg63
(lp4564
g56
(g77
g58
NtRp4565
(dp4566
g61
(dp4567
g81
g82
ssg70
g4561
sg63
(lp4568
S'title'
p4569
asbag56
(g77
g58
NtRp4570
(dp4571
g61
(dp4572
g88
g89
ssg70
g4561
sg63
(lp4573
S':'
asbag56
(g77
g58
NtRp4574
(dp4575
g61
(dp4576
sg70
g4561
sg63
(lp4577
g56
(g57
g58
NtRp4578
(dp4579
g61
(dp4580
g69
I5
ssg70
g4574
sg63
(lp4581
g121
asbasbasbag56
(g72
g58
NtRp4582
(dp4583
g61
(dp4584
sg70
g3124
sg63
(lp4585
g56
(g77
g58
NtRp4586
(dp4587
g61
(dp4588
g81
g82
ssg70
g4582
sg63
(lp4589
g2284
asbag56
(g77
g58
NtRp4590
(dp4591
g61
(dp4592
g88
g89
ssg70
g4582
sg63
(lp4593
S':'
asbag56
(g77
g58
NtRp4594
(dp4595
g61
(dp4596
sg70
g4582
sg63
(lp4597
g56
(g57
g58
NtRp4598
(dp4599
g61
(dp4600
g69
I5
ssg70
g4594
sg63
(lp4601
g2297
asbasbasbag56
(g72
g58
NtRp4602
(dp4603
g61
(dp4604
sg70
g3124
sg63
(lp4605
g56
(g77
g58
NtRp4606
(dp4607
g61
(dp4608
g81
g82
ssg70
g4602
sg63
(lp4609
S'view'
p4610
asbag56
(g77
g58
NtRp4611
(dp4612
g61
(dp4613
g88
g89
ssg70
g4602
sg63
(lp4614
S':'
asbag56
(g77
g58
NtRp4615
(dp4616
g61
(dp4617
sg70
g4602
sg63
(lp4618
g56
(g57
g58
NtRp4619
(dp4620
g61
(dp4621
g69
I5
ssg70
g4615
sg63
(lp4622
S'plugin_ajaxselect/set_widget.load'
p4623
asbasbasbasbasbsS'locals'
p4624
(dp4625
S'showid'
p4626
g99
sS'ofields'
p4627
S'None'
p4628
sS'delete_label'
p4629
S"'Check to delete:'"
p4630
sS'nbsp'
p4631
S'<gluon.html.XML object>'
p4632
sS'submit_button'
p4633
S"'Submit'"
p4634
sS'table'
p4635
S'<gluon.dal.Field object>'
p4636
sS'formstyle'
p4637
S"'table3cols'"
p4638
sS'self'
p4639
S'<gluon.sqlhtml.SQLFORM object>'
p4640
sS'comments'
p4641
g99
sS'buttons'
p4642
S"['submit']"
p4643
sS'ignore_rw'
p4644
g835
sS'readonly'
p4645
g835
sS'record_id'
p4646
S'None'
p4647
sS'labels'
p4648
S'None'
p4649
sS'col3'
p4650
g44
sS'deletable'
p4651
g835
sS'linkto'
p4652
S'None'
p4653
sS'f'
S'<gluon.dal.Expression object>'
p4654
sS'fields'
p4655
S'None'
p4656
sS'upload'
p4657
S'None'
p4658
sS'keyed'
p4659
g835
sS'record'
p4660
S'None'
p4661
sS'separator'
p4662
S"': '"
p4663
sS'keepopts'
p4664
S'[]'
p4665
sg61
g44
sssS'traceback'
p4666
S'Traceback (most recent call last):\n  File "/home/ian/web2py/gluon/restricted.py", line 194, in restricted\n    exec ccode in environment\n  File "/home/ian/web2py/applications/topoi/controllers/plugin_ajaxselect.py", line 28, in <module>\n  File "/home/ian/web2py/gluon/globals.py", line 149, in <lambda>\n    self._caller = lambda f: f()\n  File "/home/ian/web2py/applications/topoi/controllers/plugin_ajaxselect.py", line 20, in set_widget\n    f = SQLFORM(the_field)\n  File "/home/ian/web2py/gluon/sqlhtml.py", line 735, in __init__\n    fields = [f.name for f in table if (ignore_rw or f.writable or f.readable) and not f.compute]\nAttributeError: \'Expression\' object has no attribute \'writable\'\n'
p4667
s.