(dp1
S'output'
p2
S''
sS'layer'
p3
S'/home/ian/web2py/applications/topoi/controllers/plugin_ajaxselect.py'
p4
sS'code'
p5
S'from gluon.sqlhtml import OptionsWidget\n\n\ndef set_widget():\n    """\n    creates an instance of the OptionsWidget class defined in gluon.sqlhtml and returns the result to populate the ajax LOAD field\n    """\n    #include javascript file to run when button is clicked\n    response.files.append(URL(\'static\',\'plugin_ajaxselect/plugin_ajaxselect.js\'))}}\n\n    #get variables to build widget for the proper field, with proper current value\n    table = request.args[0]\n    field = request.args[1]\n    value = request.args[2]\n\n    the_table = db[table]\n    the_field = the_table[field]\n    print the_field\n\n    w = OptionsWidget.widget(the_field, value)\n\n    #create button to trigger adding dialog\n    bid = table + \'_\' + field + \'_option_add_trigger\'\n    button = A(\'Add New\', _href=\'#\', _id=bid, _class=\'option_add_trigger\')\n\n    return dict(widget = w, button = button)\n\nresponse._vars=response._caller(set_widget)\n'
p6
sS'snapshot'
p7
(dp8
S'exception'
p9
(dp10
S'__getslice__'
p11
S"<method-wrapper '__getslice__' of exceptions.SyntaxError object>"
p12
sS'text'
p13
S'"    response.files.append(URL(\'static\',\'plugin_ajaxselect/plugin_ajaxselect.js\'))}}\\n"'
p14
sS'__str__'
p15
S"<method-wrapper '__str__' of exceptions.SyntaxError object>"
p16
sS'__reduce__'
p17
S'<built-in method __reduce__ of exceptions.SyntaxError object>'
p18
sS'__dict__'
p19
S'{}'
p20
sS'__sizeof__'
p21
S'<built-in method __sizeof__ of exceptions.SyntaxError object>'
p22
sS'__init__'
p23
S"<method-wrapper '__init__' of exceptions.SyntaxError object>"
p24
sS'__setattr__'
p25
S"<method-wrapper '__setattr__' of exceptions.SyntaxError object>"
p26
sS'__reduce_ex__'
p27
S'<built-in method __reduce_ex__ of exceptions.SyntaxError object>'
p28
sS'__new__'
p29
S'<built-in method __new__ of type object>'
p30
sS'__format__'
p31
S'<built-in method __format__ of exceptions.SyntaxError object>'
p32
sS'__class__'
p33
S"<type 'exceptions.SyntaxError'>"
p34
sS'filename'
p35
S"'/home/ian/web2py/applications/topoi/controllers/plugin_ajaxselect.py'"
p36
sS'lineno'
p37
S'9'
sS'msg'
p38
S"'invalid syntax'"
p39
sS'__doc__'
p40
S"'Invalid syntax.'"
p41
sS'__getitem__'
p42
S"<method-wrapper '__getitem__' of exceptions.SyntaxError object>"
p43
sS'__setstate__'
p44
S'<built-in method __setstate__ of exceptions.SyntaxError object>'
p45
sS'__getattribute__'
p46
S"<method-wrapper '__getattribute__' of exceptions.SyntaxError object>"
p47
sS'print_file_and_line'
p48
S'None'
p49
sS'args'
p50
S'(\'invalid syntax\', (\'/home/ian/web2py/applications/topoi/controllers/plugin_ajaxselect.py\', 9, 82, "    response.files.append(URL(\'static\',\'plugin_ajaxselect/plugin_ajaxselect.js\'))}}\\n"))'
p51
sS'__subclasshook__'
p52
S'<built-in method __subclasshook__ of type object>'
p53
sS'offset'
p54
S'82'
p55
sS'__unicode__'
p56
S'<built-in method __unicode__ of exceptions.SyntaxError object>'
p57
sS'__delattr__'
p58
S"<method-wrapper '__delattr__' of exceptions.SyntaxError object>"
p59
sS'__repr__'
p60
S"<method-wrapper '__repr__' of exceptions.SyntaxError object>"
p61
sS'__hash__'
p62
S"<method-wrapper '__hash__' of exceptions.SyntaxError object>"
p63
ssS'evalue'
p64
S'invalid syntax (plugin_ajaxselect.py, line 9)'
p65
sS'request'
p66
ccopy_reg
_reconstructor
p67
(cgluon.html
BEAUTIFY
p68
c__builtin__
object
p69
NtRp70
(dp71
S'attributes'
p72
(dp73
sS'components'
p74
(lp75
g67
(cgluon.html
TABLE
p76
g69
NtRp77
(dp78
g72
(dp79
S'level'
p80
I5
ssS'parent'
p81
Nsg74
(lp82
g67
(cgluon.html
TR
p83
g69
NtRp84
(dp85
g72
(dp86
sg81
g77
sg74
(lp87
g67
(cgluon.html
TD
p88
g69
NtRp89
(dp90
g72
(dp91
S'_style'
p92
S'font-weight:bold;'
p93
ssg81
g84
sg74
(lp94
S'ajax'
p95
asbag67
(g88
g69
NtRp96
(dp97
g72
(dp98
S'_valign'
p99
S'top'
p100
ssg81
g84
sg74
(lp101
S':'
asbag67
(g88
g69
NtRp102
(dp103
g72
(dp104
sg81
g84
sg74
(lp105
g67
(g68
g69
NtRp106
(dp107
g72
(dp108
g80
I5
ssg81
g102
sg74
(lp109
S'True'
p110
asbasbasbag67
(g83
g69
NtRp111
(dp112
g72
(dp113
sg81
g77
sg74
(lp114
g67
(g88
g69
NtRp115
(dp116
g72
(dp117
g92
g93
ssg81
g111
sg74
(lp118
S'application'
p119
asbag67
(g88
g69
NtRp120
(dp121
g72
(dp122
g99
g100
ssg81
g111
sg74
(lp123
S':'
asbag67
(g88
g69
NtRp124
(dp125
g72
(dp126
sg81
g111
sg74
(lp127
g67
(g68
g69
NtRp128
(dp129
g72
(dp130
g80
I5
ssg81
g124
sg74
(lp131
S'topoi'
p132
asbasbasbag67
(g83
g69
NtRp133
(dp134
g72
(dp135
sg81
g77
sg74
(lp136
g67
(g88
g69
NtRp137
(dp138
g72
(dp139
g92
g93
ssg81
g133
sg74
(lp140
g50
asbag67
(g88
g69
NtRp141
(dp142
g72
(dp143
g99
g100
ssg81
g133
sg74
(lp144
S':'
asbag67
(g88
g69
NtRp145
(dp146
g72
(dp147
sg81
g133
sg74
(lp148
g67
(g68
g69
NtRp149
(dp150
g72
(dp151
g80
I5
ssg81
g145
sg74
(lp152
g67
(g76
g69
NtRp153
(dp154
g72
(dp155
g80
I4
ssg81
Nsg74
(lp156
g67
(g83
g69
NtRp157
(dp158
g72
(dp159
sg81
g153
sg74
(lp160
g67
(g88
g69
NtRp161
(dp162
g72
(dp163
sg81
g157
sg74
(lp164
g67
(g68
g69
NtRp165
(dp166
g72
(dp167
g80
I4
ssg81
g161
sg74
(lp168
S'notes'
p169
asbasbasbag67
(g83
g69
NtRp170
(dp171
g72
(dp172
sg81
g153
sg74
(lp173
g67
(g88
g69
NtRp174
(dp175
g72
(dp176
sg81
g170
sg74
(lp177
g67
(g68
g69
NtRp178
(dp179
g72
(dp180
g80
I4
ssg81
g174
sg74
(lp181
S'author'
p182
asbasbasbag67
(g83
g69
NtRp183
(dp184
g72
(dp185
sg81
g153
sg74
(lp186
g67
(g88
g69
NtRp187
(dp188
g72
(dp189
sg81
g183
sg74
(lp190
g67
(g68
g69
NtRp191
(dp192
g72
(dp193
g80
I4
ssg81
g187
sg74
(lp194
S'10'
p195
asbasbasbasbasbasbasbag67
(g83
g69
NtRp196
(dp197
g72
(dp198
sg81
g77
sg74
(lp199
g67
(g88
g69
NtRp200
(dp201
g72
(dp202
g92
g93
ssg81
g196
sg74
(lp203
S'body'
p204
asbag67
(g88
g69
NtRp205
(dp206
g72
(dp207
g99
g100
ssg81
g196
sg74
(lp208
S':'
asbag67
(g88
g69
NtRp209
(dp210
g72
(dp211
sg81
g196
sg74
(lp212
g67
(g68
g69
NtRp213
(dp214
g72
(dp215
g80
I5
ssg81
g209
sg74
(lp216
S'<cStringIO.StringO object at 0x364f8b8>'
p217
asbasbasbag67
(g83
g69
NtRp218
(dp219
g72
(dp220
sg81
g77
sg74
(lp221
g67
(g88
g69
NtRp222
(dp223
g72
(dp224
g92
g93
ssg81
g218
sg74
(lp225
S'cid'
p226
asbag67
(g88
g69
NtRp227
(dp228
g72
(dp229
g99
g100
ssg81
g218
sg74
(lp230
S':'
asbag67
(g88
g69
NtRp231
(dp232
g72
(dp233
sg81
g218
sg74
(lp234
g67
(g68
g69
NtRp235
(dp236
g72
(dp237
g80
I5
ssg81
g231
sg74
(lp238
S'c836900946621'
p239
asbasbasbag67
(g83
g69
NtRp240
(dp241
g72
(dp242
sg81
g77
sg74
(lp243
g67
(g88
g69
NtRp244
(dp245
g72
(dp246
g92
g93
ssg81
g240
sg74
(lp247
S'client'
p248
asbag67
(g88
g69
NtRp249
(dp250
g72
(dp251
g99
g100
ssg81
g240
sg74
(lp252
S':'
asbag67
(g88
g69
NtRp253
(dp254
g72
(dp255
sg81
g240
sg74
(lp256
g67
(g68
g69
NtRp257
(dp258
g72
(dp259
g80
I5
ssg81
g253
sg74
(lp260
S'127.0.0.1'
p261
asbasbasbag67
(g83
g69
NtRp262
(dp263
g72
(dp264
sg81
g77
sg74
(lp265
g67
(g88
g69
NtRp266
(dp267
g72
(dp268
g92
g93
ssg81
g262
sg74
(lp269
S'controller'
p270
asbag67
(g88
g69
NtRp271
(dp272
g72
(dp273
g99
g100
ssg81
g262
sg74
(lp274
S':'
asbag67
(g88
g69
NtRp275
(dp276
g72
(dp277
sg81
g262
sg74
(lp278
g67
(g68
g69
NtRp279
(dp280
g72
(dp281
g80
I5
ssg81
g275
sg74
(lp282
S'plugin_ajaxselect'
p283
asbasbasbag67
(g83
g69
NtRp284
(dp285
g72
(dp286
sg81
g77
sg74
(lp287
g67
(g88
g69
NtRp288
(dp289
g72
(dp290
g92
g93
ssg81
g284
sg74
(lp291
S'cookies'
p292
asbag67
(g88
g69
NtRp293
(dp294
g72
(dp295
g99
g100
ssg81
g284
sg74
(lp296
S':'
asbag67
(g88
g69
NtRp297
(dp298
g72
(dp299
sg81
g284
sg74
(lp300
g67
(g68
g69
NtRp301
(dp302
g72
(dp303
g80
I5
ssg81
g297
sg74
(lp304
g67
(g76
g69
NtRp305
(dp306
g72
(dp307
g80
I4
ssg81
Nsg74
(lp308
g67
(g83
g69
NtRp309
(dp310
g72
(dp311
sg81
g305
sg74
(lp312
g67
(g88
g69
NtRp313
(dp314
g72
(dp315
g92
g93
ssg81
g309
sg74
(lp316
S'session_id_admin'
p317
asbag67
(g88
g69
NtRp318
(dp319
g72
(dp320
g99
g100
ssg81
g309
sg74
(lp321
S':'
asbag67
(g88
g69
NtRp322
(dp323
g72
(dp324
sg81
g309
sg74
(lp325
g67
(g68
g69
NtRp326
(dp327
g72
(dp328
g80
I4
ssg81
g322
sg74
(lp329
g67
(g76
g69
NtRp330
(dp331
g72
(dp332
g80
I3
ssg81
Nsg74
(lp333
g67
(g83
g69
NtRp334
(dp335
g72
(dp336
sg81
g330
sg74
(lp337
g67
(g88
g69
NtRp338
(dp339
g72
(dp340
g92
g93
ssg81
g334
sg74
(lp341
S'comment'
p342
asbag67
(g88
g69
NtRp343
(dp344
g72
(dp345
g99
g100
ssg81
g334
sg74
(lp346
S':'
asbag67
(g88
g69
NtRp347
(dp348
g72
(dp349
sg81
g334
sg74
(lp350
g67
(g68
g69
NtRp351
(dp352
g72
(dp353
g80
I3
ssg81
g347
sg74
(lp354
S''
asbasbasbag67
(g83
g69
NtRp355
(dp356
g72
(dp357
sg81
g330
sg74
(lp358
g67
(g88
g69
NtRp359
(dp360
g72
(dp361
g92
g93
ssg81
g355
sg74
(lp362
S'domain'
p363
asbag67
(g88
g69
NtRp364
(dp365
g72
(dp366
g99
g100
ssg81
g355
sg74
(lp367
S':'
asbag67
(g88
g69
NtRp368
(dp369
g72
(dp370
sg81
g355
sg74
(lp371
g67
(g68
g69
NtRp372
(dp373
g72
(dp374
g80
I3
ssg81
g368
sg74
(lp375
S''
asbasbasbag67
(g83
g69
NtRp376
(dp377
g72
(dp378
sg81
g330
sg74
(lp379
g67
(g88
g69
NtRp380
(dp381
g72
(dp382
g92
g93
ssg81
g376
sg74
(lp383
S'expires'
p384
asbag67
(g88
g69
NtRp385
(dp386
g72
(dp387
g99
g100
ssg81
g376
sg74
(lp388
S':'
asbag67
(g88
g69
NtRp389
(dp390
g72
(dp391
sg81
g376
sg74
(lp392
g67
(g68
g69
NtRp393
(dp394
g72
(dp395
g80
I3
ssg81
g389
sg74
(lp396
S''
asbasbasbag67
(g83
g69
NtRp397
(dp398
g72
(dp399
sg81
g330
sg74
(lp400
g67
(g88
g69
NtRp401
(dp402
g72
(dp403
g92
g93
ssg81
g397
sg74
(lp404
S'httponly'
p405
asbag67
(g88
g69
NtRp406
(dp407
g72
(dp408
g99
g100
ssg81
g397
sg74
(lp409
S':'
asbag67
(g88
g69
NtRp410
(dp411
g72
(dp412
sg81
g397
sg74
(lp413
g67
(g68
g69
NtRp414
(dp415
g72
(dp416
g80
I3
ssg81
g410
sg74
(lp417
S''
asbasbasbag67
(g83
g69
NtRp418
(dp419
g72
(dp420
sg81
g330
sg74
(lp421
g67
(g88
g69
NtRp422
(dp423
g72
(dp424
g92
g93
ssg81
g418
sg74
(lp425
S'max-age'
p426
asbag67
(g88
g69
NtRp427
(dp428
g72
(dp429
g99
g100
ssg81
g418
sg74
(lp430
S':'
asbag67
(g88
g69
NtRp431
(dp432
g72
(dp433
sg81
g418
sg74
(lp434
g67
(g68
g69
NtRp435
(dp436
g72
(dp437
g80
I3
ssg81
g431
sg74
(lp438
S''
asbasbasbag67
(g83
g69
NtRp439
(dp440
g72
(dp441
sg81
g330
sg74
(lp442
g67
(g88
g69
NtRp443
(dp444
g72
(dp445
g92
g93
ssg81
g439
sg74
(lp446
S'path'
p447
asbag67
(g88
g69
NtRp448
(dp449
g72
(dp450
g99
g100
ssg81
g439
sg74
(lp451
S':'
asbag67
(g88
g69
NtRp452
(dp453
g72
(dp454
sg81
g439
sg74
(lp455
g67
(g68
g69
NtRp456
(dp457
g72
(dp458
g80
I3
ssg81
g452
sg74
(lp459
S''
asbasbasbag67
(g83
g69
NtRp460
(dp461
g72
(dp462
sg81
g330
sg74
(lp463
g67
(g88
g69
NtRp464
(dp465
g72
(dp466
g92
g93
ssg81
g460
sg74
(lp467
S'secure'
p468
asbag67
(g88
g69
NtRp469
(dp470
g72
(dp471
g99
g100
ssg81
g460
sg74
(lp472
S':'
asbag67
(g88
g69
NtRp473
(dp474
g72
(dp475
sg81
g460
sg74
(lp476
g67
(g68
g69
NtRp477
(dp478
g72
(dp479
g80
I3
ssg81
g473
sg74
(lp480
S''
asbasbasbag67
(g83
g69
NtRp481
(dp482
g72
(dp483
sg81
g330
sg74
(lp484
g67
(g88
g69
NtRp485
(dp486
g72
(dp487
g92
g93
ssg81
g481
sg74
(lp488
S'version'
p489
asbag67
(g88
g69
NtRp490
(dp491
g72
(dp492
g99
g100
ssg81
g481
sg74
(lp493
S':'
asbag67
(g88
g69
NtRp494
(dp495
g72
(dp496
sg81
g481
sg74
(lp497
g67
(g68
g69
NtRp498
(dp499
g72
(dp500
g80
I3
ssg81
g494
sg74
(lp501
S''
asbasbasbasbasbasbasbag67
(g83
g69
NtRp502
(dp503
g72
(dp504
sg81
g305
sg74
(lp505
g67
(g88
g69
NtRp506
(dp507
g72
(dp508
g92
g93
ssg81
g502
sg74
(lp509
S'session_id_topoi'
p510
asbag67
(g88
g69
NtRp511
(dp512
g72
(dp513
g99
g100
ssg81
g502
sg74
(lp514
S':'
asbag67
(g88
g69
NtRp515
(dp516
g72
(dp517
sg81
g502
sg74
(lp518
g67
(g68
g69
NtRp519
(dp520
g72
(dp521
g80
I4
ssg81
g515
sg74
(lp522
g67
(g76
g69
NtRp523
(dp524
g72
(dp525
g80
I3
ssg81
Nsg74
(lp526
g67
(g83
g69
NtRp527
(dp528
g72
(dp529
sg81
g523
sg74
(lp530
g67
(g88
g69
NtRp531
(dp532
g72
(dp533
g92
g93
ssg81
g527
sg74
(lp534
g342
asbag67
(g88
g69
NtRp535
(dp536
g72
(dp537
g99
g100
ssg81
g527
sg74
(lp538
S':'
asbag67
(g88
g69
NtRp539
(dp540
g72
(dp541
sg81
g527
sg74
(lp542
g67
(g68
g69
NtRp543
(dp544
g72
(dp545
g80
I3
ssg81
g539
sg74
(lp546
S''
asbasbasbag67
(g83
g69
NtRp547
(dp548
g72
(dp549
sg81
g523
sg74
(lp550
g67
(g88
g69
NtRp551
(dp552
g72
(dp553
g92
g93
ssg81
g547
sg74
(lp554
g363
asbag67
(g88
g69
NtRp555
(dp556
g72
(dp557
g99
g100
ssg81
g547
sg74
(lp558
S':'
asbag67
(g88
g69
NtRp559
(dp560
g72
(dp561
sg81
g547
sg74
(lp562
g67
(g68
g69
NtRp563
(dp564
g72
(dp565
g80
I3
ssg81
g559
sg74
(lp566
S''
asbasbasbag67
(g83
g69
NtRp567
(dp568
g72
(dp569
sg81
g523
sg74
(lp570
g67
(g88
g69
NtRp571
(dp572
g72
(dp573
g92
g93
ssg81
g567
sg74
(lp574
g384
asbag67
(g88
g69
NtRp575
(dp576
g72
(dp577
g99
g100
ssg81
g567
sg74
(lp578
S':'
asbag67
(g88
g69
NtRp579
(dp580
g72
(dp581
sg81
g567
sg74
(lp582
g67
(g68
g69
NtRp583
(dp584
g72
(dp585
g80
I3
ssg81
g579
sg74
(lp586
S''
asbasbasbag67
(g83
g69
NtRp587
(dp588
g72
(dp589
sg81
g523
sg74
(lp590
g67
(g88
g69
NtRp591
(dp592
g72
(dp593
g92
g93
ssg81
g587
sg74
(lp594
g405
asbag67
(g88
g69
NtRp595
(dp596
g72
(dp597
g99
g100
ssg81
g587
sg74
(lp598
S':'
asbag67
(g88
g69
NtRp599
(dp600
g72
(dp601
sg81
g587
sg74
(lp602
g67
(g68
g69
NtRp603
(dp604
g72
(dp605
g80
I3
ssg81
g599
sg74
(lp606
S''
asbasbasbag67
(g83
g69
NtRp607
(dp608
g72
(dp609
sg81
g523
sg74
(lp610
g67
(g88
g69
NtRp611
(dp612
g72
(dp613
g92
g93
ssg81
g607
sg74
(lp614
g426
asbag67
(g88
g69
NtRp615
(dp616
g72
(dp617
g99
g100
ssg81
g607
sg74
(lp618
S':'
asbag67
(g88
g69
NtRp619
(dp620
g72
(dp621
sg81
g607
sg74
(lp622
g67
(g68
g69
NtRp623
(dp624
g72
(dp625
g80
I3
ssg81
g619
sg74
(lp626
S''
asbasbasbag67
(g83
g69
NtRp627
(dp628
g72
(dp629
sg81
g523
sg74
(lp630
g67
(g88
g69
NtRp631
(dp632
g72
(dp633
g92
g93
ssg81
g627
sg74
(lp634
g447
asbag67
(g88
g69
NtRp635
(dp636
g72
(dp637
g99
g100
ssg81
g627
sg74
(lp638
S':'
asbag67
(g88
g69
NtRp639
(dp640
g72
(dp641
sg81
g627
sg74
(lp642
g67
(g68
g69
NtRp643
(dp644
g72
(dp645
g80
I3
ssg81
g639
sg74
(lp646
S''
asbasbasbag67
(g83
g69
NtRp647
(dp648
g72
(dp649
sg81
g523
sg74
(lp650
g67
(g88
g69
NtRp651
(dp652
g72
(dp653
g92
g93
ssg81
g647
sg74
(lp654
g468
asbag67
(g88
g69
NtRp655
(dp656
g72
(dp657
g99
g100
ssg81
g647
sg74
(lp658
S':'
asbag67
(g88
g69
NtRp659
(dp660
g72
(dp661
sg81
g647
sg74
(lp662
g67
(g68
g69
NtRp663
(dp664
g72
(dp665
g80
I3
ssg81
g659
sg74
(lp666
S''
asbasbasbag67
(g83
g69
NtRp667
(dp668
g72
(dp669
sg81
g523
sg74
(lp670
g67
(g88
g69
NtRp671
(dp672
g72
(dp673
g92
g93
ssg81
g667
sg74
(lp674
g489
asbag67
(g88
g69
NtRp675
(dp676
g72
(dp677
g99
g100
ssg81
g667
sg74
(lp678
S':'
asbag67
(g88
g69
NtRp679
(dp680
g72
(dp681
sg81
g667
sg74
(lp682
g67
(g68
g69
NtRp683
(dp684
g72
(dp685
g80
I3
ssg81
g679
sg74
(lp686
S''
asbasbasbasbasbasbasbasbasbasbasbag67
(g83
g69
NtRp687
(dp688
g72
(dp689
sg81
g77
sg74
(lp690
g67
(g88
g69
NtRp691
(dp692
g72
(dp693
g92
g93
ssg81
g687
sg74
(lp694
S'env'
p695
asbag67
(g88
g69
NtRp696
(dp697
g72
(dp698
g99
g100
ssg81
g687
sg74
(lp699
S':'
asbag67
(g88
g69
NtRp700
(dp701
g72
(dp702
sg81
g687
sg74
(lp703
g67
(g68
g69
NtRp704
(dp705
g72
(dp706
g80
I5
ssg81
g700
sg74
(lp707
g67
(g76
g69
NtRp708
(dp709
g72
(dp710
g80
I4
ssg81
Nsg74
(lp711
g67
(g83
g69
NtRp712
(dp713
g72
(dp714
sg81
g708
sg74
(lp715
g67
(g88
g69
NtRp716
(dp717
g72
(dp718
g92
g93
ssg81
g712
sg74
(lp719
S'app_folders'
p720
asbag67
(g88
g69
NtRp721
(dp722
g72
(dp723
g99
g100
ssg81
g712
sg74
(lp724
S':'
asbag67
(g88
g69
NtRp725
(dp726
g72
(dp727
sg81
g712
sg74
(lp728
g67
(g68
g69
NtRp729
(dp730
g72
(dp731
g80
I4
ssg81
g725
sg74
(lp732
S"set(['/home/ian/web2py/applications/topoi/', '/home/ian/web2py/applications/welcome/', '/home/ian/web2py/applications/admin/'])"
p733
asbasbasbag67
(g83
g69
NtRp734
(dp735
g72
(dp736
sg81
g708
sg74
(lp737
g67
(g88
g69
NtRp738
(dp739
g72
(dp740
g92
g93
ssg81
g734
sg74
(lp741
S'applications_parent'
p742
asbag67
(g88
g69
NtRp743
(dp744
g72
(dp745
g99
g100
ssg81
g734
sg74
(lp746
S':'
asbag67
(g88
g69
NtRp747
(dp748
g72
(dp749
sg81
g734
sg74
(lp750
g67
(g68
g69
NtRp751
(dp752
g72
(dp753
g80
I4
ssg81
g747
sg74
(lp754
S'/home/ian/web2py'
p755
asbasbasbag67
(g83
g69
NtRp756
(dp757
g72
(dp758
sg81
g708
sg74
(lp759
g67
(g88
g69
NtRp760
(dp761
g72
(dp762
g92
g93
ssg81
g756
sg74
(lp763
S'cmd_args'
p764
asbag67
(g88
g69
NtRp765
(dp766
g72
(dp767
g99
g100
ssg81
g756
sg74
(lp768
S':'
asbag67
(g88
g69
NtRp769
(dp770
g72
(dp771
sg81
g756
sg74
(lp772
g67
(g68
g69
NtRp773
(dp774
g72
(dp775
g80
I4
ssg81
g769
sg74
(lp776
g67
(g76
g69
NtRp777
(dp778
g72
(dp779
g80
I3
ssg81
Nsg74
(lp780
sbasbasbasbag67
(g83
g69
NtRp781
(dp782
g72
(dp783
sg81
g708
sg74
(lp784
g67
(g88
g69
NtRp785
(dp786
g72
(dp787
g92
g93
ssg81
g781
sg74
(lp788
S'cmd_options'
p789
asbag67
(g88
g69
NtRp790
(dp791
g72
(dp792
g99
g100
ssg81
g781
sg74
(lp793
S':'
asbag67
(g88
g69
NtRp794
(dp795
g72
(dp796
sg81
g781
sg74
(lp797
g67
(g68
g69
NtRp798
(dp799
g72
(dp800
g80
I4
ssg81
g794
sg74
(lp801
S"<Values at 0x2a387e8: {'verbose': False, 'ip': '127.0.0.1', 'shutdown_timeout': 5, 'taskbar': False, 'nocron': False, 'pid_filename': 'httpserver.pid', 'maxthreads': None, 'softcron': False, 'server_name': 'Ariel-ubuntu', 'bpython': False, 'nogui': False, 'port': 8000, 'extcron': False, 'debuglevel': 30, 'test': None, 'folder': '/home/ian/web2py', 'config': '', 'import_models': False, 'winservice': '', 'shell': None, 'run': '', 'log_filename': 'httpserver.log', 'args': [''], 'ssl_ca_certificate': None, 'scheduler': None, 'profiler_filename': None, 'ssl_private_key': '', 'password': '<ask>', 'request_queue_size': 5, 'ssl_certificate': '', 'cronjob': False, 'plain': False, 'quiet': False, 'interfaces': None, 'minthreads': None, 'timeout': 10, 'numthreads': None, 'nobanner': False}>"
p802
asbasbasbag67
(g83
g69
NtRp803
(dp804
g72
(dp805
sg81
g708
sg74
(lp806
g67
(g88
g69
NtRp807
(dp808
g72
(dp809
g92
g93
ssg81
g803
sg74
(lp810
S'db_sessions'
p811
asbag67
(g88
g69
NtRp812
(dp813
g72
(dp814
g99
g100
ssg81
g803
sg74
(lp815
S':'
asbag67
(g88
g69
NtRp816
(dp817
g72
(dp818
sg81
g803
sg74
(lp819
g67
(g68
g69
NtRp820
(dp821
g72
(dp822
g80
I4
ssg81
g816
sg74
(lp823
S'set([])'
p824
asbasbasbag67
(g83
g69
NtRp825
(dp826
g72
(dp827
sg81
g708
sg74
(lp828
g67
(g88
g69
NtRp829
(dp830
g72
(dp831
g92
g93
ssg81
g825
sg74
(lp832
S'debugging'
p833
asbag67
(g88
g69
NtRp834
(dp835
g72
(dp836
g99
g100
ssg81
g825
sg74
(lp837
S':'
asbag67
(g88
g69
NtRp838
(dp839
g72
(dp840
sg81
g825
sg74
(lp841
g67
(g68
g69
NtRp842
(dp843
g72
(dp844
g80
I4
ssg81
g838
sg74
(lp845
S'False'
p846
asbasbasbag67
(g83
g69
NtRp847
(dp848
g72
(dp849
sg81
g708
sg74
(lp850
g67
(g88
g69
NtRp851
(dp852
g72
(dp853
g92
g93
ssg81
g847
sg74
(lp854
S'gluon_parent'
p855
asbag67
(g88
g69
NtRp856
(dp857
g72
(dp858
g99
g100
ssg81
g847
sg74
(lp859
S':'
asbag67
(g88
g69
NtRp860
(dp861
g72
(dp862
sg81
g847
sg74
(lp863
g67
(g68
g69
NtRp864
(dp865
g72
(dp866
g80
I4
ssg81
g860
sg74
(lp867
S'/home/ian/web2py'
p868
asbasbasbag67
(g83
g69
NtRp869
(dp870
g72
(dp871
sg81
g708
sg74
(lp872
g67
(g88
g69
NtRp873
(dp874
g72
(dp875
g92
g93
ssg81
g869
sg74
(lp876
S'http_accept'
p877
asbag67
(g88
g69
NtRp878
(dp879
g72
(dp880
g99
g100
ssg81
g869
sg74
(lp881
S':'
asbag67
(g88
g69
NtRp882
(dp883
g72
(dp884
sg81
g869
sg74
(lp885
g67
(g68
g69
NtRp886
(dp887
g72
(dp888
g80
I4
ssg81
g882
sg74
(lp889
S'*/*'
p890
asbasbasbag67
(g83
g69
NtRp891
(dp892
g72
(dp893
sg81
g708
sg74
(lp894
g67
(g88
g69
NtRp895
(dp896
g72
(dp897
g92
g93
ssg81
g891
sg74
(lp898
S'http_accept_charset'
p899
asbag67
(g88
g69
NtRp900
(dp901
g72
(dp902
g99
g100
ssg81
g891
sg74
(lp903
S':'
asbag67
(g88
g69
NtRp904
(dp905
g72
(dp906
sg81
g891
sg74
(lp907
g67
(g68
g69
NtRp908
(dp909
g72
(dp910
g80
I4
ssg81
g904
sg74
(lp911
S'ISO-8859-1,utf-8;q=0.7,*;q=0.7'
p912
asbasbasbag67
(g83
g69
NtRp913
(dp914
g72
(dp915
sg81
g708
sg74
(lp916
g67
(g88
g69
NtRp917
(dp918
g72
(dp919
g92
g93
ssg81
g913
sg74
(lp920
S'http_accept_encoding'
p921
asbag67
(g88
g69
NtRp922
(dp923
g72
(dp924
g99
g100
ssg81
g913
sg74
(lp925
S':'
asbag67
(g88
g69
NtRp926
(dp927
g72
(dp928
sg81
g913
sg74
(lp929
g67
(g68
g69
NtRp930
(dp931
g72
(dp932
g80
I4
ssg81
g926
sg74
(lp933
S'gzip, deflate'
p934
asbasbasbag67
(g83
g69
NtRp935
(dp936
g72
(dp937
sg81
g708
sg74
(lp938
g67
(g88
g69
NtRp939
(dp940
g72
(dp941
g92
g93
ssg81
g935
sg74
(lp942
S'http_accept_language'
p943
asbag67
(g88
g69
NtRp944
(dp945
g72
(dp946
g99
g100
ssg81
g935
sg74
(lp947
S':'
asbag67
(g88
g69
NtRp948
(dp949
g72
(dp950
sg81
g935
sg74
(lp951
g67
(g68
g69
NtRp952
(dp953
g72
(dp954
g80
I4
ssg81
g948
sg74
(lp955
S'en-us,en;q=0.5'
p956
asbasbasbag67
(g83
g69
NtRp957
(dp958
g72
(dp959
sg81
g708
sg74
(lp960
g67
(g88
g69
NtRp961
(dp962
g72
(dp963
g92
g93
ssg81
g957
sg74
(lp964
S'http_connection'
p965
asbag67
(g88
g69
NtRp966
(dp967
g72
(dp968
g99
g100
ssg81
g957
sg74
(lp969
S':'
asbag67
(g88
g69
NtRp970
(dp971
g72
(dp972
sg81
g957
sg74
(lp973
g67
(g68
g69
NtRp974
(dp975
g72
(dp976
g80
I4
ssg81
g970
sg74
(lp977
S'keep-alive'
p978
asbasbasbag67
(g83
g69
NtRp979
(dp980
g72
(dp981
sg81
g708
sg74
(lp982
g67
(g88
g69
NtRp983
(dp984
g72
(dp985
g92
g93
ssg81
g979
sg74
(lp986
S'http_cookie'
p987
asbag67
(g88
g69
NtRp988
(dp989
g72
(dp990
g99
g100
ssg81
g979
sg74
(lp991
S':'
asbag67
(g88
g69
NtRp992
(dp993
g72
(dp994
sg81
g979
sg74
(lp995
g67
(g68
g69
NtRp996
(dp997
g72
(dp998
g80
I4
ssg81
g992
sg74
(lp999
S'__utma_a2a=9789918665.1351576430.1320019504.1320019504.1320019504.1; session_id_topoi=127.0.0.1-b1942b41-f41c-40ad-b7d8-81fd2be1e58f; session_id_admin=127.0.0.1-198f9deb-093c-4095-9ced-7bd3c9ee0d23'
p1000
asbasbasbag67
(g83
g69
NtRp1001
(dp1002
g72
(dp1003
sg81
g708
sg74
(lp1004
g67
(g88
g69
NtRp1005
(dp1006
g72
(dp1007
g92
g93
ssg81
g1001
sg74
(lp1008
S'http_host'
p1009
asbag67
(g88
g69
NtRp1010
(dp1011
g72
(dp1012
g99
g100
ssg81
g1001
sg74
(lp1013
S':'
asbag67
(g88
g69
NtRp1014
(dp1015
g72
(dp1016
sg81
g1001
sg74
(lp1017
g67
(g68
g69
NtRp1018
(dp1019
g72
(dp1020
g80
I4
ssg81
g1014
sg74
(lp1021
S'127.0.0.1:8000'
p1022
asbasbasbag67
(g83
g69
NtRp1023
(dp1024
g72
(dp1025
sg81
g708
sg74
(lp1026
g67
(g88
g69
NtRp1027
(dp1028
g72
(dp1029
g92
g93
ssg81
g1023
sg74
(lp1030
S'http_referer'
p1031
asbag67
(g88
g69
NtRp1032
(dp1033
g72
(dp1034
g99
g100
ssg81
g1023
sg74
(lp1035
S':'
asbag67
(g88
g69
NtRp1036
(dp1037
g72
(dp1038
sg81
g1023
sg74
(lp1039
g67
(g68
g69
NtRp1040
(dp1041
g72
(dp1042
g80
I4
ssg81
g1036
sg74
(lp1043
S'http://127.0.0.1:8000/topoi/plugin_listandedit/list/notes/2?fields=author&fields=work&fields=reference'
p1044
asbasbasbag67
(g83
g69
NtRp1045
(dp1046
g72
(dp1047
sg81
g708
sg74
(lp1048
g67
(g88
g69
NtRp1049
(dp1050
g72
(dp1051
g92
g93
ssg81
g1045
sg74
(lp1052
S'http_user_agent'
p1053
asbag67
(g88
g69
NtRp1054
(dp1055
g72
(dp1056
g99
g100
ssg81
g1045
sg74
(lp1057
S':'
asbag67
(g88
g69
NtRp1058
(dp1059
g72
(dp1060
sg81
g1045
sg74
(lp1061
g67
(g68
g69
NtRp1062
(dp1063
g72
(dp1064
g80
I4
ssg81
g1058
sg74
(lp1065
S'Mozilla/5.0 (Ubuntu; X11; Linux x86_64; rv:8.0) Gecko/20100101 Firefox/8.0'
p1066
asbasbasbag67
(g83
g69
NtRp1067
(dp1068
g72
(dp1069
sg81
g708
sg74
(lp1070
g67
(g88
g69
NtRp1071
(dp1072
g72
(dp1073
g92
g93
ssg81
g1067
sg74
(lp1074
S'http_web2py_component_element'
p1075
asbag67
(g88
g69
NtRp1076
(dp1077
g72
(dp1078
g99
g100
ssg81
g1067
sg74
(lp1079
S':'
asbag67
(g88
g69
NtRp1080
(dp1081
g72
(dp1082
sg81
g1067
sg74
(lp1083
g67
(g68
g69
NtRp1084
(dp1085
g72
(dp1086
g80
I4
ssg81
g1080
sg74
(lp1087
g239
asbasbasbag67
(g83
g69
NtRp1088
(dp1089
g72
(dp1090
sg81
g708
sg74
(lp1091
g67
(g88
g69
NtRp1092
(dp1093
g72
(dp1094
g92
g93
ssg81
g1088
sg74
(lp1095
S'http_web2py_component_location'
p1096
asbag67
(g88
g69
NtRp1097
(dp1098
g72
(dp1099
g99
g100
ssg81
g1088
sg74
(lp1100
S':'
asbag67
(g88
g69
NtRp1101
(dp1102
g72
(dp1103
sg81
g1088
sg74
(lp1104
g67
(g68
g69
NtRp1105
(dp1106
g72
(dp1107
g80
I4
ssg81
g1101
sg74
(lp1108
S'http://127.0.0.1:8000/topoi/plugin_listandedit/list/notes/2?fields=author&fields=work&fields=reference'
p1109
asbasbasbag67
(g83
g69
NtRp1110
(dp1111
g72
(dp1112
sg81
g708
sg74
(lp1113
g67
(g88
g69
NtRp1114
(dp1115
g72
(dp1116
g92
g93
ssg81
g1110
sg74
(lp1117
S'http_x_requested_with'
p1118
asbag67
(g88
g69
NtRp1119
(dp1120
g72
(dp1121
g99
g100
ssg81
g1110
sg74
(lp1122
S':'
asbag67
(g88
g69
NtRp1123
(dp1124
g72
(dp1125
sg81
g1110
sg74
(lp1126
g67
(g68
g69
NtRp1127
(dp1128
g72
(dp1129
g80
I4
ssg81
g1123
sg74
(lp1130
S'XMLHttpRequest'
p1131
asbasbasbag67
(g83
g69
NtRp1132
(dp1133
g72
(dp1134
sg81
g708
sg74
(lp1135
g67
(g88
g69
NtRp1136
(dp1137
g72
(dp1138
g92
g93
ssg81
g1132
sg74
(lp1139
S'is_jython'
p1140
asbag67
(g88
g69
NtRp1141
(dp1142
g72
(dp1143
g99
g100
ssg81
g1132
sg74
(lp1144
S':'
asbag67
(g88
g69
NtRp1145
(dp1146
g72
(dp1147
sg81
g1132
sg74
(lp1148
g67
(g68
g69
NtRp1149
(dp1150
g72
(dp1151
g80
I4
ssg81
g1145
sg74
(lp1152
g846
asbasbasbag67
(g83
g69
NtRp1153
(dp1154
g72
(dp1155
sg81
g708
sg74
(lp1156
g67
(g88
g69
NtRp1157
(dp1158
g72
(dp1159
g92
g93
ssg81
g1153
sg74
(lp1160
S'path_info'
p1161
asbag67
(g88
g69
NtRp1162
(dp1163
g72
(dp1164
g99
g100
ssg81
g1153
sg74
(lp1165
S':'
asbag67
(g88
g69
NtRp1166
(dp1167
g72
(dp1168
sg81
g1153
sg74
(lp1169
g67
(g68
g69
NtRp1170
(dp1171
g72
(dp1172
g80
I4
ssg81
g1166
sg74
(lp1173
S'/topoi/plugin_ajaxselect/set_widget.load/notes/author/10'
p1174
asbasbasbag67
(g83
g69
NtRp1175
(dp1176
g72
(dp1177
sg81
g708
sg74
(lp1178
g67
(g88
g69
NtRp1179
(dp1180
g72
(dp1181
g92
g93
ssg81
g1175
sg74
(lp1182
S'query_string'
p1183
asbag67
(g88
g69
NtRp1184
(dp1185
g72
(dp1186
g99
g100
ssg81
g1175
sg74
(lp1187
S':'
asbag67
(g88
g69
NtRp1188
(dp1189
g72
(dp1190
sg81
g1175
sg74
(lp1191
g67
(g68
g69
NtRp1192
(dp1193
g72
(dp1194
g80
I4
ssg81
g1188
sg74
(lp1195
S''
asbasbasbag67
(g83
g69
NtRp1196
(dp1197
g72
(dp1198
sg81
g708
sg74
(lp1199
g67
(g88
g69
NtRp1200
(dp1201
g72
(dp1202
g92
g93
ssg81
g1196
sg74
(lp1203
S'remote_addr'
p1204
asbag67
(g88
g69
NtRp1205
(dp1206
g72
(dp1207
g99
g100
ssg81
g1196
sg74
(lp1208
S':'
asbag67
(g88
g69
NtRp1209
(dp1210
g72
(dp1211
sg81
g1196
sg74
(lp1212
g67
(g68
g69
NtRp1213
(dp1214
g72
(dp1215
g80
I4
ssg81
g1209
sg74
(lp1216
g261
asbasbasbag67
(g83
g69
NtRp1217
(dp1218
g72
(dp1219
sg81
g708
sg74
(lp1220
g67
(g88
g69
NtRp1221
(dp1222
g72
(dp1223
g92
g93
ssg81
g1217
sg74
(lp1224
S'remote_port'
p1225
asbag67
(g88
g69
NtRp1226
(dp1227
g72
(dp1228
g99
g100
ssg81
g1217
sg74
(lp1229
S':'
asbag67
(g88
g69
NtRp1230
(dp1231
g72
(dp1232
sg81
g1217
sg74
(lp1233
g67
(g68
g69
NtRp1234
(dp1235
g72
(dp1236
g80
I4
ssg81
g1230
sg74
(lp1237
S'36329'
p1238
asbasbasbag67
(g83
g69
NtRp1239
(dp1240
g72
(dp1241
sg81
g708
sg74
(lp1242
g67
(g88
g69
NtRp1243
(dp1244
g72
(dp1245
g92
g93
ssg81
g1239
sg74
(lp1246
S'request_method'
p1247
asbag67
(g88
g69
NtRp1248
(dp1249
g72
(dp1250
g99
g100
ssg81
g1239
sg74
(lp1251
S':'
asbag67
(g88
g69
NtRp1252
(dp1253
g72
(dp1254
sg81
g1239
sg74
(lp1255
g67
(g68
g69
NtRp1256
(dp1257
g72
(dp1258
g80
I4
ssg81
g1252
sg74
(lp1259
S'GET'
p1260
asbasbasbag67
(g83
g69
NtRp1261
(dp1262
g72
(dp1263
sg81
g708
sg74
(lp1264
g67
(g88
g69
NtRp1265
(dp1266
g72
(dp1267
g92
g93
ssg81
g1261
sg74
(lp1268
S'script_name'
p1269
asbag67
(g88
g69
NtRp1270
(dp1271
g72
(dp1272
g99
g100
ssg81
g1261
sg74
(lp1273
S':'
asbag67
(g88
g69
NtRp1274
(dp1275
g72
(dp1276
sg81
g1261
sg74
(lp1277
g67
(g68
g69
NtRp1278
(dp1279
g72
(dp1280
g80
I4
ssg81
g1274
sg74
(lp1281
S''
asbasbasbag67
(g83
g69
NtRp1282
(dp1283
g72
(dp1284
sg81
g708
sg74
(lp1285
g67
(g88
g69
NtRp1286
(dp1287
g72
(dp1288
g92
g93
ssg81
g1282
sg74
(lp1289
S'server_name'
p1290
asbag67
(g88
g69
NtRp1291
(dp1292
g72
(dp1293
g99
g100
ssg81
g1282
sg74
(lp1294
S':'
asbag67
(g88
g69
NtRp1295
(dp1296
g72
(dp1297
sg81
g1282
sg74
(lp1298
g67
(g68
g69
NtRp1299
(dp1300
g72
(dp1301
g80
I4
ssg81
g1295
sg74
(lp1302
S'Ariel-ubuntu'
p1303
asbasbasbag67
(g83
g69
NtRp1304
(dp1305
g72
(dp1306
sg81
g708
sg74
(lp1307
g67
(g88
g69
NtRp1308
(dp1309
g72
(dp1310
g92
g93
ssg81
g1304
sg74
(lp1311
S'server_port'
p1312
asbag67
(g88
g69
NtRp1313
(dp1314
g72
(dp1315
g99
g100
ssg81
g1304
sg74
(lp1316
S':'
asbag67
(g88
g69
NtRp1317
(dp1318
g72
(dp1319
sg81
g1304
sg74
(lp1320
g67
(g68
g69
NtRp1321
(dp1322
g72
(dp1323
g80
I4
ssg81
g1317
sg74
(lp1324
S'8000'
p1325
asbasbasbag67
(g83
g69
NtRp1326
(dp1327
g72
(dp1328
sg81
g708
sg74
(lp1329
g67
(g88
g69
NtRp1330
(dp1331
g72
(dp1332
g92
g93
ssg81
g1326
sg74
(lp1333
S'server_protocol'
p1334
asbag67
(g88
g69
NtRp1335
(dp1336
g72
(dp1337
g99
g100
ssg81
g1326
sg74
(lp1338
S':'
asbag67
(g88
g69
NtRp1339
(dp1340
g72
(dp1341
sg81
g1326
sg74
(lp1342
g67
(g68
g69
NtRp1343
(dp1344
g72
(dp1345
g80
I4
ssg81
g1339
sg74
(lp1346
S'HTTP/1.1'
p1347
asbasbasbag67
(g83
g69
NtRp1348
(dp1349
g72
(dp1350
sg81
g708
sg74
(lp1351
g67
(g88
g69
NtRp1352
(dp1353
g72
(dp1354
g92
g93
ssg81
g1348
sg74
(lp1355
S'server_software'
p1356
asbag67
(g88
g69
NtRp1357
(dp1358
g72
(dp1359
g99
g100
ssg81
g1348
sg74
(lp1360
S':'
asbag67
(g88
g69
NtRp1361
(dp1362
g72
(dp1363
sg81
g1348
sg74
(lp1364
g67
(g68
g69
NtRp1365
(dp1366
g72
(dp1367
g80
I4
ssg81
g1361
sg74
(lp1368
S'Rocket 1.2.4'
p1369
asbasbasbag67
(g83
g69
NtRp1370
(dp1371
g72
(dp1372
sg81
g708
sg74
(lp1373
g67
(g88
g69
NtRp1374
(dp1375
g72
(dp1376
g92
g93
ssg81
g1370
sg74
(lp1377
S'web2py_crontype'
p1378
asbag67
(g88
g69
NtRp1379
(dp1380
g72
(dp1381
g99
g100
ssg81
g1370
sg74
(lp1382
S':'
asbag67
(g88
g69
NtRp1383
(dp1384
g72
(dp1385
sg81
g1370
sg74
(lp1386
g67
(g68
g69
NtRp1387
(dp1388
g72
(dp1389
g80
I4
ssg81
g1383
sg74
(lp1390
S'hard'
p1391
asbasbasbag67
(g83
g69
NtRp1392
(dp1393
g72
(dp1394
sg81
g708
sg74
(lp1395
g67
(g88
g69
NtRp1396
(dp1397
g72
(dp1398
g92
g93
ssg81
g1392
sg74
(lp1399
S'web2py_path'
p1400
asbag67
(g88
g69
NtRp1401
(dp1402
g72
(dp1403
g99
g100
ssg81
g1392
sg74
(lp1404
S':'
asbag67
(g88
g69
NtRp1405
(dp1406
g72
(dp1407
sg81
g1392
sg74
(lp1408
g67
(g68
g69
NtRp1409
(dp1410
g72
(dp1411
g80
I4
ssg81
g1405
sg74
(lp1412
g755
asbasbasbag67
(g83
g69
NtRp1413
(dp1414
g72
(dp1415
sg81
g708
sg74
(lp1416
g67
(g88
g69
NtRp1417
(dp1418
g72
(dp1419
g92
g93
ssg81
g1413
sg74
(lp1420
S'web2py_version'
p1421
asbag67
(g88
g69
NtRp1422
(dp1423
g72
(dp1424
g99
g100
ssg81
g1413
sg74
(lp1425
S':'
asbag67
(g88
g69
NtRp1426
(dp1427
g72
(dp1428
sg81
g1413
sg74
(lp1429
g67
(g68
g69
NtRp1430
(dp1431
g72
(dp1432
g80
I4
ssg81
g1426
sg74
(lp1433
g67
(g76
g69
NtRp1434
(dp1435
g72
(dp1436
g80
I3
ssg81
Nsg74
(lp1437
g67
(g83
g69
NtRp1438
(dp1439
g72
(dp1440
sg81
g1434
sg74
(lp1441
g67
(g88
g69
NtRp1442
(dp1443
g72
(dp1444
sg81
g1438
sg74
(lp1445
g67
(g68
g69
NtRp1446
(dp1447
g72
(dp1448
g80
I3
ssg81
g1442
sg74
(lp1449
S'1'
asbasbasbag67
(g83
g69
NtRp1450
(dp1451
g72
(dp1452
sg81
g1434
sg74
(lp1453
g67
(g88
g69
NtRp1454
(dp1455
g72
(dp1456
sg81
g1450
sg74
(lp1457
g67
(g68
g69
NtRp1458
(dp1459
g72
(dp1460
g80
I3
ssg81
g1454
sg74
(lp1461
S'99'
p1462
asbasbasbag67
(g83
g69
NtRp1463
(dp1464
g72
(dp1465
sg81
g1434
sg74
(lp1466
g67
(g88
g69
NtRp1467
(dp1468
g72
(dp1469
sg81
g1463
sg74
(lp1470
g67
(g68
g69
NtRp1471
(dp1472
g72
(dp1473
g80
I3
ssg81
g1467
sg74
(lp1474
S'2'
asbasbasbag67
(g83
g69
NtRp1475
(dp1476
g72
(dp1477
sg81
g1434
sg74
(lp1478
g67
(g88
g69
NtRp1479
(dp1480
g72
(dp1481
sg81
g1475
sg74
(lp1482
g67
(g68
g69
NtRp1483
(dp1484
g72
(dp1485
g80
I3
ssg81
g1479
sg74
(lp1486
S'datetime.datetime(2011, 9, 26, 6, 55, 33)'
p1487
asbasbasbag67
(g83
g69
NtRp1488
(dp1489
g72
(dp1490
sg81
g1434
sg74
(lp1491
g67
(g88
g69
NtRp1492
(dp1493
g72
(dp1494
sg81
g1488
sg74
(lp1495
g67
(g68
g69
NtRp1496
(dp1497
g72
(dp1498
g80
I3
ssg81
g1492
sg74
(lp1499
S'stable'
p1500
asbasbasbasbasbasbasbag67
(g83
g69
NtRp1501
(dp1502
g72
(dp1503
sg81
g708
sg74
(lp1504
g67
(g88
g69
NtRp1505
(dp1506
g72
(dp1507
g92
g93
ssg81
g1501
sg74
(lp1508
S'wsgi_errors'
p1509
asbag67
(g88
g69
NtRp1510
(dp1511
g72
(dp1512
g99
g100
ssg81
g1501
sg74
(lp1513
S':'
asbag67
(g88
g69
NtRp1514
(dp1515
g72
(dp1516
sg81
g1501
sg74
(lp1517
g67
(g68
g69
NtRp1518
(dp1519
g72
(dp1520
g80
I4
ssg81
g1514
sg74
(lp1521
S"<open file '<stderr>', mode 'w' at 0x7fa63791d270>"
p1522
asbasbasbag67
(g83
g69
NtRp1523
(dp1524
g72
(dp1525
sg81
g708
sg74
(lp1526
g67
(g88
g69
NtRp1527
(dp1528
g72
(dp1529
g92
g93
ssg81
g1523
sg74
(lp1530
S'wsgi_file_wrapper'
p1531
asbag67
(g88
g69
NtRp1532
(dp1533
g72
(dp1534
g99
g100
ssg81
g1523
sg74
(lp1535
S':'
asbag67
(g88
g69
NtRp1536
(dp1537
g72
(dp1538
sg81
g1523
sg74
(lp1539
g67
(g68
g69
NtRp1540
(dp1541
g72
(dp1542
g80
I4
ssg81
g1536
sg74
(lp1543
S'<class wsgiref.util.FileWrapper at 0x2901808>'
p1544
asbasbasbag67
(g83
g69
NtRp1545
(dp1546
g72
(dp1547
sg81
g708
sg74
(lp1548
g67
(g88
g69
NtRp1549
(dp1550
g72
(dp1551
g92
g93
ssg81
g1545
sg74
(lp1552
S'wsgi_input'
p1553
asbag67
(g88
g69
NtRp1554
(dp1555
g72
(dp1556
g99
g100
ssg81
g1545
sg74
(lp1557
S':'
asbag67
(g88
g69
NtRp1558
(dp1559
g72
(dp1560
sg81
g1545
sg74
(lp1561
g67
(g68
g69
NtRp1562
(dp1563
g72
(dp1564
g80
I4
ssg81
g1558
sg74
(lp1565
S'<socket._fileobject object at 0x36b1050>'
p1566
asbasbasbag67
(g83
g69
NtRp1567
(dp1568
g72
(dp1569
sg81
g708
sg74
(lp1570
g67
(g88
g69
NtRp1571
(dp1572
g72
(dp1573
g92
g93
ssg81
g1567
sg74
(lp1574
S'wsgi_multiprocess'
p1575
asbag67
(g88
g69
NtRp1576
(dp1577
g72
(dp1578
g99
g100
ssg81
g1567
sg74
(lp1579
S':'
asbag67
(g88
g69
NtRp1580
(dp1581
g72
(dp1582
sg81
g1567
sg74
(lp1583
g67
(g68
g69
NtRp1584
(dp1585
g72
(dp1586
g80
I4
ssg81
g1580
sg74
(lp1587
g846
asbasbasbag67
(g83
g69
NtRp1588
(dp1589
g72
(dp1590
sg81
g708
sg74
(lp1591
g67
(g88
g69
NtRp1592
(dp1593
g72
(dp1594
g92
g93
ssg81
g1588
sg74
(lp1595
S'wsgi_multithread'
p1596
asbag67
(g88
g69
NtRp1597
(dp1598
g72
(dp1599
g99
g100
ssg81
g1588
sg74
(lp1600
S':'
asbag67
(g88
g69
NtRp1601
(dp1602
g72
(dp1603
sg81
g1588
sg74
(lp1604
g67
(g68
g69
NtRp1605
(dp1606
g72
(dp1607
g80
I4
ssg81
g1601
sg74
(lp1608
g110
asbasbasbag67
(g83
g69
NtRp1609
(dp1610
g72
(dp1611
sg81
g708
sg74
(lp1612
g67
(g88
g69
NtRp1613
(dp1614
g72
(dp1615
g92
g93
ssg81
g1609
sg74
(lp1616
S'wsgi_run_once'
p1617
asbag67
(g88
g69
NtRp1618
(dp1619
g72
(dp1620
g99
g100
ssg81
g1609
sg74
(lp1621
S':'
asbag67
(g88
g69
NtRp1622
(dp1623
g72
(dp1624
sg81
g1609
sg74
(lp1625
g67
(g68
g69
NtRp1626
(dp1627
g72
(dp1628
g80
I4
ssg81
g1622
sg74
(lp1629
g846
asbasbasbag67
(g83
g69
NtRp1630
(dp1631
g72
(dp1632
sg81
g708
sg74
(lp1633
g67
(g88
g69
NtRp1634
(dp1635
g72
(dp1636
g92
g93
ssg81
g1630
sg74
(lp1637
S'wsgi_url_scheme'
p1638
asbag67
(g88
g69
NtRp1639
(dp1640
g72
(dp1641
g99
g100
ssg81
g1630
sg74
(lp1642
S':'
asbag67
(g88
g69
NtRp1643
(dp1644
g72
(dp1645
sg81
g1630
sg74
(lp1646
g67
(g68
g69
NtRp1647
(dp1648
g72
(dp1649
g80
I4
ssg81
g1643
sg74
(lp1650
S'http'
p1651
asbasbasbag67
(g83
g69
NtRp1652
(dp1653
g72
(dp1654
sg81
g708
sg74
(lp1655
g67
(g88
g69
NtRp1656
(dp1657
g72
(dp1658
g92
g93
ssg81
g1652
sg74
(lp1659
S'wsgi_version'
p1660
asbag67
(g88
g69
NtRp1661
(dp1662
g72
(dp1663
g99
g100
ssg81
g1652
sg74
(lp1664
S':'
asbag67
(g88
g69
NtRp1665
(dp1666
g72
(dp1667
sg81
g1652
sg74
(lp1668
g67
(g68
g69
NtRp1669
(dp1670
g72
(dp1671
g80
I4
ssg81
g1665
sg74
(lp1672
g67
(g76
g69
NtRp1673
(dp1674
g72
(dp1675
g80
I3
ssg81
Nsg74
(lp1676
g67
(g83
g69
NtRp1677
(dp1678
g72
(dp1679
sg81
g1673
sg74
(lp1680
g67
(g88
g69
NtRp1681
(dp1682
g72
(dp1683
sg81
g1677
sg74
(lp1684
g67
(g68
g69
NtRp1685
(dp1686
g72
(dp1687
g80
I3
ssg81
g1681
sg74
(lp1688
S'1'
asbasbasbag67
(g83
g69
NtRp1689
(dp1690
g72
(dp1691
sg81
g1673
sg74
(lp1692
g67
(g88
g69
NtRp1693
(dp1694
g72
(dp1695
sg81
g1689
sg74
(lp1696
g67
(g68
g69
NtRp1697
(dp1698
g72
(dp1699
g80
I3
ssg81
g1693
sg74
(lp1700
S'0'
asbasbasbasbasbasbasbasbasbasbasbag67
(g83
g69
NtRp1701
(dp1702
g72
(dp1703
sg81
g77
sg74
(lp1704
g67
(g88
g69
NtRp1705
(dp1706
g72
(dp1707
g92
g93
ssg81
g1701
sg74
(lp1708
S'extension'
p1709
asbag67
(g88
g69
NtRp1710
(dp1711
g72
(dp1712
g99
g100
ssg81
g1701
sg74
(lp1713
S':'
asbag67
(g88
g69
NtRp1714
(dp1715
g72
(dp1716
sg81
g1701
sg74
(lp1717
g67
(g68
g69
NtRp1718
(dp1719
g72
(dp1720
g80
I5
ssg81
g1714
sg74
(lp1721
S'load'
p1722
asbasbasbag67
(g83
g69
NtRp1723
(dp1724
g72
(dp1725
sg81
g77
sg74
(lp1726
g67
(g88
g69
NtRp1727
(dp1728
g72
(dp1729
g92
g93
ssg81
g1723
sg74
(lp1730
S'folder'
p1731
asbag67
(g88
g69
NtRp1732
(dp1733
g72
(dp1734
g99
g100
ssg81
g1723
sg74
(lp1735
S':'
asbag67
(g88
g69
NtRp1736
(dp1737
g72
(dp1738
sg81
g1723
sg74
(lp1739
g67
(g68
g69
NtRp1740
(dp1741
g72
(dp1742
g80
I5
ssg81
g1736
sg74
(lp1743
S'/home/ian/web2py/applications/topoi/'
p1744
asbasbasbag67
(g83
g69
NtRp1745
(dp1746
g72
(dp1747
sg81
g77
sg74
(lp1748
g67
(g88
g69
NtRp1749
(dp1750
g72
(dp1751
g92
g93
ssg81
g1745
sg74
(lp1752
S'function'
p1753
asbag67
(g88
g69
NtRp1754
(dp1755
g72
(dp1756
g99
g100
ssg81
g1745
sg74
(lp1757
S':'
asbag67
(g88
g69
NtRp1758
(dp1759
g72
(dp1760
sg81
g1745
sg74
(lp1761
g67
(g68
g69
NtRp1762
(dp1763
g72
(dp1764
g80
I5
ssg81
g1758
sg74
(lp1765
S'set_widget'
p1766
asbasbasbag67
(g83
g69
NtRp1767
(dp1768
g72
(dp1769
sg81
g77
sg74
(lp1770
g67
(g88
g69
NtRp1771
(dp1772
g72
(dp1773
g92
g93
ssg81
g1767
sg74
(lp1774
S'get_vars'
p1775
asbag67
(g88
g69
NtRp1776
(dp1777
g72
(dp1778
g99
g100
ssg81
g1767
sg74
(lp1779
S':'
asbag67
(g88
g69
NtRp1780
(dp1781
g72
(dp1782
sg81
g1767
sg74
(lp1783
g67
(g68
g69
NtRp1784
(dp1785
g72
(dp1786
g80
I5
ssg81
g1780
sg74
(lp1787
g67
(g76
g69
NtRp1788
(dp1789
g72
(dp1790
g80
I4
ssg81
Nsg74
(lp1791
sbasbasbasbag67
(g83
g69
NtRp1792
(dp1793
g72
(dp1794
sg81
g77
sg74
(lp1795
g67
(g88
g69
NtRp1796
(dp1797
g72
(dp1798
g92
g93
ssg81
g1792
sg74
(lp1799
S'global_settings'
p1800
asbag67
(g88
g69
NtRp1801
(dp1802
g72
(dp1803
g99
g100
ssg81
g1792
sg74
(lp1804
S':'
asbag67
(g88
g69
NtRp1805
(dp1806
g72
(dp1807
sg81
g1792
sg74
(lp1808
g67
(g68
g69
NtRp1809
(dp1810
g72
(dp1811
g80
I5
ssg81
g1805
sg74
(lp1812
g67
(g76
g69
NtRp1813
(dp1814
g72
(dp1815
g80
I4
ssg81
Nsg74
(lp1816
g67
(g83
g69
NtRp1817
(dp1818
g72
(dp1819
sg81
g1813
sg74
(lp1820
g67
(g88
g69
NtRp1821
(dp1822
g72
(dp1823
g92
g93
ssg81
g1817
sg74
(lp1824
g720
asbag67
(g88
g69
NtRp1825
(dp1826
g72
(dp1827
g99
g100
ssg81
g1817
sg74
(lp1828
S':'
asbag67
(g88
g69
NtRp1829
(dp1830
g72
(dp1831
sg81
g1817
sg74
(lp1832
g67
(g68
g69
NtRp1833
(dp1834
g72
(dp1835
g80
I4
ssg81
g1829
sg74
(lp1836
S"set(['/home/ian/web2py/applications/topoi/', '/home/ian/web2py/applications/welcome/', '/home/ian/web2py/applications/admin/'])"
p1837
asbasbasbag67
(g83
g69
NtRp1838
(dp1839
g72
(dp1840
sg81
g1813
sg74
(lp1841
g67
(g88
g69
NtRp1842
(dp1843
g72
(dp1844
g92
g93
ssg81
g1838
sg74
(lp1845
g742
asbag67
(g88
g69
NtRp1846
(dp1847
g72
(dp1848
g99
g100
ssg81
g1838
sg74
(lp1849
S':'
asbag67
(g88
g69
NtRp1850
(dp1851
g72
(dp1852
sg81
g1838
sg74
(lp1853
g67
(g68
g69
NtRp1854
(dp1855
g72
(dp1856
g80
I4
ssg81
g1850
sg74
(lp1857
g755
asbasbasbag67
(g83
g69
NtRp1858
(dp1859
g72
(dp1860
sg81
g1813
sg74
(lp1861
g67
(g88
g69
NtRp1862
(dp1863
g72
(dp1864
g92
g93
ssg81
g1858
sg74
(lp1865
g764
asbag67
(g88
g69
NtRp1866
(dp1867
g72
(dp1868
g99
g100
ssg81
g1858
sg74
(lp1869
S':'
asbag67
(g88
g69
NtRp1870
(dp1871
g72
(dp1872
sg81
g1858
sg74
(lp1873
g67
(g68
g69
NtRp1874
(dp1875
g72
(dp1876
g80
I4
ssg81
g1870
sg74
(lp1877
g67
(g76
g69
NtRp1878
(dp1879
g72
(dp1880
g80
I3
ssg81
Nsg74
(lp1881
sbasbasbasbag67
(g83
g69
NtRp1882
(dp1883
g72
(dp1884
sg81
g1813
sg74
(lp1885
g67
(g88
g69
NtRp1886
(dp1887
g72
(dp1888
g92
g93
ssg81
g1882
sg74
(lp1889
g789
asbag67
(g88
g69
NtRp1890
(dp1891
g72
(dp1892
g99
g100
ssg81
g1882
sg74
(lp1893
S':'
asbag67
(g88
g69
NtRp1894
(dp1895
g72
(dp1896
sg81
g1882
sg74
(lp1897
g67
(g68
g69
NtRp1898
(dp1899
g72
(dp1900
g80
I4
ssg81
g1894
sg74
(lp1901
S"<Values at 0x2a387e8: {'verbose': False, 'ip': '127.0.0.1', 'shutdown_timeout': 5, 'taskbar': False, 'nocron': False, 'pid_filename': 'httpserver.pid', 'maxthreads': None, 'softcron': False, 'server_name': 'Ariel-ubuntu', 'bpython': False, 'nogui': False, 'port': 8000, 'extcron': False, 'debuglevel': 30, 'test': None, 'folder': '/home/ian/web2py', 'config': '', 'import_models': False, 'winservice': '', 'shell': None, 'run': '', 'log_filename': 'httpserver.log', 'args': [''], 'ssl_ca_certificate': None, 'scheduler': None, 'profiler_filename': None, 'ssl_private_key': '', 'password': '<ask>', 'request_queue_size': 5, 'ssl_certificate': '', 'cronjob': False, 'plain': False, 'quiet': False, 'interfaces': None, 'minthreads': None, 'timeout': 10, 'numthreads': None, 'nobanner': False}>"
p1902
asbasbasbag67
(g83
g69
NtRp1903
(dp1904
g72
(dp1905
sg81
g1813
sg74
(lp1906
g67
(g88
g69
NtRp1907
(dp1908
g72
(dp1909
g92
g93
ssg81
g1903
sg74
(lp1910
g811
asbag67
(g88
g69
NtRp1911
(dp1912
g72
(dp1913
g99
g100
ssg81
g1903
sg74
(lp1914
S':'
asbag67
(g88
g69
NtRp1915
(dp1916
g72
(dp1917
sg81
g1903
sg74
(lp1918
g67
(g68
g69
NtRp1919
(dp1920
g72
(dp1921
g80
I4
ssg81
g1915
sg74
(lp1922
S'set([])'
p1923
asbasbasbag67
(g83
g69
NtRp1924
(dp1925
g72
(dp1926
sg81
g1813
sg74
(lp1927
g67
(g88
g69
NtRp1928
(dp1929
g72
(dp1930
g92
g93
ssg81
g1924
sg74
(lp1931
g833
asbag67
(g88
g69
NtRp1932
(dp1933
g72
(dp1934
g99
g100
ssg81
g1924
sg74
(lp1935
S':'
asbag67
(g88
g69
NtRp1936
(dp1937
g72
(dp1938
sg81
g1924
sg74
(lp1939
g67
(g68
g69
NtRp1940
(dp1941
g72
(dp1942
g80
I4
ssg81
g1936
sg74
(lp1943
g846
asbasbasbag67
(g83
g69
NtRp1944
(dp1945
g72
(dp1946
sg81
g1813
sg74
(lp1947
g67
(g88
g69
NtRp1948
(dp1949
g72
(dp1950
g92
g93
ssg81
g1944
sg74
(lp1951
g855
asbag67
(g88
g69
NtRp1952
(dp1953
g72
(dp1954
g99
g100
ssg81
g1944
sg74
(lp1955
S':'
asbag67
(g88
g69
NtRp1956
(dp1957
g72
(dp1958
sg81
g1944
sg74
(lp1959
g67
(g68
g69
NtRp1960
(dp1961
g72
(dp1962
g80
I4
ssg81
g1956
sg74
(lp1963
g868
asbasbasbag67
(g83
g69
NtRp1964
(dp1965
g72
(dp1966
sg81
g1813
sg74
(lp1967
g67
(g88
g69
NtRp1968
(dp1969
g72
(dp1970
g92
g93
ssg81
g1964
sg74
(lp1971
g1140
asbag67
(g88
g69
NtRp1972
(dp1973
g72
(dp1974
g99
g100
ssg81
g1964
sg74
(lp1975
S':'
asbag67
(g88
g69
NtRp1976
(dp1977
g72
(dp1978
sg81
g1964
sg74
(lp1979
g67
(g68
g69
NtRp1980
(dp1981
g72
(dp1982
g80
I4
ssg81
g1976
sg74
(lp1983
g846
asbasbasbag67
(g83
g69
NtRp1984
(dp1985
g72
(dp1986
sg81
g1813
sg74
(lp1987
g67
(g88
g69
NtRp1988
(dp1989
g72
(dp1990
g92
g93
ssg81
g1984
sg74
(lp1991
g1378
asbag67
(g88
g69
NtRp1992
(dp1993
g72
(dp1994
g99
g100
ssg81
g1984
sg74
(lp1995
S':'
asbag67
(g88
g69
NtRp1996
(dp1997
g72
(dp1998
sg81
g1984
sg74
(lp1999
g67
(g68
g69
NtRp2000
(dp2001
g72
(dp2002
g80
I4
ssg81
g1996
sg74
(lp2003
g1391
asbasbasbag67
(g83
g69
NtRp2004
(dp2005
g72
(dp2006
sg81
g1813
sg74
(lp2007
g67
(g88
g69
NtRp2008
(dp2009
g72
(dp2010
g92
g93
ssg81
g2004
sg74
(lp2011
g1421
asbag67
(g88
g69
NtRp2012
(dp2013
g72
(dp2014
g99
g100
ssg81
g2004
sg74
(lp2015
S':'
asbag67
(g88
g69
NtRp2016
(dp2017
g72
(dp2018
sg81
g2004
sg74
(lp2019
g67
(g68
g69
NtRp2020
(dp2021
g72
(dp2022
g80
I4
ssg81
g2016
sg74
(lp2023
g67
(g76
g69
NtRp2024
(dp2025
g72
(dp2026
g80
I3
ssg81
Nsg74
(lp2027
g67
(g83
g69
NtRp2028
(dp2029
g72
(dp2030
sg81
g2024
sg74
(lp2031
g67
(g88
g69
NtRp2032
(dp2033
g72
(dp2034
sg81
g2028
sg74
(lp2035
g67
(g68
g69
NtRp2036
(dp2037
g72
(dp2038
g80
I3
ssg81
g2032
sg74
(lp2039
S'1'
asbasbasbag67
(g83
g69
NtRp2040
(dp2041
g72
(dp2042
sg81
g2024
sg74
(lp2043
g67
(g88
g69
NtRp2044
(dp2045
g72
(dp2046
sg81
g2040
sg74
(lp2047
g67
(g68
g69
NtRp2048
(dp2049
g72
(dp2050
g80
I3
ssg81
g2044
sg74
(lp2051
S'99'
p2052
asbasbasbag67
(g83
g69
NtRp2053
(dp2054
g72
(dp2055
sg81
g2024
sg74
(lp2056
g67
(g88
g69
NtRp2057
(dp2058
g72
(dp2059
sg81
g2053
sg74
(lp2060
g67
(g68
g69
NtRp2061
(dp2062
g72
(dp2063
g80
I3
ssg81
g2057
sg74
(lp2064
S'2'
asbasbasbag67
(g83
g69
NtRp2065
(dp2066
g72
(dp2067
sg81
g2024
sg74
(lp2068
g67
(g88
g69
NtRp2069
(dp2070
g72
(dp2071
sg81
g2065
sg74
(lp2072
g67
(g68
g69
NtRp2073
(dp2074
g72
(dp2075
g80
I3
ssg81
g2069
sg74
(lp2076
S'datetime.datetime(2011, 9, 26, 6, 55, 33)'
p2077
asbasbasbag67
(g83
g69
NtRp2078
(dp2079
g72
(dp2080
sg81
g2024
sg74
(lp2081
g67
(g88
g69
NtRp2082
(dp2083
g72
(dp2084
sg81
g2078
sg74
(lp2085
g67
(g68
g69
NtRp2086
(dp2087
g72
(dp2088
g80
I3
ssg81
g2082
sg74
(lp2089
g1500
asbasbasbasbasbasbasbasbasbasbasbag67
(g83
g69
NtRp2090
(dp2091
g72
(dp2092
sg81
g77
sg74
(lp2093
g67
(g88
g69
NtRp2094
(dp2095
g72
(dp2096
g92
g93
ssg81
g2090
sg74
(lp2097
S'is_https'
p2098
asbag67
(g88
g69
NtRp2099
(dp2100
g72
(dp2101
g99
g100
ssg81
g2090
sg74
(lp2102
S':'
asbag67
(g88
g69
NtRp2103
(dp2104
g72
(dp2105
sg81
g2090
sg74
(lp2106
g67
(g68
g69
NtRp2107
(dp2108
g72
(dp2109
g80
I5
ssg81
g2103
sg74
(lp2110
g846
asbasbasbag67
(g83
g69
NtRp2111
(dp2112
g72
(dp2113
sg81
g77
sg74
(lp2114
g67
(g88
g69
NtRp2115
(dp2116
g72
(dp2117
g92
g93
ssg81
g2111
sg74
(lp2118
S'is_local'
p2119
asbag67
(g88
g69
NtRp2120
(dp2121
g72
(dp2122
g99
g100
ssg81
g2111
sg74
(lp2123
S':'
asbag67
(g88
g69
NtRp2124
(dp2125
g72
(dp2126
sg81
g2111
sg74
(lp2127
g67
(g68
g69
NtRp2128
(dp2129
g72
(dp2130
g80
I5
ssg81
g2124
sg74
(lp2131
g110
asbasbasbag67
(g83
g69
NtRp2132
(dp2133
g72
(dp2134
sg81
g77
sg74
(lp2135
g67
(g88
g69
NtRp2136
(dp2137
g72
(dp2138
g92
g93
ssg81
g2132
sg74
(lp2139
S'is_restful'
p2140
asbag67
(g88
g69
NtRp2141
(dp2142
g72
(dp2143
g99
g100
ssg81
g2132
sg74
(lp2144
S':'
asbag67
(g88
g69
NtRp2145
(dp2146
g72
(dp2147
sg81
g2132
sg74
(lp2148
g67
(g68
g69
NtRp2149
(dp2150
g72
(dp2151
g80
I5
ssg81
g2145
sg74
(lp2152
g846
asbasbasbag67
(g83
g69
NtRp2153
(dp2154
g72
(dp2155
sg81
g77
sg74
(lp2156
g67
(g88
g69
NtRp2157
(dp2158
g72
(dp2159
g92
g93
ssg81
g2153
sg74
(lp2160
S'now'
p2161
asbag67
(g88
g69
NtRp2162
(dp2163
g72
(dp2164
g99
g100
ssg81
g2153
sg74
(lp2165
S':'
asbag67
(g88
g69
NtRp2166
(dp2167
g72
(dp2168
sg81
g2153
sg74
(lp2169
g67
(g68
g69
NtRp2170
(dp2171
g72
(dp2172
g80
I5
ssg81
g2166
sg74
(lp2173
S'datetime.datetime(2011, 12, 14, 18, 46, 42, 968583)'
p2174
asbasbasbag67
(g83
g69
NtRp2175
(dp2176
g72
(dp2177
sg81
g77
sg74
(lp2178
g67
(g88
g69
NtRp2179
(dp2180
g72
(dp2181
g92
g93
ssg81
g2175
sg74
(lp2182
S'post_vars'
p2183
asbag67
(g88
g69
NtRp2184
(dp2185
g72
(dp2186
g99
g100
ssg81
g2175
sg74
(lp2187
S':'
asbag67
(g88
g69
NtRp2188
(dp2189
g72
(dp2190
sg81
g2175
sg74
(lp2191
g67
(g68
g69
NtRp2192
(dp2193
g72
(dp2194
g80
I5
ssg81
g2188
sg74
(lp2195
g67
(g76
g69
NtRp2196
(dp2197
g72
(dp2198
g80
I4
ssg81
Nsg74
(lp2199
sbasbasbasbag67
(g83
g69
NtRp2200
(dp2201
g72
(dp2202
sg81
g77
sg74
(lp2203
g67
(g88
g69
NtRp2204
(dp2205
g72
(dp2206
g92
g93
ssg81
g2200
sg74
(lp2207
S'raw_args'
p2208
asbag67
(g88
g69
NtRp2209
(dp2210
g72
(dp2211
g99
g100
ssg81
g2200
sg74
(lp2212
S':'
asbag67
(g88
g69
NtRp2213
(dp2214
g72
(dp2215
sg81
g2200
sg74
(lp2216
g67
(g68
g69
NtRp2217
(dp2218
g72
(dp2219
g80
I5
ssg81
g2213
sg74
(lp2220
S'notes/author/10'
p2221
asbasbasbag67
(g83
g69
NtRp2222
(dp2223
g72
(dp2224
sg81
g77
sg74
(lp2225
g67
(g88
g69
NtRp2226
(dp2227
g72
(dp2228
g92
g93
ssg81
g2222
sg74
(lp2229
S'raw_extension'
p2230
asbag67
(g88
g69
NtRp2231
(dp2232
g72
(dp2233
g99
g100
ssg81
g2222
sg74
(lp2234
S':'
asbag67
(g88
g69
NtRp2235
(dp2236
g72
(dp2237
sg81
g2222
sg74
(lp2238
g67
(g68
g69
NtRp2239
(dp2240
g72
(dp2241
g80
I5
ssg81
g2235
sg74
(lp2242
g1722
asbasbasbag67
(g83
g69
NtRp2243
(dp2244
g72
(dp2245
sg81
g77
sg74
(lp2246
g67
(g88
g69
NtRp2247
(dp2248
g72
(dp2249
g92
g93
ssg81
g2243
sg74
(lp2250
S'url'
p2251
asbag67
(g88
g69
NtRp2252
(dp2253
g72
(dp2254
g99
g100
ssg81
g2243
sg74
(lp2255
S':'
asbag67
(g88
g69
NtRp2256
(dp2257
g72
(dp2258
sg81
g2243
sg74
(lp2259
g67
(g68
g69
NtRp2260
(dp2261
g72
(dp2262
g80
I5
ssg81
g2256
sg74
(lp2263
S'/topoi/plugin_ajaxselect/set_widget.load/notes/author/10'
p2264
asbasbasbag67
(g83
g69
NtRp2265
(dp2266
g72
(dp2267
sg81
g77
sg74
(lp2268
g67
(g88
g69
NtRp2269
(dp2270
g72
(dp2271
g92
g93
ssg81
g2265
sg74
(lp2272
S'utcnow'
p2273
asbag67
(g88
g69
NtRp2274
(dp2275
g72
(dp2276
g99
g100
ssg81
g2265
sg74
(lp2277
S':'
asbag67
(g88
g69
NtRp2278
(dp2279
g72
(dp2280
sg81
g2265
sg74
(lp2281
g67
(g68
g69
NtRp2282
(dp2283
g72
(dp2284
g80
I5
ssg81
g2278
sg74
(lp2285
S'datetime.datetime(2011, 12, 14, 23, 46, 42, 968627)'
p2286
asbasbasbag67
(g83
g69
NtRp2287
(dp2288
g72
(dp2289
sg81
g77
sg74
(lp2290
g67
(g88
g69
NtRp2291
(dp2292
g72
(dp2293
g92
g93
ssg81
g2287
sg74
(lp2294
S'uuid'
p2295
asbag67
(g88
g69
NtRp2296
(dp2297
g72
(dp2298
g99
g100
ssg81
g2287
sg74
(lp2299
S':'
asbag67
(g88
g69
NtRp2300
(dp2301
g72
(dp2302
sg81
g2287
sg74
(lp2303
g67
(g68
g69
NtRp2304
(dp2305
g72
(dp2306
g80
I5
ssg81
g2300
sg74
(lp2307
S'topoi/127.0.0.1.2011-12-14.18-46-42.8426b8ca-4cff-406d-b92c-7f5cb7cf4b74'
p2308
asbasbasbag67
(g83
g69
NtRp2309
(dp2310
g72
(dp2311
sg81
g77
sg74
(lp2312
g67
(g88
g69
NtRp2313
(dp2314
g72
(dp2315
g92
g93
ssg81
g2309
sg74
(lp2316
S'vars'
p2317
asbag67
(g88
g69
NtRp2318
(dp2319
g72
(dp2320
g99
g100
ssg81
g2309
sg74
(lp2321
S':'
asbag67
(g88
g69
NtRp2322
(dp2323
g72
(dp2324
sg81
g2309
sg74
(lp2325
g67
(g68
g69
NtRp2326
(dp2327
g72
(dp2328
g80
I5
ssg81
g2322
sg74
(lp2329
g67
(g76
g69
NtRp2330
(dp2331
g72
(dp2332
g80
I4
ssg81
Nsg74
(lp2333
sbasbasbasbag67
(g83
g69
NtRp2334
(dp2335
g72
(dp2336
sg81
g77
sg74
(lp2337
g67
(g88
g69
NtRp2338
(dp2339
g72
(dp2340
g92
g93
ssg81
g2334
sg74
(lp2341
S'wsgi'
p2342
asbag67
(g88
g69
NtRp2343
(dp2344
g72
(dp2345
g99
g100
ssg81
g2334
sg74
(lp2346
S':'
asbag67
(g88
g69
NtRp2347
(dp2348
g72
(dp2349
sg81
g2334
sg74
(lp2350
g67
(g68
g69
NtRp2351
(dp2352
g72
(dp2353
g80
I5
ssg81
g2347
sg74
(lp2354
g67
(g76
g69
NtRp2355
(dp2356
g72
(dp2357
g80
I4
ssg81
Nsg74
(lp2358
g67
(g83
g69
NtRp2359
(dp2360
g72
(dp2361
sg81
g2355
sg74
(lp2362
g67
(g88
g69
NtRp2363
(dp2364
g72
(dp2365
g92
g93
ssg81
g2359
sg74
(lp2366
S'environ'
p2367
asbag67
(g88
g69
NtRp2368
(dp2369
g72
(dp2370
g99
g100
ssg81
g2359
sg74
(lp2371
S':'
asbag67
(g88
g69
NtRp2372
(dp2373
g72
(dp2374
sg81
g2359
sg74
(lp2375
g67
(g68
g69
NtRp2376
(dp2377
g72
(dp2378
g80
I4
ssg81
g2372
sg74
(lp2379
g67
(g76
g69
NtRp2380
(dp2381
g72
(dp2382
g80
I3
ssg81
Nsg74
(lp2383
g67
(g83
g69
NtRp2384
(dp2385
g72
(dp2386
sg81
g2380
sg74
(lp2387
g67
(g88
g69
NtRp2388
(dp2389
g72
(dp2390
g92
g93
ssg81
g2384
sg74
(lp2391
S'HTTP_ACCEPT'
p2392
asbag67
(g88
g69
NtRp2393
(dp2394
g72
(dp2395
g99
g100
ssg81
g2384
sg74
(lp2396
S':'
asbag67
(g88
g69
NtRp2397
(dp2398
g72
(dp2399
sg81
g2384
sg74
(lp2400
g67
(g68
g69
NtRp2401
(dp2402
g72
(dp2403
g80
I3
ssg81
g2397
sg74
(lp2404
g890
asbasbasbag67
(g83
g69
NtRp2405
(dp2406
g72
(dp2407
sg81
g2380
sg74
(lp2408
g67
(g88
g69
NtRp2409
(dp2410
g72
(dp2411
g92
g93
ssg81
g2405
sg74
(lp2412
S'HTTP_ACCEPT_CHARSET'
p2413
asbag67
(g88
g69
NtRp2414
(dp2415
g72
(dp2416
g99
g100
ssg81
g2405
sg74
(lp2417
S':'
asbag67
(g88
g69
NtRp2418
(dp2419
g72
(dp2420
sg81
g2405
sg74
(lp2421
g67
(g68
g69
NtRp2422
(dp2423
g72
(dp2424
g80
I3
ssg81
g2418
sg74
(lp2425
g912
asbasbasbag67
(g83
g69
NtRp2426
(dp2427
g72
(dp2428
sg81
g2380
sg74
(lp2429
g67
(g88
g69
NtRp2430
(dp2431
g72
(dp2432
g92
g93
ssg81
g2426
sg74
(lp2433
S'HTTP_ACCEPT_ENCODING'
p2434
asbag67
(g88
g69
NtRp2435
(dp2436
g72
(dp2437
g99
g100
ssg81
g2426
sg74
(lp2438
S':'
asbag67
(g88
g69
NtRp2439
(dp2440
g72
(dp2441
sg81
g2426
sg74
(lp2442
g67
(g68
g69
NtRp2443
(dp2444
g72
(dp2445
g80
I3
ssg81
g2439
sg74
(lp2446
g934
asbasbasbag67
(g83
g69
NtRp2447
(dp2448
g72
(dp2449
sg81
g2380
sg74
(lp2450
g67
(g88
g69
NtRp2451
(dp2452
g72
(dp2453
g92
g93
ssg81
g2447
sg74
(lp2454
S'HTTP_ACCEPT_LANGUAGE'
p2455
asbag67
(g88
g69
NtRp2456
(dp2457
g72
(dp2458
g99
g100
ssg81
g2447
sg74
(lp2459
S':'
asbag67
(g88
g69
NtRp2460
(dp2461
g72
(dp2462
sg81
g2447
sg74
(lp2463
g67
(g68
g69
NtRp2464
(dp2465
g72
(dp2466
g80
I3
ssg81
g2460
sg74
(lp2467
g956
asbasbasbag67
(g83
g69
NtRp2468
(dp2469
g72
(dp2470
sg81
g2380
sg74
(lp2471
g67
(g88
g69
NtRp2472
(dp2473
g72
(dp2474
g92
g93
ssg81
g2468
sg74
(lp2475
S'HTTP_CONNECTION'
p2476
asbag67
(g88
g69
NtRp2477
(dp2478
g72
(dp2479
g99
g100
ssg81
g2468
sg74
(lp2480
S':'
asbag67
(g88
g69
NtRp2481
(dp2482
g72
(dp2483
sg81
g2468
sg74
(lp2484
g67
(g68
g69
NtRp2485
(dp2486
g72
(dp2487
g80
I3
ssg81
g2481
sg74
(lp2488
g978
asbasbasbag67
(g83
g69
NtRp2489
(dp2490
g72
(dp2491
sg81
g2380
sg74
(lp2492
g67
(g88
g69
NtRp2493
(dp2494
g72
(dp2495
g92
g93
ssg81
g2489
sg74
(lp2496
S'HTTP_COOKIE'
p2497
asbag67
(g88
g69
NtRp2498
(dp2499
g72
(dp2500
g99
g100
ssg81
g2489
sg74
(lp2501
S':'
asbag67
(g88
g69
NtRp2502
(dp2503
g72
(dp2504
sg81
g2489
sg74
(lp2505
g67
(g68
g69
NtRp2506
(dp2507
g72
(dp2508
g80
I3
ssg81
g2502
sg74
(lp2509
g1000
asbasbasbag67
(g83
g69
NtRp2510
(dp2511
g72
(dp2512
sg81
g2380
sg74
(lp2513
g67
(g88
g69
NtRp2514
(dp2515
g72
(dp2516
g92
g93
ssg81
g2510
sg74
(lp2517
S'HTTP_HOST'
p2518
asbag67
(g88
g69
NtRp2519
(dp2520
g72
(dp2521
g99
g100
ssg81
g2510
sg74
(lp2522
S':'
asbag67
(g88
g69
NtRp2523
(dp2524
g72
(dp2525
sg81
g2510
sg74
(lp2526
g67
(g68
g69
NtRp2527
(dp2528
g72
(dp2529
g80
I3
ssg81
g2523
sg74
(lp2530
g1022
asbasbasbag67
(g83
g69
NtRp2531
(dp2532
g72
(dp2533
sg81
g2380
sg74
(lp2534
g67
(g88
g69
NtRp2535
(dp2536
g72
(dp2537
g92
g93
ssg81
g2531
sg74
(lp2538
S'HTTP_REFERER'
p2539
asbag67
(g88
g69
NtRp2540
(dp2541
g72
(dp2542
g99
g100
ssg81
g2531
sg74
(lp2543
S':'
asbag67
(g88
g69
NtRp2544
(dp2545
g72
(dp2546
sg81
g2531
sg74
(lp2547
g67
(g68
g69
NtRp2548
(dp2549
g72
(dp2550
g80
I3
ssg81
g2544
sg74
(lp2551
g1044
asbasbasbag67
(g83
g69
NtRp2552
(dp2553
g72
(dp2554
sg81
g2380
sg74
(lp2555
g67
(g88
g69
NtRp2556
(dp2557
g72
(dp2558
g92
g93
ssg81
g2552
sg74
(lp2559
S'HTTP_USER_AGENT'
p2560
asbag67
(g88
g69
NtRp2561
(dp2562
g72
(dp2563
g99
g100
ssg81
g2552
sg74
(lp2564
S':'
asbag67
(g88
g69
NtRp2565
(dp2566
g72
(dp2567
sg81
g2552
sg74
(lp2568
g67
(g68
g69
NtRp2569
(dp2570
g72
(dp2571
g80
I3
ssg81
g2565
sg74
(lp2572
g1066
asbasbasbag67
(g83
g69
NtRp2573
(dp2574
g72
(dp2575
sg81
g2380
sg74
(lp2576
g67
(g88
g69
NtRp2577
(dp2578
g72
(dp2579
g92
g93
ssg81
g2573
sg74
(lp2580
S'HTTP_WEB2PY_COMPONENT_ELEMENT'
p2581
asbag67
(g88
g69
NtRp2582
(dp2583
g72
(dp2584
g99
g100
ssg81
g2573
sg74
(lp2585
S':'
asbag67
(g88
g69
NtRp2586
(dp2587
g72
(dp2588
sg81
g2573
sg74
(lp2589
g67
(g68
g69
NtRp2590
(dp2591
g72
(dp2592
g80
I3
ssg81
g2586
sg74
(lp2593
g239
asbasbasbag67
(g83
g69
NtRp2594
(dp2595
g72
(dp2596
sg81
g2380
sg74
(lp2597
g67
(g88
g69
NtRp2598
(dp2599
g72
(dp2600
g92
g93
ssg81
g2594
sg74
(lp2601
S'HTTP_WEB2PY_COMPONENT_LOCATION'
p2602
asbag67
(g88
g69
NtRp2603
(dp2604
g72
(dp2605
g99
g100
ssg81
g2594
sg74
(lp2606
S':'
asbag67
(g88
g69
NtRp2607
(dp2608
g72
(dp2609
sg81
g2594
sg74
(lp2610
g67
(g68
g69
NtRp2611
(dp2612
g72
(dp2613
g80
I3
ssg81
g2607
sg74
(lp2614
g1109
asbasbasbag67
(g83
g69
NtRp2615
(dp2616
g72
(dp2617
sg81
g2380
sg74
(lp2618
g67
(g88
g69
NtRp2619
(dp2620
g72
(dp2621
g92
g93
ssg81
g2615
sg74
(lp2622
S'HTTP_X_REQUESTED_WITH'
p2623
asbag67
(g88
g69
NtRp2624
(dp2625
g72
(dp2626
g99
g100
ssg81
g2615
sg74
(lp2627
S':'
asbag67
(g88
g69
NtRp2628
(dp2629
g72
(dp2630
sg81
g2615
sg74
(lp2631
g67
(g68
g69
NtRp2632
(dp2633
g72
(dp2634
g80
I3
ssg81
g2628
sg74
(lp2635
g1131
asbasbasbag67
(g83
g69
NtRp2636
(dp2637
g72
(dp2638
sg81
g2380
sg74
(lp2639
g67
(g88
g69
NtRp2640
(dp2641
g72
(dp2642
g92
g93
ssg81
g2636
sg74
(lp2643
S'PATH_INFO'
p2644
asbag67
(g88
g69
NtRp2645
(dp2646
g72
(dp2647
g99
g100
ssg81
g2636
sg74
(lp2648
S':'
asbag67
(g88
g69
NtRp2649
(dp2650
g72
(dp2651
sg81
g2636
sg74
(lp2652
g67
(g68
g69
NtRp2653
(dp2654
g72
(dp2655
g80
I3
ssg81
g2649
sg74
(lp2656
g1174
asbasbasbag67
(g83
g69
NtRp2657
(dp2658
g72
(dp2659
sg81
g2380
sg74
(lp2660
g67
(g88
g69
NtRp2661
(dp2662
g72
(dp2663
g92
g93
ssg81
g2657
sg74
(lp2664
S'QUERY_STRING'
p2665
asbag67
(g88
g69
NtRp2666
(dp2667
g72
(dp2668
g99
g100
ssg81
g2657
sg74
(lp2669
S':'
asbag67
(g88
g69
NtRp2670
(dp2671
g72
(dp2672
sg81
g2657
sg74
(lp2673
g67
(g68
g69
NtRp2674
(dp2675
g72
(dp2676
g80
I3
ssg81
g2670
sg74
(lp2677
S''
asbasbasbag67
(g83
g69
NtRp2678
(dp2679
g72
(dp2680
sg81
g2380
sg74
(lp2681
g67
(g88
g69
NtRp2682
(dp2683
g72
(dp2684
g92
g93
ssg81
g2678
sg74
(lp2685
S'REMOTE_ADDR'
p2686
asbag67
(g88
g69
NtRp2687
(dp2688
g72
(dp2689
g99
g100
ssg81
g2678
sg74
(lp2690
S':'
asbag67
(g88
g69
NtRp2691
(dp2692
g72
(dp2693
sg81
g2678
sg74
(lp2694
g67
(g68
g69
NtRp2695
(dp2696
g72
(dp2697
g80
I3
ssg81
g2691
sg74
(lp2698
g261
asbasbasbag67
(g83
g69
NtRp2699
(dp2700
g72
(dp2701
sg81
g2380
sg74
(lp2702
g67
(g88
g69
NtRp2703
(dp2704
g72
(dp2705
g92
g93
ssg81
g2699
sg74
(lp2706
S'REMOTE_PORT'
p2707
asbag67
(g88
g69
NtRp2708
(dp2709
g72
(dp2710
g99
g100
ssg81
g2699
sg74
(lp2711
S':'
asbag67
(g88
g69
NtRp2712
(dp2713
g72
(dp2714
sg81
g2699
sg74
(lp2715
g67
(g68
g69
NtRp2716
(dp2717
g72
(dp2718
g80
I3
ssg81
g2712
sg74
(lp2719
g1238
asbasbasbag67
(g83
g69
NtRp2720
(dp2721
g72
(dp2722
sg81
g2380
sg74
(lp2723
g67
(g88
g69
NtRp2724
(dp2725
g72
(dp2726
g92
g93
ssg81
g2720
sg74
(lp2727
S'REQUEST_METHOD'
p2728
asbag67
(g88
g69
NtRp2729
(dp2730
g72
(dp2731
g99
g100
ssg81
g2720
sg74
(lp2732
S':'
asbag67
(g88
g69
NtRp2733
(dp2734
g72
(dp2735
sg81
g2720
sg74
(lp2736
g67
(g68
g69
NtRp2737
(dp2738
g72
(dp2739
g80
I3
ssg81
g2733
sg74
(lp2740
g1260
asbasbasbag67
(g83
g69
NtRp2741
(dp2742
g72
(dp2743
sg81
g2380
sg74
(lp2744
g67
(g88
g69
NtRp2745
(dp2746
g72
(dp2747
g92
g93
ssg81
g2741
sg74
(lp2748
S'SCRIPT_NAME'
p2749
asbag67
(g88
g69
NtRp2750
(dp2751
g72
(dp2752
g99
g100
ssg81
g2741
sg74
(lp2753
S':'
asbag67
(g88
g69
NtRp2754
(dp2755
g72
(dp2756
sg81
g2741
sg74
(lp2757
g67
(g68
g69
NtRp2758
(dp2759
g72
(dp2760
g80
I3
ssg81
g2754
sg74
(lp2761
S''
asbasbasbag67
(g83
g69
NtRp2762
(dp2763
g72
(dp2764
sg81
g2380
sg74
(lp2765
g67
(g88
g69
NtRp2766
(dp2767
g72
(dp2768
g92
g93
ssg81
g2762
sg74
(lp2769
S'SERVER_NAME'
p2770
asbag67
(g88
g69
NtRp2771
(dp2772
g72
(dp2773
g99
g100
ssg81
g2762
sg74
(lp2774
S':'
asbag67
(g88
g69
NtRp2775
(dp2776
g72
(dp2777
sg81
g2762
sg74
(lp2778
g67
(g68
g69
NtRp2779
(dp2780
g72
(dp2781
g80
I3
ssg81
g2775
sg74
(lp2782
g1303
asbasbasbag67
(g83
g69
NtRp2783
(dp2784
g72
(dp2785
sg81
g2380
sg74
(lp2786
g67
(g88
g69
NtRp2787
(dp2788
g72
(dp2789
g92
g93
ssg81
g2783
sg74
(lp2790
S'SERVER_PORT'
p2791
asbag67
(g88
g69
NtRp2792
(dp2793
g72
(dp2794
g99
g100
ssg81
g2783
sg74
(lp2795
S':'
asbag67
(g88
g69
NtRp2796
(dp2797
g72
(dp2798
sg81
g2783
sg74
(lp2799
g67
(g68
g69
NtRp2800
(dp2801
g72
(dp2802
g80
I3
ssg81
g2796
sg74
(lp2803
g1325
asbasbasbag67
(g83
g69
NtRp2804
(dp2805
g72
(dp2806
sg81
g2380
sg74
(lp2807
g67
(g88
g69
NtRp2808
(dp2809
g72
(dp2810
g92
g93
ssg81
g2804
sg74
(lp2811
S'SERVER_PROTOCOL'
p2812
asbag67
(g88
g69
NtRp2813
(dp2814
g72
(dp2815
g99
g100
ssg81
g2804
sg74
(lp2816
S':'
asbag67
(g88
g69
NtRp2817
(dp2818
g72
(dp2819
sg81
g2804
sg74
(lp2820
g67
(g68
g69
NtRp2821
(dp2822
g72
(dp2823
g80
I3
ssg81
g2817
sg74
(lp2824
g1347
asbasbasbag67
(g83
g69
NtRp2825
(dp2826
g72
(dp2827
sg81
g2380
sg74
(lp2828
g67
(g88
g69
NtRp2829
(dp2830
g72
(dp2831
g92
g93
ssg81
g2825
sg74
(lp2832
S'SERVER_SOFTWARE'
p2833
asbag67
(g88
g69
NtRp2834
(dp2835
g72
(dp2836
g99
g100
ssg81
g2825
sg74
(lp2837
S':'
asbag67
(g88
g69
NtRp2838
(dp2839
g72
(dp2840
sg81
g2825
sg74
(lp2841
g67
(g68
g69
NtRp2842
(dp2843
g72
(dp2844
g80
I3
ssg81
g2838
sg74
(lp2845
g1369
asbasbasbag67
(g83
g69
NtRp2846
(dp2847
g72
(dp2848
sg81
g2380
sg74
(lp2849
g67
(g88
g69
NtRp2850
(dp2851
g72
(dp2852
g92
g93
ssg81
g2846
sg74
(lp2853
S'wsgi.errors'
p2854
asbag67
(g88
g69
NtRp2855
(dp2856
g72
(dp2857
g99
g100
ssg81
g2846
sg74
(lp2858
S':'
asbag67
(g88
g69
NtRp2859
(dp2860
g72
(dp2861
sg81
g2846
sg74
(lp2862
g67
(g68
g69
NtRp2863
(dp2864
g72
(dp2865
g80
I3
ssg81
g2859
sg74
(lp2866
S"<open file '<stderr>', mode 'w' at 0x7fa63791d270>"
p2867
asbasbasbag67
(g83
g69
NtRp2868
(dp2869
g72
(dp2870
sg81
g2380
sg74
(lp2871
g67
(g88
g69
NtRp2872
(dp2873
g72
(dp2874
g92
g93
ssg81
g2868
sg74
(lp2875
S'wsgi.file_wrapper'
p2876
asbag67
(g88
g69
NtRp2877
(dp2878
g72
(dp2879
g99
g100
ssg81
g2868
sg74
(lp2880
S':'
asbag67
(g88
g69
NtRp2881
(dp2882
g72
(dp2883
sg81
g2868
sg74
(lp2884
g67
(g68
g69
NtRp2885
(dp2886
g72
(dp2887
g80
I3
ssg81
g2881
sg74
(lp2888
S'<class wsgiref.util.FileWrapper at 0x2901808>'
p2889
asbasbasbag67
(g83
g69
NtRp2890
(dp2891
g72
(dp2892
sg81
g2380
sg74
(lp2893
g67
(g88
g69
NtRp2894
(dp2895
g72
(dp2896
g92
g93
ssg81
g2890
sg74
(lp2897
S'wsgi.input'
p2898
asbag67
(g88
g69
NtRp2899
(dp2900
g72
(dp2901
g99
g100
ssg81
g2890
sg74
(lp2902
S':'
asbag67
(g88
g69
NtRp2903
(dp2904
g72
(dp2905
sg81
g2890
sg74
(lp2906
g67
(g68
g69
NtRp2907
(dp2908
g72
(dp2909
g80
I3
ssg81
g2903
sg74
(lp2910
S'<cStringIO.StringO object at 0x364f8b8>'
p2911
asbasbasbag67
(g83
g69
NtRp2912
(dp2913
g72
(dp2914
sg81
g2380
sg74
(lp2915
g67
(g88
g69
NtRp2916
(dp2917
g72
(dp2918
g92
g93
ssg81
g2912
sg74
(lp2919
S'wsgi.multiprocess'
p2920
asbag67
(g88
g69
NtRp2921
(dp2922
g72
(dp2923
g99
g100
ssg81
g2912
sg74
(lp2924
S':'
asbag67
(g88
g69
NtRp2925
(dp2926
g72
(dp2927
sg81
g2912
sg74
(lp2928
g67
(g68
g69
NtRp2929
(dp2930
g72
(dp2931
g80
I3
ssg81
g2925
sg74
(lp2932
g846
asbasbasbag67
(g83
g69
NtRp2933
(dp2934
g72
(dp2935
sg81
g2380
sg74
(lp2936
g67
(g88
g69
NtRp2937
(dp2938
g72
(dp2939
g92
g93
ssg81
g2933
sg74
(lp2940
S'wsgi.multithread'
p2941
asbag67
(g88
g69
NtRp2942
(dp2943
g72
(dp2944
g99
g100
ssg81
g2933
sg74
(lp2945
S':'
asbag67
(g88
g69
NtRp2946
(dp2947
g72
(dp2948
sg81
g2933
sg74
(lp2949
g67
(g68
g69
NtRp2950
(dp2951
g72
(dp2952
g80
I3
ssg81
g2946
sg74
(lp2953
g110
asbasbasbag67
(g83
g69
NtRp2954
(dp2955
g72
(dp2956
sg81
g2380
sg74
(lp2957
g67
(g88
g69
NtRp2958
(dp2959
g72
(dp2960
g92
g93
ssg81
g2954
sg74
(lp2961
S'wsgi.run_once'
p2962
asbag67
(g88
g69
NtRp2963
(dp2964
g72
(dp2965
g99
g100
ssg81
g2954
sg74
(lp2966
S':'
asbag67
(g88
g69
NtRp2967
(dp2968
g72
(dp2969
sg81
g2954
sg74
(lp2970
g67
(g68
g69
NtRp2971
(dp2972
g72
(dp2973
g80
I3
ssg81
g2967
sg74
(lp2974
g846
asbasbasbag67
(g83
g69
NtRp2975
(dp2976
g72
(dp2977
sg81
g2380
sg74
(lp2978
g67
(g88
g69
NtRp2979
(dp2980
g72
(dp2981
g92
g93
ssg81
g2975
sg74
(lp2982
S'wsgi.url_scheme'
p2983
asbag67
(g88
g69
NtRp2984
(dp2985
g72
(dp2986
g99
g100
ssg81
g2975
sg74
(lp2987
S':'
asbag67
(g88
g69
NtRp2988
(dp2989
g72
(dp2990
sg81
g2975
sg74
(lp2991
g67
(g68
g69
NtRp2992
(dp2993
g72
(dp2994
g80
I3
ssg81
g2988
sg74
(lp2995
g1651
asbasbasbag67
(g83
g69
NtRp2996
(dp2997
g72
(dp2998
sg81
g2380
sg74
(lp2999
g67
(g88
g69
NtRp3000
(dp3001
g72
(dp3002
g92
g93
ssg81
g2996
sg74
(lp3003
S'wsgi.version'
p3004
asbag67
(g88
g69
NtRp3005
(dp3006
g72
(dp3007
g99
g100
ssg81
g2996
sg74
(lp3008
S':'
asbag67
(g88
g69
NtRp3009
(dp3010
g72
(dp3011
sg81
g2996
sg74
(lp3012
g67
(g68
g69
NtRp3013
(dp3014
g72
(dp3015
g80
I3
ssg81
g3009
sg74
(lp3016
S'1'
asbasbasbasbasbasbasbasbasbasbasbasbasbsS'frames'
p3017
(lp3018
(dp3019
S'file'
p3020
S'/home/ian/web2py/gluon/restricted.py'
p3021
sS'dump'
p3022
(dp3023
S'code'
p3024
S"'from gluon.sqlhtml import OptionsWidget\\n\\n\\ndef se...on)\\n\\nresponse._vars=response._caller(set_widget)\\n'"
p3025
sS'layer'
p3026
S"'/home/ian/web2py/applications/topoi/controllers/plugin_ajaxselect.py'"
p3027
sS'global compile2'
p3028
S'<function compile2>'
p3029
sS'ccode'
p3030
S'undefined'
p3031
ssS'lnum'
p3032
I193
sS'lines'
p3033
(dp3034
I192
S'        else:'
p3035
sI193
S'            ccode = compile2(code,layer)'
p3036
sI194
S'        exec ccode in environment'
p3037
sI195
S'    except HTTP:'
p3038
sI196
S'        raise'
p3039
sI197
S'    except Exception, error:'
p3040
sI188
S"    environment['__file__'] = layer"
p3041
sI189
S'    try:'
p3042
sI190
S'        if type(code) == types.CodeType:'
p3043
sI191
S'            ccode = code'
p3044
ssS'call'
p3045
S"(code='from gluon.sqlhtml import OptionsWidget\\n\\n\\ndef se...on)\\n\\nresponse._vars=response._caller(set_widget)\\n', environment={'A': <class 'gluon.html.A'>, 'AjaxSelect': <class applications.topoi.modules.plugin_ajaxselect.AjaxSelect>, 'Auth': <class 'gluon.tools.Auth'>, 'B': <class 'gluon.html.B'>, 'BEAUTIFY': <class 'gluon.html.BEAUTIFY'>, 'BODY': <class 'gluon.html.BODY'>, 'BR': <class 'gluon.html.BR'>, 'BUTTON': <class 'gluon.html.BUTTON'>, 'CAT': <class 'gluon.html.CAT'>, 'CENTER': <class 'gluon.html.CENTER'>, ...}, layer='/home/ian/web2py/applications/topoi/controllers/plugin_ajaxselect.py')"
p3046
sS'func'
p3047
S'restricted'
p3048
sa(dp3049
g3020
S'/home/ian/web2py/gluon/restricted.py'
p3050
sg3022
(dp3051
S'builtincompile'
p3052
S'<built-in function compile>'
p3053
sS'code'
p3054
S"'from gluon.sqlhtml import OptionsWidget\\n\\n\\ndef se...on)\\n\\nresponse._vars=response._caller(set_widget)\\n'"
p3055
sS'code.rstrip'
p3056
S'<built-in method rstrip of str object>'
p3057
sS').replace'
p3058
g3031
sS'layer'
p3059
S"'/home/ian/web2py/applications/topoi/controllers/plugin_ajaxselect.py'"
p3060
ssg3032
I179
sg3033
(dp3061
I174
S''
sI175
S'def compile2(code,layer):'
p3062
sI176
S'    """'
p3063
sI177
S"    The +'\\n' is necessary else compile fails when code ends in a comment."
p3064
sI178
S'    """'
p3065
sI179
S"    return compile(code.rstrip().replace('\\r\\n','\\n')+'\\n', layer, 'exec')"
p3066
sI180
S''
sI181
S"def restricted(code, environment=None, layer='Unknown'):"
p3067
sI182
S'    """'
p3068
sI183
S'    runs code in environment and returns the output. if an exception occurs'
p3069
ssg3045
S"(code='from gluon.sqlhtml import OptionsWidget\\n\\n\\ndef se...on)\\n\\nresponse._vars=response._caller(set_widget)\\n', layer='/home/ian/web2py/applications/topoi/controllers/plugin_ajaxselect.py')"
p3070
sg3047
S'compile2'
p3071
sasS'pyver'
p3072
S'Python 2.7.2+: /usr/bin/python2.7'
p3073
sS'session'
p3074
g67
(g68
g69
NtRp3075
(dp3076
g72
(dp3077
sg74
(lp3078
g67
(g76
g69
NtRp3079
(dp3080
g72
(dp3081
g80
I5
ssg81
Nsg74
(lp3082
sbasbsS'etype'
p3083
S"<type 'exceptions.SyntaxError'>"
p3084
sS'date'
p3085
S'Wed Dec 14 18:46:43 2011'
p3086
sS'response'
p3087
g67
(g68
g69
NtRp3088
(dp3089
g72
(dp3090
sg74
(lp3091
g67
(g76
g69
NtRp3092
(dp3093
g72
(dp3094
g80
I5
ssg81
Nsg74
(lp3095
g67
(g83
g69
NtRp3096
(dp3097
g72
(dp3098
sg81
g3092
sg74
(lp3099
g67
(g88
g69
NtRp3100
(dp3101
g72
(dp3102
g92
g93
ssg81
g3096
sg74
(lp3103
g204
asbag67
(g88
g69
NtRp3104
(dp3105
g72
(dp3106
g99
g100
ssg81
g3096
sg74
(lp3107
S':'
asbag67
(g88
g69
NtRp3108
(dp3109
g72
(dp3110
sg81
g3096
sg74
(lp3111
g67
(g68
g69
NtRp3112
(dp3113
g72
(dp3114
g80
I5
ssg81
g3108
sg74
(lp3115
S'<cStringIO.StringO object at 0x310f260>'
p3116
asbasbasbag67
(g83
g69
NtRp3117
(dp3118
g72
(dp3119
sg81
g3092
sg74
(lp3120
g67
(g88
g69
NtRp3121
(dp3122
g72
(dp3123
g92
g93
ssg81
g3117
sg74
(lp3124
g292
asbag67
(g88
g69
NtRp3125
(dp3126
g72
(dp3127
g99
g100
ssg81
g3117
sg74
(lp3128
S':'
asbag67
(g88
g69
NtRp3129
(dp3130
g72
(dp3131
sg81
g3117
sg74
(lp3132
g67
(g68
g69
NtRp3133
(dp3134
g72
(dp3135
g80
I5
ssg81
g3129
sg74
(lp3136
g67
(g76
g69
NtRp3137
(dp3138
g72
(dp3139
g80
I4
ssg81
Nsg74
(lp3140
g67
(g83
g69
NtRp3141
(dp3142
g72
(dp3143
sg81
g3137
sg74
(lp3144
g67
(g88
g69
NtRp3145
(dp3146
g72
(dp3147
g92
g93
ssg81
g3141
sg74
(lp3148
S'session_id_topoi'
p3149
asbag67
(g88
g69
NtRp3150
(dp3151
g72
(dp3152
g99
g100
ssg81
g3141
sg74
(lp3153
S':'
asbag67
(g88
g69
NtRp3154
(dp3155
g72
(dp3156
sg81
g3141
sg74
(lp3157
g67
(g68
g69
NtRp3158
(dp3159
g72
(dp3160
g80
I4
ssg81
g3154
sg74
(lp3161
g67
(g76
g69
NtRp3162
(dp3163
g72
(dp3164
g80
I3
ssg81
Nsg74
(lp3165
g67
(g83
g69
NtRp3166
(dp3167
g72
(dp3168
sg81
g3162
sg74
(lp3169
g67
(g88
g69
NtRp3170
(dp3171
g72
(dp3172
g92
g93
ssg81
g3166
sg74
(lp3173
g342
asbag67
(g88
g69
NtRp3174
(dp3175
g72
(dp3176
g99
g100
ssg81
g3166
sg74
(lp3177
S':'
asbag67
(g88
g69
NtRp3178
(dp3179
g72
(dp3180
sg81
g3166
sg74
(lp3181
g67
(g68
g69
NtRp3182
(dp3183
g72
(dp3184
g80
I3
ssg81
g3178
sg74
(lp3185
S''
asbasbasbag67
(g83
g69
NtRp3186
(dp3187
g72
(dp3188
sg81
g3162
sg74
(lp3189
g67
(g88
g69
NtRp3190
(dp3191
g72
(dp3192
g92
g93
ssg81
g3186
sg74
(lp3193
g363
asbag67
(g88
g69
NtRp3194
(dp3195
g72
(dp3196
g99
g100
ssg81
g3186
sg74
(lp3197
S':'
asbag67
(g88
g69
NtRp3198
(dp3199
g72
(dp3200
sg81
g3186
sg74
(lp3201
g67
(g68
g69
NtRp3202
(dp3203
g72
(dp3204
g80
I3
ssg81
g3198
sg74
(lp3205
S''
asbasbasbag67
(g83
g69
NtRp3206
(dp3207
g72
(dp3208
sg81
g3162
sg74
(lp3209
g67
(g88
g69
NtRp3210
(dp3211
g72
(dp3212
g92
g93
ssg81
g3206
sg74
(lp3213
g384
asbag67
(g88
g69
NtRp3214
(dp3215
g72
(dp3216
g99
g100
ssg81
g3206
sg74
(lp3217
S':'
asbag67
(g88
g69
NtRp3218
(dp3219
g72
(dp3220
sg81
g3206
sg74
(lp3221
g67
(g68
g69
NtRp3222
(dp3223
g72
(dp3224
g80
I3
ssg81
g3218
sg74
(lp3225
S''
asbasbasbag67
(g83
g69
NtRp3226
(dp3227
g72
(dp3228
sg81
g3162
sg74
(lp3229
g67
(g88
g69
NtRp3230
(dp3231
g72
(dp3232
g92
g93
ssg81
g3226
sg74
(lp3233
g405
asbag67
(g88
g69
NtRp3234
(dp3235
g72
(dp3236
g99
g100
ssg81
g3226
sg74
(lp3237
S':'
asbag67
(g88
g69
NtRp3238
(dp3239
g72
(dp3240
sg81
g3226
sg74
(lp3241
g67
(g68
g69
NtRp3242
(dp3243
g72
(dp3244
g80
I3
ssg81
g3238
sg74
(lp3245
S''
asbasbasbag67
(g83
g69
NtRp3246
(dp3247
g72
(dp3248
sg81
g3162
sg74
(lp3249
g67
(g88
g69
NtRp3250
(dp3251
g72
(dp3252
g92
g93
ssg81
g3246
sg74
(lp3253
g426
asbag67
(g88
g69
NtRp3254
(dp3255
g72
(dp3256
g99
g100
ssg81
g3246
sg74
(lp3257
S':'
asbag67
(g88
g69
NtRp3258
(dp3259
g72
(dp3260
sg81
g3246
sg74
(lp3261
g67
(g68
g69
NtRp3262
(dp3263
g72
(dp3264
g80
I3
ssg81
g3258
sg74
(lp3265
S''
asbasbasbag67
(g83
g69
NtRp3266
(dp3267
g72
(dp3268
sg81
g3162
sg74
(lp3269
g67
(g88
g69
NtRp3270
(dp3271
g72
(dp3272
g92
g93
ssg81
g3266
sg74
(lp3273
g447
asbag67
(g88
g69
NtRp3274
(dp3275
g72
(dp3276
g99
g100
ssg81
g3266
sg74
(lp3277
S':'
asbag67
(g88
g69
NtRp3278
(dp3279
g72
(dp3280
sg81
g3266
sg74
(lp3281
g67
(g68
g69
NtRp3282
(dp3283
g72
(dp3284
g80
I3
ssg81
g3278
sg74
(lp3285
S'/'
asbasbasbag67
(g83
g69
NtRp3286
(dp3287
g72
(dp3288
sg81
g3162
sg74
(lp3289
g67
(g88
g69
NtRp3290
(dp3291
g72
(dp3292
g92
g93
ssg81
g3286
sg74
(lp3293
g468
asbag67
(g88
g69
NtRp3294
(dp3295
g72
(dp3296
g99
g100
ssg81
g3286
sg74
(lp3297
S':'
asbag67
(g88
g69
NtRp3298
(dp3299
g72
(dp3300
sg81
g3286
sg74
(lp3301
g67
(g68
g69
NtRp3302
(dp3303
g72
(dp3304
g80
I3
ssg81
g3298
sg74
(lp3305
S''
asbasbasbag67
(g83
g69
NtRp3306
(dp3307
g72
(dp3308
sg81
g3162
sg74
(lp3309
g67
(g88
g69
NtRp3310
(dp3311
g72
(dp3312
g92
g93
ssg81
g3306
sg74
(lp3313
g489
asbag67
(g88
g69
NtRp3314
(dp3315
g72
(dp3316
g99
g100
ssg81
g3306
sg74
(lp3317
S':'
asbag67
(g88
g69
NtRp3318
(dp3319
g72
(dp3320
sg81
g3306
sg74
(lp3321
g67
(g68
g69
NtRp3322
(dp3323
g72
(dp3324
g80
I3
ssg81
g3318
sg74
(lp3325
S''
asbasbasbasbasbasbasbasbasbasbasbag67
(g83
g69
NtRp3326
(dp3327
g72
(dp3328
sg81
g3092
sg74
(lp3329
g67
(g88
g69
NtRp3330
(dp3331
g72
(dp3332
g92
g93
ssg81
g3326
sg74
(lp3333
S'files'
p3334
asbag67
(g88
g69
NtRp3335
(dp3336
g72
(dp3337
g99
g100
ssg81
g3326
sg74
(lp3338
S':'
asbag67
(g88
g69
NtRp3339
(dp3340
g72
(dp3341
sg81
g3326
sg74
(lp3342
g67
(g68
g69
NtRp3343
(dp3344
g72
(dp3345
g80
I5
ssg81
g3339
sg74
(lp3346
g67
(g76
g69
NtRp3347
(dp3348
g72
(dp3349
g80
I4
ssg81
Nsg74
(lp3350
sbasbasbasbag67
(g83
g69
NtRp3351
(dp3352
g72
(dp3353
sg81
g3092
sg74
(lp3354
g67
(g88
g69
NtRp3355
(dp3356
g72
(dp3357
g92
g93
ssg81
g3351
sg74
(lp3358
S'flash'
p3359
asbag67
(g88
g69
NtRp3360
(dp3361
g72
(dp3362
g99
g100
ssg81
g3351
sg74
(lp3363
S':'
asbag67
(g88
g69
NtRp3364
(dp3365
g72
(dp3366
sg81
g3351
sg74
(lp3367
g67
(g68
g69
NtRp3368
(dp3369
g72
(dp3370
g80
I5
ssg81
g3364
sg74
(lp3371
S''
asbasbasbag67
(g83
g69
NtRp3372
(dp3373
g72
(dp3374
sg81
g3092
sg74
(lp3375
g67
(g88
g69
NtRp3376
(dp3377
g72
(dp3378
g92
g93
ssg81
g3372
sg74
(lp3379
S'generic_patterns'
p3380
asbag67
(g88
g69
NtRp3381
(dp3382
g72
(dp3383
g99
g100
ssg81
g3372
sg74
(lp3384
S':'
asbag67
(g88
g69
NtRp3385
(dp3386
g72
(dp3387
sg81
g3372
sg74
(lp3388
g67
(g68
g69
NtRp3389
(dp3390
g72
(dp3391
g80
I5
ssg81
g3385
sg74
(lp3392
g67
(g76
g69
NtRp3393
(dp3394
g72
(dp3395
g80
I4
ssg81
Nsg74
(lp3396
g67
(g83
g69
NtRp3397
(dp3398
g72
(dp3399
sg81
g3393
sg74
(lp3400
g67
(g88
g69
NtRp3401
(dp3402
g72
(dp3403
sg81
g3397
sg74
(lp3404
g67
(g68
g69
NtRp3405
(dp3406
g72
(dp3407
g80
I4
ssg81
g3401
sg74
(lp3408
S'*'
asbasbasbasbasbasbasbag67
(g83
g69
NtRp3409
(dp3410
g72
(dp3411
sg81
g3092
sg74
(lp3412
g67
(g88
g69
NtRp3413
(dp3414
g72
(dp3415
g92
g93
ssg81
g3409
sg74
(lp3416
S'headers'
p3417
asbag67
(g88
g69
NtRp3418
(dp3419
g72
(dp3420
g99
g100
ssg81
g3409
sg74
(lp3421
S':'
asbag67
(g88
g69
NtRp3422
(dp3423
g72
(dp3424
sg81
g3409
sg74
(lp3425
g67
(g68
g69
NtRp3426
(dp3427
g72
(dp3428
g80
I5
ssg81
g3422
sg74
(lp3429
g67
(g76
g69
NtRp3430
(dp3431
g72
(dp3432
g80
I4
ssg81
Nsg74
(lp3433
g67
(g83
g69
NtRp3434
(dp3435
g72
(dp3436
sg81
g3430
sg74
(lp3437
g67
(g88
g69
NtRp3438
(dp3439
g72
(dp3440
g92
g93
ssg81
g3434
sg74
(lp3441
S'Cache-Control'
p3442
asbag67
(g88
g69
NtRp3443
(dp3444
g72
(dp3445
g99
g100
ssg81
g3434
sg74
(lp3446
S':'
asbag67
(g88
g69
NtRp3447
(dp3448
g72
(dp3449
sg81
g3434
sg74
(lp3450
g67
(g68
g69
NtRp3451
(dp3452
g72
(dp3453
g80
I4
ssg81
g3447
sg74
(lp3454
S'no-store, no-cache, must-revalidate, post-check=0, pre-check=0'
p3455
asbasbasbag67
(g83
g69
NtRp3456
(dp3457
g72
(dp3458
sg81
g3430
sg74
(lp3459
g67
(g88
g69
NtRp3460
(dp3461
g72
(dp3462
g92
g93
ssg81
g3456
sg74
(lp3463
S'Content-Type'
p3464
asbag67
(g88
g69
NtRp3465
(dp3466
g72
(dp3467
g99
g100
ssg81
g3456
sg74
(lp3468
S':'
asbag67
(g88
g69
NtRp3469
(dp3470
g72
(dp3471
sg81
g3456
sg74
(lp3472
g67
(g68
g69
NtRp3473
(dp3474
g72
(dp3475
g80
I4
ssg81
g3469
sg74
(lp3476
S'text/html; charset=utf-8'
p3477
asbasbasbag67
(g83
g69
NtRp3478
(dp3479
g72
(dp3480
sg81
g3430
sg74
(lp3481
g67
(g88
g69
NtRp3482
(dp3483
g72
(dp3484
g92
g93
ssg81
g3478
sg74
(lp3485
S'Expires'
p3486
asbag67
(g88
g69
NtRp3487
(dp3488
g72
(dp3489
g99
g100
ssg81
g3478
sg74
(lp3490
S':'
asbag67
(g88
g69
NtRp3491
(dp3492
g72
(dp3493
sg81
g3478
sg74
(lp3494
g67
(g68
g69
NtRp3495
(dp3496
g72
(dp3497
g80
I4
ssg81
g3491
sg74
(lp3498
S'Wed, 14 Dec 2011 23:46:42 GMT'
p3499
asbasbasbag67
(g83
g69
NtRp3500
(dp3501
g72
(dp3502
sg81
g3430
sg74
(lp3503
g67
(g88
g69
NtRp3504
(dp3505
g72
(dp3506
g92
g93
ssg81
g3500
sg74
(lp3507
S'Pragma'
p3508
asbag67
(g88
g69
NtRp3509
(dp3510
g72
(dp3511
g99
g100
ssg81
g3500
sg74
(lp3512
S':'
asbag67
(g88
g69
NtRp3513
(dp3514
g72
(dp3515
sg81
g3500
sg74
(lp3516
g67
(g68
g69
NtRp3517
(dp3518
g72
(dp3519
g80
I4
ssg81
g3513
sg74
(lp3520
S'no-cache'
p3521
asbasbasbag67
(g83
g69
NtRp3522
(dp3523
g72
(dp3524
sg81
g3430
sg74
(lp3525
g67
(g88
g69
NtRp3526
(dp3527
g72
(dp3528
g92
g93
ssg81
g3522
sg74
(lp3529
S'X-Powered-By'
p3530
asbag67
(g88
g69
NtRp3531
(dp3532
g72
(dp3533
g99
g100
ssg81
g3522
sg74
(lp3534
S':'
asbag67
(g88
g69
NtRp3535
(dp3536
g72
(dp3537
sg81
g3522
sg74
(lp3538
g67
(g68
g69
NtRp3539
(dp3540
g72
(dp3541
g80
I4
ssg81
g3535
sg74
(lp3542
S'web2py'
p3543
asbasbasbasbasbasbasbag67
(g83
g69
NtRp3544
(dp3545
g72
(dp3546
sg81
g3092
sg74
(lp3547
g67
(g88
g69
NtRp3548
(dp3549
g72
(dp3550
g92
g93
ssg81
g3544
sg74
(lp3551
S'menu'
p3552
asbag67
(g88
g69
NtRp3553
(dp3554
g72
(dp3555
g99
g100
ssg81
g3544
sg74
(lp3556
S':'
asbag67
(g88
g69
NtRp3557
(dp3558
g72
(dp3559
sg81
g3544
sg74
(lp3560
g67
(g68
g69
NtRp3561
(dp3562
g72
(dp3563
g80
I5
ssg81
g3557
sg74
(lp3564
g67
(g76
g69
NtRp3565
(dp3566
g72
(dp3567
g80
I4
ssg81
Nsg74
(lp3568
g67
(g83
g69
NtRp3569
(dp3570
g72
(dp3571
sg81
g3565
sg74
(lp3572
g67
(g88
g69
NtRp3573
(dp3574
g72
(dp3575
sg81
g3569
sg74
(lp3576
g67
(g68
g69
NtRp3577
(dp3578
g72
(dp3579
g80
I4
ssg81
g3573
sg74
(lp3580
g67
(g76
g69
NtRp3581
(dp3582
g72
(dp3583
g80
I3
ssg81
Nsg74
(lp3584
g67
(g83
g69
NtRp3585
(dp3586
g72
(dp3587
sg81
g3581
sg74
(lp3588
g67
(g88
g69
NtRp3589
(dp3590
g72
(dp3591
sg81
g3585
sg74
(lp3592
g67
(g68
g69
NtRp3593
(dp3594
g72
(dp3595
g80
I3
ssg81
g3589
sg74
(lp3596
cgluon.languages
lazyT_unpickle
p3597
(S't\x04\x00\x00\x00Home'
tRp3598
asbasbasbag67
(g83
g69
NtRp3599
(dp3600
g72
(dp3601
sg81
g3581
sg74
(lp3602
g67
(g88
g69
NtRp3603
(dp3604
g72
(dp3605
sg81
g3599
sg74
(lp3606
g67
(g68
g69
NtRp3607
(dp3608
g72
(dp3609
g80
I3
ssg81
g3603
sg74
(lp3610
g846
asbasbasbag67
(g83
g69
NtRp3611
(dp3612
g72
(dp3613
sg81
g3581
sg74
(lp3614
g67
(g88
g69
NtRp3615
(dp3616
g72
(dp3617
sg81
g3611
sg74
(lp3618
g67
(g68
g69
NtRp3619
(dp3620
g72
(dp3621
g80
I3
ssg81
g3615
sg74
(lp3622
S'/topoi/default/index.load'
p3623
asbasbasbag67
(g83
g69
NtRp3624
(dp3625
g72
(dp3626
sg81
g3581
sg74
(lp3627
g67
(g88
g69
NtRp3628
(dp3629
g72
(dp3630
sg81
g3624
sg74
(lp3631
g67
(g68
g69
NtRp3632
(dp3633
g72
(dp3634
g80
I3
ssg81
g3628
sg74
(lp3635
g67
(g76
g69
NtRp3636
(dp3637
g72
(dp3638
g80
I2
ssg81
Nsg74
(lp3639
sbasbasbasbasbasbasbasbag67
(g83
g69
NtRp3640
(dp3641
g72
(dp3642
sg81
g3565
sg74
(lp3643
g67
(g88
g69
NtRp3644
(dp3645
g72
(dp3646
sg81
g3640
sg74
(lp3647
g67
(g68
g69
NtRp3648
(dp3649
g72
(dp3650
g80
I4
ssg81
g3644
sg74
(lp3651
g67
(g76
g69
NtRp3652
(dp3653
g72
(dp3654
g80
I3
ssg81
Nsg74
(lp3655
g67
(g83
g69
NtRp3656
(dp3657
g72
(dp3658
sg81
g3652
sg74
(lp3659
g67
(g88
g69
NtRp3660
(dp3661
g72
(dp3662
sg81
g3656
sg74
(lp3663
g67
(g68
g69
NtRp3664
(dp3665
g72
(dp3666
g80
I3
ssg81
g3660
sg74
(lp3667
g3597
(S't\x01\x00\x00\x00S'
tRp3668
asbasbasbag67
(g83
g69
NtRp3669
(dp3670
g72
(dp3671
sg81
g3652
sg74
(lp3672
g67
(g88
g69
NtRp3673
(dp3674
g72
(dp3675
sg81
g3669
sg74
(lp3676
g67
(g68
g69
NtRp3677
(dp3678
g72
(dp3679
g80
I3
ssg81
g3673
sg74
(lp3680
g846
asbasbasbag67
(g83
g69
NtRp3681
(dp3682
g72
(dp3683
sg81
g3652
sg74
(lp3684
g67
(g88
g69
NtRp3685
(dp3686
g72
(dp3687
sg81
g3681
sg74
(lp3688
g67
(g68
g69
NtRp3689
(dp3690
g72
(dp3691
g80
I3
ssg81
g3685
sg74
(lp3692
S'/admin/default/design/topoi.load'
p3693
asbasbasbag67
(g83
g69
NtRp3694
(dp3695
g72
(dp3696
sg81
g3652
sg74
(lp3697
g67
(g88
g69
NtRp3698
(dp3699
g72
(dp3700
sg81
g3694
sg74
(lp3701
g67
(g68
g69
NtRp3702
(dp3703
g72
(dp3704
g80
I3
ssg81
g3698
sg74
(lp3705
g67
(g76
g69
NtRp3706
(dp3707
g72
(dp3708
g80
I2
ssg81
Nsg74
(lp3709
g67
(g83
g69
NtRp3710
(dp3711
g72
(dp3712
sg81
g3706
sg74
(lp3713
g67
(g88
g69
NtRp3714
(dp3715
g72
(dp3716
sg81
g3710
sg74
(lp3717
g67
(g68
g69
NtRp3718
(dp3719
g72
(dp3720
g80
I2
ssg81
g3714
sg74
(lp3721
g67
(g76
g69
NtRp3722
(dp3723
g72
(dp3724
g80
I1
ssg81
Nsg74
(lp3725
g67
(g83
g69
NtRp3726
(dp3727
g72
(dp3728
sg81
g3722
sg74
(lp3729
g67
(g88
g69
NtRp3730
(dp3731
g72
(dp3732
sg81
g3726
sg74
(lp3733
g67
(g68
g69
NtRp3734
(dp3735
g72
(dp3736
g80
I1
ssg81
g3730
sg74
(lp3737
g3597
(S't\n\x00\x00\x00Controller'
tRp3738
asbasbasbag67
(g83
g69
NtRp3739
(dp3740
g72
(dp3741
sg81
g3722
sg74
(lp3742
g67
(g88
g69
NtRp3743
(dp3744
g72
(dp3745
sg81
g3739
sg74
(lp3746
g67
(g68
g69
NtRp3747
(dp3748
g72
(dp3749
g80
I1
ssg81
g3743
sg74
(lp3750
I00
asbasbasbag67
(g83
g69
NtRp3751
(dp3752
g72
(dp3753
sg81
g3722
sg74
(lp3754
g67
(g88
g69
NtRp3755
(dp3756
g72
(dp3757
sg81
g3751
sg74
(lp3758
g67
(g68
g69
NtRp3759
(dp3760
g72
(dp3761
g80
I1
ssg81
g3755
sg74
(lp3762
S'/admin/default/edit/topoi/controllers/plugin_ajaxselect.py'
p3763
asbasbasbasbasbasbasbag67
(g83
g69
NtRp3764
(dp3765
g72
(dp3766
sg81
g3706
sg74
(lp3767
g67
(g88
g69
NtRp3768
(dp3769
g72
(dp3770
sg81
g3764
sg74
(lp3771
g67
(g68
g69
NtRp3772
(dp3773
g72
(dp3774
g80
I2
ssg81
g3768
sg74
(lp3775
g67
(g76
g69
NtRp3776
(dp3777
g72
(dp3778
g80
I1
ssg81
Nsg74
(lp3779
g67
(g83
g69
NtRp3780
(dp3781
g72
(dp3782
sg81
g3776
sg74
(lp3783
g67
(g88
g69
NtRp3784
(dp3785
g72
(dp3786
sg81
g3780
sg74
(lp3787
g67
(g68
g69
NtRp3788
(dp3789
g72
(dp3790
g80
I1
ssg81
g3784
sg74
(lp3791
g3597
(S't\x04\x00\x00\x00View'
tRp3792
asbasbasbag67
(g83
g69
NtRp3793
(dp3794
g72
(dp3795
sg81
g3776
sg74
(lp3796
g67
(g88
g69
NtRp3797
(dp3798
g72
(dp3799
sg81
g3793
sg74
(lp3800
g67
(g68
g69
NtRp3801
(dp3802
g72
(dp3803
g80
I1
ssg81
g3797
sg74
(lp3804
I00
asbasbasbag67
(g83
g69
NtRp3805
(dp3806
g72
(dp3807
sg81
g3776
sg74
(lp3808
g67
(g88
g69
NtRp3809
(dp3810
g72
(dp3811
sg81
g3805
sg74
(lp3812
g67
(g68
g69
NtRp3813
(dp3814
g72
(dp3815
g80
I1
ssg81
g3809
sg74
(lp3816
S'/admin/default/edit/topoi/views/plugin_ajaxselect/set_widget.load'
p3817
asbasbasbasbasbasbasbag67
(g83
g69
NtRp3818
(dp3819
g72
(dp3820
sg81
g3706
sg74
(lp3821
g67
(g88
g69
NtRp3822
(dp3823
g72
(dp3824
sg81
g3818
sg74
(lp3825
g67
(g68
g69
NtRp3826
(dp3827
g72
(dp3828
g80
I2
ssg81
g3822
sg74
(lp3829
g67
(g76
g69
NtRp3830
(dp3831
g72
(dp3832
g80
I1
ssg81
Nsg74
(lp3833
g67
(g83
g69
NtRp3834
(dp3835
g72
(dp3836
sg81
g3830
sg74
(lp3837
g67
(g88
g69
NtRp3838
(dp3839
g72
(dp3840
sg81
g3834
sg74
(lp3841
g67
(g68
g69
NtRp3842
(dp3843
g72
(dp3844
g80
I1
ssg81
g3838
sg74
(lp3845
g3597
(S't\x06\x00\x00\x00Layout'
tRp3846
asbasbasbag67
(g83
g69
NtRp3847
(dp3848
g72
(dp3849
sg81
g3830
sg74
(lp3850
g67
(g88
g69
NtRp3851
(dp3852
g72
(dp3853
sg81
g3847
sg74
(lp3854
g67
(g68
g69
NtRp3855
(dp3856
g72
(dp3857
g80
I1
ssg81
g3851
sg74
(lp3858
I00
asbasbasbag67
(g83
g69
NtRp3859
(dp3860
g72
(dp3861
sg81
g3830
sg74
(lp3862
g67
(g88
g69
NtRp3863
(dp3864
g72
(dp3865
sg81
g3859
sg74
(lp3866
g67
(g68
g69
NtRp3867
(dp3868
g72
(dp3869
g80
I1
ssg81
g3863
sg74
(lp3870
S'/admin/default/edit/topoi/views/layout.html'
p3871
asbasbasbasbasbasbasbag67
(g83
g69
NtRp3872
(dp3873
g72
(dp3874
sg81
g3706
sg74
(lp3875
g67
(g88
g69
NtRp3876
(dp3877
g72
(dp3878
sg81
g3872
sg74
(lp3879
g67
(g68
g69
NtRp3880
(dp3881
g72
(dp3882
g80
I2
ssg81
g3876
sg74
(lp3883
g67
(g76
g69
NtRp3884
(dp3885
g72
(dp3886
g80
I1
ssg81
Nsg74
(lp3887
g67
(g83
g69
NtRp3888
(dp3889
g72
(dp3890
sg81
g3884
sg74
(lp3891
g67
(g88
g69
NtRp3892
(dp3893
g72
(dp3894
sg81
g3888
sg74
(lp3895
g67
(g68
g69
NtRp3896
(dp3897
g72
(dp3898
g80
I1
ssg81
g3892
sg74
(lp3899
g3597
(S't\n\x00\x00\x00Stylesheet'
tRp3900
asbasbasbag67
(g83
g69
NtRp3901
(dp3902
g72
(dp3903
sg81
g3884
sg74
(lp3904
g67
(g88
g69
NtRp3905
(dp3906
g72
(dp3907
sg81
g3901
sg74
(lp3908
g67
(g68
g69
NtRp3909
(dp3910
g72
(dp3911
g80
I1
ssg81
g3905
sg74
(lp3912
I00
asbasbasbag67
(g83
g69
NtRp3913
(dp3914
g72
(dp3915
sg81
g3884
sg74
(lp3916
g67
(g88
g69
NtRp3917
(dp3918
g72
(dp3919
sg81
g3913
sg74
(lp3920
g67
(g68
g69
NtRp3921
(dp3922
g72
(dp3923
g80
I1
ssg81
g3917
sg74
(lp3924
S'/admin/default/edit/topoi/static/base.css'
p3925
asbasbasbasbasbasbasbag67
(g83
g69
NtRp3926
(dp3927
g72
(dp3928
sg81
g3706
sg74
(lp3929
g67
(g88
g69
NtRp3930
(dp3931
g72
(dp3932
sg81
g3926
sg74
(lp3933
g67
(g68
g69
NtRp3934
(dp3935
g72
(dp3936
g80
I2
ssg81
g3930
sg74
(lp3937
g67
(g76
g69
NtRp3938
(dp3939
g72
(dp3940
g80
I1
ssg81
Nsg74
(lp3941
g67
(g83
g69
NtRp3942
(dp3943
g72
(dp3944
sg81
g3938
sg74
(lp3945
g67
(g88
g69
NtRp3946
(dp3947
g72
(dp3948
sg81
g3942
sg74
(lp3949
g67
(g68
g69
NtRp3950
(dp3951
g72
(dp3952
g80
I1
ssg81
g3946
sg74
(lp3953
g3597
(S's\x08\x00\x00\x00DB Model'
tRp3954
asbasbasbag67
(g83
g69
NtRp3955
(dp3956
g72
(dp3957
sg81
g3938
sg74
(lp3958
g67
(g88
g69
NtRp3959
(dp3960
g72
(dp3961
sg81
g3955
sg74
(lp3962
g67
(g68
g69
NtRp3963
(dp3964
g72
(dp3965
g80
I1
ssg81
g3959
sg74
(lp3966
I00
asbasbasbag67
(g83
g69
NtRp3967
(dp3968
g72
(dp3969
sg81
g3938
sg74
(lp3970
g67
(g88
g69
NtRp3971
(dp3972
g72
(dp3973
sg81
g3967
sg74
(lp3974
g67
(g68
g69
NtRp3975
(dp3976
g72
(dp3977
g80
I1
ssg81
g3971
sg74
(lp3978
S'/admin/default/edit/topoi/models/db.py'
p3979
asbasbasbasbasbasbasbag67
(g83
g69
NtRp3980
(dp3981
g72
(dp3982
sg81
g3706
sg74
(lp3983
g67
(g88
g69
NtRp3984
(dp3985
g72
(dp3986
sg81
g3980
sg74
(lp3987
g67
(g68
g69
NtRp3988
(dp3989
g72
(dp3990
g80
I2
ssg81
g3984
sg74
(lp3991
g67
(g76
g69
NtRp3992
(dp3993
g72
(dp3994
g80
I1
ssg81
Nsg74
(lp3995
g67
(g83
g69
NtRp3996
(dp3997
g72
(dp3998
sg81
g3992
sg74
(lp3999
g67
(g88
g69
NtRp4000
(dp4001
g72
(dp4002
sg81
g3996
sg74
(lp4003
g67
(g68
g69
NtRp4004
(dp4005
g72
(dp4006
g80
I1
ssg81
g4000
sg74
(lp4007
g3597
(S's\n\x00\x00\x00Menu Model'
tRp4008
asbasbasbag67
(g83
g69
NtRp4009
(dp4010
g72
(dp4011
sg81
g3992
sg74
(lp4012
g67
(g88
g69
NtRp4013
(dp4014
g72
(dp4015
sg81
g4009
sg74
(lp4016
g67
(g68
g69
NtRp4017
(dp4018
g72
(dp4019
g80
I1
ssg81
g4013
sg74
(lp4020
I00
asbasbasbag67
(g83
g69
NtRp4021
(dp4022
g72
(dp4023
sg81
g3992
sg74
(lp4024
g67
(g88
g69
NtRp4025
(dp4026
g72
(dp4027
sg81
g4021
sg74
(lp4028
g67
(g68
g69
NtRp4029
(dp4030
g72
(dp4031
g80
I1
ssg81
g4025
sg74
(lp4032
S'/admin/default/edit/topoi/models/menu.py'
p4033
asbasbasbasbasbasbasbag67
(g83
g69
NtRp4034
(dp4035
g72
(dp4036
sg81
g3706
sg74
(lp4037
g67
(g88
g69
NtRp4038
(dp4039
g72
(dp4040
sg81
g4034
sg74
(lp4041
g67
(g68
g69
NtRp4042
(dp4043
g72
(dp4044
g80
I2
ssg81
g4038
sg74
(lp4045
g67
(g76
g69
NtRp4046
(dp4047
g72
(dp4048
g80
I1
ssg81
Nsg74
(lp4049
g67
(g83
g69
NtRp4050
(dp4051
g72
(dp4052
sg81
g4046
sg74
(lp4053
g67
(g88
g69
NtRp4054
(dp4055
g72
(dp4056
sg81
g4050
sg74
(lp4057
g67
(g68
g69
NtRp4058
(dp4059
g72
(dp4060
g80
I1
ssg81
g4054
sg74
(lp4061
g3597
(S't\x08\x00\x00\x00Database'
tRp4062
asbasbasbag67
(g83
g69
NtRp4063
(dp4064
g72
(dp4065
sg81
g4046
sg74
(lp4066
g67
(g88
g69
NtRp4067
(dp4068
g72
(dp4069
sg81
g4063
sg74
(lp4070
g67
(g68
g69
NtRp4071
(dp4072
g72
(dp4073
g80
I1
ssg81
g4067
sg74
(lp4074
I00
asbasbasbag67
(g83
g69
NtRp4075
(dp4076
g72
(dp4077
sg81
g4046
sg74
(lp4078
g67
(g88
g69
NtRp4079
(dp4080
g72
(dp4081
sg81
g4075
sg74
(lp4082
g67
(g68
g69
NtRp4083
(dp4084
g72
(dp4085
g80
I1
ssg81
g4079
sg74
(lp4086
S'/topoi/appadmin/index.load'
p4087
asbasbasbasbasbasbasbag67
(g83
g69
NtRp4088
(dp4089
g72
(dp4090
sg81
g3706
sg74
(lp4091
g67
(g88
g69
NtRp4092
(dp4093
g72
(dp4094
sg81
g4088
sg74
(lp4095
g67
(g68
g69
NtRp4096
(dp4097
g72
(dp4098
g80
I2
ssg81
g4092
sg74
(lp4099
g67
(g76
g69
NtRp4100
(dp4101
g72
(dp4102
g80
I1
ssg81
Nsg74
(lp4103
g67
(g83
g69
NtRp4104
(dp4105
g72
(dp4106
sg81
g4100
sg74
(lp4107
g67
(g88
g69
NtRp4108
(dp4109
g72
(dp4110
sg81
g4104
sg74
(lp4111
g67
(g68
g69
NtRp4112
(dp4113
g72
(dp4114
g80
I1
ssg81
g4108
sg74
(lp4115
g3597
(S't\x06\x00\x00\x00Errors'
tRp4116
asbasbasbag67
(g83
g69
NtRp4117
(dp4118
g72
(dp4119
sg81
g4100
sg74
(lp4120
g67
(g88
g69
NtRp4121
(dp4122
g72
(dp4123
sg81
g4117
sg74
(lp4124
g67
(g68
g69
NtRp4125
(dp4126
g72
(dp4127
g80
I1
ssg81
g4121
sg74
(lp4128
I00
asbasbasbag67
(g83
g69
NtRp4129
(dp4130
g72
(dp4131
sg81
g4100
sg74
(lp4132
g67
(g88
g69
NtRp4133
(dp4134
g72
(dp4135
sg81
g4129
sg74
(lp4136
g67
(g68
g69
NtRp4137
(dp4138
g72
(dp4139
g80
I1
ssg81
g4133
sg74
(lp4140
S'/admin/default/errors/topoi.load'
p4141
asbasbasbasbasbasbasbag67
(g83
g69
NtRp4142
(dp4143
g72
(dp4144
sg81
g3706
sg74
(lp4145
g67
(g88
g69
NtRp4146
(dp4147
g72
(dp4148
sg81
g4142
sg74
(lp4149
g67
(g68
g69
NtRp4150
(dp4151
g72
(dp4152
g80
I2
ssg81
g4146
sg74
(lp4153
g67
(g76
g69
NtRp4154
(dp4155
g72
(dp4156
g80
I1
ssg81
Nsg74
(lp4157
g67
(g83
g69
NtRp4158
(dp4159
g72
(dp4160
sg81
g4154
sg74
(lp4161
g67
(g88
g69
NtRp4162
(dp4163
g72
(dp4164
sg81
g4158
sg74
(lp4165
g67
(g68
g69
NtRp4166
(dp4167
g72
(dp4168
g80
I1
ssg81
g4162
sg74
(lp4169
g3597
(S't\x05\x00\x00\x00About'
tRp4170
asbasbasbag67
(g83
g69
NtRp4171
(dp4172
g72
(dp4173
sg81
g4154
sg74
(lp4174
g67
(g88
g69
NtRp4175
(dp4176
g72
(dp4177
sg81
g4171
sg74
(lp4178
g67
(g68
g69
NtRp4179
(dp4180
g72
(dp4181
g80
I1
ssg81
g4175
sg74
(lp4182
I00
asbasbasbag67
(g83
g69
NtRp4183
(dp4184
g72
(dp4185
sg81
g4154
sg74
(lp4186
g67
(g88
g69
NtRp4187
(dp4188
g72
(dp4189
sg81
g4183
sg74
(lp4190
g67
(g68
g69
NtRp4191
(dp4192
g72
(dp4193
g80
I1
ssg81
g4187
sg74
(lp4194
S'/admin/default/about/topoi.load'
p4195
asbasbasbasbasbasbasbasbasbasbasbasbasbasbasbasbasbasbasbag67
(g83
g69
NtRp4196
(dp4197
g72
(dp4198
sg81
g3092
sg74
(lp4199
g67
(g88
g69
NtRp4200
(dp4201
g72
(dp4202
g92
g93
ssg81
g4196
sg74
(lp4203
S'meta'
p4204
asbag67
(g88
g69
NtRp4205
(dp4206
g72
(dp4207
g99
g100
ssg81
g4196
sg74
(lp4208
S':'
asbag67
(g88
g69
NtRp4209
(dp4210
g72
(dp4211
sg81
g4196
sg74
(lp4212
g67
(g68
g69
NtRp4213
(dp4214
g72
(dp4215
g80
I5
ssg81
g4209
sg74
(lp4216
g67
(g76
g69
NtRp4217
(dp4218
g72
(dp4219
g80
I4
ssg81
Nsg74
(lp4220
g67
(g83
g69
NtRp4221
(dp4222
g72
(dp4223
sg81
g4217
sg74
(lp4224
g67
(g88
g69
NtRp4225
(dp4226
g72
(dp4227
g92
g93
ssg81
g4221
sg74
(lp4228
S'author'
p4229
asbag67
(g88
g69
NtRp4230
(dp4231
g72
(dp4232
g99
g100
ssg81
g4221
sg74
(lp4233
S':'
asbag67
(g88
g69
NtRp4234
(dp4235
g72
(dp4236
sg81
g4221
sg74
(lp4237
g67
(g68
g69
NtRp4238
(dp4239
g72
(dp4240
g80
I4
ssg81
g4234
sg74
(lp4241
S'Ian W. Scott'
p4242
asbasbasbag67
(g83
g69
NtRp4243
(dp4244
g72
(dp4245
sg81
g4217
sg74
(lp4246
g67
(g88
g69
NtRp4247
(dp4248
g72
(dp4249
g92
g93
ssg81
g4243
sg74
(lp4250
S'copyright'
p4251
asbag67
(g88
g69
NtRp4252
(dp4253
g72
(dp4254
g99
g100
ssg81
g4243
sg74
(lp4255
S':'
asbag67
(g88
g69
NtRp4256
(dp4257
g72
(dp4258
sg81
g4243
sg74
(lp4259
g67
(g68
g69
NtRp4260
(dp4261
g72
(dp4262
g80
I4
ssg81
g4256
sg74
(lp4263
S'Copyright 2011'
p4264
asbasbasbag67
(g83
g69
NtRp4265
(dp4266
g72
(dp4267
sg81
g4217
sg74
(lp4268
g67
(g88
g69
NtRp4269
(dp4270
g72
(dp4271
g92
g93
ssg81
g4265
sg74
(lp4272
S'description'
p4273
asbag67
(g88
g69
NtRp4274
(dp4275
g72
(dp4276
g99
g100
ssg81
g4265
sg74
(lp4277
S':'
asbag67
(g88
g69
NtRp4278
(dp4279
g72
(dp4280
sg81
g4265
sg74
(lp4281
g67
(g68
g69
NtRp4282
(dp4283
g72
(dp4284
g80
I4
ssg81
g4278
sg74
(lp4285
S'A web-app for managing primary-text research in the humanities.'
p4286
asbasbasbag67
(g83
g69
NtRp4287
(dp4288
g72
(dp4289
sg81
g4217
sg74
(lp4290
g67
(g88
g69
NtRp4291
(dp4292
g72
(dp4293
g92
g93
ssg81
g4287
sg74
(lp4294
S'generator'
p4295
asbag67
(g88
g69
NtRp4296
(dp4297
g72
(dp4298
g99
g100
ssg81
g4287
sg74
(lp4299
S':'
asbag67
(g88
g69
NtRp4300
(dp4301
g72
(dp4302
sg81
g4287
sg74
(lp4303
g67
(g68
g69
NtRp4304
(dp4305
g72
(dp4306
g80
I4
ssg81
g4300
sg74
(lp4307
S'Web2py Enterprise Framework'
p4308
asbasbasbag67
(g83
g69
NtRp4309
(dp4310
g72
(dp4311
sg81
g4217
sg74
(lp4312
g67
(g88
g69
NtRp4313
(dp4314
g72
(dp4315
g92
g93
ssg81
g4309
sg74
(lp4316
S'keywords'
p4317
asbag67
(g88
g69
NtRp4318
(dp4319
g72
(dp4320
g99
g100
ssg81
g4309
sg74
(lp4321
S':'
asbag67
(g88
g69
NtRp4322
(dp4323
g72
(dp4324
sg81
g4309
sg74
(lp4325
g67
(g68
g69
NtRp4326
(dp4327
g72
(dp4328
g80
I4
ssg81
g4322
sg74
(lp4329
S'research, humanities, biblical'
p4330
asbasbasbasbasbasbasbag67
(g83
g69
NtRp4331
(dp4332
g72
(dp4333
sg81
g3092
sg74
(lp4334
g67
(g88
g69
NtRp4335
(dp4336
g72
(dp4337
g92
g93
ssg81
g4331
sg74
(lp4338
S'postprocessing'
p4339
asbag67
(g88
g69
NtRp4340
(dp4341
g72
(dp4342
g99
g100
ssg81
g4331
sg74
(lp4343
S':'
asbag67
(g88
g69
NtRp4344
(dp4345
g72
(dp4346
sg81
g4331
sg74
(lp4347
g67
(g68
g69
NtRp4348
(dp4349
g72
(dp4350
g80
I5
ssg81
g4344
sg74
(lp4351
g67
(g76
g69
NtRp4352
(dp4353
g72
(dp4354
g80
I4
ssg81
Nsg74
(lp4355
sbasbasbasbag67
(g83
g69
NtRp4356
(dp4357
g72
(dp4358
sg81
g3092
sg74
(lp4359
g67
(g88
g69
NtRp4360
(dp4361
g72
(dp4362
g92
g93
ssg81
g4356
sg74
(lp4363
S'session_file'
p4364
asbag67
(g88
g69
NtRp4365
(dp4366
g72
(dp4367
g99
g100
ssg81
g4356
sg74
(lp4368
S':'
asbag67
(g88
g69
NtRp4369
(dp4370
g72
(dp4371
sg81
g4356
sg74
(lp4372
g67
(g68
g69
NtRp4373
(dp4374
g72
(dp4375
g80
I5
ssg81
g4369
sg74
(lp4376
S"<open file '/home/ian/web2py/applications/topoi/sessions/127.0.0.1-b1942b41-f41c-40ad-b7d8-81fd2be1e58f', mode 'rb+' at 0x2fab270>"
p4377
asbasbasbag67
(g83
g69
NtRp4378
(dp4379
g72
(dp4380
sg81
g3092
sg74
(lp4381
g67
(g88
g69
NtRp4382
(dp4383
g72
(dp4384
g92
g93
ssg81
g4378
sg74
(lp4385
S'session_filename'
p4386
asbag67
(g88
g69
NtRp4387
(dp4388
g72
(dp4389
g99
g100
ssg81
g4378
sg74
(lp4390
S':'
asbag67
(g88
g69
NtRp4391
(dp4392
g72
(dp4393
sg81
g4378
sg74
(lp4394
g67
(g68
g69
NtRp4395
(dp4396
g72
(dp4397
g80
I5
ssg81
g4391
sg74
(lp4398
S'/home/ian/web2py/applications/topoi/sessions/127.0.0.1-b1942b41-f41c-40ad-b7d8-81fd2be1e58f'
p4399
asbasbasbag67
(g83
g69
NtRp4400
(dp4401
g72
(dp4402
sg81
g3092
sg74
(lp4403
g67
(g88
g69
NtRp4404
(dp4405
g72
(dp4406
g92
g93
ssg81
g4400
sg74
(lp4407
S'session_id'
p4408
asbag67
(g88
g69
NtRp4409
(dp4410
g72
(dp4411
g99
g100
ssg81
g4400
sg74
(lp4412
S':'
asbag67
(g88
g69
NtRp4413
(dp4414
g72
(dp4415
sg81
g4400
sg74
(lp4416
g67
(g68
g69
NtRp4417
(dp4418
g72
(dp4419
g80
I5
ssg81
g4413
sg74
(lp4420
S'127.0.0.1-b1942b41-f41c-40ad-b7d8-81fd2be1e58f'
p4421
asbasbasbag67
(g83
g69
NtRp4422
(dp4423
g72
(dp4424
sg81
g3092
sg74
(lp4425
g67
(g88
g69
NtRp4426
(dp4427
g72
(dp4428
g92
g93
ssg81
g4422
sg74
(lp4429
S'session_id_name'
p4430
asbag67
(g88
g69
NtRp4431
(dp4432
g72
(dp4433
g99
g100
ssg81
g4422
sg74
(lp4434
S':'
asbag67
(g88
g69
NtRp4435
(dp4436
g72
(dp4437
sg81
g4422
sg74
(lp4438
g67
(g68
g69
NtRp4439
(dp4440
g72
(dp4441
g80
I5
ssg81
g4435
sg74
(lp4442
g3149
asbasbasbag67
(g83
g69
NtRp4443
(dp4444
g72
(dp4445
sg81
g3092
sg74
(lp4446
g67
(g88
g69
NtRp4447
(dp4448
g72
(dp4449
g92
g93
ssg81
g4443
sg74
(lp4450
S'session_locked'
p4451
asbag67
(g88
g69
NtRp4452
(dp4453
g72
(dp4454
g99
g100
ssg81
g4443
sg74
(lp4455
S':'
asbag67
(g88
g69
NtRp4456
(dp4457
g72
(dp4458
sg81
g4443
sg74
(lp4459
g67
(g68
g69
NtRp4460
(dp4461
g72
(dp4462
g80
I5
ssg81
g4456
sg74
(lp4463
g110
asbasbasbag67
(g83
g69
NtRp4464
(dp4465
g72
(dp4466
sg81
g3092
sg74
(lp4467
g67
(g88
g69
NtRp4468
(dp4469
g72
(dp4470
g92
g93
ssg81
g4464
sg74
(lp4471
S'session_new'
p4472
asbag67
(g88
g69
NtRp4473
(dp4474
g72
(dp4475
g99
g100
ssg81
g4464
sg74
(lp4476
S':'
asbag67
(g88
g69
NtRp4477
(dp4478
g72
(dp4479
sg81
g4464
sg74
(lp4480
g67
(g68
g69
NtRp4481
(dp4482
g72
(dp4483
g80
I5
ssg81
g4477
sg74
(lp4484
g846
asbasbasbag67
(g83
g69
NtRp4485
(dp4486
g72
(dp4487
sg81
g3092
sg74
(lp4488
g67
(g88
g69
NtRp4489
(dp4490
g72
(dp4491
g92
g93
ssg81
g4485
sg74
(lp4492
S'status'
p4493
asbag67
(g88
g69
NtRp4494
(dp4495
g72
(dp4496
g99
g100
ssg81
g4485
sg74
(lp4497
S':'
asbag67
(g88
g69
NtRp4498
(dp4499
g72
(dp4500
sg81
g4485
sg74
(lp4501
g67
(g68
g69
NtRp4502
(dp4503
g72
(dp4504
g80
I5
ssg81
g4498
sg74
(lp4505
S'200'
p4506
asbasbasbag67
(g83
g69
NtRp4507
(dp4508
g72
(dp4509
sg81
g3092
sg74
(lp4510
g67
(g88
g69
NtRp4511
(dp4512
g72
(dp4513
g92
g93
ssg81
g4507
sg74
(lp4514
S'subtitle'
p4515
asbag67
(g88
g69
NtRp4516
(dp4517
g72
(dp4518
g99
g100
ssg81
g4507
sg74
(lp4519
S':'
asbag67
(g88
g69
NtRp4520
(dp4521
g72
(dp4522
sg81
g4507
sg74
(lp4523
g67
(g68
g69
NtRp4524
(dp4525
g72
(dp4526
g80
I5
ssg81
g4520
sg74
(lp4527
g3597
(S's;\x00\x00\x00A tool for managing primary-text research in the humanities'
tRp4528
asbasbasbag67
(g83
g69
NtRp4529
(dp4530
g72
(dp4531
sg81
g3092
sg74
(lp4532
g67
(g88
g69
NtRp4533
(dp4534
g72
(dp4535
g92
g93
ssg81
g4529
sg74
(lp4536
S'title'
p4537
asbag67
(g88
g69
NtRp4538
(dp4539
g72
(dp4540
g99
g100
ssg81
g4529
sg74
(lp4541
S':'
asbag67
(g88
g69
NtRp4542
(dp4543
g72
(dp4544
sg81
g4529
sg74
(lp4545
g67
(g68
g69
NtRp4546
(dp4547
g72
(dp4548
g80
I5
ssg81
g4542
sg74
(lp4549
g132
asbasbasbag67
(g83
g69
NtRp4550
(dp4551
g72
(dp4552
sg81
g3092
sg74
(lp4553
g67
(g88
g69
NtRp4554
(dp4555
g72
(dp4556
g92
g93
ssg81
g4550
sg74
(lp4557
g2295
asbag67
(g88
g69
NtRp4558
(dp4559
g72
(dp4560
g99
g100
ssg81
g4550
sg74
(lp4561
S':'
asbag67
(g88
g69
NtRp4562
(dp4563
g72
(dp4564
sg81
g4550
sg74
(lp4565
g67
(g68
g69
NtRp4566
(dp4567
g72
(dp4568
g80
I5
ssg81
g4562
sg74
(lp4569
g2308
asbasbasbag67
(g83
g69
NtRp4570
(dp4571
g72
(dp4572
sg81
g3092
sg74
(lp4573
g67
(g88
g69
NtRp4574
(dp4575
g72
(dp4576
g92
g93
ssg81
g4570
sg74
(lp4577
S'view'
p4578
asbag67
(g88
g69
NtRp4579
(dp4580
g72
(dp4581
g99
g100
ssg81
g4570
sg74
(lp4582
S':'
asbag67
(g88
g69
NtRp4583
(dp4584
g72
(dp4585
sg81
g4570
sg74
(lp4586
g67
(g68
g69
NtRp4587
(dp4588
g72
(dp4589
g80
I5
ssg81
g4583
sg74
(lp4590
S'plugin_ajaxselect/set_widget.load'
p4591
asbasbasbasbasbsS'locals'
p4592
(dp4593
g3
S"'/home/ian/web2py/applications/topoi/controllers/plugin_ajaxselect.py'"
p4594
sg5
S"'from gluon.sqlhtml import OptionsWidget\\n\\n\\ndef se...on)\\n\\nresponse._vars=response._caller(set_widget)\\n'"
p4595
sssS'traceback'
p4596
S'Traceback (most recent call last):\n  File "/home/ian/web2py/gluon/restricted.py", line 193, in restricted\n    ccode = compile2(code,layer)\n  File "/home/ian/web2py/gluon/restricted.py", line 179, in compile2\n    return compile(code.rstrip().replace(\'\\r\\n\',\'\\n\')+\'\\n\', layer, \'exec\')\n  File "/home/ian/web2py/applications/topoi/controllers/plugin_ajaxselect.py", line 9\n    response.files.append(URL(\'static\',\'plugin_ajaxselect/plugin_ajaxselect.js\'))}}\n                                                                                 ^\nSyntaxError: invalid syntax\n'
p4597
s.