(dp1
S'output'
p2
S"<type 'exceptions.IndexError'> list index out of range"
p3
sS'layer'
p4
S'/home/ian/web2py/applications/topoi/controllers/plugin_ajaxselect.py'
p5
sS'code'
p6
S'if 0:\n    from gluon import current, SELECT, OPTION, SQLFORM, URL\n    from gluon.DAL import db\n    request, response = current.request, current.response\n\nfrom gluon.sqlhtml import OptionsWidget\n\ndef set_widget():\n    """\n    creates a replacement instance of the OptionsWidget class defined in gluon.sqlhtml and returns the result to re-populate the ajax LOAD field\n    """\n\n    #get variables to build widget for the proper field, with proper current value\n    table = request.args[0]\n    field = request.args[1]\n    value = request.args[2]\n    linktable = request.args[3]\n    #args[4] is the wrappername, but is not used in this function\n\n    the_table = db[table]\n    the_field = the_table[field]\n    the_linktable = db[linktable]\n\n    #testing for the extra argument added by javascript in plugin_ajaxselect.js when refresh is triggered by change in another select value\n    if len(request.args) > 5:\n        #get the value from the restricting select box to use in filtering this one\n        filter_val = request.args[5]\n        #find the table behind the constraining widget\n        filter_t = request.args[6]\n        print(filter_t)\n        #find the corresponding field in this select\'s linked table\n        ref = \'reference %s\' % filter_t\n        cf = [f for f in the_linktable.fields if the_linktable[f].type == ref][0]\n        print(cf)\n        #filter the rows from the linked table accordingly\n        rows = db(the_linktable[cf] == filter_val).select()\n        #build the name for the refreshed select widget\n        n = table + \'_\' + field\n        #create the widget with filtered options\n        w = SELECT(_name=n, *[OPTION(e[\'title\'], _value=e.id) for e in rows])\n    else:\n        w = OptionsWidget.widget(the_field, value)\n\n    return dict(widget = w, linktable = linktable)\n\ndef set_form_wrapper():\n    """\n    Creates the LOAD helper to hold the modal form for creating a new item in the linked table\n    """\n    tablename = request.args[0]\n    fieldname = request.args[1]\n    value = request.args[2]\n    linktable = request.args[3]\n    wrappername = request.args[4]\n\n\n    formwrapper = LOAD(\'plugin_ajaxselect\', \'linked_create_form.load\', args=[tablename, fieldname, value, linktable, wrappername], ajax=True)\n\n    return dict(formwrapper = formwrapper)\n\n\ndef linked_create_form():\n    """\n    creates a form to insert a new entry into the linked table which populates the ajaxSelect widget\n    """\n\n    tablename = request.args[0]\n    fieldname = request.args[1]\n    value = request.args[2]\n    linktable = request.args[3]\n    wrappername = request.args[4]\n\n    form = SQLFORM(db[linktable])\n\n    comp_url = URL(\'plugin_ajaxselect\', \'set_widget.load\', args=[tablename, fieldname, value, linktable, wrappername])\n\n    if form.process().accepted:\n        response.flash = \'form accepted\'\n        response.js = "web2py_component(\'%s\', \'%s\');" % (comp_url, wrappername)\n    else:\n        response.error = \'form was not processed\'\n\n    return dict(form = form)\n\nresponse._vars=response._caller(set_widget)\n'
p7
sS'snapshot'
p8
(dp9
S'exception'
p10
(dp11
S'__hash__'
p12
S"<method-wrapper '__hash__' of exceptions.IndexError object>"
p13
sS'__setattr__'
p14
S"<method-wrapper '__setattr__' of exceptions.IndexError object>"
p15
sS'__reduce_ex__'
p16
S'<built-in method __reduce_ex__ of exceptions.IndexError object>'
p17
sS'__getslice__'
p18
S"<method-wrapper '__getslice__' of exceptions.IndexError object>"
p19
sS'__getitem__'
p20
S"<method-wrapper '__getitem__' of exceptions.IndexError object>"
p21
sS'__setstate__'
p22
S'<built-in method __setstate__ of exceptions.IndexError object>'
p23
sS'args'
p24
S"('list index out of range',)"
p25
sS'__reduce__'
p26
S'<built-in method __reduce__ of exceptions.IndexError object>'
p27
sS'__str__'
p28
S"<method-wrapper '__str__' of exceptions.IndexError object>"
p29
sS'__format__'
p30
S'<built-in method __format__ of exceptions.IndexError object>'
p31
sS'__getattribute__'
p32
S"<method-wrapper '__getattribute__' of exceptions.IndexError object>"
p33
sS'__class__'
p34
S"<type 'exceptions.IndexError'>"
p35
sS'__unicode__'
p36
S'<built-in method __unicode__ of exceptions.IndexError object>'
p37
sS'__delattr__'
p38
S"<method-wrapper '__delattr__' of exceptions.IndexError object>"
p39
sS'__subclasshook__'
p40
S'<built-in method __subclasshook__ of type object>'
p41
sS'__repr__'
p42
S"<method-wrapper '__repr__' of exceptions.IndexError object>"
p43
sS'__dict__'
p44
S'{}'
p45
sS'__sizeof__'
p46
S'<built-in method __sizeof__ of exceptions.IndexError object>'
p47
sS'__doc__'
p48
S"'Sequence index out of range.'"
p49
sS'__init__'
p50
S"<method-wrapper '__init__' of exceptions.IndexError object>"
p51
sS'__new__'
p52
S'<built-in method __new__ of type object>'
p53
ssS'evalue'
p54
S'list index out of range'
p55
sS'request'
p56
ccopy_reg
_reconstructor
p57
(cgluon.html
BEAUTIFY
p58
c__builtin__
object
p59
NtRp60
(dp61
S'attributes'
p62
(dp63
sS'components'
p64
(lp65
g57
(cgluon.html
TABLE
p66
g59
NtRp67
(dp68
g62
(dp69
S'level'
p70
I5
ssS'parent'
p71
Nsg64
(lp72
g57
(cgluon.html
TR
p73
g59
NtRp74
(dp75
g62
(dp76
sg71
g67
sg64
(lp77
g57
(cgluon.html
TD
p78
g59
NtRp79
(dp80
g62
(dp81
S'_style'
p82
S'font-weight:bold;vertical-align:top'
p83
ssg71
g74
sg64
(lp84
S'ajax'
p85
asbag57
(g78
g59
NtRp86
(dp87
g62
(dp88
S'_valign'
p89
S'top'
p90
ssg71
g74
sg64
(lp91
S':'
asbag57
(g78
g59
NtRp92
(dp93
g62
(dp94
sg71
g74
sg64
(lp95
g57
(g58
g59
NtRp96
(dp97
g62
(dp98
g70
I5
ssg71
g92
sg64
(lp99
S'True'
p100
asbasbasbag57
(g73
g59
NtRp101
(dp102
g62
(dp103
sg71
g67
sg64
(lp104
g57
(g78
g59
NtRp105
(dp106
g62
(dp107
g82
g83
ssg71
g101
sg64
(lp108
S'application'
p109
asbag57
(g78
g59
NtRp110
(dp111
g62
(dp112
g89
g90
ssg71
g101
sg64
(lp113
S':'
asbag57
(g78
g59
NtRp114
(dp115
g62
(dp116
sg71
g101
sg64
(lp117
g57
(g58
g59
NtRp118
(dp119
g62
(dp120
g70
I5
ssg71
g114
sg64
(lp121
S'topoi'
p122
asbasbasbag57
(g73
g59
NtRp123
(dp124
g62
(dp125
sg71
g67
sg64
(lp126
g57
(g78
g59
NtRp127
(dp128
g62
(dp129
g82
g83
ssg71
g123
sg64
(lp130
g24
asbag57
(g78
g59
NtRp131
(dp132
g62
(dp133
g89
g90
ssg71
g123
sg64
(lp134
S':'
asbag57
(g78
g59
NtRp135
(dp136
g62
(dp137
sg71
g123
sg64
(lp138
g57
(g58
g59
NtRp139
(dp140
g62
(dp141
g70
I5
ssg71
g135
sg64
(lp142
g57
(g66
g59
NtRp143
(dp144
g62
(dp145
g70
I4
ssg71
Nsg64
(lp146
g57
(g73
g59
NtRp147
(dp148
g62
(dp149
sg71
g143
sg64
(lp150
g57
(g78
g59
NtRp151
(dp152
g62
(dp153
sg71
g147
sg64
(lp154
g57
(g58
g59
NtRp155
(dp156
g62
(dp157
g70
I4
ssg71
g151
sg64
(lp158
S'notes'
p159
asbasbasbag57
(g73
g59
NtRp160
(dp161
g62
(dp162
sg71
g143
sg64
(lp163
g57
(g78
g59
NtRp164
(dp165
g62
(dp166
sg71
g160
sg64
(lp167
g57
(g58
g59
NtRp168
(dp169
g62
(dp170
g70
I4
ssg71
g164
sg64
(lp171
S'work'
p172
asbasbasbag57
(g73
g59
NtRp173
(dp174
g62
(dp175
sg71
g143
sg64
(lp176
g57
(g78
g59
NtRp177
(dp178
g62
(dp179
sg71
g173
sg64
(lp180
g57
(g58
g59
NtRp181
(dp182
g62
(dp183
g70
I4
ssg71
g177
sg64
(lp184
S'7'
asbasbasbag57
(g73
g59
NtRp185
(dp186
g62
(dp187
sg71
g143
sg64
(lp188
g57
(g78
g59
NtRp189
(dp190
g62
(dp191
sg71
g185
sg64
(lp192
g57
(g58
g59
NtRp193
(dp194
g62
(dp195
g70
I4
ssg71
g189
sg64
(lp196
S'works'
p197
asbasbasbag57
(g73
g59
NtRp198
(dp199
g62
(dp200
sg71
g143
sg64
(lp201
g57
(g78
g59
NtRp202
(dp203
g62
(dp204
sg71
g198
sg64
(lp205
g57
(g58
g59
NtRp206
(dp207
g62
(dp208
g70
I4
ssg71
g202
sg64
(lp209
S'notes_work_loader'
p210
asbasbasbag57
(g73
g59
NtRp211
(dp212
g62
(dp213
sg71
g143
sg64
(lp214
g57
(g78
g59
NtRp215
(dp216
g62
(dp217
sg71
g211
sg64
(lp218
g57
(g58
g59
NtRp219
(dp220
g62
(dp221
g70
I4
ssg71
g215
sg64
(lp222
S'14'
p223
asbasbasbag57
(g73
g59
NtRp224
(dp225
g62
(dp226
sg71
g143
sg64
(lp227
g57
(g78
g59
NtRp228
(dp229
g62
(dp230
sg71
g224
sg64
(lp231
g57
(g58
g59
NtRp232
(dp233
g62
(dp234
g70
I4
ssg71
g228
sg64
(lp235
S'author'
p236
asbasbasbasbasbasbasbag57
(g73
g59
NtRp237
(dp238
g62
(dp239
sg71
g67
sg64
(lp240
g57
(g78
g59
NtRp241
(dp242
g62
(dp243
g82
g83
ssg71
g237
sg64
(lp244
S'body'
p245
asbag57
(g78
g59
NtRp246
(dp247
g62
(dp248
g89
g90
ssg71
g237
sg64
(lp249
S':'
asbag57
(g78
g59
NtRp250
(dp251
g62
(dp252
sg71
g237
sg64
(lp253
g57
(g58
g59
NtRp254
(dp255
g62
(dp256
g70
I5
ssg71
g250
sg64
(lp257
S'<cStringIO.StringO object at 0x44b80a0>'
p258
asbasbasbag57
(g73
g59
NtRp259
(dp260
g62
(dp261
sg71
g67
sg64
(lp262
g57
(g78
g59
NtRp263
(dp264
g62
(dp265
g82
g83
ssg71
g259
sg64
(lp266
S'cid'
p267
asbag57
(g78
g59
NtRp268
(dp269
g62
(dp270
g89
g90
ssg71
g259
sg64
(lp271
S':'
asbag57
(g78
g59
NtRp272
(dp273
g62
(dp274
sg71
g259
sg64
(lp275
g57
(g58
g59
NtRp276
(dp277
g62
(dp278
g70
I5
ssg71
g272
sg64
(lp279
S'notes_work_loader'
p280
asbasbasbag57
(g73
g59
NtRp281
(dp282
g62
(dp283
sg71
g67
sg64
(lp284
g57
(g78
g59
NtRp285
(dp286
g62
(dp287
g82
g83
ssg71
g281
sg64
(lp288
S'client'
p289
asbag57
(g78
g59
NtRp290
(dp291
g62
(dp292
g89
g90
ssg71
g281
sg64
(lp293
S':'
asbag57
(g78
g59
NtRp294
(dp295
g62
(dp296
sg71
g281
sg64
(lp297
g57
(g58
g59
NtRp298
(dp299
g62
(dp300
g70
I5
ssg71
g294
sg64
(lp301
S'127.0.0.1'
p302
asbasbasbag57
(g73
g59
NtRp303
(dp304
g62
(dp305
sg71
g67
sg64
(lp306
g57
(g78
g59
NtRp307
(dp308
g62
(dp309
g82
g83
ssg71
g303
sg64
(lp310
S'controller'
p311
asbag57
(g78
g59
NtRp312
(dp313
g62
(dp314
g89
g90
ssg71
g303
sg64
(lp315
S':'
asbag57
(g78
g59
NtRp316
(dp317
g62
(dp318
sg71
g303
sg64
(lp319
g57
(g58
g59
NtRp320
(dp321
g62
(dp322
g70
I5
ssg71
g316
sg64
(lp323
S'plugin_ajaxselect'
p324
asbasbasbag57
(g73
g59
NtRp325
(dp326
g62
(dp327
sg71
g67
sg64
(lp328
g57
(g78
g59
NtRp329
(dp330
g62
(dp331
g82
g83
ssg71
g325
sg64
(lp332
S'cookies'
p333
asbag57
(g78
g59
NtRp334
(dp335
g62
(dp336
g89
g90
ssg71
g325
sg64
(lp337
S':'
asbag57
(g78
g59
NtRp338
(dp339
g62
(dp340
sg71
g325
sg64
(lp341
g57
(g58
g59
NtRp342
(dp343
g62
(dp344
g70
I5
ssg71
g338
sg64
(lp345
g57
(g66
g59
NtRp346
(dp347
g62
(dp348
g70
I4
ssg71
Nsg64
(lp349
g57
(g73
g59
NtRp350
(dp351
g62
(dp352
sg71
g346
sg64
(lp353
g57
(g78
g59
NtRp354
(dp355
g62
(dp356
g82
g83
ssg71
g350
sg64
(lp357
S'session_id_admin'
p358
asbag57
(g78
g59
NtRp359
(dp360
g62
(dp361
g89
g90
ssg71
g350
sg64
(lp362
S':'
asbag57
(g78
g59
NtRp363
(dp364
g62
(dp365
sg71
g350
sg64
(lp366
g57
(g58
g59
NtRp367
(dp368
g62
(dp369
g70
I4
ssg71
g363
sg64
(lp370
g57
(g66
g59
NtRp371
(dp372
g62
(dp373
g70
I3
ssg71
Nsg64
(lp374
g57
(g73
g59
NtRp375
(dp376
g62
(dp377
sg71
g371
sg64
(lp378
g57
(g78
g59
NtRp379
(dp380
g62
(dp381
g82
g83
ssg71
g375
sg64
(lp382
S'comment'
p383
asbag57
(g78
g59
NtRp384
(dp385
g62
(dp386
g89
g90
ssg71
g375
sg64
(lp387
S':'
asbag57
(g78
g59
NtRp388
(dp389
g62
(dp390
sg71
g375
sg64
(lp391
g57
(g58
g59
NtRp392
(dp393
g62
(dp394
g70
I3
ssg71
g388
sg64
(lp395
S''
asbasbasbag57
(g73
g59
NtRp396
(dp397
g62
(dp398
sg71
g371
sg64
(lp399
g57
(g78
g59
NtRp400
(dp401
g62
(dp402
g82
g83
ssg71
g396
sg64
(lp403
S'domain'
p404
asbag57
(g78
g59
NtRp405
(dp406
g62
(dp407
g89
g90
ssg71
g396
sg64
(lp408
S':'
asbag57
(g78
g59
NtRp409
(dp410
g62
(dp411
sg71
g396
sg64
(lp412
g57
(g58
g59
NtRp413
(dp414
g62
(dp415
g70
I3
ssg71
g409
sg64
(lp416
S''
asbasbasbag57
(g73
g59
NtRp417
(dp418
g62
(dp419
sg71
g371
sg64
(lp420
g57
(g78
g59
NtRp421
(dp422
g62
(dp423
g82
g83
ssg71
g417
sg64
(lp424
S'expires'
p425
asbag57
(g78
g59
NtRp426
(dp427
g62
(dp428
g89
g90
ssg71
g417
sg64
(lp429
S':'
asbag57
(g78
g59
NtRp430
(dp431
g62
(dp432
sg71
g417
sg64
(lp433
g57
(g58
g59
NtRp434
(dp435
g62
(dp436
g70
I3
ssg71
g430
sg64
(lp437
S''
asbasbasbag57
(g73
g59
NtRp438
(dp439
g62
(dp440
sg71
g371
sg64
(lp441
g57
(g78
g59
NtRp442
(dp443
g62
(dp444
g82
g83
ssg71
g438
sg64
(lp445
S'httponly'
p446
asbag57
(g78
g59
NtRp447
(dp448
g62
(dp449
g89
g90
ssg71
g438
sg64
(lp450
S':'
asbag57
(g78
g59
NtRp451
(dp452
g62
(dp453
sg71
g438
sg64
(lp454
g57
(g58
g59
NtRp455
(dp456
g62
(dp457
g70
I3
ssg71
g451
sg64
(lp458
S''
asbasbasbag57
(g73
g59
NtRp459
(dp460
g62
(dp461
sg71
g371
sg64
(lp462
g57
(g78
g59
NtRp463
(dp464
g62
(dp465
g82
g83
ssg71
g459
sg64
(lp466
S'max-age'
p467
asbag57
(g78
g59
NtRp468
(dp469
g62
(dp470
g89
g90
ssg71
g459
sg64
(lp471
S':'
asbag57
(g78
g59
NtRp472
(dp473
g62
(dp474
sg71
g459
sg64
(lp475
g57
(g58
g59
NtRp476
(dp477
g62
(dp478
g70
I3
ssg71
g472
sg64
(lp479
S''
asbasbasbag57
(g73
g59
NtRp480
(dp481
g62
(dp482
sg71
g371
sg64
(lp483
g57
(g78
g59
NtRp484
(dp485
g62
(dp486
g82
g83
ssg71
g480
sg64
(lp487
S'path'
p488
asbag57
(g78
g59
NtRp489
(dp490
g62
(dp491
g89
g90
ssg71
g480
sg64
(lp492
S':'
asbag57
(g78
g59
NtRp493
(dp494
g62
(dp495
sg71
g480
sg64
(lp496
g57
(g58
g59
NtRp497
(dp498
g62
(dp499
g70
I3
ssg71
g493
sg64
(lp500
S''
asbasbasbag57
(g73
g59
NtRp501
(dp502
g62
(dp503
sg71
g371
sg64
(lp504
g57
(g78
g59
NtRp505
(dp506
g62
(dp507
g82
g83
ssg71
g501
sg64
(lp508
S'secure'
p509
asbag57
(g78
g59
NtRp510
(dp511
g62
(dp512
g89
g90
ssg71
g501
sg64
(lp513
S':'
asbag57
(g78
g59
NtRp514
(dp515
g62
(dp516
sg71
g501
sg64
(lp517
g57
(g58
g59
NtRp518
(dp519
g62
(dp520
g70
I3
ssg71
g514
sg64
(lp521
S''
asbasbasbag57
(g73
g59
NtRp522
(dp523
g62
(dp524
sg71
g371
sg64
(lp525
g57
(g78
g59
NtRp526
(dp527
g62
(dp528
g82
g83
ssg71
g522
sg64
(lp529
S'version'
p530
asbag57
(g78
g59
NtRp531
(dp532
g62
(dp533
g89
g90
ssg71
g522
sg64
(lp534
S':'
asbag57
(g78
g59
NtRp535
(dp536
g62
(dp537
sg71
g522
sg64
(lp538
g57
(g58
g59
NtRp539
(dp540
g62
(dp541
g70
I3
ssg71
g535
sg64
(lp542
S''
asbasbasbasbasbasbasbag57
(g73
g59
NtRp543
(dp544
g62
(dp545
sg71
g346
sg64
(lp546
g57
(g78
g59
NtRp547
(dp548
g62
(dp549
g82
g83
ssg71
g543
sg64
(lp550
S'session_id_paideia'
p551
asbag57
(g78
g59
NtRp552
(dp553
g62
(dp554
g89
g90
ssg71
g543
sg64
(lp555
S':'
asbag57
(g78
g59
NtRp556
(dp557
g62
(dp558
sg71
g543
sg64
(lp559
g57
(g58
g59
NtRp560
(dp561
g62
(dp562
g70
I4
ssg71
g556
sg64
(lp563
g57
(g66
g59
NtRp564
(dp565
g62
(dp566
g70
I3
ssg71
Nsg64
(lp567
g57
(g73
g59
NtRp568
(dp569
g62
(dp570
sg71
g564
sg64
(lp571
g57
(g78
g59
NtRp572
(dp573
g62
(dp574
g82
g83
ssg71
g568
sg64
(lp575
g383
asbag57
(g78
g59
NtRp576
(dp577
g62
(dp578
g89
g90
ssg71
g568
sg64
(lp579
S':'
asbag57
(g78
g59
NtRp580
(dp581
g62
(dp582
sg71
g568
sg64
(lp583
g57
(g58
g59
NtRp584
(dp585
g62
(dp586
g70
I3
ssg71
g580
sg64
(lp587
S''
asbasbasbag57
(g73
g59
NtRp588
(dp589
g62
(dp590
sg71
g564
sg64
(lp591
g57
(g78
g59
NtRp592
(dp593
g62
(dp594
g82
g83
ssg71
g588
sg64
(lp595
g404
asbag57
(g78
g59
NtRp596
(dp597
g62
(dp598
g89
g90
ssg71
g588
sg64
(lp599
S':'
asbag57
(g78
g59
NtRp600
(dp601
g62
(dp602
sg71
g588
sg64
(lp603
g57
(g58
g59
NtRp604
(dp605
g62
(dp606
g70
I3
ssg71
g600
sg64
(lp607
S''
asbasbasbag57
(g73
g59
NtRp608
(dp609
g62
(dp610
sg71
g564
sg64
(lp611
g57
(g78
g59
NtRp612
(dp613
g62
(dp614
g82
g83
ssg71
g608
sg64
(lp615
g425
asbag57
(g78
g59
NtRp616
(dp617
g62
(dp618
g89
g90
ssg71
g608
sg64
(lp619
S':'
asbag57
(g78
g59
NtRp620
(dp621
g62
(dp622
sg71
g608
sg64
(lp623
g57
(g58
g59
NtRp624
(dp625
g62
(dp626
g70
I3
ssg71
g620
sg64
(lp627
S''
asbasbasbag57
(g73
g59
NtRp628
(dp629
g62
(dp630
sg71
g564
sg64
(lp631
g57
(g78
g59
NtRp632
(dp633
g62
(dp634
g82
g83
ssg71
g628
sg64
(lp635
g446
asbag57
(g78
g59
NtRp636
(dp637
g62
(dp638
g89
g90
ssg71
g628
sg64
(lp639
S':'
asbag57
(g78
g59
NtRp640
(dp641
g62
(dp642
sg71
g628
sg64
(lp643
g57
(g58
g59
NtRp644
(dp645
g62
(dp646
g70
I3
ssg71
g640
sg64
(lp647
S''
asbasbasbag57
(g73
g59
NtRp648
(dp649
g62
(dp650
sg71
g564
sg64
(lp651
g57
(g78
g59
NtRp652
(dp653
g62
(dp654
g82
g83
ssg71
g648
sg64
(lp655
g467
asbag57
(g78
g59
NtRp656
(dp657
g62
(dp658
g89
g90
ssg71
g648
sg64
(lp659
S':'
asbag57
(g78
g59
NtRp660
(dp661
g62
(dp662
sg71
g648
sg64
(lp663
g57
(g58
g59
NtRp664
(dp665
g62
(dp666
g70
I3
ssg71
g660
sg64
(lp667
S''
asbasbasbag57
(g73
g59
NtRp668
(dp669
g62
(dp670
sg71
g564
sg64
(lp671
g57
(g78
g59
NtRp672
(dp673
g62
(dp674
g82
g83
ssg71
g668
sg64
(lp675
g488
asbag57
(g78
g59
NtRp676
(dp677
g62
(dp678
g89
g90
ssg71
g668
sg64
(lp679
S':'
asbag57
(g78
g59
NtRp680
(dp681
g62
(dp682
sg71
g668
sg64
(lp683
g57
(g58
g59
NtRp684
(dp685
g62
(dp686
g70
I3
ssg71
g680
sg64
(lp687
S''
asbasbasbag57
(g73
g59
NtRp688
(dp689
g62
(dp690
sg71
g564
sg64
(lp691
g57
(g78
g59
NtRp692
(dp693
g62
(dp694
g82
g83
ssg71
g688
sg64
(lp695
g509
asbag57
(g78
g59
NtRp696
(dp697
g62
(dp698
g89
g90
ssg71
g688
sg64
(lp699
S':'
asbag57
(g78
g59
NtRp700
(dp701
g62
(dp702
sg71
g688
sg64
(lp703
g57
(g58
g59
NtRp704
(dp705
g62
(dp706
g70
I3
ssg71
g700
sg64
(lp707
S''
asbasbasbag57
(g73
g59
NtRp708
(dp709
g62
(dp710
sg71
g564
sg64
(lp711
g57
(g78
g59
NtRp712
(dp713
g62
(dp714
g82
g83
ssg71
g708
sg64
(lp715
g530
asbag57
(g78
g59
NtRp716
(dp717
g62
(dp718
g89
g90
ssg71
g708
sg64
(lp719
S':'
asbag57
(g78
g59
NtRp720
(dp721
g62
(dp722
sg71
g708
sg64
(lp723
g57
(g58
g59
NtRp724
(dp725
g62
(dp726
g70
I3
ssg71
g720
sg64
(lp727
S''
asbasbasbasbasbasbasbag57
(g73
g59
NtRp728
(dp729
g62
(dp730
sg71
g346
sg64
(lp731
g57
(g78
g59
NtRp732
(dp733
g62
(dp734
g82
g83
ssg71
g728
sg64
(lp735
S'session_id_topoi'
p736
asbag57
(g78
g59
NtRp737
(dp738
g62
(dp739
g89
g90
ssg71
g728
sg64
(lp740
S':'
asbag57
(g78
g59
NtRp741
(dp742
g62
(dp743
sg71
g728
sg64
(lp744
g57
(g58
g59
NtRp745
(dp746
g62
(dp747
g70
I4
ssg71
g741
sg64
(lp748
g57
(g66
g59
NtRp749
(dp750
g62
(dp751
g70
I3
ssg71
Nsg64
(lp752
g57
(g73
g59
NtRp753
(dp754
g62
(dp755
sg71
g749
sg64
(lp756
g57
(g78
g59
NtRp757
(dp758
g62
(dp759
g82
g83
ssg71
g753
sg64
(lp760
g383
asbag57
(g78
g59
NtRp761
(dp762
g62
(dp763
g89
g90
ssg71
g753
sg64
(lp764
S':'
asbag57
(g78
g59
NtRp765
(dp766
g62
(dp767
sg71
g753
sg64
(lp768
g57
(g58
g59
NtRp769
(dp770
g62
(dp771
g70
I3
ssg71
g765
sg64
(lp772
S''
asbasbasbag57
(g73
g59
NtRp773
(dp774
g62
(dp775
sg71
g749
sg64
(lp776
g57
(g78
g59
NtRp777
(dp778
g62
(dp779
g82
g83
ssg71
g773
sg64
(lp780
g404
asbag57
(g78
g59
NtRp781
(dp782
g62
(dp783
g89
g90
ssg71
g773
sg64
(lp784
S':'
asbag57
(g78
g59
NtRp785
(dp786
g62
(dp787
sg71
g773
sg64
(lp788
g57
(g58
g59
NtRp789
(dp790
g62
(dp791
g70
I3
ssg71
g785
sg64
(lp792
S''
asbasbasbag57
(g73
g59
NtRp793
(dp794
g62
(dp795
sg71
g749
sg64
(lp796
g57
(g78
g59
NtRp797
(dp798
g62
(dp799
g82
g83
ssg71
g793
sg64
(lp800
g425
asbag57
(g78
g59
NtRp801
(dp802
g62
(dp803
g89
g90
ssg71
g793
sg64
(lp804
S':'
asbag57
(g78
g59
NtRp805
(dp806
g62
(dp807
sg71
g793
sg64
(lp808
g57
(g58
g59
NtRp809
(dp810
g62
(dp811
g70
I3
ssg71
g805
sg64
(lp812
S''
asbasbasbag57
(g73
g59
NtRp813
(dp814
g62
(dp815
sg71
g749
sg64
(lp816
g57
(g78
g59
NtRp817
(dp818
g62
(dp819
g82
g83
ssg71
g813
sg64
(lp820
g446
asbag57
(g78
g59
NtRp821
(dp822
g62
(dp823
g89
g90
ssg71
g813
sg64
(lp824
S':'
asbag57
(g78
g59
NtRp825
(dp826
g62
(dp827
sg71
g813
sg64
(lp828
g57
(g58
g59
NtRp829
(dp830
g62
(dp831
g70
I3
ssg71
g825
sg64
(lp832
S''
asbasbasbag57
(g73
g59
NtRp833
(dp834
g62
(dp835
sg71
g749
sg64
(lp836
g57
(g78
g59
NtRp837
(dp838
g62
(dp839
g82
g83
ssg71
g833
sg64
(lp840
g467
asbag57
(g78
g59
NtRp841
(dp842
g62
(dp843
g89
g90
ssg71
g833
sg64
(lp844
S':'
asbag57
(g78
g59
NtRp845
(dp846
g62
(dp847
sg71
g833
sg64
(lp848
g57
(g58
g59
NtRp849
(dp850
g62
(dp851
g70
I3
ssg71
g845
sg64
(lp852
S''
asbasbasbag57
(g73
g59
NtRp853
(dp854
g62
(dp855
sg71
g749
sg64
(lp856
g57
(g78
g59
NtRp857
(dp858
g62
(dp859
g82
g83
ssg71
g853
sg64
(lp860
g488
asbag57
(g78
g59
NtRp861
(dp862
g62
(dp863
g89
g90
ssg71
g853
sg64
(lp864
S':'
asbag57
(g78
g59
NtRp865
(dp866
g62
(dp867
sg71
g853
sg64
(lp868
g57
(g58
g59
NtRp869
(dp870
g62
(dp871
g70
I3
ssg71
g865
sg64
(lp872
S''
asbasbasbag57
(g73
g59
NtRp873
(dp874
g62
(dp875
sg71
g749
sg64
(lp876
g57
(g78
g59
NtRp877
(dp878
g62
(dp879
g82
g83
ssg71
g873
sg64
(lp880
g509
asbag57
(g78
g59
NtRp881
(dp882
g62
(dp883
g89
g90
ssg71
g873
sg64
(lp884
S':'
asbag57
(g78
g59
NtRp885
(dp886
g62
(dp887
sg71
g873
sg64
(lp888
g57
(g58
g59
NtRp889
(dp890
g62
(dp891
g70
I3
ssg71
g885
sg64
(lp892
S''
asbasbasbag57
(g73
g59
NtRp893
(dp894
g62
(dp895
sg71
g749
sg64
(lp896
g57
(g78
g59
NtRp897
(dp898
g62
(dp899
g82
g83
ssg71
g893
sg64
(lp900
g530
asbag57
(g78
g59
NtRp901
(dp902
g62
(dp903
g89
g90
ssg71
g893
sg64
(lp904
S':'
asbag57
(g78
g59
NtRp905
(dp906
g62
(dp907
sg71
g893
sg64
(lp908
g57
(g58
g59
NtRp909
(dp910
g62
(dp911
g70
I3
ssg71
g905
sg64
(lp912
S''
asbasbasbasbasbasbasbag57
(g73
g59
NtRp913
(dp914
g62
(dp915
sg71
g346
sg64
(lp916
g57
(g78
g59
NtRp917
(dp918
g62
(dp919
g82
g83
ssg71
g913
sg64
(lp920
S'session_id_welcome'
p921
asbag57
(g78
g59
NtRp922
(dp923
g62
(dp924
g89
g90
ssg71
g913
sg64
(lp925
S':'
asbag57
(g78
g59
NtRp926
(dp927
g62
(dp928
sg71
g913
sg64
(lp929
g57
(g58
g59
NtRp930
(dp931
g62
(dp932
g70
I4
ssg71
g926
sg64
(lp933
g57
(g66
g59
NtRp934
(dp935
g62
(dp936
g70
I3
ssg71
Nsg64
(lp937
g57
(g73
g59
NtRp938
(dp939
g62
(dp940
sg71
g934
sg64
(lp941
g57
(g78
g59
NtRp942
(dp943
g62
(dp944
g82
g83
ssg71
g938
sg64
(lp945
g383
asbag57
(g78
g59
NtRp946
(dp947
g62
(dp948
g89
g90
ssg71
g938
sg64
(lp949
S':'
asbag57
(g78
g59
NtRp950
(dp951
g62
(dp952
sg71
g938
sg64
(lp953
g57
(g58
g59
NtRp954
(dp955
g62
(dp956
g70
I3
ssg71
g950
sg64
(lp957
S''
asbasbasbag57
(g73
g59
NtRp958
(dp959
g62
(dp960
sg71
g934
sg64
(lp961
g57
(g78
g59
NtRp962
(dp963
g62
(dp964
g82
g83
ssg71
g958
sg64
(lp965
g404
asbag57
(g78
g59
NtRp966
(dp967
g62
(dp968
g89
g90
ssg71
g958
sg64
(lp969
S':'
asbag57
(g78
g59
NtRp970
(dp971
g62
(dp972
sg71
g958
sg64
(lp973
g57
(g58
g59
NtRp974
(dp975
g62
(dp976
g70
I3
ssg71
g970
sg64
(lp977
S''
asbasbasbag57
(g73
g59
NtRp978
(dp979
g62
(dp980
sg71
g934
sg64
(lp981
g57
(g78
g59
NtRp982
(dp983
g62
(dp984
g82
g83
ssg71
g978
sg64
(lp985
g425
asbag57
(g78
g59
NtRp986
(dp987
g62
(dp988
g89
g90
ssg71
g978
sg64
(lp989
S':'
asbag57
(g78
g59
NtRp990
(dp991
g62
(dp992
sg71
g978
sg64
(lp993
g57
(g58
g59
NtRp994
(dp995
g62
(dp996
g70
I3
ssg71
g990
sg64
(lp997
S''
asbasbasbag57
(g73
g59
NtRp998
(dp999
g62
(dp1000
sg71
g934
sg64
(lp1001
g57
(g78
g59
NtRp1002
(dp1003
g62
(dp1004
g82
g83
ssg71
g998
sg64
(lp1005
g446
asbag57
(g78
g59
NtRp1006
(dp1007
g62
(dp1008
g89
g90
ssg71
g998
sg64
(lp1009
S':'
asbag57
(g78
g59
NtRp1010
(dp1011
g62
(dp1012
sg71
g998
sg64
(lp1013
g57
(g58
g59
NtRp1014
(dp1015
g62
(dp1016
g70
I3
ssg71
g1010
sg64
(lp1017
S''
asbasbasbag57
(g73
g59
NtRp1018
(dp1019
g62
(dp1020
sg71
g934
sg64
(lp1021
g57
(g78
g59
NtRp1022
(dp1023
g62
(dp1024
g82
g83
ssg71
g1018
sg64
(lp1025
g467
asbag57
(g78
g59
NtRp1026
(dp1027
g62
(dp1028
g89
g90
ssg71
g1018
sg64
(lp1029
S':'
asbag57
(g78
g59
NtRp1030
(dp1031
g62
(dp1032
sg71
g1018
sg64
(lp1033
g57
(g58
g59
NtRp1034
(dp1035
g62
(dp1036
g70
I3
ssg71
g1030
sg64
(lp1037
S''
asbasbasbag57
(g73
g59
NtRp1038
(dp1039
g62
(dp1040
sg71
g934
sg64
(lp1041
g57
(g78
g59
NtRp1042
(dp1043
g62
(dp1044
g82
g83
ssg71
g1038
sg64
(lp1045
g488
asbag57
(g78
g59
NtRp1046
(dp1047
g62
(dp1048
g89
g90
ssg71
g1038
sg64
(lp1049
S':'
asbag57
(g78
g59
NtRp1050
(dp1051
g62
(dp1052
sg71
g1038
sg64
(lp1053
g57
(g58
g59
NtRp1054
(dp1055
g62
(dp1056
g70
I3
ssg71
g1050
sg64
(lp1057
S''
asbasbasbag57
(g73
g59
NtRp1058
(dp1059
g62
(dp1060
sg71
g934
sg64
(lp1061
g57
(g78
g59
NtRp1062
(dp1063
g62
(dp1064
g82
g83
ssg71
g1058
sg64
(lp1065
g509
asbag57
(g78
g59
NtRp1066
(dp1067
g62
(dp1068
g89
g90
ssg71
g1058
sg64
(lp1069
S':'
asbag57
(g78
g59
NtRp1070
(dp1071
g62
(dp1072
sg71
g1058
sg64
(lp1073
g57
(g58
g59
NtRp1074
(dp1075
g62
(dp1076
g70
I3
ssg71
g1070
sg64
(lp1077
S''
asbasbasbag57
(g73
g59
NtRp1078
(dp1079
g62
(dp1080
sg71
g934
sg64
(lp1081
g57
(g78
g59
NtRp1082
(dp1083
g62
(dp1084
g82
g83
ssg71
g1078
sg64
(lp1085
g530
asbag57
(g78
g59
NtRp1086
(dp1087
g62
(dp1088
g89
g90
ssg71
g1078
sg64
(lp1089
S':'
asbag57
(g78
g59
NtRp1090
(dp1091
g62
(dp1092
sg71
g1078
sg64
(lp1093
g57
(g58
g59
NtRp1094
(dp1095
g62
(dp1096
g70
I3
ssg71
g1090
sg64
(lp1097
S''
asbasbasbasbasbasbasbasbasbasbasbag57
(g73
g59
NtRp1098
(dp1099
g62
(dp1100
sg71
g67
sg64
(lp1101
g57
(g78
g59
NtRp1102
(dp1103
g62
(dp1104
g82
g83
ssg71
g1098
sg64
(lp1105
S'env'
p1106
asbag57
(g78
g59
NtRp1107
(dp1108
g62
(dp1109
g89
g90
ssg71
g1098
sg64
(lp1110
S':'
asbag57
(g78
g59
NtRp1111
(dp1112
g62
(dp1113
sg71
g1098
sg64
(lp1114
g57
(g58
g59
NtRp1115
(dp1116
g62
(dp1117
g70
I5
ssg71
g1111
sg64
(lp1118
g57
(g66
g59
NtRp1119
(dp1120
g62
(dp1121
g70
I4
ssg71
Nsg64
(lp1122
g57
(g73
g59
NtRp1123
(dp1124
g62
(dp1125
sg71
g1119
sg64
(lp1126
g57
(g78
g59
NtRp1127
(dp1128
g62
(dp1129
g82
g83
ssg71
g1123
sg64
(lp1130
S'app_folders'
p1131
asbag57
(g78
g59
NtRp1132
(dp1133
g62
(dp1134
g89
g90
ssg71
g1123
sg64
(lp1135
S':'
asbag57
(g78
g59
NtRp1136
(dp1137
g62
(dp1138
sg71
g1123
sg64
(lp1139
g57
(g58
g59
NtRp1140
(dp1141
g62
(dp1142
g70
I4
ssg71
g1136
sg64
(lp1143
S"set(['/home/ian/web2py/applications/topoi/', '/home/ian/web2py/applications/welcome/', '/home/ian/web2py/applications/admin/'])"
p1144
asbasbasbag57
(g73
g59
NtRp1145
(dp1146
g62
(dp1147
sg71
g1119
sg64
(lp1148
g57
(g78
g59
NtRp1149
(dp1150
g62
(dp1151
g82
g83
ssg71
g1145
sg64
(lp1152
S'applications_parent'
p1153
asbag57
(g78
g59
NtRp1154
(dp1155
g62
(dp1156
g89
g90
ssg71
g1145
sg64
(lp1157
S':'
asbag57
(g78
g59
NtRp1158
(dp1159
g62
(dp1160
sg71
g1145
sg64
(lp1161
g57
(g58
g59
NtRp1162
(dp1163
g62
(dp1164
g70
I4
ssg71
g1158
sg64
(lp1165
S'/home/ian/web2py'
p1166
asbasbasbag57
(g73
g59
NtRp1167
(dp1168
g62
(dp1169
sg71
g1119
sg64
(lp1170
g57
(g78
g59
NtRp1171
(dp1172
g62
(dp1173
g82
g83
ssg71
g1167
sg64
(lp1174
S'cmd_args'
p1175
asbag57
(g78
g59
NtRp1176
(dp1177
g62
(dp1178
g89
g90
ssg71
g1167
sg64
(lp1179
S':'
asbag57
(g78
g59
NtRp1180
(dp1181
g62
(dp1182
sg71
g1167
sg64
(lp1183
g57
(g58
g59
NtRp1184
(dp1185
g62
(dp1186
g70
I4
ssg71
g1180
sg64
(lp1187
g57
(g66
g59
NtRp1188
(dp1189
g62
(dp1190
g70
I3
ssg71
Nsg64
(lp1191
sbasbasbasbag57
(g73
g59
NtRp1192
(dp1193
g62
(dp1194
sg71
g1119
sg64
(lp1195
g57
(g78
g59
NtRp1196
(dp1197
g62
(dp1198
g82
g83
ssg71
g1192
sg64
(lp1199
S'cmd_options'
p1200
asbag57
(g78
g59
NtRp1201
(dp1202
g62
(dp1203
g89
g90
ssg71
g1192
sg64
(lp1204
S':'
asbag57
(g78
g59
NtRp1205
(dp1206
g62
(dp1207
sg71
g1192
sg64
(lp1208
g57
(g58
g59
NtRp1209
(dp1210
g62
(dp1211
g70
I4
ssg71
g1205
sg64
(lp1212
S"<Values at 0x335aa70: {'verbose': False, 'ip': '127.0.0.1', 'shutdown_timeout': 5, 'taskbar': False, 'nocron': False, 'pid_filename': 'httpserver.pid', 'maxthreads': None, 'softcron': False, 'server_name': 'uriel', 'bpython': False, 'nogui': False, 'port': 8000, 'extcron': False, 'debuglevel': 30, 'test': None, 'folder': '/home/ian/web2py', 'config': '', 'import_models': False, 'winservice': '', 'shell': None, 'run': '', 'log_filename': 'httpserver.log', 'args': [''], 'socket_timeout': 1, 'ssl_ca_certificate': None, 'scheduler': None, 'profiler_filename': None, 'ssl_private_key': '', 'password': '<ask>', 'request_queue_size': 5, 'ssl_certificate': '', 'cronjob': False, 'numthreads': None, 'quiet': False, 'interfaces': None, 'minthreads': None, 'timeout': 10, 'plain': False, 'nobanner': False}>"
p1213
asbasbasbag57
(g73
g59
NtRp1214
(dp1215
g62
(dp1216
sg71
g1119
sg64
(lp1217
g57
(g78
g59
NtRp1218
(dp1219
g62
(dp1220
g82
g83
ssg71
g1214
sg64
(lp1221
S'db_sessions'
p1222
asbag57
(g78
g59
NtRp1223
(dp1224
g62
(dp1225
g89
g90
ssg71
g1214
sg64
(lp1226
S':'
asbag57
(g78
g59
NtRp1227
(dp1228
g62
(dp1229
sg71
g1214
sg64
(lp1230
g57
(g58
g59
NtRp1231
(dp1232
g62
(dp1233
g70
I4
ssg71
g1227
sg64
(lp1234
S'set([])'
p1235
asbasbasbag57
(g73
g59
NtRp1236
(dp1237
g62
(dp1238
sg71
g1119
sg64
(lp1239
g57
(g78
g59
NtRp1240
(dp1241
g62
(dp1242
g82
g83
ssg71
g1236
sg64
(lp1243
S'debugging'
p1244
asbag57
(g78
g59
NtRp1245
(dp1246
g62
(dp1247
g89
g90
ssg71
g1236
sg64
(lp1248
S':'
asbag57
(g78
g59
NtRp1249
(dp1250
g62
(dp1251
sg71
g1236
sg64
(lp1252
g57
(g58
g59
NtRp1253
(dp1254
g62
(dp1255
g70
I4
ssg71
g1249
sg64
(lp1256
S'False'
p1257
asbasbasbag57
(g73
g59
NtRp1258
(dp1259
g62
(dp1260
sg71
g1119
sg64
(lp1261
g57
(g78
g59
NtRp1262
(dp1263
g62
(dp1264
g82
g83
ssg71
g1258
sg64
(lp1265
S'gluon_parent'
p1266
asbag57
(g78
g59
NtRp1267
(dp1268
g62
(dp1269
g89
g90
ssg71
g1258
sg64
(lp1270
S':'
asbag57
(g78
g59
NtRp1271
(dp1272
g62
(dp1273
sg71
g1258
sg64
(lp1274
g57
(g58
g59
NtRp1275
(dp1276
g62
(dp1277
g70
I4
ssg71
g1271
sg64
(lp1278
S'/home/ian/web2py'
p1279
asbasbasbag57
(g73
g59
NtRp1280
(dp1281
g62
(dp1282
sg71
g1119
sg64
(lp1283
g57
(g78
g59
NtRp1284
(dp1285
g62
(dp1286
g82
g83
ssg71
g1280
sg64
(lp1287
S'http_accept'
p1288
asbag57
(g78
g59
NtRp1289
(dp1290
g62
(dp1291
g89
g90
ssg71
g1280
sg64
(lp1292
S':'
asbag57
(g78
g59
NtRp1293
(dp1294
g62
(dp1295
sg71
g1280
sg64
(lp1296
g57
(g58
g59
NtRp1297
(dp1298
g62
(dp1299
g70
I4
ssg71
g1293
sg64
(lp1300
S'*/*'
p1301
asbasbasbag57
(g73
g59
NtRp1302
(dp1303
g62
(dp1304
sg71
g1119
sg64
(lp1305
g57
(g78
g59
NtRp1306
(dp1307
g62
(dp1308
g82
g83
ssg71
g1302
sg64
(lp1309
S'http_accept_charset'
p1310
asbag57
(g78
g59
NtRp1311
(dp1312
g62
(dp1313
g89
g90
ssg71
g1302
sg64
(lp1314
S':'
asbag57
(g78
g59
NtRp1315
(dp1316
g62
(dp1317
sg71
g1302
sg64
(lp1318
g57
(g58
g59
NtRp1319
(dp1320
g62
(dp1321
g70
I4
ssg71
g1315
sg64
(lp1322
S'UTF-8,*'
p1323
asbasbasbag57
(g73
g59
NtRp1324
(dp1325
g62
(dp1326
sg71
g1119
sg64
(lp1327
g57
(g78
g59
NtRp1328
(dp1329
g62
(dp1330
g82
g83
ssg71
g1324
sg64
(lp1331
S'http_accept_encoding'
p1332
asbag57
(g78
g59
NtRp1333
(dp1334
g62
(dp1335
g89
g90
ssg71
g1324
sg64
(lp1336
S':'
asbag57
(g78
g59
NtRp1337
(dp1338
g62
(dp1339
sg71
g1324
sg64
(lp1340
g57
(g58
g59
NtRp1341
(dp1342
g62
(dp1343
g70
I4
ssg71
g1337
sg64
(lp1344
S'gzip, deflate'
p1345
asbasbasbag57
(g73
g59
NtRp1346
(dp1347
g62
(dp1348
sg71
g1119
sg64
(lp1349
g57
(g78
g59
NtRp1350
(dp1351
g62
(dp1352
g82
g83
ssg71
g1346
sg64
(lp1353
S'http_accept_language'
p1354
asbag57
(g78
g59
NtRp1355
(dp1356
g62
(dp1357
g89
g90
ssg71
g1346
sg64
(lp1358
S':'
asbag57
(g78
g59
NtRp1359
(dp1360
g62
(dp1361
sg71
g1346
sg64
(lp1362
g57
(g58
g59
NtRp1363
(dp1364
g62
(dp1365
g70
I4
ssg71
g1359
sg64
(lp1366
S'en-us,en;q=0.5'
p1367
asbasbasbag57
(g73
g59
NtRp1368
(dp1369
g62
(dp1370
sg71
g1119
sg64
(lp1371
g57
(g78
g59
NtRp1372
(dp1373
g62
(dp1374
g82
g83
ssg71
g1368
sg64
(lp1375
S'http_connection'
p1376
asbag57
(g78
g59
NtRp1377
(dp1378
g62
(dp1379
g89
g90
ssg71
g1368
sg64
(lp1380
S':'
asbag57
(g78
g59
NtRp1381
(dp1382
g62
(dp1383
sg71
g1368
sg64
(lp1384
g57
(g58
g59
NtRp1385
(dp1386
g62
(dp1387
g70
I4
ssg71
g1381
sg64
(lp1388
S'keep-alive'
p1389
asbasbasbag57
(g73
g59
NtRp1390
(dp1391
g62
(dp1392
sg71
g1119
sg64
(lp1393
g57
(g78
g59
NtRp1394
(dp1395
g62
(dp1396
g82
g83
ssg71
g1390
sg64
(lp1397
S'http_cookie'
p1398
asbag57
(g78
g59
NtRp1399
(dp1400
g62
(dp1401
g89
g90
ssg71
g1390
sg64
(lp1402
S':'
asbag57
(g78
g59
NtRp1403
(dp1404
g62
(dp1405
sg71
g1390
sg64
(lp1406
g57
(g58
g59
NtRp1407
(dp1408
g62
(dp1409
g70
I4
ssg71
g1403
sg64
(lp1410
S'session_id_topoi=127.0.0.1-fbfd7fa3-57f5-4d42-8f08-594178070e93; session_id_paideia=127.0.0.1-26fbb861-2ba5-4c09-9362-c3a45f2c5fe2; session_id_welcome=127.0.0.1-90cc393d-0576-4356-8e77-9c4a0af07dd6; session_id_admin=127.0.0.1-63bc6006-81d5-4805-b856-16750c6c5d4d'
p1411
asbasbasbag57
(g73
g59
NtRp1412
(dp1413
g62
(dp1414
sg71
g1119
sg64
(lp1415
g57
(g78
g59
NtRp1416
(dp1417
g62
(dp1418
g82
g83
ssg71
g1412
sg64
(lp1419
S'http_host'
p1420
asbag57
(g78
g59
NtRp1421
(dp1422
g62
(dp1423
g89
g90
ssg71
g1412
sg64
(lp1424
S':'
asbag57
(g78
g59
NtRp1425
(dp1426
g62
(dp1427
sg71
g1412
sg64
(lp1428
g57
(g58
g59
NtRp1429
(dp1430
g62
(dp1431
g70
I4
ssg71
g1425
sg64
(lp1432
S'127.0.0.1:8000'
p1433
asbasbasbag57
(g73
g59
NtRp1434
(dp1435
g62
(dp1436
sg71
g1119
sg64
(lp1437
g57
(g78
g59
NtRp1438
(dp1439
g62
(dp1440
g82
g83
ssg71
g1434
sg64
(lp1441
S'http_referer'
p1442
asbag57
(g78
g59
NtRp1443
(dp1444
g62
(dp1445
g89
g90
ssg71
g1434
sg64
(lp1446
S':'
asbag57
(g78
g59
NtRp1447
(dp1448
g62
(dp1449
sg71
g1434
sg64
(lp1450
g57
(g58
g59
NtRp1451
(dp1452
g62
(dp1453
g70
I4
ssg71
g1447
sg64
(lp1454
S'http://127.0.0.1:8000/topoi/plugin_listandedit/list/notes/1?fields=author&fields=work&fields=reference'
p1455
asbasbasbag57
(g73
g59
NtRp1456
(dp1457
g62
(dp1458
sg71
g1119
sg64
(lp1459
g57
(g78
g59
NtRp1460
(dp1461
g62
(dp1462
g82
g83
ssg71
g1456
sg64
(lp1463
S'http_user_agent'
p1464
asbag57
(g78
g59
NtRp1465
(dp1466
g62
(dp1467
g89
g90
ssg71
g1456
sg64
(lp1468
S':'
asbag57
(g78
g59
NtRp1469
(dp1470
g62
(dp1471
sg71
g1456
sg64
(lp1472
g57
(g58
g59
NtRp1473
(dp1474
g62
(dp1475
g70
I4
ssg71
g1469
sg64
(lp1476
S'Mozilla/5.0 (Ubuntu; X11; Linux x86_64; rv:9.0.1) Gecko/20100101 Firefox/9.0.1'
p1477
asbasbasbag57
(g73
g59
NtRp1478
(dp1479
g62
(dp1480
sg71
g1119
sg64
(lp1481
g57
(g78
g59
NtRp1482
(dp1483
g62
(dp1484
g82
g83
ssg71
g1478
sg64
(lp1485
S'http_web2py_component_element'
p1486
asbag57
(g78
g59
NtRp1487
(dp1488
g62
(dp1489
g89
g90
ssg71
g1478
sg64
(lp1490
S':'
asbag57
(g78
g59
NtRp1491
(dp1492
g62
(dp1493
sg71
g1478
sg64
(lp1494
g57
(g58
g59
NtRp1495
(dp1496
g62
(dp1497
g70
I4
ssg71
g1491
sg64
(lp1498
g280
asbasbasbag57
(g73
g59
NtRp1499
(dp1500
g62
(dp1501
sg71
g1119
sg64
(lp1502
g57
(g78
g59
NtRp1503
(dp1504
g62
(dp1505
g82
g83
ssg71
g1499
sg64
(lp1506
S'http_web2py_component_location'
p1507
asbag57
(g78
g59
NtRp1508
(dp1509
g62
(dp1510
g89
g90
ssg71
g1499
sg64
(lp1511
S':'
asbag57
(g78
g59
NtRp1512
(dp1513
g62
(dp1514
sg71
g1499
sg64
(lp1515
g57
(g58
g59
NtRp1516
(dp1517
g62
(dp1518
g70
I4
ssg71
g1512
sg64
(lp1519
S'http://127.0.0.1:8000/topoi/plugin_listandedit/list/notes/1?fields=author&fields=work&fields=reference'
p1520
asbasbasbag57
(g73
g59
NtRp1521
(dp1522
g62
(dp1523
sg71
g1119
sg64
(lp1524
g57
(g78
g59
NtRp1525
(dp1526
g62
(dp1527
g82
g83
ssg71
g1521
sg64
(lp1528
S'http_x_requested_with'
p1529
asbag57
(g78
g59
NtRp1530
(dp1531
g62
(dp1532
g89
g90
ssg71
g1521
sg64
(lp1533
S':'
asbag57
(g78
g59
NtRp1534
(dp1535
g62
(dp1536
sg71
g1521
sg64
(lp1537
g57
(g58
g59
NtRp1538
(dp1539
g62
(dp1540
g70
I4
ssg71
g1534
sg64
(lp1541
S'XMLHttpRequest'
p1542
asbasbasbag57
(g73
g59
NtRp1543
(dp1544
g62
(dp1545
sg71
g1119
sg64
(lp1546
g57
(g78
g59
NtRp1547
(dp1548
g62
(dp1549
g82
g83
ssg71
g1543
sg64
(lp1550
S'is_jython'
p1551
asbag57
(g78
g59
NtRp1552
(dp1553
g62
(dp1554
g89
g90
ssg71
g1543
sg64
(lp1555
S':'
asbag57
(g78
g59
NtRp1556
(dp1557
g62
(dp1558
sg71
g1543
sg64
(lp1559
g57
(g58
g59
NtRp1560
(dp1561
g62
(dp1562
g70
I4
ssg71
g1556
sg64
(lp1563
g1257
asbasbasbag57
(g73
g59
NtRp1564
(dp1565
g62
(dp1566
sg71
g1119
sg64
(lp1567
g57
(g78
g59
NtRp1568
(dp1569
g62
(dp1570
g82
g83
ssg71
g1564
sg64
(lp1571
S'is_pypy'
p1572
asbag57
(g78
g59
NtRp1573
(dp1574
g62
(dp1575
g89
g90
ssg71
g1564
sg64
(lp1576
S':'
asbag57
(g78
g59
NtRp1577
(dp1578
g62
(dp1579
sg71
g1564
sg64
(lp1580
g57
(g58
g59
NtRp1581
(dp1582
g62
(dp1583
g70
I4
ssg71
g1577
sg64
(lp1584
g1257
asbasbasbag57
(g73
g59
NtRp1585
(dp1586
g62
(dp1587
sg71
g1119
sg64
(lp1588
g57
(g78
g59
NtRp1589
(dp1590
g62
(dp1591
g82
g83
ssg71
g1585
sg64
(lp1592
S'path_info'
p1593
asbag57
(g78
g59
NtRp1594
(dp1595
g62
(dp1596
g89
g90
ssg71
g1585
sg64
(lp1597
S':'
asbag57
(g78
g59
NtRp1598
(dp1599
g62
(dp1600
sg71
g1585
sg64
(lp1601
g57
(g58
g59
NtRp1602
(dp1603
g62
(dp1604
g70
I4
ssg71
g1598
sg64
(lp1605
S'/topoi/plugin_ajaxselect/set_widget.load/notes/work/7/works/notes_work_loader/14/author'
p1606
asbasbasbag57
(g73
g59
NtRp1607
(dp1608
g62
(dp1609
sg71
g1119
sg64
(lp1610
g57
(g78
g59
NtRp1611
(dp1612
g62
(dp1613
g82
g83
ssg71
g1607
sg64
(lp1614
S'query_string'
p1615
asbag57
(g78
g59
NtRp1616
(dp1617
g62
(dp1618
g89
g90
ssg71
g1607
sg64
(lp1619
S':'
asbag57
(g78
g59
NtRp1620
(dp1621
g62
(dp1622
sg71
g1607
sg64
(lp1623
g57
(g58
g59
NtRp1624
(dp1625
g62
(dp1626
g70
I4
ssg71
g1620
sg64
(lp1627
S''
asbasbasbag57
(g73
g59
NtRp1628
(dp1629
g62
(dp1630
sg71
g1119
sg64
(lp1631
g57
(g78
g59
NtRp1632
(dp1633
g62
(dp1634
g82
g83
ssg71
g1628
sg64
(lp1635
S'remote_addr'
p1636
asbag57
(g78
g59
NtRp1637
(dp1638
g62
(dp1639
g89
g90
ssg71
g1628
sg64
(lp1640
S':'
asbag57
(g78
g59
NtRp1641
(dp1642
g62
(dp1643
sg71
g1628
sg64
(lp1644
g57
(g58
g59
NtRp1645
(dp1646
g62
(dp1647
g70
I4
ssg71
g1641
sg64
(lp1648
g302
asbasbasbag57
(g73
g59
NtRp1649
(dp1650
g62
(dp1651
sg71
g1119
sg64
(lp1652
g57
(g78
g59
NtRp1653
(dp1654
g62
(dp1655
g82
g83
ssg71
g1649
sg64
(lp1656
S'remote_port'
p1657
asbag57
(g78
g59
NtRp1658
(dp1659
g62
(dp1660
g89
g90
ssg71
g1649
sg64
(lp1661
S':'
asbag57
(g78
g59
NtRp1662
(dp1663
g62
(dp1664
sg71
g1649
sg64
(lp1665
g57
(g58
g59
NtRp1666
(dp1667
g62
(dp1668
g70
I4
ssg71
g1662
sg64
(lp1669
S'44996'
p1670
asbasbasbag57
(g73
g59
NtRp1671
(dp1672
g62
(dp1673
sg71
g1119
sg64
(lp1674
g57
(g78
g59
NtRp1675
(dp1676
g62
(dp1677
g82
g83
ssg71
g1671
sg64
(lp1678
S'request_method'
p1679
asbag57
(g78
g59
NtRp1680
(dp1681
g62
(dp1682
g89
g90
ssg71
g1671
sg64
(lp1683
S':'
asbag57
(g78
g59
NtRp1684
(dp1685
g62
(dp1686
sg71
g1671
sg64
(lp1687
g57
(g58
g59
NtRp1688
(dp1689
g62
(dp1690
g70
I4
ssg71
g1684
sg64
(lp1691
S'GET'
p1692
asbasbasbag57
(g73
g59
NtRp1693
(dp1694
g62
(dp1695
sg71
g1119
sg64
(lp1696
g57
(g78
g59
NtRp1697
(dp1698
g62
(dp1699
g82
g83
ssg71
g1693
sg64
(lp1700
S'script_name'
p1701
asbag57
(g78
g59
NtRp1702
(dp1703
g62
(dp1704
g89
g90
ssg71
g1693
sg64
(lp1705
S':'
asbag57
(g78
g59
NtRp1706
(dp1707
g62
(dp1708
sg71
g1693
sg64
(lp1709
g57
(g58
g59
NtRp1710
(dp1711
g62
(dp1712
g70
I4
ssg71
g1706
sg64
(lp1713
S''
asbasbasbag57
(g73
g59
NtRp1714
(dp1715
g62
(dp1716
sg71
g1119
sg64
(lp1717
g57
(g78
g59
NtRp1718
(dp1719
g62
(dp1720
g82
g83
ssg71
g1714
sg64
(lp1721
S'server_name'
p1722
asbag57
(g78
g59
NtRp1723
(dp1724
g62
(dp1725
g89
g90
ssg71
g1714
sg64
(lp1726
S':'
asbag57
(g78
g59
NtRp1727
(dp1728
g62
(dp1729
sg71
g1714
sg64
(lp1730
g57
(g58
g59
NtRp1731
(dp1732
g62
(dp1733
g70
I4
ssg71
g1727
sg64
(lp1734
S'uriel'
p1735
asbasbasbag57
(g73
g59
NtRp1736
(dp1737
g62
(dp1738
sg71
g1119
sg64
(lp1739
g57
(g78
g59
NtRp1740
(dp1741
g62
(dp1742
g82
g83
ssg71
g1736
sg64
(lp1743
S'server_port'
p1744
asbag57
(g78
g59
NtRp1745
(dp1746
g62
(dp1747
g89
g90
ssg71
g1736
sg64
(lp1748
S':'
asbag57
(g78
g59
NtRp1749
(dp1750
g62
(dp1751
sg71
g1736
sg64
(lp1752
g57
(g58
g59
NtRp1753
(dp1754
g62
(dp1755
g70
I4
ssg71
g1749
sg64
(lp1756
S'8000'
p1757
asbasbasbag57
(g73
g59
NtRp1758
(dp1759
g62
(dp1760
sg71
g1119
sg64
(lp1761
g57
(g78
g59
NtRp1762
(dp1763
g62
(dp1764
g82
g83
ssg71
g1758
sg64
(lp1765
S'server_protocol'
p1766
asbag57
(g78
g59
NtRp1767
(dp1768
g62
(dp1769
g89
g90
ssg71
g1758
sg64
(lp1770
S':'
asbag57
(g78
g59
NtRp1771
(dp1772
g62
(dp1773
sg71
g1758
sg64
(lp1774
g57
(g58
g59
NtRp1775
(dp1776
g62
(dp1777
g70
I4
ssg71
g1771
sg64
(lp1778
S'HTTP/1.1'
p1779
asbasbasbag57
(g73
g59
NtRp1780
(dp1781
g62
(dp1782
sg71
g1119
sg64
(lp1783
g57
(g78
g59
NtRp1784
(dp1785
g62
(dp1786
g82
g83
ssg71
g1780
sg64
(lp1787
S'server_software'
p1788
asbag57
(g78
g59
NtRp1789
(dp1790
g62
(dp1791
g89
g90
ssg71
g1780
sg64
(lp1792
S':'
asbag57
(g78
g59
NtRp1793
(dp1794
g62
(dp1795
sg71
g1780
sg64
(lp1796
g57
(g58
g59
NtRp1797
(dp1798
g62
(dp1799
g70
I4
ssg71
g1793
sg64
(lp1800
S'Rocket 1.2.4'
p1801
asbasbasbag57
(g73
g59
NtRp1802
(dp1803
g62
(dp1804
sg71
g1119
sg64
(lp1805
g57
(g78
g59
NtRp1806
(dp1807
g62
(dp1808
g82
g83
ssg71
g1802
sg64
(lp1809
S'web2py_crontype'
p1810
asbag57
(g78
g59
NtRp1811
(dp1812
g62
(dp1813
g89
g90
ssg71
g1802
sg64
(lp1814
S':'
asbag57
(g78
g59
NtRp1815
(dp1816
g62
(dp1817
sg71
g1802
sg64
(lp1818
g57
(g58
g59
NtRp1819
(dp1820
g62
(dp1821
g70
I4
ssg71
g1815
sg64
(lp1822
S'hard'
p1823
asbasbasbag57
(g73
g59
NtRp1824
(dp1825
g62
(dp1826
sg71
g1119
sg64
(lp1827
g57
(g78
g59
NtRp1828
(dp1829
g62
(dp1830
g82
g83
ssg71
g1824
sg64
(lp1831
S'web2py_path'
p1832
asbag57
(g78
g59
NtRp1833
(dp1834
g62
(dp1835
g89
g90
ssg71
g1824
sg64
(lp1836
S':'
asbag57
(g78
g59
NtRp1837
(dp1838
g62
(dp1839
sg71
g1824
sg64
(lp1840
g57
(g58
g59
NtRp1841
(dp1842
g62
(dp1843
g70
I4
ssg71
g1837
sg64
(lp1844
g1166
asbasbasbag57
(g73
g59
NtRp1845
(dp1846
g62
(dp1847
sg71
g1119
sg64
(lp1848
g57
(g78
g59
NtRp1849
(dp1850
g62
(dp1851
g82
g83
ssg71
g1845
sg64
(lp1852
S'web2py_version'
p1853
asbag57
(g78
g59
NtRp1854
(dp1855
g62
(dp1856
g89
g90
ssg71
g1845
sg64
(lp1857
S':'
asbag57
(g78
g59
NtRp1858
(dp1859
g62
(dp1860
sg71
g1845
sg64
(lp1861
g57
(g58
g59
NtRp1862
(dp1863
g62
(dp1864
g70
I4
ssg71
g1858
sg64
(lp1865
g57
(g66
g59
NtRp1866
(dp1867
g62
(dp1868
g70
I3
ssg71
Nsg64
(lp1869
g57
(g73
g59
NtRp1870
(dp1871
g62
(dp1872
sg71
g1866
sg64
(lp1873
g57
(g78
g59
NtRp1874
(dp1875
g62
(dp1876
sg71
g1870
sg64
(lp1877
g57
(g58
g59
NtRp1878
(dp1879
g62
(dp1880
g70
I3
ssg71
g1874
sg64
(lp1881
S'1'
asbasbasbag57
(g73
g59
NtRp1882
(dp1883
g62
(dp1884
sg71
g1866
sg64
(lp1885
g57
(g78
g59
NtRp1886
(dp1887
g62
(dp1888
sg71
g1882
sg64
(lp1889
g57
(g58
g59
NtRp1890
(dp1891
g62
(dp1892
g70
I3
ssg71
g1886
sg64
(lp1893
S'99'
p1894
asbasbasbag57
(g73
g59
NtRp1895
(dp1896
g62
(dp1897
sg71
g1866
sg64
(lp1898
g57
(g78
g59
NtRp1899
(dp1900
g62
(dp1901
sg71
g1895
sg64
(lp1902
g57
(g58
g59
NtRp1903
(dp1904
g62
(dp1905
g70
I3
ssg71
g1899
sg64
(lp1906
S'4'
asbasbasbag57
(g73
g59
NtRp1907
(dp1908
g62
(dp1909
sg71
g1866
sg64
(lp1910
g57
(g78
g59
NtRp1911
(dp1912
g62
(dp1913
sg71
g1907
sg64
(lp1914
g57
(g58
g59
NtRp1915
(dp1916
g62
(dp1917
g70
I3
ssg71
g1911
sg64
(lp1918
S'datetime.datetime(2011, 12, 14, 14, 46, 14)'
p1919
asbasbasbag57
(g73
g59
NtRp1920
(dp1921
g62
(dp1922
sg71
g1866
sg64
(lp1923
g57
(g78
g59
NtRp1924
(dp1925
g62
(dp1926
sg71
g1920
sg64
(lp1927
g57
(g58
g59
NtRp1928
(dp1929
g62
(dp1930
g70
I3
ssg71
g1924
sg64
(lp1931
S'stable'
p1932
asbasbasbasbasbasbasbag57
(g73
g59
NtRp1933
(dp1934
g62
(dp1935
sg71
g1119
sg64
(lp1936
g57
(g78
g59
NtRp1937
(dp1938
g62
(dp1939
g82
g83
ssg71
g1933
sg64
(lp1940
S'wsgi_errors'
p1941
asbag57
(g78
g59
NtRp1942
(dp1943
g62
(dp1944
g89
g90
ssg71
g1933
sg64
(lp1945
S':'
asbag57
(g78
g59
NtRp1946
(dp1947
g62
(dp1948
sg71
g1933
sg64
(lp1949
g57
(g58
g59
NtRp1950
(dp1951
g62
(dp1952
g70
I4
ssg71
g1946
sg64
(lp1953
S"<open file '<stderr>', mode 'w' at 0x7fee3896f270>"
p1954
asbasbasbag57
(g73
g59
NtRp1955
(dp1956
g62
(dp1957
sg71
g1119
sg64
(lp1958
g57
(g78
g59
NtRp1959
(dp1960
g62
(dp1961
g82
g83
ssg71
g1955
sg64
(lp1962
S'wsgi_file_wrapper'
p1963
asbag57
(g78
g59
NtRp1964
(dp1965
g62
(dp1966
g89
g90
ssg71
g1955
sg64
(lp1967
S':'
asbag57
(g78
g59
NtRp1968
(dp1969
g62
(dp1970
sg71
g1955
sg64
(lp1971
g57
(g58
g59
NtRp1972
(dp1973
g62
(dp1974
g70
I4
ssg71
g1968
sg64
(lp1975
S'<class wsgiref.util.FileWrapper at 0x3217ce8>'
p1976
asbasbasbag57
(g73
g59
NtRp1977
(dp1978
g62
(dp1979
sg71
g1119
sg64
(lp1980
g57
(g78
g59
NtRp1981
(dp1982
g62
(dp1983
g82
g83
ssg71
g1977
sg64
(lp1984
S'wsgi_input'
p1985
asbag57
(g78
g59
NtRp1986
(dp1987
g62
(dp1988
g89
g90
ssg71
g1977
sg64
(lp1989
S':'
asbag57
(g78
g59
NtRp1990
(dp1991
g62
(dp1992
sg71
g1977
sg64
(lp1993
g57
(g58
g59
NtRp1994
(dp1995
g62
(dp1996
g70
I4
ssg71
g1990
sg64
(lp1997
S'<socket._fileobject object at 0x3c9f3d0>'
p1998
asbasbasbag57
(g73
g59
NtRp1999
(dp2000
g62
(dp2001
sg71
g1119
sg64
(lp2002
g57
(g78
g59
NtRp2003
(dp2004
g62
(dp2005
g82
g83
ssg71
g1999
sg64
(lp2006
S'wsgi_multiprocess'
p2007
asbag57
(g78
g59
NtRp2008
(dp2009
g62
(dp2010
g89
g90
ssg71
g1999
sg64
(lp2011
S':'
asbag57
(g78
g59
NtRp2012
(dp2013
g62
(dp2014
sg71
g1999
sg64
(lp2015
g57
(g58
g59
NtRp2016
(dp2017
g62
(dp2018
g70
I4
ssg71
g2012
sg64
(lp2019
g1257
asbasbasbag57
(g73
g59
NtRp2020
(dp2021
g62
(dp2022
sg71
g1119
sg64
(lp2023
g57
(g78
g59
NtRp2024
(dp2025
g62
(dp2026
g82
g83
ssg71
g2020
sg64
(lp2027
S'wsgi_multithread'
p2028
asbag57
(g78
g59
NtRp2029
(dp2030
g62
(dp2031
g89
g90
ssg71
g2020
sg64
(lp2032
S':'
asbag57
(g78
g59
NtRp2033
(dp2034
g62
(dp2035
sg71
g2020
sg64
(lp2036
g57
(g58
g59
NtRp2037
(dp2038
g62
(dp2039
g70
I4
ssg71
g2033
sg64
(lp2040
g100
asbasbasbag57
(g73
g59
NtRp2041
(dp2042
g62
(dp2043
sg71
g1119
sg64
(lp2044
g57
(g78
g59
NtRp2045
(dp2046
g62
(dp2047
g82
g83
ssg71
g2041
sg64
(lp2048
S'wsgi_run_once'
p2049
asbag57
(g78
g59
NtRp2050
(dp2051
g62
(dp2052
g89
g90
ssg71
g2041
sg64
(lp2053
S':'
asbag57
(g78
g59
NtRp2054
(dp2055
g62
(dp2056
sg71
g2041
sg64
(lp2057
g57
(g58
g59
NtRp2058
(dp2059
g62
(dp2060
g70
I4
ssg71
g2054
sg64
(lp2061
g1257
asbasbasbag57
(g73
g59
NtRp2062
(dp2063
g62
(dp2064
sg71
g1119
sg64
(lp2065
g57
(g78
g59
NtRp2066
(dp2067
g62
(dp2068
g82
g83
ssg71
g2062
sg64
(lp2069
S'wsgi_url_scheme'
p2070
asbag57
(g78
g59
NtRp2071
(dp2072
g62
(dp2073
g89
g90
ssg71
g2062
sg64
(lp2074
S':'
asbag57
(g78
g59
NtRp2075
(dp2076
g62
(dp2077
sg71
g2062
sg64
(lp2078
g57
(g58
g59
NtRp2079
(dp2080
g62
(dp2081
g70
I4
ssg71
g2075
sg64
(lp2082
S'http'
p2083
asbasbasbag57
(g73
g59
NtRp2084
(dp2085
g62
(dp2086
sg71
g1119
sg64
(lp2087
g57
(g78
g59
NtRp2088
(dp2089
g62
(dp2090
g82
g83
ssg71
g2084
sg64
(lp2091
S'wsgi_version'
p2092
asbag57
(g78
g59
NtRp2093
(dp2094
g62
(dp2095
g89
g90
ssg71
g2084
sg64
(lp2096
S':'
asbag57
(g78
g59
NtRp2097
(dp2098
g62
(dp2099
sg71
g2084
sg64
(lp2100
g57
(g58
g59
NtRp2101
(dp2102
g62
(dp2103
g70
I4
ssg71
g2097
sg64
(lp2104
g57
(g66
g59
NtRp2105
(dp2106
g62
(dp2107
g70
I3
ssg71
Nsg64
(lp2108
g57
(g73
g59
NtRp2109
(dp2110
g62
(dp2111
sg71
g2105
sg64
(lp2112
g57
(g78
g59
NtRp2113
(dp2114
g62
(dp2115
sg71
g2109
sg64
(lp2116
g57
(g58
g59
NtRp2117
(dp2118
g62
(dp2119
g70
I3
ssg71
g2113
sg64
(lp2120
S'1'
asbasbasbag57
(g73
g59
NtRp2121
(dp2122
g62
(dp2123
sg71
g2105
sg64
(lp2124
g57
(g78
g59
NtRp2125
(dp2126
g62
(dp2127
sg71
g2121
sg64
(lp2128
g57
(g58
g59
NtRp2129
(dp2130
g62
(dp2131
g70
I3
ssg71
g2125
sg64
(lp2132
S'0'
asbasbasbasbasbasbasbasbasbasbasbag57
(g73
g59
NtRp2133
(dp2134
g62
(dp2135
sg71
g67
sg64
(lp2136
g57
(g78
g59
NtRp2137
(dp2138
g62
(dp2139
g82
g83
ssg71
g2133
sg64
(lp2140
S'extension'
p2141
asbag57
(g78
g59
NtRp2142
(dp2143
g62
(dp2144
g89
g90
ssg71
g2133
sg64
(lp2145
S':'
asbag57
(g78
g59
NtRp2146
(dp2147
g62
(dp2148
sg71
g2133
sg64
(lp2149
g57
(g58
g59
NtRp2150
(dp2151
g62
(dp2152
g70
I5
ssg71
g2146
sg64
(lp2153
S'load'
p2154
asbasbasbag57
(g73
g59
NtRp2155
(dp2156
g62
(dp2157
sg71
g67
sg64
(lp2158
g57
(g78
g59
NtRp2159
(dp2160
g62
(dp2161
g82
g83
ssg71
g2155
sg64
(lp2162
S'folder'
p2163
asbag57
(g78
g59
NtRp2164
(dp2165
g62
(dp2166
g89
g90
ssg71
g2155
sg64
(lp2167
S':'
asbag57
(g78
g59
NtRp2168
(dp2169
g62
(dp2170
sg71
g2155
sg64
(lp2171
g57
(g58
g59
NtRp2172
(dp2173
g62
(dp2174
g70
I5
ssg71
g2168
sg64
(lp2175
S'/home/ian/web2py/applications/topoi/'
p2176
asbasbasbag57
(g73
g59
NtRp2177
(dp2178
g62
(dp2179
sg71
g67
sg64
(lp2180
g57
(g78
g59
NtRp2181
(dp2182
g62
(dp2183
g82
g83
ssg71
g2177
sg64
(lp2184
S'function'
p2185
asbag57
(g78
g59
NtRp2186
(dp2187
g62
(dp2188
g89
g90
ssg71
g2177
sg64
(lp2189
S':'
asbag57
(g78
g59
NtRp2190
(dp2191
g62
(dp2192
sg71
g2177
sg64
(lp2193
g57
(g58
g59
NtRp2194
(dp2195
g62
(dp2196
g70
I5
ssg71
g2190
sg64
(lp2197
S'set_widget'
p2198
asbasbasbag57
(g73
g59
NtRp2199
(dp2200
g62
(dp2201
sg71
g67
sg64
(lp2202
g57
(g78
g59
NtRp2203
(dp2204
g62
(dp2205
g82
g83
ssg71
g2199
sg64
(lp2206
S'get_vars'
p2207
asbag57
(g78
g59
NtRp2208
(dp2209
g62
(dp2210
g89
g90
ssg71
g2199
sg64
(lp2211
S':'
asbag57
(g78
g59
NtRp2212
(dp2213
g62
(dp2214
sg71
g2199
sg64
(lp2215
g57
(g58
g59
NtRp2216
(dp2217
g62
(dp2218
g70
I5
ssg71
g2212
sg64
(lp2219
g57
(g66
g59
NtRp2220
(dp2221
g62
(dp2222
g70
I4
ssg71
Nsg64
(lp2223
sbasbasbasbag57
(g73
g59
NtRp2224
(dp2225
g62
(dp2226
sg71
g67
sg64
(lp2227
g57
(g78
g59
NtRp2228
(dp2229
g62
(dp2230
g82
g83
ssg71
g2224
sg64
(lp2231
S'global_settings'
p2232
asbag57
(g78
g59
NtRp2233
(dp2234
g62
(dp2235
g89
g90
ssg71
g2224
sg64
(lp2236
S':'
asbag57
(g78
g59
NtRp2237
(dp2238
g62
(dp2239
sg71
g2224
sg64
(lp2240
g57
(g58
g59
NtRp2241
(dp2242
g62
(dp2243
g70
I5
ssg71
g2237
sg64
(lp2244
g57
(g66
g59
NtRp2245
(dp2246
g62
(dp2247
g70
I4
ssg71
Nsg64
(lp2248
g57
(g73
g59
NtRp2249
(dp2250
g62
(dp2251
sg71
g2245
sg64
(lp2252
g57
(g78
g59
NtRp2253
(dp2254
g62
(dp2255
g82
g83
ssg71
g2249
sg64
(lp2256
g1131
asbag57
(g78
g59
NtRp2257
(dp2258
g62
(dp2259
g89
g90
ssg71
g2249
sg64
(lp2260
S':'
asbag57
(g78
g59
NtRp2261
(dp2262
g62
(dp2263
sg71
g2249
sg64
(lp2264
g57
(g58
g59
NtRp2265
(dp2266
g62
(dp2267
g70
I4
ssg71
g2261
sg64
(lp2268
S"set(['/home/ian/web2py/applications/topoi/', '/home/ian/web2py/applications/welcome/', '/home/ian/web2py/applications/admin/'])"
p2269
asbasbasbag57
(g73
g59
NtRp2270
(dp2271
g62
(dp2272
sg71
g2245
sg64
(lp2273
g57
(g78
g59
NtRp2274
(dp2275
g62
(dp2276
g82
g83
ssg71
g2270
sg64
(lp2277
g1153
asbag57
(g78
g59
NtRp2278
(dp2279
g62
(dp2280
g89
g90
ssg71
g2270
sg64
(lp2281
S':'
asbag57
(g78
g59
NtRp2282
(dp2283
g62
(dp2284
sg71
g2270
sg64
(lp2285
g57
(g58
g59
NtRp2286
(dp2287
g62
(dp2288
g70
I4
ssg71
g2282
sg64
(lp2289
g1166
asbasbasbag57
(g73
g59
NtRp2290
(dp2291
g62
(dp2292
sg71
g2245
sg64
(lp2293
g57
(g78
g59
NtRp2294
(dp2295
g62
(dp2296
g82
g83
ssg71
g2290
sg64
(lp2297
g1175
asbag57
(g78
g59
NtRp2298
(dp2299
g62
(dp2300
g89
g90
ssg71
g2290
sg64
(lp2301
S':'
asbag57
(g78
g59
NtRp2302
(dp2303
g62
(dp2304
sg71
g2290
sg64
(lp2305
g57
(g58
g59
NtRp2306
(dp2307
g62
(dp2308
g70
I4
ssg71
g2302
sg64
(lp2309
g57
(g66
g59
NtRp2310
(dp2311
g62
(dp2312
g70
I3
ssg71
Nsg64
(lp2313
sbasbasbasbag57
(g73
g59
NtRp2314
(dp2315
g62
(dp2316
sg71
g2245
sg64
(lp2317
g57
(g78
g59
NtRp2318
(dp2319
g62
(dp2320
g82
g83
ssg71
g2314
sg64
(lp2321
g1200
asbag57
(g78
g59
NtRp2322
(dp2323
g62
(dp2324
g89
g90
ssg71
g2314
sg64
(lp2325
S':'
asbag57
(g78
g59
NtRp2326
(dp2327
g62
(dp2328
sg71
g2314
sg64
(lp2329
g57
(g58
g59
NtRp2330
(dp2331
g62
(dp2332
g70
I4
ssg71
g2326
sg64
(lp2333
S"<Values at 0x335aa70: {'verbose': False, 'ip': '127.0.0.1', 'shutdown_timeout': 5, 'taskbar': False, 'nocron': False, 'pid_filename': 'httpserver.pid', 'maxthreads': None, 'softcron': False, 'server_name': 'uriel', 'bpython': False, 'nogui': False, 'port': 8000, 'extcron': False, 'debuglevel': 30, 'test': None, 'folder': '/home/ian/web2py', 'config': '', 'import_models': False, 'winservice': '', 'shell': None, 'run': '', 'log_filename': 'httpserver.log', 'args': [''], 'socket_timeout': 1, 'ssl_ca_certificate': None, 'scheduler': None, 'profiler_filename': None, 'ssl_private_key': '', 'password': '<ask>', 'request_queue_size': 5, 'ssl_certificate': '', 'cronjob': False, 'numthreads': None, 'quiet': False, 'interfaces': None, 'minthreads': None, 'timeout': 10, 'plain': False, 'nobanner': False}>"
p2334
asbasbasbag57
(g73
g59
NtRp2335
(dp2336
g62
(dp2337
sg71
g2245
sg64
(lp2338
g57
(g78
g59
NtRp2339
(dp2340
g62
(dp2341
g82
g83
ssg71
g2335
sg64
(lp2342
g1222
asbag57
(g78
g59
NtRp2343
(dp2344
g62
(dp2345
g89
g90
ssg71
g2335
sg64
(lp2346
S':'
asbag57
(g78
g59
NtRp2347
(dp2348
g62
(dp2349
sg71
g2335
sg64
(lp2350
g57
(g58
g59
NtRp2351
(dp2352
g62
(dp2353
g70
I4
ssg71
g2347
sg64
(lp2354
S'set([])'
p2355
asbasbasbag57
(g73
g59
NtRp2356
(dp2357
g62
(dp2358
sg71
g2245
sg64
(lp2359
g57
(g78
g59
NtRp2360
(dp2361
g62
(dp2362
g82
g83
ssg71
g2356
sg64
(lp2363
g1244
asbag57
(g78
g59
NtRp2364
(dp2365
g62
(dp2366
g89
g90
ssg71
g2356
sg64
(lp2367
S':'
asbag57
(g78
g59
NtRp2368
(dp2369
g62
(dp2370
sg71
g2356
sg64
(lp2371
g57
(g58
g59
NtRp2372
(dp2373
g62
(dp2374
g70
I4
ssg71
g2368
sg64
(lp2375
g1257
asbasbasbag57
(g73
g59
NtRp2376
(dp2377
g62
(dp2378
sg71
g2245
sg64
(lp2379
g57
(g78
g59
NtRp2380
(dp2381
g62
(dp2382
g82
g83
ssg71
g2376
sg64
(lp2383
g1266
asbag57
(g78
g59
NtRp2384
(dp2385
g62
(dp2386
g89
g90
ssg71
g2376
sg64
(lp2387
S':'
asbag57
(g78
g59
NtRp2388
(dp2389
g62
(dp2390
sg71
g2376
sg64
(lp2391
g57
(g58
g59
NtRp2392
(dp2393
g62
(dp2394
g70
I4
ssg71
g2388
sg64
(lp2395
g1279
asbasbasbag57
(g73
g59
NtRp2396
(dp2397
g62
(dp2398
sg71
g2245
sg64
(lp2399
g57
(g78
g59
NtRp2400
(dp2401
g62
(dp2402
g82
g83
ssg71
g2396
sg64
(lp2403
g1551
asbag57
(g78
g59
NtRp2404
(dp2405
g62
(dp2406
g89
g90
ssg71
g2396
sg64
(lp2407
S':'
asbag57
(g78
g59
NtRp2408
(dp2409
g62
(dp2410
sg71
g2396
sg64
(lp2411
g57
(g58
g59
NtRp2412
(dp2413
g62
(dp2414
g70
I4
ssg71
g2408
sg64
(lp2415
g1257
asbasbasbag57
(g73
g59
NtRp2416
(dp2417
g62
(dp2418
sg71
g2245
sg64
(lp2419
g57
(g78
g59
NtRp2420
(dp2421
g62
(dp2422
g82
g83
ssg71
g2416
sg64
(lp2423
g1572
asbag57
(g78
g59
NtRp2424
(dp2425
g62
(dp2426
g89
g90
ssg71
g2416
sg64
(lp2427
S':'
asbag57
(g78
g59
NtRp2428
(dp2429
g62
(dp2430
sg71
g2416
sg64
(lp2431
g57
(g58
g59
NtRp2432
(dp2433
g62
(dp2434
g70
I4
ssg71
g2428
sg64
(lp2435
g1257
asbasbasbag57
(g73
g59
NtRp2436
(dp2437
g62
(dp2438
sg71
g2245
sg64
(lp2439
g57
(g78
g59
NtRp2440
(dp2441
g62
(dp2442
g82
g83
ssg71
g2436
sg64
(lp2443
g1810
asbag57
(g78
g59
NtRp2444
(dp2445
g62
(dp2446
g89
g90
ssg71
g2436
sg64
(lp2447
S':'
asbag57
(g78
g59
NtRp2448
(dp2449
g62
(dp2450
sg71
g2436
sg64
(lp2451
g57
(g58
g59
NtRp2452
(dp2453
g62
(dp2454
g70
I4
ssg71
g2448
sg64
(lp2455
g1823
asbasbasbag57
(g73
g59
NtRp2456
(dp2457
g62
(dp2458
sg71
g2245
sg64
(lp2459
g57
(g78
g59
NtRp2460
(dp2461
g62
(dp2462
g82
g83
ssg71
g2456
sg64
(lp2463
g1853
asbag57
(g78
g59
NtRp2464
(dp2465
g62
(dp2466
g89
g90
ssg71
g2456
sg64
(lp2467
S':'
asbag57
(g78
g59
NtRp2468
(dp2469
g62
(dp2470
sg71
g2456
sg64
(lp2471
g57
(g58
g59
NtRp2472
(dp2473
g62
(dp2474
g70
I4
ssg71
g2468
sg64
(lp2475
g57
(g66
g59
NtRp2476
(dp2477
g62
(dp2478
g70
I3
ssg71
Nsg64
(lp2479
g57
(g73
g59
NtRp2480
(dp2481
g62
(dp2482
sg71
g2476
sg64
(lp2483
g57
(g78
g59
NtRp2484
(dp2485
g62
(dp2486
sg71
g2480
sg64
(lp2487
g57
(g58
g59
NtRp2488
(dp2489
g62
(dp2490
g70
I3
ssg71
g2484
sg64
(lp2491
S'1'
asbasbasbag57
(g73
g59
NtRp2492
(dp2493
g62
(dp2494
sg71
g2476
sg64
(lp2495
g57
(g78
g59
NtRp2496
(dp2497
g62
(dp2498
sg71
g2492
sg64
(lp2499
g57
(g58
g59
NtRp2500
(dp2501
g62
(dp2502
g70
I3
ssg71
g2496
sg64
(lp2503
S'99'
p2504
asbasbasbag57
(g73
g59
NtRp2505
(dp2506
g62
(dp2507
sg71
g2476
sg64
(lp2508
g57
(g78
g59
NtRp2509
(dp2510
g62
(dp2511
sg71
g2505
sg64
(lp2512
g57
(g58
g59
NtRp2513
(dp2514
g62
(dp2515
g70
I3
ssg71
g2509
sg64
(lp2516
S'4'
asbasbasbag57
(g73
g59
NtRp2517
(dp2518
g62
(dp2519
sg71
g2476
sg64
(lp2520
g57
(g78
g59
NtRp2521
(dp2522
g62
(dp2523
sg71
g2517
sg64
(lp2524
g57
(g58
g59
NtRp2525
(dp2526
g62
(dp2527
g70
I3
ssg71
g2521
sg64
(lp2528
S'datetime.datetime(2011, 12, 14, 14, 46, 14)'
p2529
asbasbasbag57
(g73
g59
NtRp2530
(dp2531
g62
(dp2532
sg71
g2476
sg64
(lp2533
g57
(g78
g59
NtRp2534
(dp2535
g62
(dp2536
sg71
g2530
sg64
(lp2537
g57
(g58
g59
NtRp2538
(dp2539
g62
(dp2540
g70
I3
ssg71
g2534
sg64
(lp2541
g1932
asbasbasbasbasbasbasbasbasbasbasbag57
(g73
g59
NtRp2542
(dp2543
g62
(dp2544
sg71
g67
sg64
(lp2545
g57
(g78
g59
NtRp2546
(dp2547
g62
(dp2548
g82
g83
ssg71
g2542
sg64
(lp2549
S'is_https'
p2550
asbag57
(g78
g59
NtRp2551
(dp2552
g62
(dp2553
g89
g90
ssg71
g2542
sg64
(lp2554
S':'
asbag57
(g78
g59
NtRp2555
(dp2556
g62
(dp2557
sg71
g2542
sg64
(lp2558
g57
(g58
g59
NtRp2559
(dp2560
g62
(dp2561
g70
I5
ssg71
g2555
sg64
(lp2562
g1257
asbasbasbag57
(g73
g59
NtRp2563
(dp2564
g62
(dp2565
sg71
g67
sg64
(lp2566
g57
(g78
g59
NtRp2567
(dp2568
g62
(dp2569
g82
g83
ssg71
g2563
sg64
(lp2570
S'is_local'
p2571
asbag57
(g78
g59
NtRp2572
(dp2573
g62
(dp2574
g89
g90
ssg71
g2563
sg64
(lp2575
S':'
asbag57
(g78
g59
NtRp2576
(dp2577
g62
(dp2578
sg71
g2563
sg64
(lp2579
g57
(g58
g59
NtRp2580
(dp2581
g62
(dp2582
g70
I5
ssg71
g2576
sg64
(lp2583
g100
asbasbasbag57
(g73
g59
NtRp2584
(dp2585
g62
(dp2586
sg71
g67
sg64
(lp2587
g57
(g78
g59
NtRp2588
(dp2589
g62
(dp2590
g82
g83
ssg71
g2584
sg64
(lp2591
S'is_restful'
p2592
asbag57
(g78
g59
NtRp2593
(dp2594
g62
(dp2595
g89
g90
ssg71
g2584
sg64
(lp2596
S':'
asbag57
(g78
g59
NtRp2597
(dp2598
g62
(dp2599
sg71
g2584
sg64
(lp2600
g57
(g58
g59
NtRp2601
(dp2602
g62
(dp2603
g70
I5
ssg71
g2597
sg64
(lp2604
g1257
asbasbasbag57
(g73
g59
NtRp2605
(dp2606
g62
(dp2607
sg71
g67
sg64
(lp2608
g57
(g78
g59
NtRp2609
(dp2610
g62
(dp2611
g82
g83
ssg71
g2605
sg64
(lp2612
S'now'
p2613
asbag57
(g78
g59
NtRp2614
(dp2615
g62
(dp2616
g89
g90
ssg71
g2605
sg64
(lp2617
S':'
asbag57
(g78
g59
NtRp2618
(dp2619
g62
(dp2620
sg71
g2605
sg64
(lp2621
g57
(g58
g59
NtRp2622
(dp2623
g62
(dp2624
g70
I5
ssg71
g2618
sg64
(lp2625
S'datetime.datetime(2012, 1, 12, 16, 34, 16, 686178)'
p2626
asbasbasbag57
(g73
g59
NtRp2627
(dp2628
g62
(dp2629
sg71
g67
sg64
(lp2630
g57
(g78
g59
NtRp2631
(dp2632
g62
(dp2633
g82
g83
ssg71
g2627
sg64
(lp2634
S'post_vars'
p2635
asbag57
(g78
g59
NtRp2636
(dp2637
g62
(dp2638
g89
g90
ssg71
g2627
sg64
(lp2639
S':'
asbag57
(g78
g59
NtRp2640
(dp2641
g62
(dp2642
sg71
g2627
sg64
(lp2643
g57
(g58
g59
NtRp2644
(dp2645
g62
(dp2646
g70
I5
ssg71
g2640
sg64
(lp2647
g57
(g66
g59
NtRp2648
(dp2649
g62
(dp2650
g70
I4
ssg71
Nsg64
(lp2651
sbasbasbasbag57
(g73
g59
NtRp2652
(dp2653
g62
(dp2654
sg71
g67
sg64
(lp2655
g57
(g78
g59
NtRp2656
(dp2657
g62
(dp2658
g82
g83
ssg71
g2652
sg64
(lp2659
S'raw_args'
p2660
asbag57
(g78
g59
NtRp2661
(dp2662
g62
(dp2663
g89
g90
ssg71
g2652
sg64
(lp2664
S':'
asbag57
(g78
g59
NtRp2665
(dp2666
g62
(dp2667
sg71
g2652
sg64
(lp2668
g57
(g58
g59
NtRp2669
(dp2670
g62
(dp2671
g70
I5
ssg71
g2665
sg64
(lp2672
S'notes/work/7/works/notes_work_loader/14/author'
p2673
asbasbasbag57
(g73
g59
NtRp2674
(dp2675
g62
(dp2676
sg71
g67
sg64
(lp2677
g57
(g78
g59
NtRp2678
(dp2679
g62
(dp2680
g82
g83
ssg71
g2674
sg64
(lp2681
S'raw_extension'
p2682
asbag57
(g78
g59
NtRp2683
(dp2684
g62
(dp2685
g89
g90
ssg71
g2674
sg64
(lp2686
S':'
asbag57
(g78
g59
NtRp2687
(dp2688
g62
(dp2689
sg71
g2674
sg64
(lp2690
g57
(g58
g59
NtRp2691
(dp2692
g62
(dp2693
g70
I5
ssg71
g2687
sg64
(lp2694
g2154
asbasbasbag57
(g73
g59
NtRp2695
(dp2696
g62
(dp2697
sg71
g67
sg64
(lp2698
g57
(g78
g59
NtRp2699
(dp2700
g62
(dp2701
g82
g83
ssg71
g2695
sg64
(lp2702
S'url'
p2703
asbag57
(g78
g59
NtRp2704
(dp2705
g62
(dp2706
g89
g90
ssg71
g2695
sg64
(lp2707
S':'
asbag57
(g78
g59
NtRp2708
(dp2709
g62
(dp2710
sg71
g2695
sg64
(lp2711
g57
(g58
g59
NtRp2712
(dp2713
g62
(dp2714
g70
I5
ssg71
g2708
sg64
(lp2715
S'/topoi/plugin_ajaxselect/set_widget.load/notes/work/7/works/notes_work_loader/14/author'
p2716
asbasbasbag57
(g73
g59
NtRp2717
(dp2718
g62
(dp2719
sg71
g67
sg64
(lp2720
g57
(g78
g59
NtRp2721
(dp2722
g62
(dp2723
g82
g83
ssg71
g2717
sg64
(lp2724
S'utcnow'
p2725
asbag57
(g78
g59
NtRp2726
(dp2727
g62
(dp2728
g89
g90
ssg71
g2717
sg64
(lp2729
S':'
asbag57
(g78
g59
NtRp2730
(dp2731
g62
(dp2732
sg71
g2717
sg64
(lp2733
g57
(g58
g59
NtRp2734
(dp2735
g62
(dp2736
g70
I5
ssg71
g2730
sg64
(lp2737
S'datetime.datetime(2012, 1, 12, 21, 34, 16, 686259)'
p2738
asbasbasbag57
(g73
g59
NtRp2739
(dp2740
g62
(dp2741
sg71
g67
sg64
(lp2742
g57
(g78
g59
NtRp2743
(dp2744
g62
(dp2745
g82
g83
ssg71
g2739
sg64
(lp2746
S'uuid'
p2747
asbag57
(g78
g59
NtRp2748
(dp2749
g62
(dp2750
g89
g90
ssg71
g2739
sg64
(lp2751
S':'
asbag57
(g78
g59
NtRp2752
(dp2753
g62
(dp2754
sg71
g2739
sg64
(lp2755
g57
(g58
g59
NtRp2756
(dp2757
g62
(dp2758
g70
I5
ssg71
g2752
sg64
(lp2759
S'topoi/127.0.0.1.2012-01-12.16-34-16.f3c6625a-0a71-43da-949a-90f964553071'
p2760
asbasbasbag57
(g73
g59
NtRp2761
(dp2762
g62
(dp2763
sg71
g67
sg64
(lp2764
g57
(g78
g59
NtRp2765
(dp2766
g62
(dp2767
g82
g83
ssg71
g2761
sg64
(lp2768
S'vars'
p2769
asbag57
(g78
g59
NtRp2770
(dp2771
g62
(dp2772
g89
g90
ssg71
g2761
sg64
(lp2773
S':'
asbag57
(g78
g59
NtRp2774
(dp2775
g62
(dp2776
sg71
g2761
sg64
(lp2777
g57
(g58
g59
NtRp2778
(dp2779
g62
(dp2780
g70
I5
ssg71
g2774
sg64
(lp2781
g57
(g66
g59
NtRp2782
(dp2783
g62
(dp2784
g70
I4
ssg71
Nsg64
(lp2785
sbasbasbasbag57
(g73
g59
NtRp2786
(dp2787
g62
(dp2788
sg71
g67
sg64
(lp2789
g57
(g78
g59
NtRp2790
(dp2791
g62
(dp2792
g82
g83
ssg71
g2786
sg64
(lp2793
S'wsgi'
p2794
asbag57
(g78
g59
NtRp2795
(dp2796
g62
(dp2797
g89
g90
ssg71
g2786
sg64
(lp2798
S':'
asbag57
(g78
g59
NtRp2799
(dp2800
g62
(dp2801
sg71
g2786
sg64
(lp2802
g57
(g58
g59
NtRp2803
(dp2804
g62
(dp2805
g70
I5
ssg71
g2799
sg64
(lp2806
g57
(g66
g59
NtRp2807
(dp2808
g62
(dp2809
g70
I4
ssg71
Nsg64
(lp2810
g57
(g73
g59
NtRp2811
(dp2812
g62
(dp2813
sg71
g2807
sg64
(lp2814
g57
(g78
g59
NtRp2815
(dp2816
g62
(dp2817
g82
g83
ssg71
g2811
sg64
(lp2818
S'environ'
p2819
asbag57
(g78
g59
NtRp2820
(dp2821
g62
(dp2822
g89
g90
ssg71
g2811
sg64
(lp2823
S':'
asbag57
(g78
g59
NtRp2824
(dp2825
g62
(dp2826
sg71
g2811
sg64
(lp2827
g57
(g58
g59
NtRp2828
(dp2829
g62
(dp2830
g70
I4
ssg71
g2824
sg64
(lp2831
g57
(g66
g59
NtRp2832
(dp2833
g62
(dp2834
g70
I3
ssg71
Nsg64
(lp2835
g57
(g73
g59
NtRp2836
(dp2837
g62
(dp2838
sg71
g2832
sg64
(lp2839
g57
(g78
g59
NtRp2840
(dp2841
g62
(dp2842
g82
g83
ssg71
g2836
sg64
(lp2843
S'HTTP_ACCEPT'
p2844
asbag57
(g78
g59
NtRp2845
(dp2846
g62
(dp2847
g89
g90
ssg71
g2836
sg64
(lp2848
S':'
asbag57
(g78
g59
NtRp2849
(dp2850
g62
(dp2851
sg71
g2836
sg64
(lp2852
g57
(g58
g59
NtRp2853
(dp2854
g62
(dp2855
g70
I3
ssg71
g2849
sg64
(lp2856
g1301
asbasbasbag57
(g73
g59
NtRp2857
(dp2858
g62
(dp2859
sg71
g2832
sg64
(lp2860
g57
(g78
g59
NtRp2861
(dp2862
g62
(dp2863
g82
g83
ssg71
g2857
sg64
(lp2864
S'HTTP_ACCEPT_CHARSET'
p2865
asbag57
(g78
g59
NtRp2866
(dp2867
g62
(dp2868
g89
g90
ssg71
g2857
sg64
(lp2869
S':'
asbag57
(g78
g59
NtRp2870
(dp2871
g62
(dp2872
sg71
g2857
sg64
(lp2873
g57
(g58
g59
NtRp2874
(dp2875
g62
(dp2876
g70
I3
ssg71
g2870
sg64
(lp2877
g1323
asbasbasbag57
(g73
g59
NtRp2878
(dp2879
g62
(dp2880
sg71
g2832
sg64
(lp2881
g57
(g78
g59
NtRp2882
(dp2883
g62
(dp2884
g82
g83
ssg71
g2878
sg64
(lp2885
S'HTTP_ACCEPT_ENCODING'
p2886
asbag57
(g78
g59
NtRp2887
(dp2888
g62
(dp2889
g89
g90
ssg71
g2878
sg64
(lp2890
S':'
asbag57
(g78
g59
NtRp2891
(dp2892
g62
(dp2893
sg71
g2878
sg64
(lp2894
g57
(g58
g59
NtRp2895
(dp2896
g62
(dp2897
g70
I3
ssg71
g2891
sg64
(lp2898
g1345
asbasbasbag57
(g73
g59
NtRp2899
(dp2900
g62
(dp2901
sg71
g2832
sg64
(lp2902
g57
(g78
g59
NtRp2903
(dp2904
g62
(dp2905
g82
g83
ssg71
g2899
sg64
(lp2906
S'HTTP_ACCEPT_LANGUAGE'
p2907
asbag57
(g78
g59
NtRp2908
(dp2909
g62
(dp2910
g89
g90
ssg71
g2899
sg64
(lp2911
S':'
asbag57
(g78
g59
NtRp2912
(dp2913
g62
(dp2914
sg71
g2899
sg64
(lp2915
g57
(g58
g59
NtRp2916
(dp2917
g62
(dp2918
g70
I3
ssg71
g2912
sg64
(lp2919
g1367
asbasbasbag57
(g73
g59
NtRp2920
(dp2921
g62
(dp2922
sg71
g2832
sg64
(lp2923
g57
(g78
g59
NtRp2924
(dp2925
g62
(dp2926
g82
g83
ssg71
g2920
sg64
(lp2927
S'HTTP_CONNECTION'
p2928
asbag57
(g78
g59
NtRp2929
(dp2930
g62
(dp2931
g89
g90
ssg71
g2920
sg64
(lp2932
S':'
asbag57
(g78
g59
NtRp2933
(dp2934
g62
(dp2935
sg71
g2920
sg64
(lp2936
g57
(g58
g59
NtRp2937
(dp2938
g62
(dp2939
g70
I3
ssg71
g2933
sg64
(lp2940
g1389
asbasbasbag57
(g73
g59
NtRp2941
(dp2942
g62
(dp2943
sg71
g2832
sg64
(lp2944
g57
(g78
g59
NtRp2945
(dp2946
g62
(dp2947
g82
g83
ssg71
g2941
sg64
(lp2948
S'HTTP_COOKIE'
p2949
asbag57
(g78
g59
NtRp2950
(dp2951
g62
(dp2952
g89
g90
ssg71
g2941
sg64
(lp2953
S':'
asbag57
(g78
g59
NtRp2954
(dp2955
g62
(dp2956
sg71
g2941
sg64
(lp2957
g57
(g58
g59
NtRp2958
(dp2959
g62
(dp2960
g70
I3
ssg71
g2954
sg64
(lp2961
g1411
asbasbasbag57
(g73
g59
NtRp2962
(dp2963
g62
(dp2964
sg71
g2832
sg64
(lp2965
g57
(g78
g59
NtRp2966
(dp2967
g62
(dp2968
g82
g83
ssg71
g2962
sg64
(lp2969
S'HTTP_HOST'
p2970
asbag57
(g78
g59
NtRp2971
(dp2972
g62
(dp2973
g89
g90
ssg71
g2962
sg64
(lp2974
S':'
asbag57
(g78
g59
NtRp2975
(dp2976
g62
(dp2977
sg71
g2962
sg64
(lp2978
g57
(g58
g59
NtRp2979
(dp2980
g62
(dp2981
g70
I3
ssg71
g2975
sg64
(lp2982
g1433
asbasbasbag57
(g73
g59
NtRp2983
(dp2984
g62
(dp2985
sg71
g2832
sg64
(lp2986
g57
(g78
g59
NtRp2987
(dp2988
g62
(dp2989
g82
g83
ssg71
g2983
sg64
(lp2990
S'HTTP_REFERER'
p2991
asbag57
(g78
g59
NtRp2992
(dp2993
g62
(dp2994
g89
g90
ssg71
g2983
sg64
(lp2995
S':'
asbag57
(g78
g59
NtRp2996
(dp2997
g62
(dp2998
sg71
g2983
sg64
(lp2999
g57
(g58
g59
NtRp3000
(dp3001
g62
(dp3002
g70
I3
ssg71
g2996
sg64
(lp3003
g1455
asbasbasbag57
(g73
g59
NtRp3004
(dp3005
g62
(dp3006
sg71
g2832
sg64
(lp3007
g57
(g78
g59
NtRp3008
(dp3009
g62
(dp3010
g82
g83
ssg71
g3004
sg64
(lp3011
S'HTTP_USER_AGENT'
p3012
asbag57
(g78
g59
NtRp3013
(dp3014
g62
(dp3015
g89
g90
ssg71
g3004
sg64
(lp3016
S':'
asbag57
(g78
g59
NtRp3017
(dp3018
g62
(dp3019
sg71
g3004
sg64
(lp3020
g57
(g58
g59
NtRp3021
(dp3022
g62
(dp3023
g70
I3
ssg71
g3017
sg64
(lp3024
g1477
asbasbasbag57
(g73
g59
NtRp3025
(dp3026
g62
(dp3027
sg71
g2832
sg64
(lp3028
g57
(g78
g59
NtRp3029
(dp3030
g62
(dp3031
g82
g83
ssg71
g3025
sg64
(lp3032
S'HTTP_WEB2PY_COMPONENT_ELEMENT'
p3033
asbag57
(g78
g59
NtRp3034
(dp3035
g62
(dp3036
g89
g90
ssg71
g3025
sg64
(lp3037
S':'
asbag57
(g78
g59
NtRp3038
(dp3039
g62
(dp3040
sg71
g3025
sg64
(lp3041
g57
(g58
g59
NtRp3042
(dp3043
g62
(dp3044
g70
I3
ssg71
g3038
sg64
(lp3045
g280
asbasbasbag57
(g73
g59
NtRp3046
(dp3047
g62
(dp3048
sg71
g2832
sg64
(lp3049
g57
(g78
g59
NtRp3050
(dp3051
g62
(dp3052
g82
g83
ssg71
g3046
sg64
(lp3053
S'HTTP_WEB2PY_COMPONENT_LOCATION'
p3054
asbag57
(g78
g59
NtRp3055
(dp3056
g62
(dp3057
g89
g90
ssg71
g3046
sg64
(lp3058
S':'
asbag57
(g78
g59
NtRp3059
(dp3060
g62
(dp3061
sg71
g3046
sg64
(lp3062
g57
(g58
g59
NtRp3063
(dp3064
g62
(dp3065
g70
I3
ssg71
g3059
sg64
(lp3066
g1520
asbasbasbag57
(g73
g59
NtRp3067
(dp3068
g62
(dp3069
sg71
g2832
sg64
(lp3070
g57
(g78
g59
NtRp3071
(dp3072
g62
(dp3073
g82
g83
ssg71
g3067
sg64
(lp3074
S'HTTP_X_REQUESTED_WITH'
p3075
asbag57
(g78
g59
NtRp3076
(dp3077
g62
(dp3078
g89
g90
ssg71
g3067
sg64
(lp3079
S':'
asbag57
(g78
g59
NtRp3080
(dp3081
g62
(dp3082
sg71
g3067
sg64
(lp3083
g57
(g58
g59
NtRp3084
(dp3085
g62
(dp3086
g70
I3
ssg71
g3080
sg64
(lp3087
g1542
asbasbasbag57
(g73
g59
NtRp3088
(dp3089
g62
(dp3090
sg71
g2832
sg64
(lp3091
g57
(g78
g59
NtRp3092
(dp3093
g62
(dp3094
g82
g83
ssg71
g3088
sg64
(lp3095
S'PATH_INFO'
p3096
asbag57
(g78
g59
NtRp3097
(dp3098
g62
(dp3099
g89
g90
ssg71
g3088
sg64
(lp3100
S':'
asbag57
(g78
g59
NtRp3101
(dp3102
g62
(dp3103
sg71
g3088
sg64
(lp3104
g57
(g58
g59
NtRp3105
(dp3106
g62
(dp3107
g70
I3
ssg71
g3101
sg64
(lp3108
g1606
asbasbasbag57
(g73
g59
NtRp3109
(dp3110
g62
(dp3111
sg71
g2832
sg64
(lp3112
g57
(g78
g59
NtRp3113
(dp3114
g62
(dp3115
g82
g83
ssg71
g3109
sg64
(lp3116
S'QUERY_STRING'
p3117
asbag57
(g78
g59
NtRp3118
(dp3119
g62
(dp3120
g89
g90
ssg71
g3109
sg64
(lp3121
S':'
asbag57
(g78
g59
NtRp3122
(dp3123
g62
(dp3124
sg71
g3109
sg64
(lp3125
g57
(g58
g59
NtRp3126
(dp3127
g62
(dp3128
g70
I3
ssg71
g3122
sg64
(lp3129
S''
asbasbasbag57
(g73
g59
NtRp3130
(dp3131
g62
(dp3132
sg71
g2832
sg64
(lp3133
g57
(g78
g59
NtRp3134
(dp3135
g62
(dp3136
g82
g83
ssg71
g3130
sg64
(lp3137
S'REMOTE_ADDR'
p3138
asbag57
(g78
g59
NtRp3139
(dp3140
g62
(dp3141
g89
g90
ssg71
g3130
sg64
(lp3142
S':'
asbag57
(g78
g59
NtRp3143
(dp3144
g62
(dp3145
sg71
g3130
sg64
(lp3146
g57
(g58
g59
NtRp3147
(dp3148
g62
(dp3149
g70
I3
ssg71
g3143
sg64
(lp3150
g302
asbasbasbag57
(g73
g59
NtRp3151
(dp3152
g62
(dp3153
sg71
g2832
sg64
(lp3154
g57
(g78
g59
NtRp3155
(dp3156
g62
(dp3157
g82
g83
ssg71
g3151
sg64
(lp3158
S'REMOTE_PORT'
p3159
asbag57
(g78
g59
NtRp3160
(dp3161
g62
(dp3162
g89
g90
ssg71
g3151
sg64
(lp3163
S':'
asbag57
(g78
g59
NtRp3164
(dp3165
g62
(dp3166
sg71
g3151
sg64
(lp3167
g57
(g58
g59
NtRp3168
(dp3169
g62
(dp3170
g70
I3
ssg71
g3164
sg64
(lp3171
g1670
asbasbasbag57
(g73
g59
NtRp3172
(dp3173
g62
(dp3174
sg71
g2832
sg64
(lp3175
g57
(g78
g59
NtRp3176
(dp3177
g62
(dp3178
g82
g83
ssg71
g3172
sg64
(lp3179
S'REQUEST_METHOD'
p3180
asbag57
(g78
g59
NtRp3181
(dp3182
g62
(dp3183
g89
g90
ssg71
g3172
sg64
(lp3184
S':'
asbag57
(g78
g59
NtRp3185
(dp3186
g62
(dp3187
sg71
g3172
sg64
(lp3188
g57
(g58
g59
NtRp3189
(dp3190
g62
(dp3191
g70
I3
ssg71
g3185
sg64
(lp3192
g1692
asbasbasbag57
(g73
g59
NtRp3193
(dp3194
g62
(dp3195
sg71
g2832
sg64
(lp3196
g57
(g78
g59
NtRp3197
(dp3198
g62
(dp3199
g82
g83
ssg71
g3193
sg64
(lp3200
S'SCRIPT_NAME'
p3201
asbag57
(g78
g59
NtRp3202
(dp3203
g62
(dp3204
g89
g90
ssg71
g3193
sg64
(lp3205
S':'
asbag57
(g78
g59
NtRp3206
(dp3207
g62
(dp3208
sg71
g3193
sg64
(lp3209
g57
(g58
g59
NtRp3210
(dp3211
g62
(dp3212
g70
I3
ssg71
g3206
sg64
(lp3213
S''
asbasbasbag57
(g73
g59
NtRp3214
(dp3215
g62
(dp3216
sg71
g2832
sg64
(lp3217
g57
(g78
g59
NtRp3218
(dp3219
g62
(dp3220
g82
g83
ssg71
g3214
sg64
(lp3221
S'SERVER_NAME'
p3222
asbag57
(g78
g59
NtRp3223
(dp3224
g62
(dp3225
g89
g90
ssg71
g3214
sg64
(lp3226
S':'
asbag57
(g78
g59
NtRp3227
(dp3228
g62
(dp3229
sg71
g3214
sg64
(lp3230
g57
(g58
g59
NtRp3231
(dp3232
g62
(dp3233
g70
I3
ssg71
g3227
sg64
(lp3234
g1735
asbasbasbag57
(g73
g59
NtRp3235
(dp3236
g62
(dp3237
sg71
g2832
sg64
(lp3238
g57
(g78
g59
NtRp3239
(dp3240
g62
(dp3241
g82
g83
ssg71
g3235
sg64
(lp3242
S'SERVER_PORT'
p3243
asbag57
(g78
g59
NtRp3244
(dp3245
g62
(dp3246
g89
g90
ssg71
g3235
sg64
(lp3247
S':'
asbag57
(g78
g59
NtRp3248
(dp3249
g62
(dp3250
sg71
g3235
sg64
(lp3251
g57
(g58
g59
NtRp3252
(dp3253
g62
(dp3254
g70
I3
ssg71
g3248
sg64
(lp3255
g1757
asbasbasbag57
(g73
g59
NtRp3256
(dp3257
g62
(dp3258
sg71
g2832
sg64
(lp3259
g57
(g78
g59
NtRp3260
(dp3261
g62
(dp3262
g82
g83
ssg71
g3256
sg64
(lp3263
S'SERVER_PROTOCOL'
p3264
asbag57
(g78
g59
NtRp3265
(dp3266
g62
(dp3267
g89
g90
ssg71
g3256
sg64
(lp3268
S':'
asbag57
(g78
g59
NtRp3269
(dp3270
g62
(dp3271
sg71
g3256
sg64
(lp3272
g57
(g58
g59
NtRp3273
(dp3274
g62
(dp3275
g70
I3
ssg71
g3269
sg64
(lp3276
g1779
asbasbasbag57
(g73
g59
NtRp3277
(dp3278
g62
(dp3279
sg71
g2832
sg64
(lp3280
g57
(g78
g59
NtRp3281
(dp3282
g62
(dp3283
g82
g83
ssg71
g3277
sg64
(lp3284
S'SERVER_SOFTWARE'
p3285
asbag57
(g78
g59
NtRp3286
(dp3287
g62
(dp3288
g89
g90
ssg71
g3277
sg64
(lp3289
S':'
asbag57
(g78
g59
NtRp3290
(dp3291
g62
(dp3292
sg71
g3277
sg64
(lp3293
g57
(g58
g59
NtRp3294
(dp3295
g62
(dp3296
g70
I3
ssg71
g3290
sg64
(lp3297
g1801
asbasbasbag57
(g73
g59
NtRp3298
(dp3299
g62
(dp3300
sg71
g2832
sg64
(lp3301
g57
(g78
g59
NtRp3302
(dp3303
g62
(dp3304
g82
g83
ssg71
g3298
sg64
(lp3305
S'wsgi.errors'
p3306
asbag57
(g78
g59
NtRp3307
(dp3308
g62
(dp3309
g89
g90
ssg71
g3298
sg64
(lp3310
S':'
asbag57
(g78
g59
NtRp3311
(dp3312
g62
(dp3313
sg71
g3298
sg64
(lp3314
g57
(g58
g59
NtRp3315
(dp3316
g62
(dp3317
g70
I3
ssg71
g3311
sg64
(lp3318
S"<open file '<stderr>', mode 'w' at 0x7fee3896f270>"
p3319
asbasbasbag57
(g73
g59
NtRp3320
(dp3321
g62
(dp3322
sg71
g2832
sg64
(lp3323
g57
(g78
g59
NtRp3324
(dp3325
g62
(dp3326
g82
g83
ssg71
g3320
sg64
(lp3327
S'wsgi.file_wrapper'
p3328
asbag57
(g78
g59
NtRp3329
(dp3330
g62
(dp3331
g89
g90
ssg71
g3320
sg64
(lp3332
S':'
asbag57
(g78
g59
NtRp3333
(dp3334
g62
(dp3335
sg71
g3320
sg64
(lp3336
g57
(g58
g59
NtRp3337
(dp3338
g62
(dp3339
g70
I3
ssg71
g3333
sg64
(lp3340
S'<class wsgiref.util.FileWrapper at 0x3217ce8>'
p3341
asbasbasbag57
(g73
g59
NtRp3342
(dp3343
g62
(dp3344
sg71
g2832
sg64
(lp3345
g57
(g78
g59
NtRp3346
(dp3347
g62
(dp3348
g82
g83
ssg71
g3342
sg64
(lp3349
S'wsgi.input'
p3350
asbag57
(g78
g59
NtRp3351
(dp3352
g62
(dp3353
g89
g90
ssg71
g3342
sg64
(lp3354
S':'
asbag57
(g78
g59
NtRp3355
(dp3356
g62
(dp3357
sg71
g3342
sg64
(lp3358
g57
(g58
g59
NtRp3359
(dp3360
g62
(dp3361
g70
I3
ssg71
g3355
sg64
(lp3362
S'<cStringIO.StringO object at 0x44b80a0>'
p3363
asbasbasbag57
(g73
g59
NtRp3364
(dp3365
g62
(dp3366
sg71
g2832
sg64
(lp3367
g57
(g78
g59
NtRp3368
(dp3369
g62
(dp3370
g82
g83
ssg71
g3364
sg64
(lp3371
S'wsgi.multiprocess'
p3372
asbag57
(g78
g59
NtRp3373
(dp3374
g62
(dp3375
g89
g90
ssg71
g3364
sg64
(lp3376
S':'
asbag57
(g78
g59
NtRp3377
(dp3378
g62
(dp3379
sg71
g3364
sg64
(lp3380
g57
(g58
g59
NtRp3381
(dp3382
g62
(dp3383
g70
I3
ssg71
g3377
sg64
(lp3384
g1257
asbasbasbag57
(g73
g59
NtRp3385
(dp3386
g62
(dp3387
sg71
g2832
sg64
(lp3388
g57
(g78
g59
NtRp3389
(dp3390
g62
(dp3391
g82
g83
ssg71
g3385
sg64
(lp3392
S'wsgi.multithread'
p3393
asbag57
(g78
g59
NtRp3394
(dp3395
g62
(dp3396
g89
g90
ssg71
g3385
sg64
(lp3397
S':'
asbag57
(g78
g59
NtRp3398
(dp3399
g62
(dp3400
sg71
g3385
sg64
(lp3401
g57
(g58
g59
NtRp3402
(dp3403
g62
(dp3404
g70
I3
ssg71
g3398
sg64
(lp3405
g100
asbasbasbag57
(g73
g59
NtRp3406
(dp3407
g62
(dp3408
sg71
g2832
sg64
(lp3409
g57
(g78
g59
NtRp3410
(dp3411
g62
(dp3412
g82
g83
ssg71
g3406
sg64
(lp3413
S'wsgi.run_once'
p3414
asbag57
(g78
g59
NtRp3415
(dp3416
g62
(dp3417
g89
g90
ssg71
g3406
sg64
(lp3418
S':'
asbag57
(g78
g59
NtRp3419
(dp3420
g62
(dp3421
sg71
g3406
sg64
(lp3422
g57
(g58
g59
NtRp3423
(dp3424
g62
(dp3425
g70
I3
ssg71
g3419
sg64
(lp3426
g1257
asbasbasbag57
(g73
g59
NtRp3427
(dp3428
g62
(dp3429
sg71
g2832
sg64
(lp3430
g57
(g78
g59
NtRp3431
(dp3432
g62
(dp3433
g82
g83
ssg71
g3427
sg64
(lp3434
S'wsgi.url_scheme'
p3435
asbag57
(g78
g59
NtRp3436
(dp3437
g62
(dp3438
g89
g90
ssg71
g3427
sg64
(lp3439
S':'
asbag57
(g78
g59
NtRp3440
(dp3441
g62
(dp3442
sg71
g3427
sg64
(lp3443
g57
(g58
g59
NtRp3444
(dp3445
g62
(dp3446
g70
I3
ssg71
g3440
sg64
(lp3447
g2083
asbasbasbag57
(g73
g59
NtRp3448
(dp3449
g62
(dp3450
sg71
g2832
sg64
(lp3451
g57
(g78
g59
NtRp3452
(dp3453
g62
(dp3454
g82
g83
ssg71
g3448
sg64
(lp3455
S'wsgi.version'
p3456
asbag57
(g78
g59
NtRp3457
(dp3458
g62
(dp3459
g89
g90
ssg71
g3448
sg64
(lp3460
S':'
asbag57
(g78
g59
NtRp3461
(dp3462
g62
(dp3463
sg71
g3448
sg64
(lp3464
g57
(g58
g59
NtRp3465
(dp3466
g62
(dp3467
g70
I3
ssg71
g3461
sg64
(lp3468
S'1'
asbasbasbasbasbasbasbasbasbasbasbasbasbsS'frames'
p3469
(lp3470
(dp3471
S'file'
p3472
S'/home/ian/web2py/gluon/restricted.py'
p3473
sS'dump'
p3474
(dp3475
S'environment'
p3476
S"{'A': <class 'gluon.html.A'>, 'AjaxSelect': <class applications.topoi.modules.plugin_ajaxselect.AjaxSelect>, 'Auth': <class 'gluon.tools.Auth'>, 'B': <class 'gluon.html.B'>, 'BEAUTIFY': <class 'gluon.html.BEAUTIFY'>, 'BODY': <class 'gluon.html.BODY'>, 'BR': <class 'gluon.html.BR'>, 'BUTTON': <class 'gluon.html.BUTTON'>, 'CAT': <class 'gluon.html.CAT'>, 'CENTER': <class 'gluon.html.CENTER'>, ...}"
p3477
sS'ccode'
p3478
S'<code object <module> at 0x40e1630, file "/home/.../topoi/controllers/plugin_ajaxselect.py", line 1>'
p3479
ssS'lnum'
p3480
I204
sS'lines'
p3481
(dp3482
I199
S'    try:'
p3483
sI200
S'        if type(code) == types.CodeType:'
p3484
sI201
S'            ccode = code'
p3485
sI202
S'        else:'
p3486
sI203
S'            ccode = compile2(code,layer)'
p3487
sI204
S'        exec ccode in environment'
p3488
sI205
S'    except HTTP:'
p3489
sI206
S'        raise'
p3490
sI207
S'    except RestrictedError:'
p3491
sI208
S'        # do not encapsulate (obfuscate) the original RestrictedError'
p3492
ssS'call'
p3493
S"(code='if 0:\\n    from gluon import current, SELECT, OPT...rm)\\n\\nresponse._vars=response._caller(set_widget)\\n', environment={'A': <class 'gluon.html.A'>, 'AjaxSelect': <class applications.topoi.modules.plugin_ajaxselect.AjaxSelect>, 'Auth': <class 'gluon.tools.Auth'>, 'B': <class 'gluon.html.B'>, 'BEAUTIFY': <class 'gluon.html.BEAUTIFY'>, 'BODY': <class 'gluon.html.BODY'>, 'BR': <class 'gluon.html.BR'>, 'BUTTON': <class 'gluon.html.BUTTON'>, 'CAT': <class 'gluon.html.CAT'>, 'CENTER': <class 'gluon.html.CENTER'>, ...}, layer='/home/ian/web2py/applications/topoi/controllers/plugin_ajaxselect.py')"
p3494
sS'func'
p3495
S'restricted'
p3496
sa(dp3497
g3472
S'/home/ian/web2py/applications/topoi/controllers/plugin_ajaxselect.py'
p3498
sg3474
(dp3499
sg3480
I85
sg3481
(dp3500
I74
S''
sI75
S"    comp_url = URL('plugin_ajaxselect', 'set_widget.load', args=[tablename, fieldname, value, linktable, wrappername])"
p3501
sI76
S''
sI77
S'    if form.process().accepted:'
p3502
sI78
S"        response.flash = 'form accepted'"
p3503
sI79
S'        response.js = "web2py_component(\'%s\', \'%s\');" % (comp_url, wrappername)'
p3504
sI80
S'    else:'
p3505
sI81
S"        response.error = 'form was not processed'"
p3506
sI82
S''
sI83
S'    return dict(form = form)'
p3507
ssg3493
S'()'
p3508
sg3495
S'<module>'
p3509
sa(dp3510
g3472
S'/home/ian/web2py/gluon/globals.py'
p3511
sg3474
(dp3512
S'self'
p3513
S'undefined'
p3514
sS'f'
S'<function set_widget>'
p3515
ssg3480
I172
sg3481
(dp3516
I167
S'        self.meta = Storage()      # used by web2py_ajax.html'
p3517
sI168
S'        self.menu = []             # used by the default view layout'
p3518
sI169
S'        self.files = []            # used by web2py_ajax.html'
p3519
sI170
S'        self.generic_patterns = [] # patterns to allow generic views'
p3520
sI171
S'        self._vars = None'
p3521
sI172
S'        self._caller = lambda f: f()'
p3522
sI173
S'        self._view_environment = None'
p3523
sI174
S'        self._custom_commit = None'
p3524
sI175
S'        self._custom_rollback = None'
p3525
sI176
S''
ssg3493
S'(f=<function set_widget>)'
p3526
sg3495
S'<lambda>'
p3527
sa(dp3528
g3472
S'/home/ian/web2py/applications/topoi/controllers/plugin_ajaxselect.py'
p3529
sg3474
(dp3530
S'f'
S"'comments'"
p3531
sS'cf'
p3532
g3514
sS'].type'
p3533
g3514
sS'the_linktable.fields'
p3534
S"['id', 'title', 'author', 'date_earliest', 'date...t', 'date_likely', 'genre', 'source', 'comments']"
p3535
sS'ref'
p3536
S"'reference author'"
p3537
sS'the_linktable'
p3538
S"<Table {'_db': <DAL {'auth_event': <Table {'orig...e, '_id': <gluon.dal.Field object at 0x44b79d0>}>"
p3539
ssg3480
I33
sg3481
(dp3540
I32
S"        ref = 'reference %s' % filter_t"
p3541
sI33
S'        cf = [f for f in the_linktable.fields if the_linktable[f].type == ref][0]'
p3542
sI34
S'        print(cf)'
p3543
sI35
S'        #filter the rows from the linked table accordingly'
p3544
sI36
S'        rows = db(the_linktable[cf] == filter_val).select()'
p3545
sI37
S'        #build the name for the refreshed select widget'
p3546
sI28
S'        #find the table behind the constraining widget'
p3547
sI29
S'        filter_t = request.args[6]'
p3548
sI30
S'        print(filter_t)'
p3549
sI31
S"        #find the corresponding field in this select's linked table"
p3550
ssg3493
S'()'
p3551
sg3495
S'set_widget'
p3552
sasS'pyver'
p3553
S'Python 2.7.2+: /usr/bin/python2.7'
p3554
sS'session'
p3555
g57
(g58
g59
NtRp3556
(dp3557
g62
(dp3558
sg64
(lp3559
g57
(g66
g59
NtRp3560
(dp3561
g62
(dp3562
g70
I5
ssg71
Nsg64
(lp3563
g57
(g73
g59
NtRp3564
(dp3565
g62
(dp3566
sg71
g3560
sg64
(lp3567
g57
(g78
g59
NtRp3568
(dp3569
g62
(dp3570
g82
g83
ssg71
g3564
sg64
(lp3571
S'auth'
p3572
asbag57
(g78
g59
NtRp3573
(dp3574
g62
(dp3575
g89
g90
ssg71
g3564
sg64
(lp3576
S':'
asbag57
(g78
g59
NtRp3577
(dp3578
g62
(dp3579
sg71
g3564
sg64
(lp3580
g57
(g58
g59
NtRp3581
(dp3582
g62
(dp3583
g70
I5
ssg71
g3577
sg64
(lp3584
g57
(g66
g59
NtRp3585
(dp3586
g62
(dp3587
g70
I4
ssg71
Nsg64
(lp3588
g57
(g73
g59
NtRp3589
(dp3590
g62
(dp3591
sg71
g3585
sg64
(lp3592
g57
(g78
g59
NtRp3593
(dp3594
g62
(dp3595
g82
g83
ssg71
g3589
sg64
(lp3596
S'expiration'
p3597
asbag57
(g78
g59
NtRp3598
(dp3599
g62
(dp3600
g89
g90
ssg71
g3589
sg64
(lp3601
S':'
asbag57
(g78
g59
NtRp3602
(dp3603
g62
(dp3604
sg71
g3589
sg64
(lp3605
g57
(g58
g59
NtRp3606
(dp3607
g62
(dp3608
g70
I4
ssg71
g3602
sg64
(lp3609
S'2592000'
p3610
asbasbasbag57
(g73
g59
NtRp3611
(dp3612
g62
(dp3613
sg71
g3585
sg64
(lp3614
g57
(g78
g59
NtRp3615
(dp3616
g62
(dp3617
g82
g83
ssg71
g3611
sg64
(lp3618
S'hmac_key'
p3619
asbag57
(g78
g59
NtRp3620
(dp3621
g62
(dp3622
g89
g90
ssg71
g3611
sg64
(lp3623
S':'
asbag57
(g78
g59
NtRp3624
(dp3625
g62
(dp3626
sg71
g3611
sg64
(lp3627
g57
(g58
g59
NtRp3628
(dp3629
g62
(dp3630
g70
I4
ssg71
g3624
sg64
(lp3631
S'20c8192d-156c-406c-9f7b-eade4cd34288'
p3632
asbasbasbag57
(g73
g59
NtRp3633
(dp3634
g62
(dp3635
sg71
g3585
sg64
(lp3636
g57
(g78
g59
NtRp3637
(dp3638
g62
(dp3639
g82
g83
ssg71
g3633
sg64
(lp3640
S'last_visit'
p3641
asbag57
(g78
g59
NtRp3642
(dp3643
g62
(dp3644
g89
g90
ssg71
g3633
sg64
(lp3645
S':'
asbag57
(g78
g59
NtRp3646
(dp3647
g62
(dp3648
sg71
g3633
sg64
(lp3649
g57
(g58
g59
NtRp3650
(dp3651
g62
(dp3652
g70
I4
ssg71
g3646
sg64
(lp3653
S'datetime.datetime(2011, 12, 15, 14, 27, 18, 112795)'
p3654
asbasbasbag57
(g73
g59
NtRp3655
(dp3656
g62
(dp3657
sg71
g3585
sg64
(lp3658
g57
(g78
g59
NtRp3659
(dp3660
g62
(dp3661
g82
g83
ssg71
g3655
sg64
(lp3662
S'remember'
p3663
asbag57
(g78
g59
NtRp3664
(dp3665
g62
(dp3666
g89
g90
ssg71
g3655
sg64
(lp3667
S':'
asbag57
(g78
g59
NtRp3668
(dp3669
g62
(dp3670
sg71
g3655
sg64
(lp3671
g57
(g58
g59
NtRp3672
(dp3673
g62
(dp3674
g70
I4
ssg71
g3668
sg64
(lp3675
g100
asbasbasbag57
(g73
g59
NtRp3676
(dp3677
g62
(dp3678
sg71
g3585
sg64
(lp3679
g57
(g78
g59
NtRp3680
(dp3681
g62
(dp3682
g82
g83
ssg71
g3676
sg64
(lp3683
S'user'
p3684
asbag57
(g78
g59
NtRp3685
(dp3686
g62
(dp3687
g89
g90
ssg71
g3676
sg64
(lp3688
S':'
asbag57
(g78
g59
NtRp3689
(dp3690
g62
(dp3691
sg71
g3676
sg64
(lp3692
g57
(g58
g59
NtRp3693
(dp3694
g62
(dp3695
g70
I4
ssg71
g3689
sg64
(lp3696
g57
(g66
g59
NtRp3697
(dp3698
g62
(dp3699
g70
I3
ssg71
Nsg64
(lp3700
g57
(g73
g59
NtRp3701
(dp3702
g62
(dp3703
sg71
g3697
sg64
(lp3704
g57
(g78
g59
NtRp3705
(dp3706
g62
(dp3707
g82
g83
ssg71
g3701
sg64
(lp3708
S'email'
p3709
asbag57
(g78
g59
NtRp3710
(dp3711
g62
(dp3712
g89
g90
ssg71
g3701
sg64
(lp3713
S':'
asbag57
(g78
g59
NtRp3714
(dp3715
g62
(dp3716
sg71
g3701
sg64
(lp3717
g57
(g58
g59
NtRp3718
(dp3719
g62
(dp3720
g70
I3
ssg71
g3714
sg64
(lp3721
S'scottianw@gmail.com'
p3722
asbasbasbag57
(g73
g59
NtRp3723
(dp3724
g62
(dp3725
sg71
g3697
sg64
(lp3726
g57
(g78
g59
NtRp3727
(dp3728
g62
(dp3729
g82
g83
ssg71
g3723
sg64
(lp3730
S'first_name'
p3731
asbag57
(g78
g59
NtRp3732
(dp3733
g62
(dp3734
g89
g90
ssg71
g3723
sg64
(lp3735
S':'
asbag57
(g78
g59
NtRp3736
(dp3737
g62
(dp3738
sg71
g3723
sg64
(lp3739
g57
(g58
g59
NtRp3740
(dp3741
g62
(dp3742
g70
I3
ssg71
g3736
sg64
(lp3743
S'Ian'
p3744
asbasbasbag57
(g73
g59
NtRp3745
(dp3746
g62
(dp3747
sg71
g3697
sg64
(lp3748
g57
(g78
g59
NtRp3749
(dp3750
g62
(dp3751
g82
g83
ssg71
g3745
sg64
(lp3752
S'id'
p3753
asbag57
(g78
g59
NtRp3754
(dp3755
g62
(dp3756
g89
g90
ssg71
g3745
sg64
(lp3757
S':'
asbag57
(g78
g59
NtRp3758
(dp3759
g62
(dp3760
sg71
g3745
sg64
(lp3761
g57
(g58
g59
NtRp3762
(dp3763
g62
(dp3764
g70
I3
ssg71
g3758
sg64
(lp3765
S'1'
asbasbasbag57
(g73
g59
NtRp3766
(dp3767
g62
(dp3768
sg71
g3697
sg64
(lp3769
g57
(g78
g59
NtRp3770
(dp3771
g62
(dp3772
g82
g83
ssg71
g3766
sg64
(lp3773
S'last_name'
p3774
asbag57
(g78
g59
NtRp3775
(dp3776
g62
(dp3777
g89
g90
ssg71
g3766
sg64
(lp3778
S':'
asbag57
(g78
g59
NtRp3779
(dp3780
g62
(dp3781
sg71
g3766
sg64
(lp3782
g57
(g58
g59
NtRp3783
(dp3784
g62
(dp3785
g70
I3
ssg71
g3779
sg64
(lp3786
S'Scott'
p3787
asbasbasbag57
(g73
g59
NtRp3788
(dp3789
g62
(dp3790
sg71
g3697
sg64
(lp3791
g57
(g78
g59
NtRp3792
(dp3793
g62
(dp3794
g82
g83
ssg71
g3788
sg64
(lp3795
S'password'
p3796
asbag57
(g78
g59
NtRp3797
(dp3798
g62
(dp3799
g89
g90
ssg71
g3788
sg64
(lp3800
S':'
asbag57
(g78
g59
NtRp3801
(dp3802
g62
(dp3803
sg71
g3788
sg64
(lp3804
g57
(g58
g59
NtRp3805
(dp3806
g62
(dp3807
g70
I3
ssg71
g3801
sg64
(lp3808
S'6fb48d01a3959846ba0fe062b1789f17d9cf3d34d3ec5aa948f598bbf4387cb10eb60c797988f41dfea97ee691b338dd77413d430229e401cf7c84e6cd9c4458'
p3809
asbasbasbag57
(g73
g59
NtRp3810
(dp3811
g62
(dp3812
sg71
g3697
sg64
(lp3813
g57
(g78
g59
NtRp3814
(dp3815
g62
(dp3816
g82
g83
ssg71
g3810
sg64
(lp3817
S'registration_key'
p3818
asbag57
(g78
g59
NtRp3819
(dp3820
g62
(dp3821
g89
g90
ssg71
g3810
sg64
(lp3822
S':'
asbag57
(g78
g59
NtRp3823
(dp3824
g62
(dp3825
sg71
g3810
sg64
(lp3826
g57
(g58
g59
NtRp3827
(dp3828
g62
(dp3829
g70
I3
ssg71
g3823
sg64
(lp3830
S''
asbasbasbag57
(g73
g59
NtRp3831
(dp3832
g62
(dp3833
sg71
g3697
sg64
(lp3834
g57
(g78
g59
NtRp3835
(dp3836
g62
(dp3837
g82
g83
ssg71
g3831
sg64
(lp3838
S'reset_password_key'
p3839
asbag57
(g78
g59
NtRp3840
(dp3841
g62
(dp3842
g89
g90
ssg71
g3831
sg64
(lp3843
S':'
asbag57
(g78
g59
NtRp3844
(dp3845
g62
(dp3846
sg71
g3831
sg64
(lp3847
g57
(g58
g59
NtRp3848
(dp3849
g62
(dp3850
g70
I3
ssg71
g3844
sg64
(lp3851
S''
asbasbasbasbasbasbasbasbasbasbasbag57
(g73
g59
NtRp3852
(dp3853
g62
(dp3854
sg71
g3560
sg64
(lp3855
g57
(g78
g59
NtRp3856
(dp3857
g62
(dp3858
g82
g83
ssg71
g3852
sg64
(lp3859
S'last_query'
p3860
asbag57
(g78
g59
NtRp3861
(dp3862
g62
(dp3863
g89
g90
ssg71
g3852
sg64
(lp3864
S':'
asbag57
(g78
g59
NtRp3865
(dp3866
g62
(dp3867
sg71
g3852
sg64
(lp3868
g57
(g58
g59
NtRp3869
(dp3870
g62
(dp3871
g70
I5
ssg71
g3865
sg64
(lp3872
S'db.works.id>0'
p3873
asbasbasbasbasbsS'etype'
p3874
S"<type 'exceptions.IndexError'>"
p3875
sS'date'
p3876
S'Thu Jan 12 16:34:16 2012'
p3877
sS'response'
p3878
g57
(g58
g59
NtRp3879
(dp3880
g62
(dp3881
sg64
(lp3882
g57
(g66
g59
NtRp3883
(dp3884
g62
(dp3885
g70
I5
ssg71
Nsg64
(lp3886
g57
(g73
g59
NtRp3887
(dp3888
g62
(dp3889
sg71
g3883
sg64
(lp3890
g57
(g78
g59
NtRp3891
(dp3892
g62
(dp3893
g82
g83
ssg71
g3887
sg64
(lp3894
g245
asbag57
(g78
g59
NtRp3895
(dp3896
g62
(dp3897
g89
g90
ssg71
g3887
sg64
(lp3898
S':'
asbag57
(g78
g59
NtRp3899
(dp3900
g62
(dp3901
sg71
g3887
sg64
(lp3902
g57
(g58
g59
NtRp3903
(dp3904
g62
(dp3905
g70
I5
ssg71
g3899
sg64
(lp3906
S'<cStringIO.StringO object at 0x3e6b0d8>'
p3907
asbasbasbag57
(g73
g59
NtRp3908
(dp3909
g62
(dp3910
sg71
g3883
sg64
(lp3911
g57
(g78
g59
NtRp3912
(dp3913
g62
(dp3914
g82
g83
ssg71
g3908
sg64
(lp3915
g333
asbag57
(g78
g59
NtRp3916
(dp3917
g62
(dp3918
g89
g90
ssg71
g3908
sg64
(lp3919
S':'
asbag57
(g78
g59
NtRp3920
(dp3921
g62
(dp3922
sg71
g3908
sg64
(lp3923
g57
(g58
g59
NtRp3924
(dp3925
g62
(dp3926
g70
I5
ssg71
g3920
sg64
(lp3927
g57
(g66
g59
NtRp3928
(dp3929
g62
(dp3930
g70
I4
ssg71
Nsg64
(lp3931
g57
(g73
g59
NtRp3932
(dp3933
g62
(dp3934
sg71
g3928
sg64
(lp3935
g57
(g78
g59
NtRp3936
(dp3937
g62
(dp3938
g82
g83
ssg71
g3932
sg64
(lp3939
S'session_id_topoi'
p3940
asbag57
(g78
g59
NtRp3941
(dp3942
g62
(dp3943
g89
g90
ssg71
g3932
sg64
(lp3944
S':'
asbag57
(g78
g59
NtRp3945
(dp3946
g62
(dp3947
sg71
g3932
sg64
(lp3948
g57
(g58
g59
NtRp3949
(dp3950
g62
(dp3951
g70
I4
ssg71
g3945
sg64
(lp3952
g57
(g66
g59
NtRp3953
(dp3954
g62
(dp3955
g70
I3
ssg71
Nsg64
(lp3956
g57
(g73
g59
NtRp3957
(dp3958
g62
(dp3959
sg71
g3953
sg64
(lp3960
g57
(g78
g59
NtRp3961
(dp3962
g62
(dp3963
g82
g83
ssg71
g3957
sg64
(lp3964
g383
asbag57
(g78
g59
NtRp3965
(dp3966
g62
(dp3967
g89
g90
ssg71
g3957
sg64
(lp3968
S':'
asbag57
(g78
g59
NtRp3969
(dp3970
g62
(dp3971
sg71
g3957
sg64
(lp3972
g57
(g58
g59
NtRp3973
(dp3974
g62
(dp3975
g70
I3
ssg71
g3969
sg64
(lp3976
S''
asbasbasbag57
(g73
g59
NtRp3977
(dp3978
g62
(dp3979
sg71
g3953
sg64
(lp3980
g57
(g78
g59
NtRp3981
(dp3982
g62
(dp3983
g82
g83
ssg71
g3977
sg64
(lp3984
g404
asbag57
(g78
g59
NtRp3985
(dp3986
g62
(dp3987
g89
g90
ssg71
g3977
sg64
(lp3988
S':'
asbag57
(g78
g59
NtRp3989
(dp3990
g62
(dp3991
sg71
g3977
sg64
(lp3992
g57
(g58
g59
NtRp3993
(dp3994
g62
(dp3995
g70
I3
ssg71
g3989
sg64
(lp3996
S''
asbasbasbag57
(g73
g59
NtRp3997
(dp3998
g62
(dp3999
sg71
g3953
sg64
(lp4000
g57
(g78
g59
NtRp4001
(dp4002
g62
(dp4003
g82
g83
ssg71
g3997
sg64
(lp4004
g425
asbag57
(g78
g59
NtRp4005
(dp4006
g62
(dp4007
g89
g90
ssg71
g3997
sg64
(lp4008
S':'
asbag57
(g78
g59
NtRp4009
(dp4010
g62
(dp4011
sg71
g3997
sg64
(lp4012
g57
(g58
g59
NtRp4013
(dp4014
g62
(dp4015
g70
I3
ssg71
g4009
sg64
(lp4016
S'2592000'
p4017
asbasbasbag57
(g73
g59
NtRp4018
(dp4019
g62
(dp4020
sg71
g3953
sg64
(lp4021
g57
(g78
g59
NtRp4022
(dp4023
g62
(dp4024
g82
g83
ssg71
g4018
sg64
(lp4025
g446
asbag57
(g78
g59
NtRp4026
(dp4027
g62
(dp4028
g89
g90
ssg71
g4018
sg64
(lp4029
S':'
asbag57
(g78
g59
NtRp4030
(dp4031
g62
(dp4032
sg71
g4018
sg64
(lp4033
g57
(g58
g59
NtRp4034
(dp4035
g62
(dp4036
g70
I3
ssg71
g4030
sg64
(lp4037
S''
asbasbasbag57
(g73
g59
NtRp4038
(dp4039
g62
(dp4040
sg71
g3953
sg64
(lp4041
g57
(g78
g59
NtRp4042
(dp4043
g62
(dp4044
g82
g83
ssg71
g4038
sg64
(lp4045
g467
asbag57
(g78
g59
NtRp4046
(dp4047
g62
(dp4048
g89
g90
ssg71
g4038
sg64
(lp4049
S':'
asbag57
(g78
g59
NtRp4050
(dp4051
g62
(dp4052
sg71
g4038
sg64
(lp4053
g57
(g58
g59
NtRp4054
(dp4055
g62
(dp4056
g70
I3
ssg71
g4050
sg64
(lp4057
S''
asbasbasbag57
(g73
g59
NtRp4058
(dp4059
g62
(dp4060
sg71
g3953
sg64
(lp4061
g57
(g78
g59
NtRp4062
(dp4063
g62
(dp4064
g82
g83
ssg71
g4058
sg64
(lp4065
g488
asbag57
(g78
g59
NtRp4066
(dp4067
g62
(dp4068
g89
g90
ssg71
g4058
sg64
(lp4069
S':'
asbag57
(g78
g59
NtRp4070
(dp4071
g62
(dp4072
sg71
g4058
sg64
(lp4073
g57
(g58
g59
NtRp4074
(dp4075
g62
(dp4076
g70
I3
ssg71
g4070
sg64
(lp4077
S'/'
asbasbasbag57
(g73
g59
NtRp4078
(dp4079
g62
(dp4080
sg71
g3953
sg64
(lp4081
g57
(g78
g59
NtRp4082
(dp4083
g62
(dp4084
g82
g83
ssg71
g4078
sg64
(lp4085
g509
asbag57
(g78
g59
NtRp4086
(dp4087
g62
(dp4088
g89
g90
ssg71
g4078
sg64
(lp4089
S':'
asbag57
(g78
g59
NtRp4090
(dp4091
g62
(dp4092
sg71
g4078
sg64
(lp4093
g57
(g58
g59
NtRp4094
(dp4095
g62
(dp4096
g70
I3
ssg71
g4090
sg64
(lp4097
S''
asbasbasbag57
(g73
g59
NtRp4098
(dp4099
g62
(dp4100
sg71
g3953
sg64
(lp4101
g57
(g78
g59
NtRp4102
(dp4103
g62
(dp4104
g82
g83
ssg71
g4098
sg64
(lp4105
g530
asbag57
(g78
g59
NtRp4106
(dp4107
g62
(dp4108
g89
g90
ssg71
g4098
sg64
(lp4109
S':'
asbag57
(g78
g59
NtRp4110
(dp4111
g62
(dp4112
sg71
g4098
sg64
(lp4113
g57
(g58
g59
NtRp4114
(dp4115
g62
(dp4116
g70
I3
ssg71
g4110
sg64
(lp4117
S''
asbasbasbasbasbasbasbasbasbasbasbag57
(g73
g59
NtRp4118
(dp4119
g62
(dp4120
sg71
g3883
sg64
(lp4121
g57
(g78
g59
NtRp4122
(dp4123
g62
(dp4124
g82
g83
ssg71
g4118
sg64
(lp4125
S'files'
p4126
asbag57
(g78
g59
NtRp4127
(dp4128
g62
(dp4129
g89
g90
ssg71
g4118
sg64
(lp4130
S':'
asbag57
(g78
g59
NtRp4131
(dp4132
g62
(dp4133
sg71
g4118
sg64
(lp4134
g57
(g58
g59
NtRp4135
(dp4136
g62
(dp4137
g70
I5
ssg71
g4131
sg64
(lp4138
g57
(g66
g59
NtRp4139
(dp4140
g62
(dp4141
g70
I4
ssg71
Nsg64
(lp4142
sbasbasbasbag57
(g73
g59
NtRp4143
(dp4144
g62
(dp4145
sg71
g3883
sg64
(lp4146
g57
(g78
g59
NtRp4147
(dp4148
g62
(dp4149
g82
g83
ssg71
g4143
sg64
(lp4150
S'flash'
p4151
asbag57
(g78
g59
NtRp4152
(dp4153
g62
(dp4154
g89
g90
ssg71
g4143
sg64
(lp4155
S':'
asbag57
(g78
g59
NtRp4156
(dp4157
g62
(dp4158
sg71
g4143
sg64
(lp4159
g57
(g58
g59
NtRp4160
(dp4161
g62
(dp4162
g70
I5
ssg71
g4156
sg64
(lp4163
S''
asbasbasbag57
(g73
g59
NtRp4164
(dp4165
g62
(dp4166
sg71
g3883
sg64
(lp4167
g57
(g78
g59
NtRp4168
(dp4169
g62
(dp4170
g82
g83
ssg71
g4164
sg64
(lp4171
S'generic_patterns'
p4172
asbag57
(g78
g59
NtRp4173
(dp4174
g62
(dp4175
g89
g90
ssg71
g4164
sg64
(lp4176
S':'
asbag57
(g78
g59
NtRp4177
(dp4178
g62
(dp4179
sg71
g4164
sg64
(lp4180
g57
(g58
g59
NtRp4181
(dp4182
g62
(dp4183
g70
I5
ssg71
g4177
sg64
(lp4184
g57
(g66
g59
NtRp4185
(dp4186
g62
(dp4187
g70
I4
ssg71
Nsg64
(lp4188
g57
(g73
g59
NtRp4189
(dp4190
g62
(dp4191
sg71
g4185
sg64
(lp4192
g57
(g78
g59
NtRp4193
(dp4194
g62
(dp4195
sg71
g4189
sg64
(lp4196
g57
(g58
g59
NtRp4197
(dp4198
g62
(dp4199
g70
I4
ssg71
g4193
sg64
(lp4200
S'*'
asbasbasbasbasbasbasbag57
(g73
g59
NtRp4201
(dp4202
g62
(dp4203
sg71
g3883
sg64
(lp4204
g57
(g78
g59
NtRp4205
(dp4206
g62
(dp4207
g82
g83
ssg71
g4201
sg64
(lp4208
S'headers'
p4209
asbag57
(g78
g59
NtRp4210
(dp4211
g62
(dp4212
g89
g90
ssg71
g4201
sg64
(lp4213
S':'
asbag57
(g78
g59
NtRp4214
(dp4215
g62
(dp4216
sg71
g4201
sg64
(lp4217
g57
(g58
g59
NtRp4218
(dp4219
g62
(dp4220
g70
I5
ssg71
g4214
sg64
(lp4221
g57
(g66
g59
NtRp4222
(dp4223
g62
(dp4224
g70
I4
ssg71
Nsg64
(lp4225
g57
(g73
g59
NtRp4226
(dp4227
g62
(dp4228
sg71
g4222
sg64
(lp4229
g57
(g78
g59
NtRp4230
(dp4231
g62
(dp4232
g82
g83
ssg71
g4226
sg64
(lp4233
S'Cache-Control'
p4234
asbag57
(g78
g59
NtRp4235
(dp4236
g62
(dp4237
g89
g90
ssg71
g4226
sg64
(lp4238
S':'
asbag57
(g78
g59
NtRp4239
(dp4240
g62
(dp4241
sg71
g4226
sg64
(lp4242
g57
(g58
g59
NtRp4243
(dp4244
g62
(dp4245
g70
I4
ssg71
g4239
sg64
(lp4246
S'no-store, no-cache, must-revalidate, post-check=0, pre-check=0'
p4247
asbasbasbag57
(g73
g59
NtRp4248
(dp4249
g62
(dp4250
sg71
g4222
sg64
(lp4251
g57
(g78
g59
NtRp4252
(dp4253
g62
(dp4254
g82
g83
ssg71
g4248
sg64
(lp4255
S'Content-Type'
p4256
asbag57
(g78
g59
NtRp4257
(dp4258
g62
(dp4259
g89
g90
ssg71
g4248
sg64
(lp4260
S':'
asbag57
(g78
g59
NtRp4261
(dp4262
g62
(dp4263
sg71
g4248
sg64
(lp4264
g57
(g58
g59
NtRp4265
(dp4266
g62
(dp4267
g70
I4
ssg71
g4261
sg64
(lp4268
S'text/html; charset=utf-8'
p4269
asbasbasbag57
(g73
g59
NtRp4270
(dp4271
g62
(dp4272
sg71
g4222
sg64
(lp4273
g57
(g78
g59
NtRp4274
(dp4275
g62
(dp4276
g82
g83
ssg71
g4270
sg64
(lp4277
S'Expires'
p4278
asbag57
(g78
g59
NtRp4279
(dp4280
g62
(dp4281
g89
g90
ssg71
g4270
sg64
(lp4282
S':'
asbag57
(g78
g59
NtRp4283
(dp4284
g62
(dp4285
sg71
g4270
sg64
(lp4286
g57
(g58
g59
NtRp4287
(dp4288
g62
(dp4289
g70
I4
ssg71
g4283
sg64
(lp4290
S'Thu, 12 Jan 2012 21:34:16 GMT'
p4291
asbasbasbag57
(g73
g59
NtRp4292
(dp4293
g62
(dp4294
sg71
g4222
sg64
(lp4295
g57
(g78
g59
NtRp4296
(dp4297
g62
(dp4298
g82
g83
ssg71
g4292
sg64
(lp4299
S'Pragma'
p4300
asbag57
(g78
g59
NtRp4301
(dp4302
g62
(dp4303
g89
g90
ssg71
g4292
sg64
(lp4304
S':'
asbag57
(g78
g59
NtRp4305
(dp4306
g62
(dp4307
sg71
g4292
sg64
(lp4308
g57
(g58
g59
NtRp4309
(dp4310
g62
(dp4311
g70
I4
ssg71
g4305
sg64
(lp4312
S'no-cache'
p4313
asbasbasbag57
(g73
g59
NtRp4314
(dp4315
g62
(dp4316
sg71
g4222
sg64
(lp4317
g57
(g78
g59
NtRp4318
(dp4319
g62
(dp4320
g82
g83
ssg71
g4314
sg64
(lp4321
S'X-Powered-By'
p4322
asbag57
(g78
g59
NtRp4323
(dp4324
g62
(dp4325
g89
g90
ssg71
g4314
sg64
(lp4326
S':'
asbag57
(g78
g59
NtRp4327
(dp4328
g62
(dp4329
sg71
g4314
sg64
(lp4330
g57
(g58
g59
NtRp4331
(dp4332
g62
(dp4333
g70
I4
ssg71
g4327
sg64
(lp4334
S'web2py'
p4335
asbasbasbasbasbasbasbag57
(g73
g59
NtRp4336
(dp4337
g62
(dp4338
sg71
g3883
sg64
(lp4339
g57
(g78
g59
NtRp4340
(dp4341
g62
(dp4342
g82
g83
ssg71
g4336
sg64
(lp4343
S'menu'
p4344
asbag57
(g78
g59
NtRp4345
(dp4346
g62
(dp4347
g89
g90
ssg71
g4336
sg64
(lp4348
S':'
asbag57
(g78
g59
NtRp4349
(dp4350
g62
(dp4351
sg71
g4336
sg64
(lp4352
g57
(g58
g59
NtRp4353
(dp4354
g62
(dp4355
g70
I5
ssg71
g4349
sg64
(lp4356
g57
(g66
g59
NtRp4357
(dp4358
g62
(dp4359
g70
I4
ssg71
Nsg64
(lp4360
g57
(g73
g59
NtRp4361
(dp4362
g62
(dp4363
sg71
g4357
sg64
(lp4364
g57
(g78
g59
NtRp4365
(dp4366
g62
(dp4367
sg71
g4361
sg64
(lp4368
g57
(g58
g59
NtRp4369
(dp4370
g62
(dp4371
g70
I4
ssg71
g4365
sg64
(lp4372
g57
(g66
g59
NtRp4373
(dp4374
g62
(dp4375
g70
I3
ssg71
Nsg64
(lp4376
g57
(g73
g59
NtRp4377
(dp4378
g62
(dp4379
sg71
g4373
sg64
(lp4380
g57
(g78
g59
NtRp4381
(dp4382
g62
(dp4383
sg71
g4377
sg64
(lp4384
g57
(g58
g59
NtRp4385
(dp4386
g62
(dp4387
g70
I3
ssg71
g4381
sg64
(lp4388
cgluon.languages
lazyT_unpickle
p4389
(S't\x04\x00\x00\x00Home'
tRp4390
asbasbasbag57
(g73
g59
NtRp4391
(dp4392
g62
(dp4393
sg71
g4373
sg64
(lp4394
g57
(g78
g59
NtRp4395
(dp4396
g62
(dp4397
sg71
g4391
sg64
(lp4398
g57
(g58
g59
NtRp4399
(dp4400
g62
(dp4401
g70
I3
ssg71
g4395
sg64
(lp4402
g1257
asbasbasbag57
(g73
g59
NtRp4403
(dp4404
g62
(dp4405
sg71
g4373
sg64
(lp4406
g57
(g78
g59
NtRp4407
(dp4408
g62
(dp4409
sg71
g4403
sg64
(lp4410
g57
(g58
g59
NtRp4411
(dp4412
g62
(dp4413
g70
I3
ssg71
g4407
sg64
(lp4414
S'/topoi/default/index.load'
p4415
asbasbasbag57
(g73
g59
NtRp4416
(dp4417
g62
(dp4418
sg71
g4373
sg64
(lp4419
g57
(g78
g59
NtRp4420
(dp4421
g62
(dp4422
sg71
g4416
sg64
(lp4423
g57
(g58
g59
NtRp4424
(dp4425
g62
(dp4426
g70
I3
ssg71
g4420
sg64
(lp4427
g57
(g66
g59
NtRp4428
(dp4429
g62
(dp4430
g70
I2
ssg71
Nsg64
(lp4431
sbasbasbasbasbasbasbasbag57
(g73
g59
NtRp4432
(dp4433
g62
(dp4434
sg71
g4357
sg64
(lp4435
g57
(g78
g59
NtRp4436
(dp4437
g62
(dp4438
sg71
g4432
sg64
(lp4439
g57
(g58
g59
NtRp4440
(dp4441
g62
(dp4442
g70
I4
ssg71
g4436
sg64
(lp4443
g57
(g66
g59
NtRp4444
(dp4445
g62
(dp4446
g70
I3
ssg71
Nsg64
(lp4447
g57
(g73
g59
NtRp4448
(dp4449
g62
(dp4450
sg71
g4444
sg64
(lp4451
g57
(g78
g59
NtRp4452
(dp4453
g62
(dp4454
sg71
g4448
sg64
(lp4455
g57
(g58
g59
NtRp4456
(dp4457
g62
(dp4458
g70
I3
ssg71
g4452
sg64
(lp4459
g4389
(S't\x01\x00\x00\x00S'
tRp4460
asbasbasbag57
(g73
g59
NtRp4461
(dp4462
g62
(dp4463
sg71
g4444
sg64
(lp4464
g57
(g78
g59
NtRp4465
(dp4466
g62
(dp4467
sg71
g4461
sg64
(lp4468
g57
(g58
g59
NtRp4469
(dp4470
g62
(dp4471
g70
I3
ssg71
g4465
sg64
(lp4472
g1257
asbasbasbag57
(g73
g59
NtRp4473
(dp4474
g62
(dp4475
sg71
g4444
sg64
(lp4476
g57
(g78
g59
NtRp4477
(dp4478
g62
(dp4479
sg71
g4473
sg64
(lp4480
g57
(g58
g59
NtRp4481
(dp4482
g62
(dp4483
g70
I3
ssg71
g4477
sg64
(lp4484
S'/admin/default/design/topoi.load'
p4485
asbasbasbag57
(g73
g59
NtRp4486
(dp4487
g62
(dp4488
sg71
g4444
sg64
(lp4489
g57
(g78
g59
NtRp4490
(dp4491
g62
(dp4492
sg71
g4486
sg64
(lp4493
g57
(g58
g59
NtRp4494
(dp4495
g62
(dp4496
g70
I3
ssg71
g4490
sg64
(lp4497
g57
(g66
g59
NtRp4498
(dp4499
g62
(dp4500
g70
I2
ssg71
Nsg64
(lp4501
g57
(g73
g59
NtRp4502
(dp4503
g62
(dp4504
sg71
g4498
sg64
(lp4505
g57
(g78
g59
NtRp4506
(dp4507
g62
(dp4508
sg71
g4502
sg64
(lp4509
g57
(g58
g59
NtRp4510
(dp4511
g62
(dp4512
g70
I2
ssg71
g4506
sg64
(lp4513
g57
(g66
g59
NtRp4514
(dp4515
g62
(dp4516
g70
I1
ssg71
Nsg64
(lp4517
g57
(g73
g59
NtRp4518
(dp4519
g62
(dp4520
sg71
g4514
sg64
(lp4521
g57
(g78
g59
NtRp4522
(dp4523
g62
(dp4524
sg71
g4518
sg64
(lp4525
g57
(g58
g59
NtRp4526
(dp4527
g62
(dp4528
g70
I1
ssg71
g4522
sg64
(lp4529
g4389
(S't\n\x00\x00\x00Controller'
tRp4530
asbasbasbag57
(g73
g59
NtRp4531
(dp4532
g62
(dp4533
sg71
g4514
sg64
(lp4534
g57
(g78
g59
NtRp4535
(dp4536
g62
(dp4537
sg71
g4531
sg64
(lp4538
g57
(g58
g59
NtRp4539
(dp4540
g62
(dp4541
g70
I1
ssg71
g4535
sg64
(lp4542
I00
asbasbasbag57
(g73
g59
NtRp4543
(dp4544
g62
(dp4545
sg71
g4514
sg64
(lp4546
g57
(g78
g59
NtRp4547
(dp4548
g62
(dp4549
sg71
g4543
sg64
(lp4550
g57
(g58
g59
NtRp4551
(dp4552
g62
(dp4553
g70
I1
ssg71
g4547
sg64
(lp4554
S'/admin/default/edit/topoi/controllers/plugin_ajaxselect.py'
p4555
asbasbasbasbasbasbasbag57
(g73
g59
NtRp4556
(dp4557
g62
(dp4558
sg71
g4498
sg64
(lp4559
g57
(g78
g59
NtRp4560
(dp4561
g62
(dp4562
sg71
g4556
sg64
(lp4563
g57
(g58
g59
NtRp4564
(dp4565
g62
(dp4566
g70
I2
ssg71
g4560
sg64
(lp4567
g57
(g66
g59
NtRp4568
(dp4569
g62
(dp4570
g70
I1
ssg71
Nsg64
(lp4571
g57
(g73
g59
NtRp4572
(dp4573
g62
(dp4574
sg71
g4568
sg64
(lp4575
g57
(g78
g59
NtRp4576
(dp4577
g62
(dp4578
sg71
g4572
sg64
(lp4579
g57
(g58
g59
NtRp4580
(dp4581
g62
(dp4582
g70
I1
ssg71
g4576
sg64
(lp4583
g4389
(S't\x04\x00\x00\x00View'
tRp4584
asbasbasbag57
(g73
g59
NtRp4585
(dp4586
g62
(dp4587
sg71
g4568
sg64
(lp4588
g57
(g78
g59
NtRp4589
(dp4590
g62
(dp4591
sg71
g4585
sg64
(lp4592
g57
(g58
g59
NtRp4593
(dp4594
g62
(dp4595
g70
I1
ssg71
g4589
sg64
(lp4596
I00
asbasbasbag57
(g73
g59
NtRp4597
(dp4598
g62
(dp4599
sg71
g4568
sg64
(lp4600
g57
(g78
g59
NtRp4601
(dp4602
g62
(dp4603
sg71
g4597
sg64
(lp4604
g57
(g58
g59
NtRp4605
(dp4606
g62
(dp4607
g70
I1
ssg71
g4601
sg64
(lp4608
S'/admin/default/edit/topoi/views/plugin_ajaxselect/set_widget.load'
p4609
asbasbasbasbasbasbasbag57
(g73
g59
NtRp4610
(dp4611
g62
(dp4612
sg71
g4498
sg64
(lp4613
g57
(g78
g59
NtRp4614
(dp4615
g62
(dp4616
sg71
g4610
sg64
(lp4617
g57
(g58
g59
NtRp4618
(dp4619
g62
(dp4620
g70
I2
ssg71
g4614
sg64
(lp4621
g57
(g66
g59
NtRp4622
(dp4623
g62
(dp4624
g70
I1
ssg71
Nsg64
(lp4625
g57
(g73
g59
NtRp4626
(dp4627
g62
(dp4628
sg71
g4622
sg64
(lp4629
g57
(g78
g59
NtRp4630
(dp4631
g62
(dp4632
sg71
g4626
sg64
(lp4633
g57
(g58
g59
NtRp4634
(dp4635
g62
(dp4636
g70
I1
ssg71
g4630
sg64
(lp4637
g4389
(S't\x06\x00\x00\x00Layout'
tRp4638
asbasbasbag57
(g73
g59
NtRp4639
(dp4640
g62
(dp4641
sg71
g4622
sg64
(lp4642
g57
(g78
g59
NtRp4643
(dp4644
g62
(dp4645
sg71
g4639
sg64
(lp4646
g57
(g58
g59
NtRp4647
(dp4648
g62
(dp4649
g70
I1
ssg71
g4643
sg64
(lp4650
I00
asbasbasbag57
(g73
g59
NtRp4651
(dp4652
g62
(dp4653
sg71
g4622
sg64
(lp4654
g57
(g78
g59
NtRp4655
(dp4656
g62
(dp4657
sg71
g4651
sg64
(lp4658
g57
(g58
g59
NtRp4659
(dp4660
g62
(dp4661
g70
I1
ssg71
g4655
sg64
(lp4662
S'/admin/default/edit/topoi/views/layout.html'
p4663
asbasbasbasbasbasbasbag57
(g73
g59
NtRp4664
(dp4665
g62
(dp4666
sg71
g4498
sg64
(lp4667
g57
(g78
g59
NtRp4668
(dp4669
g62
(dp4670
sg71
g4664
sg64
(lp4671
g57
(g58
g59
NtRp4672
(dp4673
g62
(dp4674
g70
I2
ssg71
g4668
sg64
(lp4675
g57
(g66
g59
NtRp4676
(dp4677
g62
(dp4678
g70
I1
ssg71
Nsg64
(lp4679
g57
(g73
g59
NtRp4680
(dp4681
g62
(dp4682
sg71
g4676
sg64
(lp4683
g57
(g78
g59
NtRp4684
(dp4685
g62
(dp4686
sg71
g4680
sg64
(lp4687
g57
(g58
g59
NtRp4688
(dp4689
g62
(dp4690
g70
I1
ssg71
g4684
sg64
(lp4691
g4389
(S't\n\x00\x00\x00Stylesheet'
tRp4692
asbasbasbag57
(g73
g59
NtRp4693
(dp4694
g62
(dp4695
sg71
g4676
sg64
(lp4696
g57
(g78
g59
NtRp4697
(dp4698
g62
(dp4699
sg71
g4693
sg64
(lp4700
g57
(g58
g59
NtRp4701
(dp4702
g62
(dp4703
g70
I1
ssg71
g4697
sg64
(lp4704
I00
asbasbasbag57
(g73
g59
NtRp4705
(dp4706
g62
(dp4707
sg71
g4676
sg64
(lp4708
g57
(g78
g59
NtRp4709
(dp4710
g62
(dp4711
sg71
g4705
sg64
(lp4712
g57
(g58
g59
NtRp4713
(dp4714
g62
(dp4715
g70
I1
ssg71
g4709
sg64
(lp4716
S'/admin/default/edit/topoi/static/base.css'
p4717
asbasbasbasbasbasbasbag57
(g73
g59
NtRp4718
(dp4719
g62
(dp4720
sg71
g4498
sg64
(lp4721
g57
(g78
g59
NtRp4722
(dp4723
g62
(dp4724
sg71
g4718
sg64
(lp4725
g57
(g58
g59
NtRp4726
(dp4727
g62
(dp4728
g70
I2
ssg71
g4722
sg64
(lp4729
g57
(g66
g59
NtRp4730
(dp4731
g62
(dp4732
g70
I1
ssg71
Nsg64
(lp4733
g57
(g73
g59
NtRp4734
(dp4735
g62
(dp4736
sg71
g4730
sg64
(lp4737
g57
(g78
g59
NtRp4738
(dp4739
g62
(dp4740
sg71
g4734
sg64
(lp4741
g57
(g58
g59
NtRp4742
(dp4743
g62
(dp4744
g70
I1
ssg71
g4738
sg64
(lp4745
g4389
(S's\x08\x00\x00\x00DB Model'
tRp4746
asbasbasbag57
(g73
g59
NtRp4747
(dp4748
g62
(dp4749
sg71
g4730
sg64
(lp4750
g57
(g78
g59
NtRp4751
(dp4752
g62
(dp4753
sg71
g4747
sg64
(lp4754
g57
(g58
g59
NtRp4755
(dp4756
g62
(dp4757
g70
I1
ssg71
g4751
sg64
(lp4758
I00
asbasbasbag57
(g73
g59
NtRp4759
(dp4760
g62
(dp4761
sg71
g4730
sg64
(lp4762
g57
(g78
g59
NtRp4763
(dp4764
g62
(dp4765
sg71
g4759
sg64
(lp4766
g57
(g58
g59
NtRp4767
(dp4768
g62
(dp4769
g70
I1
ssg71
g4763
sg64
(lp4770
S'/admin/default/edit/topoi/models/db.py'
p4771
asbasbasbasbasbasbasbag57
(g73
g59
NtRp4772
(dp4773
g62
(dp4774
sg71
g4498
sg64
(lp4775
g57
(g78
g59
NtRp4776
(dp4777
g62
(dp4778
sg71
g4772
sg64
(lp4779
g57
(g58
g59
NtRp4780
(dp4781
g62
(dp4782
g70
I2
ssg71
g4776
sg64
(lp4783
g57
(g66
g59
NtRp4784
(dp4785
g62
(dp4786
g70
I1
ssg71
Nsg64
(lp4787
g57
(g73
g59
NtRp4788
(dp4789
g62
(dp4790
sg71
g4784
sg64
(lp4791
g57
(g78
g59
NtRp4792
(dp4793
g62
(dp4794
sg71
g4788
sg64
(lp4795
g57
(g58
g59
NtRp4796
(dp4797
g62
(dp4798
g70
I1
ssg71
g4792
sg64
(lp4799
g4389
(S's\n\x00\x00\x00Menu Model'
tRp4800
asbasbasbag57
(g73
g59
NtRp4801
(dp4802
g62
(dp4803
sg71
g4784
sg64
(lp4804
g57
(g78
g59
NtRp4805
(dp4806
g62
(dp4807
sg71
g4801
sg64
(lp4808
g57
(g58
g59
NtRp4809
(dp4810
g62
(dp4811
g70
I1
ssg71
g4805
sg64
(lp4812
I00
asbasbasbag57
(g73
g59
NtRp4813
(dp4814
g62
(dp4815
sg71
g4784
sg64
(lp4816
g57
(g78
g59
NtRp4817
(dp4818
g62
(dp4819
sg71
g4813
sg64
(lp4820
g57
(g58
g59
NtRp4821
(dp4822
g62
(dp4823
g70
I1
ssg71
g4817
sg64
(lp4824
S'/admin/default/edit/topoi/models/menu.py'
p4825
asbasbasbasbasbasbasbag57
(g73
g59
NtRp4826
(dp4827
g62
(dp4828
sg71
g4498
sg64
(lp4829
g57
(g78
g59
NtRp4830
(dp4831
g62
(dp4832
sg71
g4826
sg64
(lp4833
g57
(g58
g59
NtRp4834
(dp4835
g62
(dp4836
g70
I2
ssg71
g4830
sg64
(lp4837
g57
(g66
g59
NtRp4838
(dp4839
g62
(dp4840
g70
I1
ssg71
Nsg64
(lp4841
g57
(g73
g59
NtRp4842
(dp4843
g62
(dp4844
sg71
g4838
sg64
(lp4845
g57
(g78
g59
NtRp4846
(dp4847
g62
(dp4848
sg71
g4842
sg64
(lp4849
g57
(g58
g59
NtRp4850
(dp4851
g62
(dp4852
g70
I1
ssg71
g4846
sg64
(lp4853
g4389
(S't\x08\x00\x00\x00Database'
tRp4854
asbasbasbag57
(g73
g59
NtRp4855
(dp4856
g62
(dp4857
sg71
g4838
sg64
(lp4858
g57
(g78
g59
NtRp4859
(dp4860
g62
(dp4861
sg71
g4855
sg64
(lp4862
g57
(g58
g59
NtRp4863
(dp4864
g62
(dp4865
g70
I1
ssg71
g4859
sg64
(lp4866
I00
asbasbasbag57
(g73
g59
NtRp4867
(dp4868
g62
(dp4869
sg71
g4838
sg64
(lp4870
g57
(g78
g59
NtRp4871
(dp4872
g62
(dp4873
sg71
g4867
sg64
(lp4874
g57
(g58
g59
NtRp4875
(dp4876
g62
(dp4877
g70
I1
ssg71
g4871
sg64
(lp4878
S'/topoi/appadmin/index.load'
p4879
asbasbasbasbasbasbasbag57
(g73
g59
NtRp4880
(dp4881
g62
(dp4882
sg71
g4498
sg64
(lp4883
g57
(g78
g59
NtRp4884
(dp4885
g62
(dp4886
sg71
g4880
sg64
(lp4887
g57
(g58
g59
NtRp4888
(dp4889
g62
(dp4890
g70
I2
ssg71
g4884
sg64
(lp4891
g57
(g66
g59
NtRp4892
(dp4893
g62
(dp4894
g70
I1
ssg71
Nsg64
(lp4895
g57
(g73
g59
NtRp4896
(dp4897
g62
(dp4898
sg71
g4892
sg64
(lp4899
g57
(g78
g59
NtRp4900
(dp4901
g62
(dp4902
sg71
g4896
sg64
(lp4903
g57
(g58
g59
NtRp4904
(dp4905
g62
(dp4906
g70
I1
ssg71
g4900
sg64
(lp4907
g4389
(S't\x06\x00\x00\x00Errors'
tRp4908
asbasbasbag57
(g73
g59
NtRp4909
(dp4910
g62
(dp4911
sg71
g4892
sg64
(lp4912
g57
(g78
g59
NtRp4913
(dp4914
g62
(dp4915
sg71
g4909
sg64
(lp4916
g57
(g58
g59
NtRp4917
(dp4918
g62
(dp4919
g70
I1
ssg71
g4913
sg64
(lp4920
I00
asbasbasbag57
(g73
g59
NtRp4921
(dp4922
g62
(dp4923
sg71
g4892
sg64
(lp4924
g57
(g78
g59
NtRp4925
(dp4926
g62
(dp4927
sg71
g4921
sg64
(lp4928
g57
(g58
g59
NtRp4929
(dp4930
g62
(dp4931
g70
I1
ssg71
g4925
sg64
(lp4932
S'/admin/default/errors/topoi.load'
p4933
asbasbasbasbasbasbasbag57
(g73
g59
NtRp4934
(dp4935
g62
(dp4936
sg71
g4498
sg64
(lp4937
g57
(g78
g59
NtRp4938
(dp4939
g62
(dp4940
sg71
g4934
sg64
(lp4941
g57
(g58
g59
NtRp4942
(dp4943
g62
(dp4944
g70
I2
ssg71
g4938
sg64
(lp4945
g57
(g66
g59
NtRp4946
(dp4947
g62
(dp4948
g70
I1
ssg71
Nsg64
(lp4949
g57
(g73
g59
NtRp4950
(dp4951
g62
(dp4952
sg71
g4946
sg64
(lp4953
g57
(g78
g59
NtRp4954
(dp4955
g62
(dp4956
sg71
g4950
sg64
(lp4957
g57
(g58
g59
NtRp4958
(dp4959
g62
(dp4960
g70
I1
ssg71
g4954
sg64
(lp4961
g4389
(S't\x05\x00\x00\x00About'
tRp4962
asbasbasbag57
(g73
g59
NtRp4963
(dp4964
g62
(dp4965
sg71
g4946
sg64
(lp4966
g57
(g78
g59
NtRp4967
(dp4968
g62
(dp4969
sg71
g4963
sg64
(lp4970
g57
(g58
g59
NtRp4971
(dp4972
g62
(dp4973
g70
I1
ssg71
g4967
sg64
(lp4974
I00
asbasbasbag57
(g73
g59
NtRp4975
(dp4976
g62
(dp4977
sg71
g4946
sg64
(lp4978
g57
(g78
g59
NtRp4979
(dp4980
g62
(dp4981
sg71
g4975
sg64
(lp4982
g57
(g58
g59
NtRp4983
(dp4984
g62
(dp4985
g70
I1
ssg71
g4979
sg64
(lp4986
S'/admin/default/about/topoi.load'
p4987
asbasbasbasbasbasbasbasbasbasbasbasbasbasbasbasbasbasbasbag57
(g73
g59
NtRp4988
(dp4989
g62
(dp4990
sg71
g3883
sg64
(lp4991
g57
(g78
g59
NtRp4992
(dp4993
g62
(dp4994
g82
g83
ssg71
g4988
sg64
(lp4995
S'meta'
p4996
asbag57
(g78
g59
NtRp4997
(dp4998
g62
(dp4999
g89
g90
ssg71
g4988
sg64
(lp5000
S':'
asbag57
(g78
g59
NtRp5001
(dp5002
g62
(dp5003
sg71
g4988
sg64
(lp5004
g57
(g58
g59
NtRp5005
(dp5006
g62
(dp5007
g70
I5
ssg71
g5001
sg64
(lp5008
g57
(g66
g59
NtRp5009
(dp5010
g62
(dp5011
g70
I4
ssg71
Nsg64
(lp5012
g57
(g73
g59
NtRp5013
(dp5014
g62
(dp5015
sg71
g5009
sg64
(lp5016
g57
(g78
g59
NtRp5017
(dp5018
g62
(dp5019
g82
g83
ssg71
g5013
sg64
(lp5020
S'author'
p5021
asbag57
(g78
g59
NtRp5022
(dp5023
g62
(dp5024
g89
g90
ssg71
g5013
sg64
(lp5025
S':'
asbag57
(g78
g59
NtRp5026
(dp5027
g62
(dp5028
sg71
g5013
sg64
(lp5029
g57
(g58
g59
NtRp5030
(dp5031
g62
(dp5032
g70
I4
ssg71
g5026
sg64
(lp5033
S'Ian W. Scott'
p5034
asbasbasbag57
(g73
g59
NtRp5035
(dp5036
g62
(dp5037
sg71
g5009
sg64
(lp5038
g57
(g78
g59
NtRp5039
(dp5040
g62
(dp5041
g82
g83
ssg71
g5035
sg64
(lp5042
S'copyright'
p5043
asbag57
(g78
g59
NtRp5044
(dp5045
g62
(dp5046
g89
g90
ssg71
g5035
sg64
(lp5047
S':'
asbag57
(g78
g59
NtRp5048
(dp5049
g62
(dp5050
sg71
g5035
sg64
(lp5051
g57
(g58
g59
NtRp5052
(dp5053
g62
(dp5054
g70
I4
ssg71
g5048
sg64
(lp5055
S'Copyright 2011'
p5056
asbasbasbag57
(g73
g59
NtRp5057
(dp5058
g62
(dp5059
sg71
g5009
sg64
(lp5060
g57
(g78
g59
NtRp5061
(dp5062
g62
(dp5063
g82
g83
ssg71
g5057
sg64
(lp5064
S'description'
p5065
asbag57
(g78
g59
NtRp5066
(dp5067
g62
(dp5068
g89
g90
ssg71
g5057
sg64
(lp5069
S':'
asbag57
(g78
g59
NtRp5070
(dp5071
g62
(dp5072
sg71
g5057
sg64
(lp5073
g57
(g58
g59
NtRp5074
(dp5075
g62
(dp5076
g70
I4
ssg71
g5070
sg64
(lp5077
S'A web-app for managing primary-text research in the humanities.'
p5078
asbasbasbag57
(g73
g59
NtRp5079
(dp5080
g62
(dp5081
sg71
g5009
sg64
(lp5082
g57
(g78
g59
NtRp5083
(dp5084
g62
(dp5085
g82
g83
ssg71
g5079
sg64
(lp5086
S'generator'
p5087
asbag57
(g78
g59
NtRp5088
(dp5089
g62
(dp5090
g89
g90
ssg71
g5079
sg64
(lp5091
S':'
asbag57
(g78
g59
NtRp5092
(dp5093
g62
(dp5094
sg71
g5079
sg64
(lp5095
g57
(g58
g59
NtRp5096
(dp5097
g62
(dp5098
g70
I4
ssg71
g5092
sg64
(lp5099
S'Web2py Enterprise Framework'
p5100
asbasbasbag57
(g73
g59
NtRp5101
(dp5102
g62
(dp5103
sg71
g5009
sg64
(lp5104
g57
(g78
g59
NtRp5105
(dp5106
g62
(dp5107
g82
g83
ssg71
g5101
sg64
(lp5108
S'keywords'
p5109
asbag57
(g78
g59
NtRp5110
(dp5111
g62
(dp5112
g89
g90
ssg71
g5101
sg64
(lp5113
S':'
asbag57
(g78
g59
NtRp5114
(dp5115
g62
(dp5116
sg71
g5101
sg64
(lp5117
g57
(g58
g59
NtRp5118
(dp5119
g62
(dp5120
g70
I4
ssg71
g5114
sg64
(lp5121
S'research, humanities, biblical'
p5122
asbasbasbasbasbasbasbag57
(g73
g59
NtRp5123
(dp5124
g62
(dp5125
sg71
g3883
sg64
(lp5126
g57
(g78
g59
NtRp5127
(dp5128
g62
(dp5129
g82
g83
ssg71
g5123
sg64
(lp5130
S'postprocessing'
p5131
asbag57
(g78
g59
NtRp5132
(dp5133
g62
(dp5134
g89
g90
ssg71
g5123
sg64
(lp5135
S':'
asbag57
(g78
g59
NtRp5136
(dp5137
g62
(dp5138
sg71
g5123
sg64
(lp5139
g57
(g58
g59
NtRp5140
(dp5141
g62
(dp5142
g70
I5
ssg71
g5136
sg64
(lp5143
g57
(g66
g59
NtRp5144
(dp5145
g62
(dp5146
g70
I4
ssg71
Nsg64
(lp5147
sbasbasbasbag57
(g73
g59
NtRp5148
(dp5149
g62
(dp5150
sg71
g3883
sg64
(lp5151
g57
(g78
g59
NtRp5152
(dp5153
g62
(dp5154
g82
g83
ssg71
g5148
sg64
(lp5155
S'session_file'
p5156
asbag57
(g78
g59
NtRp5157
(dp5158
g62
(dp5159
g89
g90
ssg71
g5148
sg64
(lp5160
S':'
asbag57
(g78
g59
NtRp5161
(dp5162
g62
(dp5163
sg71
g5148
sg64
(lp5164
g57
(g58
g59
NtRp5165
(dp5166
g62
(dp5167
g70
I5
ssg71
g5161
sg64
(lp5168
S"<open file '/home/ian/web2py/applications/topoi/sessions/127.0.0.1-fbfd7fa3-57f5-4d42-8f08-594178070e93', mode 'rb+' at 0x38beed0>"
p5169
asbasbasbag57
(g73
g59
NtRp5170
(dp5171
g62
(dp5172
sg71
g3883
sg64
(lp5173
g57
(g78
g59
NtRp5174
(dp5175
g62
(dp5176
g82
g83
ssg71
g5170
sg64
(lp5177
S'session_filename'
p5178
asbag57
(g78
g59
NtRp5179
(dp5180
g62
(dp5181
g89
g90
ssg71
g5170
sg64
(lp5182
S':'
asbag57
(g78
g59
NtRp5183
(dp5184
g62
(dp5185
sg71
g5170
sg64
(lp5186
g57
(g58
g59
NtRp5187
(dp5188
g62
(dp5189
g70
I5
ssg71
g5183
sg64
(lp5190
S'/home/ian/web2py/applications/topoi/sessions/127.0.0.1-fbfd7fa3-57f5-4d42-8f08-594178070e93'
p5191
asbasbasbag57
(g73
g59
NtRp5192
(dp5193
g62
(dp5194
sg71
g3883
sg64
(lp5195
g57
(g78
g59
NtRp5196
(dp5197
g62
(dp5198
g82
g83
ssg71
g5192
sg64
(lp5199
S'session_id'
p5200
asbag57
(g78
g59
NtRp5201
(dp5202
g62
(dp5203
g89
g90
ssg71
g5192
sg64
(lp5204
S':'
asbag57
(g78
g59
NtRp5205
(dp5206
g62
(dp5207
sg71
g5192
sg64
(lp5208
g57
(g58
g59
NtRp5209
(dp5210
g62
(dp5211
g70
I5
ssg71
g5205
sg64
(lp5212
S'127.0.0.1-fbfd7fa3-57f5-4d42-8f08-594178070e93'
p5213
asbasbasbag57
(g73
g59
NtRp5214
(dp5215
g62
(dp5216
sg71
g3883
sg64
(lp5217
g57
(g78
g59
NtRp5218
(dp5219
g62
(dp5220
g82
g83
ssg71
g5214
sg64
(lp5221
S'session_id_name'
p5222
asbag57
(g78
g59
NtRp5223
(dp5224
g62
(dp5225
g89
g90
ssg71
g5214
sg64
(lp5226
S':'
asbag57
(g78
g59
NtRp5227
(dp5228
g62
(dp5229
sg71
g5214
sg64
(lp5230
g57
(g58
g59
NtRp5231
(dp5232
g62
(dp5233
g70
I5
ssg71
g5227
sg64
(lp5234
g3940
asbasbasbag57
(g73
g59
NtRp5235
(dp5236
g62
(dp5237
sg71
g3883
sg64
(lp5238
g57
(g78
g59
NtRp5239
(dp5240
g62
(dp5241
g82
g83
ssg71
g5235
sg64
(lp5242
S'session_locked'
p5243
asbag57
(g78
g59
NtRp5244
(dp5245
g62
(dp5246
g89
g90
ssg71
g5235
sg64
(lp5247
S':'
asbag57
(g78
g59
NtRp5248
(dp5249
g62
(dp5250
sg71
g5235
sg64
(lp5251
g57
(g58
g59
NtRp5252
(dp5253
g62
(dp5254
g70
I5
ssg71
g5248
sg64
(lp5255
g100
asbasbasbag57
(g73
g59
NtRp5256
(dp5257
g62
(dp5258
sg71
g3883
sg64
(lp5259
g57
(g78
g59
NtRp5260
(dp5261
g62
(dp5262
g82
g83
ssg71
g5256
sg64
(lp5263
S'session_new'
p5264
asbag57
(g78
g59
NtRp5265
(dp5266
g62
(dp5267
g89
g90
ssg71
g5256
sg64
(lp5268
S':'
asbag57
(g78
g59
NtRp5269
(dp5270
g62
(dp5271
sg71
g5256
sg64
(lp5272
g57
(g58
g59
NtRp5273
(dp5274
g62
(dp5275
g70
I5
ssg71
g5269
sg64
(lp5276
g1257
asbasbasbag57
(g73
g59
NtRp5277
(dp5278
g62
(dp5279
sg71
g3883
sg64
(lp5280
g57
(g78
g59
NtRp5281
(dp5282
g62
(dp5283
g82
g83
ssg71
g5277
sg64
(lp5284
S'status'
p5285
asbag57
(g78
g59
NtRp5286
(dp5287
g62
(dp5288
g89
g90
ssg71
g5277
sg64
(lp5289
S':'
asbag57
(g78
g59
NtRp5290
(dp5291
g62
(dp5292
sg71
g5277
sg64
(lp5293
g57
(g58
g59
NtRp5294
(dp5295
g62
(dp5296
g70
I5
ssg71
g5290
sg64
(lp5297
S'200'
p5298
asbasbasbag57
(g73
g59
NtRp5299
(dp5300
g62
(dp5301
sg71
g3883
sg64
(lp5302
g57
(g78
g59
NtRp5303
(dp5304
g62
(dp5305
g82
g83
ssg71
g5299
sg64
(lp5306
S'subtitle'
p5307
asbag57
(g78
g59
NtRp5308
(dp5309
g62
(dp5310
g89
g90
ssg71
g5299
sg64
(lp5311
S':'
asbag57
(g78
g59
NtRp5312
(dp5313
g62
(dp5314
sg71
g5299
sg64
(lp5315
g57
(g58
g59
NtRp5316
(dp5317
g62
(dp5318
g70
I5
ssg71
g5312
sg64
(lp5319
g4389
(S's;\x00\x00\x00A tool for managing primary-text research in the humanities'
tRp5320
asbasbasbag57
(g73
g59
NtRp5321
(dp5322
g62
(dp5323
sg71
g3883
sg64
(lp5324
g57
(g78
g59
NtRp5325
(dp5326
g62
(dp5327
g82
g83
ssg71
g5321
sg64
(lp5328
S'title'
p5329
asbag57
(g78
g59
NtRp5330
(dp5331
g62
(dp5332
g89
g90
ssg71
g5321
sg64
(lp5333
S':'
asbag57
(g78
g59
NtRp5334
(dp5335
g62
(dp5336
sg71
g5321
sg64
(lp5337
g57
(g58
g59
NtRp5338
(dp5339
g62
(dp5340
g70
I5
ssg71
g5334
sg64
(lp5341
g122
asbasbasbag57
(g73
g59
NtRp5342
(dp5343
g62
(dp5344
sg71
g3883
sg64
(lp5345
g57
(g78
g59
NtRp5346
(dp5347
g62
(dp5348
g82
g83
ssg71
g5342
sg64
(lp5349
g2747
asbag57
(g78
g59
NtRp5350
(dp5351
g62
(dp5352
g89
g90
ssg71
g5342
sg64
(lp5353
S':'
asbag57
(g78
g59
NtRp5354
(dp5355
g62
(dp5356
sg71
g5342
sg64
(lp5357
g57
(g58
g59
NtRp5358
(dp5359
g62
(dp5360
g70
I5
ssg71
g5354
sg64
(lp5361
g2760
asbasbasbag57
(g73
g59
NtRp5362
(dp5363
g62
(dp5364
sg71
g3883
sg64
(lp5365
g57
(g78
g59
NtRp5366
(dp5367
g62
(dp5368
g82
g83
ssg71
g5362
sg64
(lp5369
S'view'
p5370
asbag57
(g78
g59
NtRp5371
(dp5372
g62
(dp5373
g89
g90
ssg71
g5362
sg64
(lp5374
S':'
asbag57
(g78
g59
NtRp5375
(dp5376
g62
(dp5377
sg71
g5362
sg64
(lp5378
g57
(g58
g59
NtRp5379
(dp5380
g62
(dp5381
g70
I5
ssg71
g5375
sg64
(lp5382
S'plugin_ajaxselect/set_widget.load'
p5383
asbasbasbasbasbsS'locals'
p5384
(dp5385
S'filter_val'
p5386
S"'14'"
p5387
sS'linktable'
p5388
S"'works'"
p5389
sS'f'
S"'comments'"
p5390
sS'the_table'
p5391
S"<Table {'reference': <gluon.dal.Field object at ...e, '_id': <gluon.dal.Field object at 0x44b9410>}>"
p5392
sS'filter_t'
p5393
S"'author'"
p5394
sS'value'
p5395
S"'7'"
p5396
sS'field'
p5397
S"'work'"
p5398
sS'the_field'
p5399
S'<gluon.dal.Field object>'
p5400
sS'table'
p5401
S"'notes'"
p5402
sS'ref'
p5403
S"'reference author'"
p5404
sS'the_linktable'
p5405
S"<Table {'_db': <DAL {'auth_event': <Table {'orig...e, '_id': <gluon.dal.Field object at 0x44b79d0>}>"
p5406
sssS'traceback'
p5407
S'Traceback (most recent call last):\n  File "/home/ian/web2py/gluon/restricted.py", line 204, in restricted\n    exec ccode in environment\n  File "/home/ian/web2py/applications/topoi/controllers/plugin_ajaxselect.py", line 85, in <module>\n  File "/home/ian/web2py/gluon/globals.py", line 172, in <lambda>\n    self._caller = lambda f: f()\n  File "/home/ian/web2py/applications/topoi/controllers/plugin_ajaxselect.py", line 33, in set_widget\n    cf = [f for f in the_linktable.fields if the_linktable[f].type == ref][0]\nIndexError: list index out of range\n'
p5408
s.