(dp1
S'output'
p2
S''
sS'layer'
p3
S'/home/ian/web2py/applications/topoi/controllers/plugin_listandedit.py'
p4
sS'code'
p5
S"# coding: utf8\n# try something like\ndef list():\n    response.files.append(URL('static', 'plugin_listandedit/plugin_listandedit.css'))\n    response.files.append(URL('static', 'plugin_listandedit/plugin_listandedit.js'))\n    #settings\n    displayfield = ''\n\n    tablename = request.args[0]\n    fieldnames = request.vars[0]\n\n    print tablename\n\n    rowlist = ''\n    if not tablename in db.tables():\n        response.flash = 'error'\n    else:\n        tb = db[tablename]\n        rowlist = db(tb).select()\n\n    listset = []\n    for r in rowlist:\n        i = A(r[fieldname], _href=URL('plugin_listandedit', 'edit.load', args=[tablename, r.id]), _class='plugin_listandedit_list', cid='viewpane')\n        listset.append(i)\n\n    return dict(listset = listset)\n\ndef edit():\n    tablename = request.args[0]\n    rowid = request.args[1]\n    form = crud.update(db[tablename], rowid)\n\n    return dict(form = form)\n\nresponse._vars=response._caller(list)\n"
p6
sS'snapshot'
p7
(dp8
S'exception'
p9
(dp10
S'__hash__'
p11
S"<method-wrapper '__hash__' of exceptions.KeyError object>"
p12
sS'__setattr__'
p13
S"<method-wrapper '__setattr__' of exceptions.KeyError object>"
p14
sS'__reduce_ex__'
p15
S'<built-in method __reduce_ex__ of exceptions.KeyError object>'
p16
sS'__getslice__'
p17
S"<method-wrapper '__getslice__' of exceptions.KeyError object>"
p18
sS'__getitem__'
p19
S"<method-wrapper '__getitem__' of exceptions.KeyError object>"
p20
sS'__setstate__'
p21
S'<built-in method __setstate__ of exceptions.KeyError object>'
p22
sS'args'
p23
S'(0,)'
p24
sS'__reduce__'
p25
S'<built-in method __reduce__ of exceptions.KeyError object>'
p26
sS'__str__'
p27
S"<method-wrapper '__str__' of exceptions.KeyError object>"
p28
sS'__format__'
p29
S'<built-in method __format__ of exceptions.KeyError object>'
p30
sS'__getattribute__'
p31
S"<method-wrapper '__getattribute__' of exceptions.KeyError object>"
p32
sS'__class__'
p33
S"<type 'exceptions.KeyError'>"
p34
sS'__unicode__'
p35
S'<built-in method __unicode__ of exceptions.KeyError object>'
p36
sS'__delattr__'
p37
S"<method-wrapper '__delattr__' of exceptions.KeyError object>"
p38
sS'__subclasshook__'
p39
S'<built-in method __subclasshook__ of type object>'
p40
sS'__repr__'
p41
S"<method-wrapper '__repr__' of exceptions.KeyError object>"
p42
sS'__dict__'
p43
S'{}'
p44
sS'__sizeof__'
p45
S'<built-in method __sizeof__ of exceptions.KeyError object>'
p46
sS'__doc__'
p47
S"'Mapping key not found.'"
p48
sS'__init__'
p49
S"<method-wrapper '__init__' of exceptions.KeyError object>"
p50
sS'__new__'
p51
S'<built-in method __new__ of type object>'
p52
ssS'evalue'
p53
S'0'
sS'request'
p54
ccopy_reg
_reconstructor
p55
(cgluon.html
BEAUTIFY
p56
c__builtin__
object
p57
NtRp58
(dp59
S'attributes'
p60
(dp61
sS'components'
p62
(lp63
g55
(cgluon.html
TABLE
p64
g57
NtRp65
(dp66
g60
(dp67
S'level'
p68
I5
ssS'parent'
p69
Nsg62
(lp70
g55
(cgluon.html
TR
p71
g57
NtRp72
(dp73
g60
(dp74
sg69
g65
sg62
(lp75
g55
(cgluon.html
TD
p76
g57
NtRp77
(dp78
g60
(dp79
S'_style'
p80
S'font-weight:bold;'
p81
ssg69
g72
sg62
(lp82
S'ajax'
p83
asbag55
(g76
g57
NtRp84
(dp85
g60
(dp86
S'_valign'
p87
S'top'
p88
ssg69
g72
sg62
(lp89
S':'
asbag55
(g76
g57
NtRp90
(dp91
g60
(dp92
sg69
g72
sg62
(lp93
g55
(g56
g57
NtRp94
(dp95
g60
(dp96
g68
I5
ssg69
g90
sg62
(lp97
S'False'
p98
asbasbasbag55
(g71
g57
NtRp99
(dp100
g60
(dp101
sg69
g65
sg62
(lp102
g55
(g76
g57
NtRp103
(dp104
g60
(dp105
g80
g81
ssg69
g99
sg62
(lp106
S'application'
p107
asbag55
(g76
g57
NtRp108
(dp109
g60
(dp110
g87
g88
ssg69
g99
sg62
(lp111
S':'
asbag55
(g76
g57
NtRp112
(dp113
g60
(dp114
sg69
g99
sg62
(lp115
g55
(g56
g57
NtRp116
(dp117
g60
(dp118
g68
I5
ssg69
g112
sg62
(lp119
S'topoi'
p120
asbasbasbag55
(g71
g57
NtRp121
(dp122
g60
(dp123
sg69
g65
sg62
(lp124
g55
(g76
g57
NtRp125
(dp126
g60
(dp127
g80
g81
ssg69
g121
sg62
(lp128
g23
asbag55
(g76
g57
NtRp129
(dp130
g60
(dp131
g87
g88
ssg69
g121
sg62
(lp132
S':'
asbag55
(g76
g57
NtRp133
(dp134
g60
(dp135
sg69
g121
sg62
(lp136
g55
(g56
g57
NtRp137
(dp138
g60
(dp139
g68
I5
ssg69
g133
sg62
(lp140
g55
(g64
g57
NtRp141
(dp142
g60
(dp143
g68
I4
ssg69
Nsg62
(lp144
g55
(g71
g57
NtRp145
(dp146
g60
(dp147
sg69
g141
sg62
(lp148
g55
(g76
g57
NtRp149
(dp150
g60
(dp151
sg69
g145
sg62
(lp152
g55
(g56
g57
NtRp153
(dp154
g60
(dp155
g68
I4
ssg69
g149
sg62
(lp156
S'notes'
p157
asbasbasbag55
(g71
g57
NtRp158
(dp159
g60
(dp160
sg69
g141
sg62
(lp161
g55
(g76
g57
NtRp162
(dp163
g60
(dp164
sg69
g158
sg62
(lp165
g55
(g56
g57
NtRp166
(dp167
g60
(dp168
g68
I4
ssg69
g162
sg62
(lp169
S'reference'
p170
asbasbasbasbasbasbasbag55
(g71
g57
NtRp171
(dp172
g60
(dp173
sg69
g65
sg62
(lp174
g55
(g76
g57
NtRp175
(dp176
g60
(dp177
g80
g81
ssg69
g171
sg62
(lp178
S'body'
p179
asbag55
(g76
g57
NtRp180
(dp181
g60
(dp182
g87
g88
ssg69
g171
sg62
(lp183
S':'
asbag55
(g76
g57
NtRp184
(dp185
g60
(dp186
sg69
g171
sg62
(lp187
g55
(g56
g57
NtRp188
(dp189
g60
(dp190
g68
I5
ssg69
g184
sg62
(lp191
S'<cStringIO.StringO object at 0x31a3d18>'
p192
asbasbasbag55
(g71
g57
NtRp193
(dp194
g60
(dp195
sg69
g65
sg62
(lp196
g55
(g76
g57
NtRp197
(dp198
g60
(dp199
g80
g81
ssg69
g193
sg62
(lp200
S'client'
p201
asbag55
(g76
g57
NtRp202
(dp203
g60
(dp204
g87
g88
ssg69
g193
sg62
(lp205
S':'
asbag55
(g76
g57
NtRp206
(dp207
g60
(dp208
sg69
g193
sg62
(lp209
g55
(g56
g57
NtRp210
(dp211
g60
(dp212
g68
I5
ssg69
g206
sg62
(lp213
S'127.0.0.1'
p214
asbasbasbag55
(g71
g57
NtRp215
(dp216
g60
(dp217
sg69
g65
sg62
(lp218
g55
(g76
g57
NtRp219
(dp220
g60
(dp221
g80
g81
ssg69
g215
sg62
(lp222
S'controller'
p223
asbag55
(g76
g57
NtRp224
(dp225
g60
(dp226
g87
g88
ssg69
g215
sg62
(lp227
S':'
asbag55
(g76
g57
NtRp228
(dp229
g60
(dp230
sg69
g215
sg62
(lp231
g55
(g56
g57
NtRp232
(dp233
g60
(dp234
g68
I5
ssg69
g228
sg62
(lp235
S'plugin_listandedit'
p236
asbasbasbag55
(g71
g57
NtRp237
(dp238
g60
(dp239
sg69
g65
sg62
(lp240
g55
(g76
g57
NtRp241
(dp242
g60
(dp243
g80
g81
ssg69
g237
sg62
(lp244
S'cookies'
p245
asbag55
(g76
g57
NtRp246
(dp247
g60
(dp248
g87
g88
ssg69
g237
sg62
(lp249
S':'
asbag55
(g76
g57
NtRp250
(dp251
g60
(dp252
sg69
g237
sg62
(lp253
g55
(g56
g57
NtRp254
(dp255
g60
(dp256
g68
I5
ssg69
g250
sg62
(lp257
g55
(g64
g57
NtRp258
(dp259
g60
(dp260
g68
I4
ssg69
Nsg62
(lp261
g55
(g71
g57
NtRp262
(dp263
g60
(dp264
sg69
g258
sg62
(lp265
g55
(g76
g57
NtRp266
(dp267
g60
(dp268
g80
g81
ssg69
g262
sg62
(lp269
S'session_id_admin'
p270
asbag55
(g76
g57
NtRp271
(dp272
g60
(dp273
g87
g88
ssg69
g262
sg62
(lp274
S':'
asbag55
(g76
g57
NtRp275
(dp276
g60
(dp277
sg69
g262
sg62
(lp278
g55
(g56
g57
NtRp279
(dp280
g60
(dp281
g68
I4
ssg69
g275
sg62
(lp282
g55
(g64
g57
NtRp283
(dp284
g60
(dp285
g68
I3
ssg69
Nsg62
(lp286
g55
(g71
g57
NtRp287
(dp288
g60
(dp289
sg69
g283
sg62
(lp290
g55
(g76
g57
NtRp291
(dp292
g60
(dp293
g80
g81
ssg69
g287
sg62
(lp294
S'comment'
p295
asbag55
(g76
g57
NtRp296
(dp297
g60
(dp298
g87
g88
ssg69
g287
sg62
(lp299
S':'
asbag55
(g76
g57
NtRp300
(dp301
g60
(dp302
sg69
g287
sg62
(lp303
g55
(g56
g57
NtRp304
(dp305
g60
(dp306
g68
I3
ssg69
g300
sg62
(lp307
S''
asbasbasbag55
(g71
g57
NtRp308
(dp309
g60
(dp310
sg69
g283
sg62
(lp311
g55
(g76
g57
NtRp312
(dp313
g60
(dp314
g80
g81
ssg69
g308
sg62
(lp315
S'domain'
p316
asbag55
(g76
g57
NtRp317
(dp318
g60
(dp319
g87
g88
ssg69
g308
sg62
(lp320
S':'
asbag55
(g76
g57
NtRp321
(dp322
g60
(dp323
sg69
g308
sg62
(lp324
g55
(g56
g57
NtRp325
(dp326
g60
(dp327
g68
I3
ssg69
g321
sg62
(lp328
S''
asbasbasbag55
(g71
g57
NtRp329
(dp330
g60
(dp331
sg69
g283
sg62
(lp332
g55
(g76
g57
NtRp333
(dp334
g60
(dp335
g80
g81
ssg69
g329
sg62
(lp336
S'expires'
p337
asbag55
(g76
g57
NtRp338
(dp339
g60
(dp340
g87
g88
ssg69
g329
sg62
(lp341
S':'
asbag55
(g76
g57
NtRp342
(dp343
g60
(dp344
sg69
g329
sg62
(lp345
g55
(g56
g57
NtRp346
(dp347
g60
(dp348
g68
I3
ssg69
g342
sg62
(lp349
S''
asbasbasbag55
(g71
g57
NtRp350
(dp351
g60
(dp352
sg69
g283
sg62
(lp353
g55
(g76
g57
NtRp354
(dp355
g60
(dp356
g80
g81
ssg69
g350
sg62
(lp357
S'httponly'
p358
asbag55
(g76
g57
NtRp359
(dp360
g60
(dp361
g87
g88
ssg69
g350
sg62
(lp362
S':'
asbag55
(g76
g57
NtRp363
(dp364
g60
(dp365
sg69
g350
sg62
(lp366
g55
(g56
g57
NtRp367
(dp368
g60
(dp369
g68
I3
ssg69
g363
sg62
(lp370
S''
asbasbasbag55
(g71
g57
NtRp371
(dp372
g60
(dp373
sg69
g283
sg62
(lp374
g55
(g76
g57
NtRp375
(dp376
g60
(dp377
g80
g81
ssg69
g371
sg62
(lp378
S'max-age'
p379
asbag55
(g76
g57
NtRp380
(dp381
g60
(dp382
g87
g88
ssg69
g371
sg62
(lp383
S':'
asbag55
(g76
g57
NtRp384
(dp385
g60
(dp386
sg69
g371
sg62
(lp387
g55
(g56
g57
NtRp388
(dp389
g60
(dp390
g68
I3
ssg69
g384
sg62
(lp391
S''
asbasbasbag55
(g71
g57
NtRp392
(dp393
g60
(dp394
sg69
g283
sg62
(lp395
g55
(g76
g57
NtRp396
(dp397
g60
(dp398
g80
g81
ssg69
g392
sg62
(lp399
S'path'
p400
asbag55
(g76
g57
NtRp401
(dp402
g60
(dp403
g87
g88
ssg69
g392
sg62
(lp404
S':'
asbag55
(g76
g57
NtRp405
(dp406
g60
(dp407
sg69
g392
sg62
(lp408
g55
(g56
g57
NtRp409
(dp410
g60
(dp411
g68
I3
ssg69
g405
sg62
(lp412
S''
asbasbasbag55
(g71
g57
NtRp413
(dp414
g60
(dp415
sg69
g283
sg62
(lp416
g55
(g76
g57
NtRp417
(dp418
g60
(dp419
g80
g81
ssg69
g413
sg62
(lp420
S'secure'
p421
asbag55
(g76
g57
NtRp422
(dp423
g60
(dp424
g87
g88
ssg69
g413
sg62
(lp425
S':'
asbag55
(g76
g57
NtRp426
(dp427
g60
(dp428
sg69
g413
sg62
(lp429
g55
(g56
g57
NtRp430
(dp431
g60
(dp432
g68
I3
ssg69
g426
sg62
(lp433
S''
asbasbasbag55
(g71
g57
NtRp434
(dp435
g60
(dp436
sg69
g283
sg62
(lp437
g55
(g76
g57
NtRp438
(dp439
g60
(dp440
g80
g81
ssg69
g434
sg62
(lp441
S'version'
p442
asbag55
(g76
g57
NtRp443
(dp444
g60
(dp445
g87
g88
ssg69
g434
sg62
(lp446
S':'
asbag55
(g76
g57
NtRp447
(dp448
g60
(dp449
sg69
g434
sg62
(lp450
g55
(g56
g57
NtRp451
(dp452
g60
(dp453
g68
I3
ssg69
g447
sg62
(lp454
S''
asbasbasbasbasbasbasbag55
(g71
g57
NtRp455
(dp456
g60
(dp457
sg69
g258
sg62
(lp458
g55
(g76
g57
NtRp459
(dp460
g60
(dp461
g80
g81
ssg69
g455
sg62
(lp462
S'session_id_topoi'
p463
asbag55
(g76
g57
NtRp464
(dp465
g60
(dp466
g87
g88
ssg69
g455
sg62
(lp467
S':'
asbag55
(g76
g57
NtRp468
(dp469
g60
(dp470
sg69
g455
sg62
(lp471
g55
(g56
g57
NtRp472
(dp473
g60
(dp474
g68
I4
ssg69
g468
sg62
(lp475
g55
(g64
g57
NtRp476
(dp477
g60
(dp478
g68
I3
ssg69
Nsg62
(lp479
g55
(g71
g57
NtRp480
(dp481
g60
(dp482
sg69
g476
sg62
(lp483
g55
(g76
g57
NtRp484
(dp485
g60
(dp486
g80
g81
ssg69
g480
sg62
(lp487
g295
asbag55
(g76
g57
NtRp488
(dp489
g60
(dp490
g87
g88
ssg69
g480
sg62
(lp491
S':'
asbag55
(g76
g57
NtRp492
(dp493
g60
(dp494
sg69
g480
sg62
(lp495
g55
(g56
g57
NtRp496
(dp497
g60
(dp498
g68
I3
ssg69
g492
sg62
(lp499
S''
asbasbasbag55
(g71
g57
NtRp500
(dp501
g60
(dp502
sg69
g476
sg62
(lp503
g55
(g76
g57
NtRp504
(dp505
g60
(dp506
g80
g81
ssg69
g500
sg62
(lp507
g316
asbag55
(g76
g57
NtRp508
(dp509
g60
(dp510
g87
g88
ssg69
g500
sg62
(lp511
S':'
asbag55
(g76
g57
NtRp512
(dp513
g60
(dp514
sg69
g500
sg62
(lp515
g55
(g56
g57
NtRp516
(dp517
g60
(dp518
g68
I3
ssg69
g512
sg62
(lp519
S''
asbasbasbag55
(g71
g57
NtRp520
(dp521
g60
(dp522
sg69
g476
sg62
(lp523
g55
(g76
g57
NtRp524
(dp525
g60
(dp526
g80
g81
ssg69
g520
sg62
(lp527
g337
asbag55
(g76
g57
NtRp528
(dp529
g60
(dp530
g87
g88
ssg69
g520
sg62
(lp531
S':'
asbag55
(g76
g57
NtRp532
(dp533
g60
(dp534
sg69
g520
sg62
(lp535
g55
(g56
g57
NtRp536
(dp537
g60
(dp538
g68
I3
ssg69
g532
sg62
(lp539
S''
asbasbasbag55
(g71
g57
NtRp540
(dp541
g60
(dp542
sg69
g476
sg62
(lp543
g55
(g76
g57
NtRp544
(dp545
g60
(dp546
g80
g81
ssg69
g540
sg62
(lp547
g358
asbag55
(g76
g57
NtRp548
(dp549
g60
(dp550
g87
g88
ssg69
g540
sg62
(lp551
S':'
asbag55
(g76
g57
NtRp552
(dp553
g60
(dp554
sg69
g540
sg62
(lp555
g55
(g56
g57
NtRp556
(dp557
g60
(dp558
g68
I3
ssg69
g552
sg62
(lp559
S''
asbasbasbag55
(g71
g57
NtRp560
(dp561
g60
(dp562
sg69
g476
sg62
(lp563
g55
(g76
g57
NtRp564
(dp565
g60
(dp566
g80
g81
ssg69
g560
sg62
(lp567
g379
asbag55
(g76
g57
NtRp568
(dp569
g60
(dp570
g87
g88
ssg69
g560
sg62
(lp571
S':'
asbag55
(g76
g57
NtRp572
(dp573
g60
(dp574
sg69
g560
sg62
(lp575
g55
(g56
g57
NtRp576
(dp577
g60
(dp578
g68
I3
ssg69
g572
sg62
(lp579
S''
asbasbasbag55
(g71
g57
NtRp580
(dp581
g60
(dp582
sg69
g476
sg62
(lp583
g55
(g76
g57
NtRp584
(dp585
g60
(dp586
g80
g81
ssg69
g580
sg62
(lp587
g400
asbag55
(g76
g57
NtRp588
(dp589
g60
(dp590
g87
g88
ssg69
g580
sg62
(lp591
S':'
asbag55
(g76
g57
NtRp592
(dp593
g60
(dp594
sg69
g580
sg62
(lp595
g55
(g56
g57
NtRp596
(dp597
g60
(dp598
g68
I3
ssg69
g592
sg62
(lp599
S''
asbasbasbag55
(g71
g57
NtRp600
(dp601
g60
(dp602
sg69
g476
sg62
(lp603
g55
(g76
g57
NtRp604
(dp605
g60
(dp606
g80
g81
ssg69
g600
sg62
(lp607
g421
asbag55
(g76
g57
NtRp608
(dp609
g60
(dp610
g87
g88
ssg69
g600
sg62
(lp611
S':'
asbag55
(g76
g57
NtRp612
(dp613
g60
(dp614
sg69
g600
sg62
(lp615
g55
(g56
g57
NtRp616
(dp617
g60
(dp618
g68
I3
ssg69
g612
sg62
(lp619
S''
asbasbasbag55
(g71
g57
NtRp620
(dp621
g60
(dp622
sg69
g476
sg62
(lp623
g55
(g76
g57
NtRp624
(dp625
g60
(dp626
g80
g81
ssg69
g620
sg62
(lp627
g442
asbag55
(g76
g57
NtRp628
(dp629
g60
(dp630
g87
g88
ssg69
g620
sg62
(lp631
S':'
asbag55
(g76
g57
NtRp632
(dp633
g60
(dp634
sg69
g620
sg62
(lp635
g55
(g56
g57
NtRp636
(dp637
g60
(dp638
g68
I3
ssg69
g632
sg62
(lp639
S''
asbasbasbasbasbasbasbag55
(g71
g57
NtRp640
(dp641
g60
(dp642
sg69
g258
sg62
(lp643
g55
(g76
g57
NtRp644
(dp645
g60
(dp646
g80
g81
ssg69
g640
sg62
(lp647
S'session_id_welcome'
p648
asbag55
(g76
g57
NtRp649
(dp650
g60
(dp651
g87
g88
ssg69
g640
sg62
(lp652
S':'
asbag55
(g76
g57
NtRp653
(dp654
g60
(dp655
sg69
g640
sg62
(lp656
g55
(g56
g57
NtRp657
(dp658
g60
(dp659
g68
I4
ssg69
g653
sg62
(lp660
g55
(g64
g57
NtRp661
(dp662
g60
(dp663
g68
I3
ssg69
Nsg62
(lp664
g55
(g71
g57
NtRp665
(dp666
g60
(dp667
sg69
g661
sg62
(lp668
g55
(g76
g57
NtRp669
(dp670
g60
(dp671
g80
g81
ssg69
g665
sg62
(lp672
g295
asbag55
(g76
g57
NtRp673
(dp674
g60
(dp675
g87
g88
ssg69
g665
sg62
(lp676
S':'
asbag55
(g76
g57
NtRp677
(dp678
g60
(dp679
sg69
g665
sg62
(lp680
g55
(g56
g57
NtRp681
(dp682
g60
(dp683
g68
I3
ssg69
g677
sg62
(lp684
S''
asbasbasbag55
(g71
g57
NtRp685
(dp686
g60
(dp687
sg69
g661
sg62
(lp688
g55
(g76
g57
NtRp689
(dp690
g60
(dp691
g80
g81
ssg69
g685
sg62
(lp692
g316
asbag55
(g76
g57
NtRp693
(dp694
g60
(dp695
g87
g88
ssg69
g685
sg62
(lp696
S':'
asbag55
(g76
g57
NtRp697
(dp698
g60
(dp699
sg69
g685
sg62
(lp700
g55
(g56
g57
NtRp701
(dp702
g60
(dp703
g68
I3
ssg69
g697
sg62
(lp704
S''
asbasbasbag55
(g71
g57
NtRp705
(dp706
g60
(dp707
sg69
g661
sg62
(lp708
g55
(g76
g57
NtRp709
(dp710
g60
(dp711
g80
g81
ssg69
g705
sg62
(lp712
g337
asbag55
(g76
g57
NtRp713
(dp714
g60
(dp715
g87
g88
ssg69
g705
sg62
(lp716
S':'
asbag55
(g76
g57
NtRp717
(dp718
g60
(dp719
sg69
g705
sg62
(lp720
g55
(g56
g57
NtRp721
(dp722
g60
(dp723
g68
I3
ssg69
g717
sg62
(lp724
S''
asbasbasbag55
(g71
g57
NtRp725
(dp726
g60
(dp727
sg69
g661
sg62
(lp728
g55
(g76
g57
NtRp729
(dp730
g60
(dp731
g80
g81
ssg69
g725
sg62
(lp732
g358
asbag55
(g76
g57
NtRp733
(dp734
g60
(dp735
g87
g88
ssg69
g725
sg62
(lp736
S':'
asbag55
(g76
g57
NtRp737
(dp738
g60
(dp739
sg69
g725
sg62
(lp740
g55
(g56
g57
NtRp741
(dp742
g60
(dp743
g68
I3
ssg69
g737
sg62
(lp744
S''
asbasbasbag55
(g71
g57
NtRp745
(dp746
g60
(dp747
sg69
g661
sg62
(lp748
g55
(g76
g57
NtRp749
(dp750
g60
(dp751
g80
g81
ssg69
g745
sg62
(lp752
g379
asbag55
(g76
g57
NtRp753
(dp754
g60
(dp755
g87
g88
ssg69
g745
sg62
(lp756
S':'
asbag55
(g76
g57
NtRp757
(dp758
g60
(dp759
sg69
g745
sg62
(lp760
g55
(g56
g57
NtRp761
(dp762
g60
(dp763
g68
I3
ssg69
g757
sg62
(lp764
S''
asbasbasbag55
(g71
g57
NtRp765
(dp766
g60
(dp767
sg69
g661
sg62
(lp768
g55
(g76
g57
NtRp769
(dp770
g60
(dp771
g80
g81
ssg69
g765
sg62
(lp772
g400
asbag55
(g76
g57
NtRp773
(dp774
g60
(dp775
g87
g88
ssg69
g765
sg62
(lp776
S':'
asbag55
(g76
g57
NtRp777
(dp778
g60
(dp779
sg69
g765
sg62
(lp780
g55
(g56
g57
NtRp781
(dp782
g60
(dp783
g68
I3
ssg69
g777
sg62
(lp784
S''
asbasbasbag55
(g71
g57
NtRp785
(dp786
g60
(dp787
sg69
g661
sg62
(lp788
g55
(g76
g57
NtRp789
(dp790
g60
(dp791
g80
g81
ssg69
g785
sg62
(lp792
g421
asbag55
(g76
g57
NtRp793
(dp794
g60
(dp795
g87
g88
ssg69
g785
sg62
(lp796
S':'
asbag55
(g76
g57
NtRp797
(dp798
g60
(dp799
sg69
g785
sg62
(lp800
g55
(g56
g57
NtRp801
(dp802
g60
(dp803
g68
I3
ssg69
g797
sg62
(lp804
S''
asbasbasbag55
(g71
g57
NtRp805
(dp806
g60
(dp807
sg69
g661
sg62
(lp808
g55
(g76
g57
NtRp809
(dp810
g60
(dp811
g80
g81
ssg69
g805
sg62
(lp812
g442
asbag55
(g76
g57
NtRp813
(dp814
g60
(dp815
g87
g88
ssg69
g805
sg62
(lp816
S':'
asbag55
(g76
g57
NtRp817
(dp818
g60
(dp819
sg69
g805
sg62
(lp820
g55
(g56
g57
NtRp821
(dp822
g60
(dp823
g68
I3
ssg69
g817
sg62
(lp824
S''
asbasbasbasbasbasbasbasbasbasbasbag55
(g71
g57
NtRp825
(dp826
g60
(dp827
sg69
g65
sg62
(lp828
g55
(g76
g57
NtRp829
(dp830
g60
(dp831
g80
g81
ssg69
g825
sg62
(lp832
S'env'
p833
asbag55
(g76
g57
NtRp834
(dp835
g60
(dp836
g87
g88
ssg69
g825
sg62
(lp837
S':'
asbag55
(g76
g57
NtRp838
(dp839
g60
(dp840
sg69
g825
sg62
(lp841
g55
(g56
g57
NtRp842
(dp843
g60
(dp844
g68
I5
ssg69
g838
sg62
(lp845
g55
(g64
g57
NtRp846
(dp847
g60
(dp848
g68
I4
ssg69
Nsg62
(lp849
g55
(g71
g57
NtRp850
(dp851
g60
(dp852
sg69
g846
sg62
(lp853
g55
(g76
g57
NtRp854
(dp855
g60
(dp856
g80
g81
ssg69
g850
sg62
(lp857
S'app_folders'
p858
asbag55
(g76
g57
NtRp859
(dp860
g60
(dp861
g87
g88
ssg69
g850
sg62
(lp862
S':'
asbag55
(g76
g57
NtRp863
(dp864
g60
(dp865
sg69
g850
sg62
(lp866
g55
(g56
g57
NtRp867
(dp868
g60
(dp869
g68
I4
ssg69
g863
sg62
(lp870
S"set(['/home/ian/web2py/applications/topoi/', '/home/ian/web2py/applications/welcome/', '/home/ian/web2py/applications/admin/'])"
p871
asbasbasbag55
(g71
g57
NtRp872
(dp873
g60
(dp874
sg69
g846
sg62
(lp875
g55
(g76
g57
NtRp876
(dp877
g60
(dp878
g80
g81
ssg69
g872
sg62
(lp879
S'applications_parent'
p880
asbag55
(g76
g57
NtRp881
(dp882
g60
(dp883
g87
g88
ssg69
g872
sg62
(lp884
S':'
asbag55
(g76
g57
NtRp885
(dp886
g60
(dp887
sg69
g872
sg62
(lp888
g55
(g56
g57
NtRp889
(dp890
g60
(dp891
g68
I4
ssg69
g885
sg62
(lp892
S'/home/ian/web2py'
p893
asbasbasbag55
(g71
g57
NtRp894
(dp895
g60
(dp896
sg69
g846
sg62
(lp897
g55
(g76
g57
NtRp898
(dp899
g60
(dp900
g80
g81
ssg69
g894
sg62
(lp901
S'cmd_args'
p902
asbag55
(g76
g57
NtRp903
(dp904
g60
(dp905
g87
g88
ssg69
g894
sg62
(lp906
S':'
asbag55
(g76
g57
NtRp907
(dp908
g60
(dp909
sg69
g894
sg62
(lp910
g55
(g56
g57
NtRp911
(dp912
g60
(dp913
g68
I4
ssg69
g907
sg62
(lp914
g55
(g64
g57
NtRp915
(dp916
g60
(dp917
g68
I3
ssg69
Nsg62
(lp918
sbasbasbasbag55
(g71
g57
NtRp919
(dp920
g60
(dp921
sg69
g846
sg62
(lp922
g55
(g76
g57
NtRp923
(dp924
g60
(dp925
g80
g81
ssg69
g919
sg62
(lp926
S'cmd_options'
p927
asbag55
(g76
g57
NtRp928
(dp929
g60
(dp930
g87
g88
ssg69
g919
sg62
(lp931
S':'
asbag55
(g76
g57
NtRp932
(dp933
g60
(dp934
sg69
g919
sg62
(lp935
g55
(g56
g57
NtRp936
(dp937
g60
(dp938
g68
I4
ssg69
g932
sg62
(lp939
S"<Values at 0x28e97e8: {'verbose': False, 'ip': '127.0.0.1', 'shutdown_timeout': 5, 'taskbar': False, 'nocron': False, 'pid_filename': 'httpserver.pid', 'maxthreads': None, 'softcron': False, 'server_name': 'Ariel-ubuntu', 'bpython': False, 'nogui': False, 'port': 8000, 'extcron': False, 'debuglevel': 30, 'test': None, 'folder': '/home/ian/web2py', 'config': '', 'import_models': False, 'winservice': '', 'shell': None, 'run': '', 'log_filename': 'httpserver.log', 'args': [''], 'ssl_ca_certificate': None, 'scheduler': None, 'profiler_filename': None, 'ssl_private_key': '', 'password': '<ask>', 'request_queue_size': 5, 'ssl_certificate': '', 'cronjob': False, 'plain': False, 'quiet': False, 'interfaces': None, 'minthreads': None, 'timeout': 10, 'numthreads': None, 'nobanner': False}>"
p940
asbasbasbag55
(g71
g57
NtRp941
(dp942
g60
(dp943
sg69
g846
sg62
(lp944
g55
(g76
g57
NtRp945
(dp946
g60
(dp947
g80
g81
ssg69
g941
sg62
(lp948
S'db_sessions'
p949
asbag55
(g76
g57
NtRp950
(dp951
g60
(dp952
g87
g88
ssg69
g941
sg62
(lp953
S':'
asbag55
(g76
g57
NtRp954
(dp955
g60
(dp956
sg69
g941
sg62
(lp957
g55
(g56
g57
NtRp958
(dp959
g60
(dp960
g68
I4
ssg69
g954
sg62
(lp961
S'set([])'
p962
asbasbasbag55
(g71
g57
NtRp963
(dp964
g60
(dp965
sg69
g846
sg62
(lp966
g55
(g76
g57
NtRp967
(dp968
g60
(dp969
g80
g81
ssg69
g963
sg62
(lp970
S'debugging'
p971
asbag55
(g76
g57
NtRp972
(dp973
g60
(dp974
g87
g88
ssg69
g963
sg62
(lp975
S':'
asbag55
(g76
g57
NtRp976
(dp977
g60
(dp978
sg69
g963
sg62
(lp979
g55
(g56
g57
NtRp980
(dp981
g60
(dp982
g68
I4
ssg69
g976
sg62
(lp983
g98
asbasbasbag55
(g71
g57
NtRp984
(dp985
g60
(dp986
sg69
g846
sg62
(lp987
g55
(g76
g57
NtRp988
(dp989
g60
(dp990
g80
g81
ssg69
g984
sg62
(lp991
S'gluon_parent'
p992
asbag55
(g76
g57
NtRp993
(dp994
g60
(dp995
g87
g88
ssg69
g984
sg62
(lp996
S':'
asbag55
(g76
g57
NtRp997
(dp998
g60
(dp999
sg69
g984
sg62
(lp1000
g55
(g56
g57
NtRp1001
(dp1002
g60
(dp1003
g68
I4
ssg69
g997
sg62
(lp1004
S'/home/ian/web2py'
p1005
asbasbasbag55
(g71
g57
NtRp1006
(dp1007
g60
(dp1008
sg69
g846
sg62
(lp1009
g55
(g76
g57
NtRp1010
(dp1011
g60
(dp1012
g80
g81
ssg69
g1006
sg62
(lp1013
S'http_accept'
p1014
asbag55
(g76
g57
NtRp1015
(dp1016
g60
(dp1017
g87
g88
ssg69
g1006
sg62
(lp1018
S':'
asbag55
(g76
g57
NtRp1019
(dp1020
g60
(dp1021
sg69
g1006
sg62
(lp1022
g55
(g56
g57
NtRp1023
(dp1024
g60
(dp1025
g68
I4
ssg69
g1019
sg62
(lp1026
S'text/html,application/xhtml+xml,application/xml;q=0.9,*/*;q=0.8'
p1027
asbasbasbag55
(g71
g57
NtRp1028
(dp1029
g60
(dp1030
sg69
g846
sg62
(lp1031
g55
(g76
g57
NtRp1032
(dp1033
g60
(dp1034
g80
g81
ssg69
g1028
sg62
(lp1035
S'http_accept_charset'
p1036
asbag55
(g76
g57
NtRp1037
(dp1038
g60
(dp1039
g87
g88
ssg69
g1028
sg62
(lp1040
S':'
asbag55
(g76
g57
NtRp1041
(dp1042
g60
(dp1043
sg69
g1028
sg62
(lp1044
g55
(g56
g57
NtRp1045
(dp1046
g60
(dp1047
g68
I4
ssg69
g1041
sg62
(lp1048
S'ISO-8859-1,utf-8;q=0.7,*;q=0.7'
p1049
asbasbasbag55
(g71
g57
NtRp1050
(dp1051
g60
(dp1052
sg69
g846
sg62
(lp1053
g55
(g76
g57
NtRp1054
(dp1055
g60
(dp1056
g80
g81
ssg69
g1050
sg62
(lp1057
S'http_accept_encoding'
p1058
asbag55
(g76
g57
NtRp1059
(dp1060
g60
(dp1061
g87
g88
ssg69
g1050
sg62
(lp1062
S':'
asbag55
(g76
g57
NtRp1063
(dp1064
g60
(dp1065
sg69
g1050
sg62
(lp1066
g55
(g56
g57
NtRp1067
(dp1068
g60
(dp1069
g68
I4
ssg69
g1063
sg62
(lp1070
S'gzip, deflate'
p1071
asbasbasbag55
(g71
g57
NtRp1072
(dp1073
g60
(dp1074
sg69
g846
sg62
(lp1075
g55
(g76
g57
NtRp1076
(dp1077
g60
(dp1078
g80
g81
ssg69
g1072
sg62
(lp1079
S'http_accept_language'
p1080
asbag55
(g76
g57
NtRp1081
(dp1082
g60
(dp1083
g87
g88
ssg69
g1072
sg62
(lp1084
S':'
asbag55
(g76
g57
NtRp1085
(dp1086
g60
(dp1087
sg69
g1072
sg62
(lp1088
g55
(g56
g57
NtRp1089
(dp1090
g60
(dp1091
g68
I4
ssg69
g1085
sg62
(lp1092
S'en-us,en;q=0.5'
p1093
asbasbasbag55
(g71
g57
NtRp1094
(dp1095
g60
(dp1096
sg69
g846
sg62
(lp1097
g55
(g76
g57
NtRp1098
(dp1099
g60
(dp1100
g80
g81
ssg69
g1094
sg62
(lp1101
S'http_cache_control'
p1102
asbag55
(g76
g57
NtRp1103
(dp1104
g60
(dp1105
g87
g88
ssg69
g1094
sg62
(lp1106
S':'
asbag55
(g76
g57
NtRp1107
(dp1108
g60
(dp1109
sg69
g1094
sg62
(lp1110
g55
(g56
g57
NtRp1111
(dp1112
g60
(dp1113
g68
I4
ssg69
g1107
sg62
(lp1114
S'max-age=0'
p1115
asbasbasbag55
(g71
g57
NtRp1116
(dp1117
g60
(dp1118
sg69
g846
sg62
(lp1119
g55
(g76
g57
NtRp1120
(dp1121
g60
(dp1122
g80
g81
ssg69
g1116
sg62
(lp1123
S'http_connection'
p1124
asbag55
(g76
g57
NtRp1125
(dp1126
g60
(dp1127
g87
g88
ssg69
g1116
sg62
(lp1128
S':'
asbag55
(g76
g57
NtRp1129
(dp1130
g60
(dp1131
sg69
g1116
sg62
(lp1132
g55
(g56
g57
NtRp1133
(dp1134
g60
(dp1135
g68
I4
ssg69
g1129
sg62
(lp1136
S'keep-alive'
p1137
asbasbasbag55
(g71
g57
NtRp1138
(dp1139
g60
(dp1140
sg69
g846
sg62
(lp1141
g55
(g76
g57
NtRp1142
(dp1143
g60
(dp1144
g80
g81
ssg69
g1138
sg62
(lp1145
S'http_cookie'
p1146
asbag55
(g76
g57
NtRp1147
(dp1148
g60
(dp1149
g87
g88
ssg69
g1138
sg62
(lp1150
S':'
asbag55
(g76
g57
NtRp1151
(dp1152
g60
(dp1153
sg69
g1138
sg62
(lp1154
g55
(g56
g57
NtRp1155
(dp1156
g60
(dp1157
g68
I4
ssg69
g1151
sg62
(lp1158
S'__utma_a2a=9789918665.1351576430.1320019504.1320019504.1320019504.1; session_id_topoi=127.0.0.1-af13e654-cdbc-4583-8d75-e46cda6f6e34; session_id_welcome=127.0.0.1-f28aa29a-3c83-46af-b1b6-7db0462dc2a3; session_id_admin=127.0.0.1-16c27bc3-c16f-4df6-a72b-4aa7d5d97f18'
p1159
asbasbasbag55
(g71
g57
NtRp1160
(dp1161
g60
(dp1162
sg69
g846
sg62
(lp1163
g55
(g76
g57
NtRp1164
(dp1165
g60
(dp1166
g80
g81
ssg69
g1160
sg62
(lp1167
S'http_host'
p1168
asbag55
(g76
g57
NtRp1169
(dp1170
g60
(dp1171
g87
g88
ssg69
g1160
sg62
(lp1172
S':'
asbag55
(g76
g57
NtRp1173
(dp1174
g60
(dp1175
sg69
g1160
sg62
(lp1176
g55
(g56
g57
NtRp1177
(dp1178
g60
(dp1179
g68
I4
ssg69
g1173
sg62
(lp1180
S'127.0.0.1:8000'
p1181
asbasbasbag55
(g71
g57
NtRp1182
(dp1183
g60
(dp1184
sg69
g846
sg62
(lp1185
g55
(g76
g57
NtRp1186
(dp1187
g60
(dp1188
g80
g81
ssg69
g1182
sg62
(lp1189
S'http_user_agent'
p1190
asbag55
(g76
g57
NtRp1191
(dp1192
g60
(dp1193
g87
g88
ssg69
g1182
sg62
(lp1194
S':'
asbag55
(g76
g57
NtRp1195
(dp1196
g60
(dp1197
sg69
g1182
sg62
(lp1198
g55
(g56
g57
NtRp1199
(dp1200
g60
(dp1201
g68
I4
ssg69
g1195
sg62
(lp1202
S'Mozilla/5.0 (Ubuntu; X11; Linux x86_64; rv:8.0) Gecko/20100101 Firefox/8.0 FirePHP/0.6'
p1203
asbasbasbag55
(g71
g57
NtRp1204
(dp1205
g60
(dp1206
sg69
g846
sg62
(lp1207
g55
(g76
g57
NtRp1208
(dp1209
g60
(dp1210
g80
g81
ssg69
g1204
sg62
(lp1211
S'http_x_insight'
p1212
asbag55
(g76
g57
NtRp1213
(dp1214
g60
(dp1215
g87
g88
ssg69
g1204
sg62
(lp1216
S':'
asbag55
(g76
g57
NtRp1217
(dp1218
g60
(dp1219
sg69
g1204
sg62
(lp1220
g55
(g56
g57
NtRp1221
(dp1222
g60
(dp1223
g68
I4
ssg69
g1217
sg62
(lp1224
S'activate'
p1225
asbasbasbag55
(g71
g57
NtRp1226
(dp1227
g60
(dp1228
sg69
g846
sg62
(lp1229
g55
(g76
g57
NtRp1230
(dp1231
g60
(dp1232
g80
g81
ssg69
g1226
sg62
(lp1233
S'is_jython'
p1234
asbag55
(g76
g57
NtRp1235
(dp1236
g60
(dp1237
g87
g88
ssg69
g1226
sg62
(lp1238
S':'
asbag55
(g76
g57
NtRp1239
(dp1240
g60
(dp1241
sg69
g1226
sg62
(lp1242
g55
(g56
g57
NtRp1243
(dp1244
g60
(dp1245
g68
I4
ssg69
g1239
sg62
(lp1246
g98
asbasbasbag55
(g71
g57
NtRp1247
(dp1248
g60
(dp1249
sg69
g846
sg62
(lp1250
g55
(g76
g57
NtRp1251
(dp1252
g60
(dp1253
g80
g81
ssg69
g1247
sg62
(lp1254
S'path_info'
p1255
asbag55
(g76
g57
NtRp1256
(dp1257
g60
(dp1258
g87
g88
ssg69
g1247
sg62
(lp1259
S':'
asbag55
(g76
g57
NtRp1260
(dp1261
g60
(dp1262
sg69
g1247
sg62
(lp1263
g55
(g56
g57
NtRp1264
(dp1265
g60
(dp1266
g68
I4
ssg69
g1260
sg62
(lp1267
S'/topoi/plugin_listandedit/list/notes/reference'
p1268
asbasbasbag55
(g71
g57
NtRp1269
(dp1270
g60
(dp1271
sg69
g846
sg62
(lp1272
g55
(g76
g57
NtRp1273
(dp1274
g60
(dp1275
g80
g81
ssg69
g1269
sg62
(lp1276
S'query_string'
p1277
asbag55
(g76
g57
NtRp1278
(dp1279
g60
(dp1280
g87
g88
ssg69
g1269
sg62
(lp1281
S':'
asbag55
(g76
g57
NtRp1282
(dp1283
g60
(dp1284
sg69
g1269
sg62
(lp1285
g55
(g56
g57
NtRp1286
(dp1287
g60
(dp1288
g68
I4
ssg69
g1282
sg62
(lp1289
S''
asbasbasbag55
(g71
g57
NtRp1290
(dp1291
g60
(dp1292
sg69
g846
sg62
(lp1293
g55
(g76
g57
NtRp1294
(dp1295
g60
(dp1296
g80
g81
ssg69
g1290
sg62
(lp1297
S'remote_addr'
p1298
asbag55
(g76
g57
NtRp1299
(dp1300
g60
(dp1301
g87
g88
ssg69
g1290
sg62
(lp1302
S':'
asbag55
(g76
g57
NtRp1303
(dp1304
g60
(dp1305
sg69
g1290
sg62
(lp1306
g55
(g56
g57
NtRp1307
(dp1308
g60
(dp1309
g68
I4
ssg69
g1303
sg62
(lp1310
g214
asbasbasbag55
(g71
g57
NtRp1311
(dp1312
g60
(dp1313
sg69
g846
sg62
(lp1314
g55
(g76
g57
NtRp1315
(dp1316
g60
(dp1317
g80
g81
ssg69
g1311
sg62
(lp1318
S'remote_port'
p1319
asbag55
(g76
g57
NtRp1320
(dp1321
g60
(dp1322
g87
g88
ssg69
g1311
sg62
(lp1323
S':'
asbag55
(g76
g57
NtRp1324
(dp1325
g60
(dp1326
sg69
g1311
sg62
(lp1327
g55
(g56
g57
NtRp1328
(dp1329
g60
(dp1330
g68
I4
ssg69
g1324
sg62
(lp1331
S'50436'
p1332
asbasbasbag55
(g71
g57
NtRp1333
(dp1334
g60
(dp1335
sg69
g846
sg62
(lp1336
g55
(g76
g57
NtRp1337
(dp1338
g60
(dp1339
g80
g81
ssg69
g1333
sg62
(lp1340
S'request_method'
p1341
asbag55
(g76
g57
NtRp1342
(dp1343
g60
(dp1344
g87
g88
ssg69
g1333
sg62
(lp1345
S':'
asbag55
(g76
g57
NtRp1346
(dp1347
g60
(dp1348
sg69
g1333
sg62
(lp1349
g55
(g56
g57
NtRp1350
(dp1351
g60
(dp1352
g68
I4
ssg69
g1346
sg62
(lp1353
S'GET'
p1354
asbasbasbag55
(g71
g57
NtRp1355
(dp1356
g60
(dp1357
sg69
g846
sg62
(lp1358
g55
(g76
g57
NtRp1359
(dp1360
g60
(dp1361
g80
g81
ssg69
g1355
sg62
(lp1362
S'script_name'
p1363
asbag55
(g76
g57
NtRp1364
(dp1365
g60
(dp1366
g87
g88
ssg69
g1355
sg62
(lp1367
S':'
asbag55
(g76
g57
NtRp1368
(dp1369
g60
(dp1370
sg69
g1355
sg62
(lp1371
g55
(g56
g57
NtRp1372
(dp1373
g60
(dp1374
g68
I4
ssg69
g1368
sg62
(lp1375
S''
asbasbasbag55
(g71
g57
NtRp1376
(dp1377
g60
(dp1378
sg69
g846
sg62
(lp1379
g55
(g76
g57
NtRp1380
(dp1381
g60
(dp1382
g80
g81
ssg69
g1376
sg62
(lp1383
S'server_name'
p1384
asbag55
(g76
g57
NtRp1385
(dp1386
g60
(dp1387
g87
g88
ssg69
g1376
sg62
(lp1388
S':'
asbag55
(g76
g57
NtRp1389
(dp1390
g60
(dp1391
sg69
g1376
sg62
(lp1392
g55
(g56
g57
NtRp1393
(dp1394
g60
(dp1395
g68
I4
ssg69
g1389
sg62
(lp1396
S'Ariel-ubuntu'
p1397
asbasbasbag55
(g71
g57
NtRp1398
(dp1399
g60
(dp1400
sg69
g846
sg62
(lp1401
g55
(g76
g57
NtRp1402
(dp1403
g60
(dp1404
g80
g81
ssg69
g1398
sg62
(lp1405
S'server_port'
p1406
asbag55
(g76
g57
NtRp1407
(dp1408
g60
(dp1409
g87
g88
ssg69
g1398
sg62
(lp1410
S':'
asbag55
(g76
g57
NtRp1411
(dp1412
g60
(dp1413
sg69
g1398
sg62
(lp1414
g55
(g56
g57
NtRp1415
(dp1416
g60
(dp1417
g68
I4
ssg69
g1411
sg62
(lp1418
S'8000'
p1419
asbasbasbag55
(g71
g57
NtRp1420
(dp1421
g60
(dp1422
sg69
g846
sg62
(lp1423
g55
(g76
g57
NtRp1424
(dp1425
g60
(dp1426
g80
g81
ssg69
g1420
sg62
(lp1427
S'server_protocol'
p1428
asbag55
(g76
g57
NtRp1429
(dp1430
g60
(dp1431
g87
g88
ssg69
g1420
sg62
(lp1432
S':'
asbag55
(g76
g57
NtRp1433
(dp1434
g60
(dp1435
sg69
g1420
sg62
(lp1436
g55
(g56
g57
NtRp1437
(dp1438
g60
(dp1439
g68
I4
ssg69
g1433
sg62
(lp1440
S'HTTP/1.1'
p1441
asbasbasbag55
(g71
g57
NtRp1442
(dp1443
g60
(dp1444
sg69
g846
sg62
(lp1445
g55
(g76
g57
NtRp1446
(dp1447
g60
(dp1448
g80
g81
ssg69
g1442
sg62
(lp1449
S'server_software'
p1450
asbag55
(g76
g57
NtRp1451
(dp1452
g60
(dp1453
g87
g88
ssg69
g1442
sg62
(lp1454
S':'
asbag55
(g76
g57
NtRp1455
(dp1456
g60
(dp1457
sg69
g1442
sg62
(lp1458
g55
(g56
g57
NtRp1459
(dp1460
g60
(dp1461
g68
I4
ssg69
g1455
sg62
(lp1462
S'Rocket 1.2.4'
p1463
asbasbasbag55
(g71
g57
NtRp1464
(dp1465
g60
(dp1466
sg69
g846
sg62
(lp1467
g55
(g76
g57
NtRp1468
(dp1469
g60
(dp1470
g80
g81
ssg69
g1464
sg62
(lp1471
S'web2py_crontype'
p1472
asbag55
(g76
g57
NtRp1473
(dp1474
g60
(dp1475
g87
g88
ssg69
g1464
sg62
(lp1476
S':'
asbag55
(g76
g57
NtRp1477
(dp1478
g60
(dp1479
sg69
g1464
sg62
(lp1480
g55
(g56
g57
NtRp1481
(dp1482
g60
(dp1483
g68
I4
ssg69
g1477
sg62
(lp1484
S'hard'
p1485
asbasbasbag55
(g71
g57
NtRp1486
(dp1487
g60
(dp1488
sg69
g846
sg62
(lp1489
g55
(g76
g57
NtRp1490
(dp1491
g60
(dp1492
g80
g81
ssg69
g1486
sg62
(lp1493
S'web2py_path'
p1494
asbag55
(g76
g57
NtRp1495
(dp1496
g60
(dp1497
g87
g88
ssg69
g1486
sg62
(lp1498
S':'
asbag55
(g76
g57
NtRp1499
(dp1500
g60
(dp1501
sg69
g1486
sg62
(lp1502
g55
(g56
g57
NtRp1503
(dp1504
g60
(dp1505
g68
I4
ssg69
g1499
sg62
(lp1506
g893
asbasbasbag55
(g71
g57
NtRp1507
(dp1508
g60
(dp1509
sg69
g846
sg62
(lp1510
g55
(g76
g57
NtRp1511
(dp1512
g60
(dp1513
g80
g81
ssg69
g1507
sg62
(lp1514
S'web2py_version'
p1515
asbag55
(g76
g57
NtRp1516
(dp1517
g60
(dp1518
g87
g88
ssg69
g1507
sg62
(lp1519
S':'
asbag55
(g76
g57
NtRp1520
(dp1521
g60
(dp1522
sg69
g1507
sg62
(lp1523
g55
(g56
g57
NtRp1524
(dp1525
g60
(dp1526
g68
I4
ssg69
g1520
sg62
(lp1527
g55
(g64
g57
NtRp1528
(dp1529
g60
(dp1530
g68
I3
ssg69
Nsg62
(lp1531
g55
(g71
g57
NtRp1532
(dp1533
g60
(dp1534
sg69
g1528
sg62
(lp1535
g55
(g76
g57
NtRp1536
(dp1537
g60
(dp1538
sg69
g1532
sg62
(lp1539
g55
(g56
g57
NtRp1540
(dp1541
g60
(dp1542
g68
I3
ssg69
g1536
sg62
(lp1543
S'1'
asbasbasbag55
(g71
g57
NtRp1544
(dp1545
g60
(dp1546
sg69
g1528
sg62
(lp1547
g55
(g76
g57
NtRp1548
(dp1549
g60
(dp1550
sg69
g1544
sg62
(lp1551
g55
(g56
g57
NtRp1552
(dp1553
g60
(dp1554
g68
I3
ssg69
g1548
sg62
(lp1555
S'99'
p1556
asbasbasbag55
(g71
g57
NtRp1557
(dp1558
g60
(dp1559
sg69
g1528
sg62
(lp1560
g55
(g76
g57
NtRp1561
(dp1562
g60
(dp1563
sg69
g1557
sg62
(lp1564
g55
(g56
g57
NtRp1565
(dp1566
g60
(dp1567
g68
I3
ssg69
g1561
sg62
(lp1568
S'2'
asbasbasbag55
(g71
g57
NtRp1569
(dp1570
g60
(dp1571
sg69
g1528
sg62
(lp1572
g55
(g76
g57
NtRp1573
(dp1574
g60
(dp1575
sg69
g1569
sg62
(lp1576
g55
(g56
g57
NtRp1577
(dp1578
g60
(dp1579
g68
I3
ssg69
g1573
sg62
(lp1580
S'datetime.datetime(2011, 9, 26, 6, 55, 33)'
p1581
asbasbasbag55
(g71
g57
NtRp1582
(dp1583
g60
(dp1584
sg69
g1528
sg62
(lp1585
g55
(g76
g57
NtRp1586
(dp1587
g60
(dp1588
sg69
g1582
sg62
(lp1589
g55
(g56
g57
NtRp1590
(dp1591
g60
(dp1592
g68
I3
ssg69
g1586
sg62
(lp1593
S'stable'
p1594
asbasbasbasbasbasbasbag55
(g71
g57
NtRp1595
(dp1596
g60
(dp1597
sg69
g846
sg62
(lp1598
g55
(g76
g57
NtRp1599
(dp1600
g60
(dp1601
g80
g81
ssg69
g1595
sg62
(lp1602
S'wsgi_errors'
p1603
asbag55
(g76
g57
NtRp1604
(dp1605
g60
(dp1606
g87
g88
ssg69
g1595
sg62
(lp1607
S':'
asbag55
(g76
g57
NtRp1608
(dp1609
g60
(dp1610
sg69
g1595
sg62
(lp1611
g55
(g56
g57
NtRp1612
(dp1613
g60
(dp1614
g68
I4
ssg69
g1608
sg62
(lp1615
S"<open file '<stderr>', mode 'w' at 0x7ff925b48270>"
p1616
asbasbasbag55
(g71
g57
NtRp1617
(dp1618
g60
(dp1619
sg69
g846
sg62
(lp1620
g55
(g76
g57
NtRp1621
(dp1622
g60
(dp1623
g80
g81
ssg69
g1617
sg62
(lp1624
S'wsgi_file_wrapper'
p1625
asbag55
(g76
g57
NtRp1626
(dp1627
g60
(dp1628
g87
g88
ssg69
g1617
sg62
(lp1629
S':'
asbag55
(g76
g57
NtRp1630
(dp1631
g60
(dp1632
sg69
g1617
sg62
(lp1633
g55
(g56
g57
NtRp1634
(dp1635
g60
(dp1636
g68
I4
ssg69
g1630
sg62
(lp1637
S'<class wsgiref.util.FileWrapper at 0x27b2808>'
p1638
asbasbasbag55
(g71
g57
NtRp1639
(dp1640
g60
(dp1641
sg69
g846
sg62
(lp1642
g55
(g76
g57
NtRp1643
(dp1644
g60
(dp1645
g80
g81
ssg69
g1639
sg62
(lp1646
S'wsgi_input'
p1647
asbag55
(g76
g57
NtRp1648
(dp1649
g60
(dp1650
g87
g88
ssg69
g1639
sg62
(lp1651
S':'
asbag55
(g76
g57
NtRp1652
(dp1653
g60
(dp1654
sg69
g1639
sg62
(lp1655
g55
(g56
g57
NtRp1656
(dp1657
g60
(dp1658
g68
I4
ssg69
g1652
sg62
(lp1659
S'<socket._fileobject object at 0x31d44d0>'
p1660
asbasbasbag55
(g71
g57
NtRp1661
(dp1662
g60
(dp1663
sg69
g846
sg62
(lp1664
g55
(g76
g57
NtRp1665
(dp1666
g60
(dp1667
g80
g81
ssg69
g1661
sg62
(lp1668
S'wsgi_multiprocess'
p1669
asbag55
(g76
g57
NtRp1670
(dp1671
g60
(dp1672
g87
g88
ssg69
g1661
sg62
(lp1673
S':'
asbag55
(g76
g57
NtRp1674
(dp1675
g60
(dp1676
sg69
g1661
sg62
(lp1677
g55
(g56
g57
NtRp1678
(dp1679
g60
(dp1680
g68
I4
ssg69
g1674
sg62
(lp1681
g98
asbasbasbag55
(g71
g57
NtRp1682
(dp1683
g60
(dp1684
sg69
g846
sg62
(lp1685
g55
(g76
g57
NtRp1686
(dp1687
g60
(dp1688
g80
g81
ssg69
g1682
sg62
(lp1689
S'wsgi_multithread'
p1690
asbag55
(g76
g57
NtRp1691
(dp1692
g60
(dp1693
g87
g88
ssg69
g1682
sg62
(lp1694
S':'
asbag55
(g76
g57
NtRp1695
(dp1696
g60
(dp1697
sg69
g1682
sg62
(lp1698
g55
(g56
g57
NtRp1699
(dp1700
g60
(dp1701
g68
I4
ssg69
g1695
sg62
(lp1702
S'True'
p1703
asbasbasbag55
(g71
g57
NtRp1704
(dp1705
g60
(dp1706
sg69
g846
sg62
(lp1707
g55
(g76
g57
NtRp1708
(dp1709
g60
(dp1710
g80
g81
ssg69
g1704
sg62
(lp1711
S'wsgi_run_once'
p1712
asbag55
(g76
g57
NtRp1713
(dp1714
g60
(dp1715
g87
g88
ssg69
g1704
sg62
(lp1716
S':'
asbag55
(g76
g57
NtRp1717
(dp1718
g60
(dp1719
sg69
g1704
sg62
(lp1720
g55
(g56
g57
NtRp1721
(dp1722
g60
(dp1723
g68
I4
ssg69
g1717
sg62
(lp1724
g98
asbasbasbag55
(g71
g57
NtRp1725
(dp1726
g60
(dp1727
sg69
g846
sg62
(lp1728
g55
(g76
g57
NtRp1729
(dp1730
g60
(dp1731
g80
g81
ssg69
g1725
sg62
(lp1732
S'wsgi_url_scheme'
p1733
asbag55
(g76
g57
NtRp1734
(dp1735
g60
(dp1736
g87
g88
ssg69
g1725
sg62
(lp1737
S':'
asbag55
(g76
g57
NtRp1738
(dp1739
g60
(dp1740
sg69
g1725
sg62
(lp1741
g55
(g56
g57
NtRp1742
(dp1743
g60
(dp1744
g68
I4
ssg69
g1738
sg62
(lp1745
S'http'
p1746
asbasbasbag55
(g71
g57
NtRp1747
(dp1748
g60
(dp1749
sg69
g846
sg62
(lp1750
g55
(g76
g57
NtRp1751
(dp1752
g60
(dp1753
g80
g81
ssg69
g1747
sg62
(lp1754
S'wsgi_version'
p1755
asbag55
(g76
g57
NtRp1756
(dp1757
g60
(dp1758
g87
g88
ssg69
g1747
sg62
(lp1759
S':'
asbag55
(g76
g57
NtRp1760
(dp1761
g60
(dp1762
sg69
g1747
sg62
(lp1763
g55
(g56
g57
NtRp1764
(dp1765
g60
(dp1766
g68
I4
ssg69
g1760
sg62
(lp1767
g55
(g64
g57
NtRp1768
(dp1769
g60
(dp1770
g68
I3
ssg69
Nsg62
(lp1771
g55
(g71
g57
NtRp1772
(dp1773
g60
(dp1774
sg69
g1768
sg62
(lp1775
g55
(g76
g57
NtRp1776
(dp1777
g60
(dp1778
sg69
g1772
sg62
(lp1779
g55
(g56
g57
NtRp1780
(dp1781
g60
(dp1782
g68
I3
ssg69
g1776
sg62
(lp1783
S'1'
asbasbasbag55
(g71
g57
NtRp1784
(dp1785
g60
(dp1786
sg69
g1768
sg62
(lp1787
g55
(g76
g57
NtRp1788
(dp1789
g60
(dp1790
sg69
g1784
sg62
(lp1791
g55
(g56
g57
NtRp1792
(dp1793
g60
(dp1794
g68
I3
ssg69
g1788
sg62
(lp1795
S'0'
asbasbasbasbasbasbasbasbasbasbasbag55
(g71
g57
NtRp1796
(dp1797
g60
(dp1798
sg69
g65
sg62
(lp1799
g55
(g76
g57
NtRp1800
(dp1801
g60
(dp1802
g80
g81
ssg69
g1796
sg62
(lp1803
S'extension'
p1804
asbag55
(g76
g57
NtRp1805
(dp1806
g60
(dp1807
g87
g88
ssg69
g1796
sg62
(lp1808
S':'
asbag55
(g76
g57
NtRp1809
(dp1810
g60
(dp1811
sg69
g1796
sg62
(lp1812
g55
(g56
g57
NtRp1813
(dp1814
g60
(dp1815
g68
I5
ssg69
g1809
sg62
(lp1816
S'html'
p1817
asbasbasbag55
(g71
g57
NtRp1818
(dp1819
g60
(dp1820
sg69
g65
sg62
(lp1821
g55
(g76
g57
NtRp1822
(dp1823
g60
(dp1824
g80
g81
ssg69
g1818
sg62
(lp1825
S'folder'
p1826
asbag55
(g76
g57
NtRp1827
(dp1828
g60
(dp1829
g87
g88
ssg69
g1818
sg62
(lp1830
S':'
asbag55
(g76
g57
NtRp1831
(dp1832
g60
(dp1833
sg69
g1818
sg62
(lp1834
g55
(g56
g57
NtRp1835
(dp1836
g60
(dp1837
g68
I5
ssg69
g1831
sg62
(lp1838
S'/home/ian/web2py/applications/topoi/'
p1839
asbasbasbag55
(g71
g57
NtRp1840
(dp1841
g60
(dp1842
sg69
g65
sg62
(lp1843
g55
(g76
g57
NtRp1844
(dp1845
g60
(dp1846
g80
g81
ssg69
g1840
sg62
(lp1847
S'function'
p1848
asbag55
(g76
g57
NtRp1849
(dp1850
g60
(dp1851
g87
g88
ssg69
g1840
sg62
(lp1852
S':'
asbag55
(g76
g57
NtRp1853
(dp1854
g60
(dp1855
sg69
g1840
sg62
(lp1856
g55
(g56
g57
NtRp1857
(dp1858
g60
(dp1859
g68
I5
ssg69
g1853
sg62
(lp1860
S'list'
p1861
asbasbasbag55
(g71
g57
NtRp1862
(dp1863
g60
(dp1864
sg69
g65
sg62
(lp1865
g55
(g76
g57
NtRp1866
(dp1867
g60
(dp1868
g80
g81
ssg69
g1862
sg62
(lp1869
S'get_vars'
p1870
asbag55
(g76
g57
NtRp1871
(dp1872
g60
(dp1873
g87
g88
ssg69
g1862
sg62
(lp1874
S':'
asbag55
(g76
g57
NtRp1875
(dp1876
g60
(dp1877
sg69
g1862
sg62
(lp1878
g55
(g56
g57
NtRp1879
(dp1880
g60
(dp1881
g68
I5
ssg69
g1875
sg62
(lp1882
g55
(g64
g57
NtRp1883
(dp1884
g60
(dp1885
g68
I4
ssg69
Nsg62
(lp1886
sbasbasbasbag55
(g71
g57
NtRp1887
(dp1888
g60
(dp1889
sg69
g65
sg62
(lp1890
g55
(g76
g57
NtRp1891
(dp1892
g60
(dp1893
g80
g81
ssg69
g1887
sg62
(lp1894
S'global_settings'
p1895
asbag55
(g76
g57
NtRp1896
(dp1897
g60
(dp1898
g87
g88
ssg69
g1887
sg62
(lp1899
S':'
asbag55
(g76
g57
NtRp1900
(dp1901
g60
(dp1902
sg69
g1887
sg62
(lp1903
g55
(g56
g57
NtRp1904
(dp1905
g60
(dp1906
g68
I5
ssg69
g1900
sg62
(lp1907
g55
(g64
g57
NtRp1908
(dp1909
g60
(dp1910
g68
I4
ssg69
Nsg62
(lp1911
g55
(g71
g57
NtRp1912
(dp1913
g60
(dp1914
sg69
g1908
sg62
(lp1915
g55
(g76
g57
NtRp1916
(dp1917
g60
(dp1918
g80
g81
ssg69
g1912
sg62
(lp1919
g858
asbag55
(g76
g57
NtRp1920
(dp1921
g60
(dp1922
g87
g88
ssg69
g1912
sg62
(lp1923
S':'
asbag55
(g76
g57
NtRp1924
(dp1925
g60
(dp1926
sg69
g1912
sg62
(lp1927
g55
(g56
g57
NtRp1928
(dp1929
g60
(dp1930
g68
I4
ssg69
g1924
sg62
(lp1931
S"set(['/home/ian/web2py/applications/topoi/', '/home/ian/web2py/applications/welcome/', '/home/ian/web2py/applications/admin/'])"
p1932
asbasbasbag55
(g71
g57
NtRp1933
(dp1934
g60
(dp1935
sg69
g1908
sg62
(lp1936
g55
(g76
g57
NtRp1937
(dp1938
g60
(dp1939
g80
g81
ssg69
g1933
sg62
(lp1940
g880
asbag55
(g76
g57
NtRp1941
(dp1942
g60
(dp1943
g87
g88
ssg69
g1933
sg62
(lp1944
S':'
asbag55
(g76
g57
NtRp1945
(dp1946
g60
(dp1947
sg69
g1933
sg62
(lp1948
g55
(g56
g57
NtRp1949
(dp1950
g60
(dp1951
g68
I4
ssg69
g1945
sg62
(lp1952
g893
asbasbasbag55
(g71
g57
NtRp1953
(dp1954
g60
(dp1955
sg69
g1908
sg62
(lp1956
g55
(g76
g57
NtRp1957
(dp1958
g60
(dp1959
g80
g81
ssg69
g1953
sg62
(lp1960
g902
asbag55
(g76
g57
NtRp1961
(dp1962
g60
(dp1963
g87
g88
ssg69
g1953
sg62
(lp1964
S':'
asbag55
(g76
g57
NtRp1965
(dp1966
g60
(dp1967
sg69
g1953
sg62
(lp1968
g55
(g56
g57
NtRp1969
(dp1970
g60
(dp1971
g68
I4
ssg69
g1965
sg62
(lp1972
g55
(g64
g57
NtRp1973
(dp1974
g60
(dp1975
g68
I3
ssg69
Nsg62
(lp1976
sbasbasbasbag55
(g71
g57
NtRp1977
(dp1978
g60
(dp1979
sg69
g1908
sg62
(lp1980
g55
(g76
g57
NtRp1981
(dp1982
g60
(dp1983
g80
g81
ssg69
g1977
sg62
(lp1984
g927
asbag55
(g76
g57
NtRp1985
(dp1986
g60
(dp1987
g87
g88
ssg69
g1977
sg62
(lp1988
S':'
asbag55
(g76
g57
NtRp1989
(dp1990
g60
(dp1991
sg69
g1977
sg62
(lp1992
g55
(g56
g57
NtRp1993
(dp1994
g60
(dp1995
g68
I4
ssg69
g1989
sg62
(lp1996
S"<Values at 0x28e97e8: {'verbose': False, 'ip': '127.0.0.1', 'shutdown_timeout': 5, 'taskbar': False, 'nocron': False, 'pid_filename': 'httpserver.pid', 'maxthreads': None, 'softcron': False, 'server_name': 'Ariel-ubuntu', 'bpython': False, 'nogui': False, 'port': 8000, 'extcron': False, 'debuglevel': 30, 'test': None, 'folder': '/home/ian/web2py', 'config': '', 'import_models': False, 'winservice': '', 'shell': None, 'run': '', 'log_filename': 'httpserver.log', 'args': [''], 'ssl_ca_certificate': None, 'scheduler': None, 'profiler_filename': None, 'ssl_private_key': '', 'password': '<ask>', 'request_queue_size': 5, 'ssl_certificate': '', 'cronjob': False, 'plain': False, 'quiet': False, 'interfaces': None, 'minthreads': None, 'timeout': 10, 'numthreads': None, 'nobanner': False}>"
p1997
asbasbasbag55
(g71
g57
NtRp1998
(dp1999
g60
(dp2000
sg69
g1908
sg62
(lp2001
g55
(g76
g57
NtRp2002
(dp2003
g60
(dp2004
g80
g81
ssg69
g1998
sg62
(lp2005
g949
asbag55
(g76
g57
NtRp2006
(dp2007
g60
(dp2008
g87
g88
ssg69
g1998
sg62
(lp2009
S':'
asbag55
(g76
g57
NtRp2010
(dp2011
g60
(dp2012
sg69
g1998
sg62
(lp2013
g55
(g56
g57
NtRp2014
(dp2015
g60
(dp2016
g68
I4
ssg69
g2010
sg62
(lp2017
S'set([])'
p2018
asbasbasbag55
(g71
g57
NtRp2019
(dp2020
g60
(dp2021
sg69
g1908
sg62
(lp2022
g55
(g76
g57
NtRp2023
(dp2024
g60
(dp2025
g80
g81
ssg69
g2019
sg62
(lp2026
g971
asbag55
(g76
g57
NtRp2027
(dp2028
g60
(dp2029
g87
g88
ssg69
g2019
sg62
(lp2030
S':'
asbag55
(g76
g57
NtRp2031
(dp2032
g60
(dp2033
sg69
g2019
sg62
(lp2034
g55
(g56
g57
NtRp2035
(dp2036
g60
(dp2037
g68
I4
ssg69
g2031
sg62
(lp2038
g98
asbasbasbag55
(g71
g57
NtRp2039
(dp2040
g60
(dp2041
sg69
g1908
sg62
(lp2042
g55
(g76
g57
NtRp2043
(dp2044
g60
(dp2045
g80
g81
ssg69
g2039
sg62
(lp2046
g992
asbag55
(g76
g57
NtRp2047
(dp2048
g60
(dp2049
g87
g88
ssg69
g2039
sg62
(lp2050
S':'
asbag55
(g76
g57
NtRp2051
(dp2052
g60
(dp2053
sg69
g2039
sg62
(lp2054
g55
(g56
g57
NtRp2055
(dp2056
g60
(dp2057
g68
I4
ssg69
g2051
sg62
(lp2058
g1005
asbasbasbag55
(g71
g57
NtRp2059
(dp2060
g60
(dp2061
sg69
g1908
sg62
(lp2062
g55
(g76
g57
NtRp2063
(dp2064
g60
(dp2065
g80
g81
ssg69
g2059
sg62
(lp2066
g1234
asbag55
(g76
g57
NtRp2067
(dp2068
g60
(dp2069
g87
g88
ssg69
g2059
sg62
(lp2070
S':'
asbag55
(g76
g57
NtRp2071
(dp2072
g60
(dp2073
sg69
g2059
sg62
(lp2074
g55
(g56
g57
NtRp2075
(dp2076
g60
(dp2077
g68
I4
ssg69
g2071
sg62
(lp2078
g98
asbasbasbag55
(g71
g57
NtRp2079
(dp2080
g60
(dp2081
sg69
g1908
sg62
(lp2082
g55
(g76
g57
NtRp2083
(dp2084
g60
(dp2085
g80
g81
ssg69
g2079
sg62
(lp2086
g1472
asbag55
(g76
g57
NtRp2087
(dp2088
g60
(dp2089
g87
g88
ssg69
g2079
sg62
(lp2090
S':'
asbag55
(g76
g57
NtRp2091
(dp2092
g60
(dp2093
sg69
g2079
sg62
(lp2094
g55
(g56
g57
NtRp2095
(dp2096
g60
(dp2097
g68
I4
ssg69
g2091
sg62
(lp2098
g1485
asbasbasbag55
(g71
g57
NtRp2099
(dp2100
g60
(dp2101
sg69
g1908
sg62
(lp2102
g55
(g76
g57
NtRp2103
(dp2104
g60
(dp2105
g80
g81
ssg69
g2099
sg62
(lp2106
g1515
asbag55
(g76
g57
NtRp2107
(dp2108
g60
(dp2109
g87
g88
ssg69
g2099
sg62
(lp2110
S':'
asbag55
(g76
g57
NtRp2111
(dp2112
g60
(dp2113
sg69
g2099
sg62
(lp2114
g55
(g56
g57
NtRp2115
(dp2116
g60
(dp2117
g68
I4
ssg69
g2111
sg62
(lp2118
g55
(g64
g57
NtRp2119
(dp2120
g60
(dp2121
g68
I3
ssg69
Nsg62
(lp2122
g55
(g71
g57
NtRp2123
(dp2124
g60
(dp2125
sg69
g2119
sg62
(lp2126
g55
(g76
g57
NtRp2127
(dp2128
g60
(dp2129
sg69
g2123
sg62
(lp2130
g55
(g56
g57
NtRp2131
(dp2132
g60
(dp2133
g68
I3
ssg69
g2127
sg62
(lp2134
S'1'
asbasbasbag55
(g71
g57
NtRp2135
(dp2136
g60
(dp2137
sg69
g2119
sg62
(lp2138
g55
(g76
g57
NtRp2139
(dp2140
g60
(dp2141
sg69
g2135
sg62
(lp2142
g55
(g56
g57
NtRp2143
(dp2144
g60
(dp2145
g68
I3
ssg69
g2139
sg62
(lp2146
S'99'
p2147
asbasbasbag55
(g71
g57
NtRp2148
(dp2149
g60
(dp2150
sg69
g2119
sg62
(lp2151
g55
(g76
g57
NtRp2152
(dp2153
g60
(dp2154
sg69
g2148
sg62
(lp2155
g55
(g56
g57
NtRp2156
(dp2157
g60
(dp2158
g68
I3
ssg69
g2152
sg62
(lp2159
S'2'
asbasbasbag55
(g71
g57
NtRp2160
(dp2161
g60
(dp2162
sg69
g2119
sg62
(lp2163
g55
(g76
g57
NtRp2164
(dp2165
g60
(dp2166
sg69
g2160
sg62
(lp2167
g55
(g56
g57
NtRp2168
(dp2169
g60
(dp2170
g68
I3
ssg69
g2164
sg62
(lp2171
S'datetime.datetime(2011, 9, 26, 6, 55, 33)'
p2172
asbasbasbag55
(g71
g57
NtRp2173
(dp2174
g60
(dp2175
sg69
g2119
sg62
(lp2176
g55
(g76
g57
NtRp2177
(dp2178
g60
(dp2179
sg69
g2173
sg62
(lp2180
g55
(g56
g57
NtRp2181
(dp2182
g60
(dp2183
g68
I3
ssg69
g2177
sg62
(lp2184
g1594
asbasbasbasbasbasbasbasbasbasbasbag55
(g71
g57
NtRp2185
(dp2186
g60
(dp2187
sg69
g65
sg62
(lp2188
g55
(g76
g57
NtRp2189
(dp2190
g60
(dp2191
g80
g81
ssg69
g2185
sg62
(lp2192
S'is_https'
p2193
asbag55
(g76
g57
NtRp2194
(dp2195
g60
(dp2196
g87
g88
ssg69
g2185
sg62
(lp2197
S':'
asbag55
(g76
g57
NtRp2198
(dp2199
g60
(dp2200
sg69
g2185
sg62
(lp2201
g55
(g56
g57
NtRp2202
(dp2203
g60
(dp2204
g68
I5
ssg69
g2198
sg62
(lp2205
g98
asbasbasbag55
(g71
g57
NtRp2206
(dp2207
g60
(dp2208
sg69
g65
sg62
(lp2209
g55
(g76
g57
NtRp2210
(dp2211
g60
(dp2212
g80
g81
ssg69
g2206
sg62
(lp2213
S'is_local'
p2214
asbag55
(g76
g57
NtRp2215
(dp2216
g60
(dp2217
g87
g88
ssg69
g2206
sg62
(lp2218
S':'
asbag55
(g76
g57
NtRp2219
(dp2220
g60
(dp2221
sg69
g2206
sg62
(lp2222
g55
(g56
g57
NtRp2223
(dp2224
g60
(dp2225
g68
I5
ssg69
g2219
sg62
(lp2226
g1703
asbasbasbag55
(g71
g57
NtRp2227
(dp2228
g60
(dp2229
sg69
g65
sg62
(lp2230
g55
(g76
g57
NtRp2231
(dp2232
g60
(dp2233
g80
g81
ssg69
g2227
sg62
(lp2234
S'is_restful'
p2235
asbag55
(g76
g57
NtRp2236
(dp2237
g60
(dp2238
g87
g88
ssg69
g2227
sg62
(lp2239
S':'
asbag55
(g76
g57
NtRp2240
(dp2241
g60
(dp2242
sg69
g2227
sg62
(lp2243
g55
(g56
g57
NtRp2244
(dp2245
g60
(dp2246
g68
I5
ssg69
g2240
sg62
(lp2247
g98
asbasbasbag55
(g71
g57
NtRp2248
(dp2249
g60
(dp2250
sg69
g65
sg62
(lp2251
g55
(g76
g57
NtRp2252
(dp2253
g60
(dp2254
g80
g81
ssg69
g2248
sg62
(lp2255
S'now'
p2256
asbag55
(g76
g57
NtRp2257
(dp2258
g60
(dp2259
g87
g88
ssg69
g2248
sg62
(lp2260
S':'
asbag55
(g76
g57
NtRp2261
(dp2262
g60
(dp2263
sg69
g2248
sg62
(lp2264
g55
(g56
g57
NtRp2265
(dp2266
g60
(dp2267
g68
I5
ssg69
g2261
sg62
(lp2268
S'datetime.datetime(2011, 12, 1, 13, 5, 6, 134937)'
p2269
asbasbasbag55
(g71
g57
NtRp2270
(dp2271
g60
(dp2272
sg69
g65
sg62
(lp2273
g55
(g76
g57
NtRp2274
(dp2275
g60
(dp2276
g80
g81
ssg69
g2270
sg62
(lp2277
S'post_vars'
p2278
asbag55
(g76
g57
NtRp2279
(dp2280
g60
(dp2281
g87
g88
ssg69
g2270
sg62
(lp2282
S':'
asbag55
(g76
g57
NtRp2283
(dp2284
g60
(dp2285
sg69
g2270
sg62
(lp2286
g55
(g56
g57
NtRp2287
(dp2288
g60
(dp2289
g68
I5
ssg69
g2283
sg62
(lp2290
g55
(g64
g57
NtRp2291
(dp2292
g60
(dp2293
g68
I4
ssg69
Nsg62
(lp2294
sbasbasbasbag55
(g71
g57
NtRp2295
(dp2296
g60
(dp2297
sg69
g65
sg62
(lp2298
g55
(g76
g57
NtRp2299
(dp2300
g60
(dp2301
g80
g81
ssg69
g2295
sg62
(lp2302
S'raw_args'
p2303
asbag55
(g76
g57
NtRp2304
(dp2305
g60
(dp2306
g87
g88
ssg69
g2295
sg62
(lp2307
S':'
asbag55
(g76
g57
NtRp2308
(dp2309
g60
(dp2310
sg69
g2295
sg62
(lp2311
g55
(g56
g57
NtRp2312
(dp2313
g60
(dp2314
g68
I5
ssg69
g2308
sg62
(lp2315
S'notes/reference'
p2316
asbasbasbag55
(g71
g57
NtRp2317
(dp2318
g60
(dp2319
sg69
g65
sg62
(lp2320
g55
(g76
g57
NtRp2321
(dp2322
g60
(dp2323
g80
g81
ssg69
g2317
sg62
(lp2324
S'url'
p2325
asbag55
(g76
g57
NtRp2326
(dp2327
g60
(dp2328
g87
g88
ssg69
g2317
sg62
(lp2329
S':'
asbag55
(g76
g57
NtRp2330
(dp2331
g60
(dp2332
sg69
g2317
sg62
(lp2333
g55
(g56
g57
NtRp2334
(dp2335
g60
(dp2336
g68
I5
ssg69
g2330
sg62
(lp2337
S'/topoi/plugin_listandedit/list/notes/reference'
p2338
asbasbasbag55
(g71
g57
NtRp2339
(dp2340
g60
(dp2341
sg69
g65
sg62
(lp2342
g55
(g76
g57
NtRp2343
(dp2344
g60
(dp2345
g80
g81
ssg69
g2339
sg62
(lp2346
S'utcnow'
p2347
asbag55
(g76
g57
NtRp2348
(dp2349
g60
(dp2350
g87
g88
ssg69
g2339
sg62
(lp2351
S':'
asbag55
(g76
g57
NtRp2352
(dp2353
g60
(dp2354
sg69
g2339
sg62
(lp2355
g55
(g56
g57
NtRp2356
(dp2357
g60
(dp2358
g68
I5
ssg69
g2352
sg62
(lp2359
S'datetime.datetime(2011, 12, 1, 18, 5, 6, 134984)'
p2360
asbasbasbag55
(g71
g57
NtRp2361
(dp2362
g60
(dp2363
sg69
g65
sg62
(lp2364
g55
(g76
g57
NtRp2365
(dp2366
g60
(dp2367
g80
g81
ssg69
g2361
sg62
(lp2368
S'uuid'
p2369
asbag55
(g76
g57
NtRp2370
(dp2371
g60
(dp2372
g87
g88
ssg69
g2361
sg62
(lp2373
S':'
asbag55
(g76
g57
NtRp2374
(dp2375
g60
(dp2376
sg69
g2361
sg62
(lp2377
g55
(g56
g57
NtRp2378
(dp2379
g60
(dp2380
g68
I5
ssg69
g2374
sg62
(lp2381
S'topoi/127.0.0.1.2011-12-01.13-05-06.5c08f753-a29e-491c-b23f-e301ba35755c'
p2382
asbasbasbag55
(g71
g57
NtRp2383
(dp2384
g60
(dp2385
sg69
g65
sg62
(lp2386
g55
(g76
g57
NtRp2387
(dp2388
g60
(dp2389
g80
g81
ssg69
g2383
sg62
(lp2390
S'vars'
p2391
asbag55
(g76
g57
NtRp2392
(dp2393
g60
(dp2394
g87
g88
ssg69
g2383
sg62
(lp2395
S':'
asbag55
(g76
g57
NtRp2396
(dp2397
g60
(dp2398
sg69
g2383
sg62
(lp2399
g55
(g56
g57
NtRp2400
(dp2401
g60
(dp2402
g68
I5
ssg69
g2396
sg62
(lp2403
g55
(g64
g57
NtRp2404
(dp2405
g60
(dp2406
g68
I4
ssg69
Nsg62
(lp2407
sbasbasbasbag55
(g71
g57
NtRp2408
(dp2409
g60
(dp2410
sg69
g65
sg62
(lp2411
g55
(g76
g57
NtRp2412
(dp2413
g60
(dp2414
g80
g81
ssg69
g2408
sg62
(lp2415
S'wsgi'
p2416
asbag55
(g76
g57
NtRp2417
(dp2418
g60
(dp2419
g87
g88
ssg69
g2408
sg62
(lp2420
S':'
asbag55
(g76
g57
NtRp2421
(dp2422
g60
(dp2423
sg69
g2408
sg62
(lp2424
g55
(g56
g57
NtRp2425
(dp2426
g60
(dp2427
g68
I5
ssg69
g2421
sg62
(lp2428
g55
(g64
g57
NtRp2429
(dp2430
g60
(dp2431
g68
I4
ssg69
Nsg62
(lp2432
g55
(g71
g57
NtRp2433
(dp2434
g60
(dp2435
sg69
g2429
sg62
(lp2436
g55
(g76
g57
NtRp2437
(dp2438
g60
(dp2439
g80
g81
ssg69
g2433
sg62
(lp2440
S'environ'
p2441
asbag55
(g76
g57
NtRp2442
(dp2443
g60
(dp2444
g87
g88
ssg69
g2433
sg62
(lp2445
S':'
asbag55
(g76
g57
NtRp2446
(dp2447
g60
(dp2448
sg69
g2433
sg62
(lp2449
g55
(g56
g57
NtRp2450
(dp2451
g60
(dp2452
g68
I4
ssg69
g2446
sg62
(lp2453
g55
(g64
g57
NtRp2454
(dp2455
g60
(dp2456
g68
I3
ssg69
Nsg62
(lp2457
g55
(g71
g57
NtRp2458
(dp2459
g60
(dp2460
sg69
g2454
sg62
(lp2461
g55
(g76
g57
NtRp2462
(dp2463
g60
(dp2464
g80
g81
ssg69
g2458
sg62
(lp2465
S'HTTP_ACCEPT'
p2466
asbag55
(g76
g57
NtRp2467
(dp2468
g60
(dp2469
g87
g88
ssg69
g2458
sg62
(lp2470
S':'
asbag55
(g76
g57
NtRp2471
(dp2472
g60
(dp2473
sg69
g2458
sg62
(lp2474
g55
(g56
g57
NtRp2475
(dp2476
g60
(dp2477
g68
I3
ssg69
g2471
sg62
(lp2478
g1027
asbasbasbag55
(g71
g57
NtRp2479
(dp2480
g60
(dp2481
sg69
g2454
sg62
(lp2482
g55
(g76
g57
NtRp2483
(dp2484
g60
(dp2485
g80
g81
ssg69
g2479
sg62
(lp2486
S'HTTP_ACCEPT_CHARSET'
p2487
asbag55
(g76
g57
NtRp2488
(dp2489
g60
(dp2490
g87
g88
ssg69
g2479
sg62
(lp2491
S':'
asbag55
(g76
g57
NtRp2492
(dp2493
g60
(dp2494
sg69
g2479
sg62
(lp2495
g55
(g56
g57
NtRp2496
(dp2497
g60
(dp2498
g68
I3
ssg69
g2492
sg62
(lp2499
g1049
asbasbasbag55
(g71
g57
NtRp2500
(dp2501
g60
(dp2502
sg69
g2454
sg62
(lp2503
g55
(g76
g57
NtRp2504
(dp2505
g60
(dp2506
g80
g81
ssg69
g2500
sg62
(lp2507
S'HTTP_ACCEPT_ENCODING'
p2508
asbag55
(g76
g57
NtRp2509
(dp2510
g60
(dp2511
g87
g88
ssg69
g2500
sg62
(lp2512
S':'
asbag55
(g76
g57
NtRp2513
(dp2514
g60
(dp2515
sg69
g2500
sg62
(lp2516
g55
(g56
g57
NtRp2517
(dp2518
g60
(dp2519
g68
I3
ssg69
g2513
sg62
(lp2520
g1071
asbasbasbag55
(g71
g57
NtRp2521
(dp2522
g60
(dp2523
sg69
g2454
sg62
(lp2524
g55
(g76
g57
NtRp2525
(dp2526
g60
(dp2527
g80
g81
ssg69
g2521
sg62
(lp2528
S'HTTP_ACCEPT_LANGUAGE'
p2529
asbag55
(g76
g57
NtRp2530
(dp2531
g60
(dp2532
g87
g88
ssg69
g2521
sg62
(lp2533
S':'
asbag55
(g76
g57
NtRp2534
(dp2535
g60
(dp2536
sg69
g2521
sg62
(lp2537
g55
(g56
g57
NtRp2538
(dp2539
g60
(dp2540
g68
I3
ssg69
g2534
sg62
(lp2541
g1093
asbasbasbag55
(g71
g57
NtRp2542
(dp2543
g60
(dp2544
sg69
g2454
sg62
(lp2545
g55
(g76
g57
NtRp2546
(dp2547
g60
(dp2548
g80
g81
ssg69
g2542
sg62
(lp2549
S'HTTP_CACHE_CONTROL'
p2550
asbag55
(g76
g57
NtRp2551
(dp2552
g60
(dp2553
g87
g88
ssg69
g2542
sg62
(lp2554
S':'
asbag55
(g76
g57
NtRp2555
(dp2556
g60
(dp2557
sg69
g2542
sg62
(lp2558
g55
(g56
g57
NtRp2559
(dp2560
g60
(dp2561
g68
I3
ssg69
g2555
sg62
(lp2562
g1115
asbasbasbag55
(g71
g57
NtRp2563
(dp2564
g60
(dp2565
sg69
g2454
sg62
(lp2566
g55
(g76
g57
NtRp2567
(dp2568
g60
(dp2569
g80
g81
ssg69
g2563
sg62
(lp2570
S'HTTP_CONNECTION'
p2571
asbag55
(g76
g57
NtRp2572
(dp2573
g60
(dp2574
g87
g88
ssg69
g2563
sg62
(lp2575
S':'
asbag55
(g76
g57
NtRp2576
(dp2577
g60
(dp2578
sg69
g2563
sg62
(lp2579
g55
(g56
g57
NtRp2580
(dp2581
g60
(dp2582
g68
I3
ssg69
g2576
sg62
(lp2583
g1137
asbasbasbag55
(g71
g57
NtRp2584
(dp2585
g60
(dp2586
sg69
g2454
sg62
(lp2587
g55
(g76
g57
NtRp2588
(dp2589
g60
(dp2590
g80
g81
ssg69
g2584
sg62
(lp2591
S'HTTP_COOKIE'
p2592
asbag55
(g76
g57
NtRp2593
(dp2594
g60
(dp2595
g87
g88
ssg69
g2584
sg62
(lp2596
S':'
asbag55
(g76
g57
NtRp2597
(dp2598
g60
(dp2599
sg69
g2584
sg62
(lp2600
g55
(g56
g57
NtRp2601
(dp2602
g60
(dp2603
g68
I3
ssg69
g2597
sg62
(lp2604
g1159
asbasbasbag55
(g71
g57
NtRp2605
(dp2606
g60
(dp2607
sg69
g2454
sg62
(lp2608
g55
(g76
g57
NtRp2609
(dp2610
g60
(dp2611
g80
g81
ssg69
g2605
sg62
(lp2612
S'HTTP_HOST'
p2613
asbag55
(g76
g57
NtRp2614
(dp2615
g60
(dp2616
g87
g88
ssg69
g2605
sg62
(lp2617
S':'
asbag55
(g76
g57
NtRp2618
(dp2619
g60
(dp2620
sg69
g2605
sg62
(lp2621
g55
(g56
g57
NtRp2622
(dp2623
g60
(dp2624
g68
I3
ssg69
g2618
sg62
(lp2625
g1181
asbasbasbag55
(g71
g57
NtRp2626
(dp2627
g60
(dp2628
sg69
g2454
sg62
(lp2629
g55
(g76
g57
NtRp2630
(dp2631
g60
(dp2632
g80
g81
ssg69
g2626
sg62
(lp2633
S'HTTP_USER_AGENT'
p2634
asbag55
(g76
g57
NtRp2635
(dp2636
g60
(dp2637
g87
g88
ssg69
g2626
sg62
(lp2638
S':'
asbag55
(g76
g57
NtRp2639
(dp2640
g60
(dp2641
sg69
g2626
sg62
(lp2642
g55
(g56
g57
NtRp2643
(dp2644
g60
(dp2645
g68
I3
ssg69
g2639
sg62
(lp2646
g1203
asbasbasbag55
(g71
g57
NtRp2647
(dp2648
g60
(dp2649
sg69
g2454
sg62
(lp2650
g55
(g76
g57
NtRp2651
(dp2652
g60
(dp2653
g80
g81
ssg69
g2647
sg62
(lp2654
S'HTTP_X_INSIGHT'
p2655
asbag55
(g76
g57
NtRp2656
(dp2657
g60
(dp2658
g87
g88
ssg69
g2647
sg62
(lp2659
S':'
asbag55
(g76
g57
NtRp2660
(dp2661
g60
(dp2662
sg69
g2647
sg62
(lp2663
g55
(g56
g57
NtRp2664
(dp2665
g60
(dp2666
g68
I3
ssg69
g2660
sg62
(lp2667
g1225
asbasbasbag55
(g71
g57
NtRp2668
(dp2669
g60
(dp2670
sg69
g2454
sg62
(lp2671
g55
(g76
g57
NtRp2672
(dp2673
g60
(dp2674
g80
g81
ssg69
g2668
sg62
(lp2675
S'PATH_INFO'
p2676
asbag55
(g76
g57
NtRp2677
(dp2678
g60
(dp2679
g87
g88
ssg69
g2668
sg62
(lp2680
S':'
asbag55
(g76
g57
NtRp2681
(dp2682
g60
(dp2683
sg69
g2668
sg62
(lp2684
g55
(g56
g57
NtRp2685
(dp2686
g60
(dp2687
g68
I3
ssg69
g2681
sg62
(lp2688
g1268
asbasbasbag55
(g71
g57
NtRp2689
(dp2690
g60
(dp2691
sg69
g2454
sg62
(lp2692
g55
(g76
g57
NtRp2693
(dp2694
g60
(dp2695
g80
g81
ssg69
g2689
sg62
(lp2696
S'QUERY_STRING'
p2697
asbag55
(g76
g57
NtRp2698
(dp2699
g60
(dp2700
g87
g88
ssg69
g2689
sg62
(lp2701
S':'
asbag55
(g76
g57
NtRp2702
(dp2703
g60
(dp2704
sg69
g2689
sg62
(lp2705
g55
(g56
g57
NtRp2706
(dp2707
g60
(dp2708
g68
I3
ssg69
g2702
sg62
(lp2709
S''
asbasbasbag55
(g71
g57
NtRp2710
(dp2711
g60
(dp2712
sg69
g2454
sg62
(lp2713
g55
(g76
g57
NtRp2714
(dp2715
g60
(dp2716
g80
g81
ssg69
g2710
sg62
(lp2717
S'REMOTE_ADDR'
p2718
asbag55
(g76
g57
NtRp2719
(dp2720
g60
(dp2721
g87
g88
ssg69
g2710
sg62
(lp2722
S':'
asbag55
(g76
g57
NtRp2723
(dp2724
g60
(dp2725
sg69
g2710
sg62
(lp2726
g55
(g56
g57
NtRp2727
(dp2728
g60
(dp2729
g68
I3
ssg69
g2723
sg62
(lp2730
g214
asbasbasbag55
(g71
g57
NtRp2731
(dp2732
g60
(dp2733
sg69
g2454
sg62
(lp2734
g55
(g76
g57
NtRp2735
(dp2736
g60
(dp2737
g80
g81
ssg69
g2731
sg62
(lp2738
S'REMOTE_PORT'
p2739
asbag55
(g76
g57
NtRp2740
(dp2741
g60
(dp2742
g87
g88
ssg69
g2731
sg62
(lp2743
S':'
asbag55
(g76
g57
NtRp2744
(dp2745
g60
(dp2746
sg69
g2731
sg62
(lp2747
g55
(g56
g57
NtRp2748
(dp2749
g60
(dp2750
g68
I3
ssg69
g2744
sg62
(lp2751
g1332
asbasbasbag55
(g71
g57
NtRp2752
(dp2753
g60
(dp2754
sg69
g2454
sg62
(lp2755
g55
(g76
g57
NtRp2756
(dp2757
g60
(dp2758
g80
g81
ssg69
g2752
sg62
(lp2759
S'REQUEST_METHOD'
p2760
asbag55
(g76
g57
NtRp2761
(dp2762
g60
(dp2763
g87
g88
ssg69
g2752
sg62
(lp2764
S':'
asbag55
(g76
g57
NtRp2765
(dp2766
g60
(dp2767
sg69
g2752
sg62
(lp2768
g55
(g56
g57
NtRp2769
(dp2770
g60
(dp2771
g68
I3
ssg69
g2765
sg62
(lp2772
g1354
asbasbasbag55
(g71
g57
NtRp2773
(dp2774
g60
(dp2775
sg69
g2454
sg62
(lp2776
g55
(g76
g57
NtRp2777
(dp2778
g60
(dp2779
g80
g81
ssg69
g2773
sg62
(lp2780
S'SCRIPT_NAME'
p2781
asbag55
(g76
g57
NtRp2782
(dp2783
g60
(dp2784
g87
g88
ssg69
g2773
sg62
(lp2785
S':'
asbag55
(g76
g57
NtRp2786
(dp2787
g60
(dp2788
sg69
g2773
sg62
(lp2789
g55
(g56
g57
NtRp2790
(dp2791
g60
(dp2792
g68
I3
ssg69
g2786
sg62
(lp2793
S''
asbasbasbag55
(g71
g57
NtRp2794
(dp2795
g60
(dp2796
sg69
g2454
sg62
(lp2797
g55
(g76
g57
NtRp2798
(dp2799
g60
(dp2800
g80
g81
ssg69
g2794
sg62
(lp2801
S'SERVER_NAME'
p2802
asbag55
(g76
g57
NtRp2803
(dp2804
g60
(dp2805
g87
g88
ssg69
g2794
sg62
(lp2806
S':'
asbag55
(g76
g57
NtRp2807
(dp2808
g60
(dp2809
sg69
g2794
sg62
(lp2810
g55
(g56
g57
NtRp2811
(dp2812
g60
(dp2813
g68
I3
ssg69
g2807
sg62
(lp2814
g1397
asbasbasbag55
(g71
g57
NtRp2815
(dp2816
g60
(dp2817
sg69
g2454
sg62
(lp2818
g55
(g76
g57
NtRp2819
(dp2820
g60
(dp2821
g80
g81
ssg69
g2815
sg62
(lp2822
S'SERVER_PORT'
p2823
asbag55
(g76
g57
NtRp2824
(dp2825
g60
(dp2826
g87
g88
ssg69
g2815
sg62
(lp2827
S':'
asbag55
(g76
g57
NtRp2828
(dp2829
g60
(dp2830
sg69
g2815
sg62
(lp2831
g55
(g56
g57
NtRp2832
(dp2833
g60
(dp2834
g68
I3
ssg69
g2828
sg62
(lp2835
g1419
asbasbasbag55
(g71
g57
NtRp2836
(dp2837
g60
(dp2838
sg69
g2454
sg62
(lp2839
g55
(g76
g57
NtRp2840
(dp2841
g60
(dp2842
g80
g81
ssg69
g2836
sg62
(lp2843
S'SERVER_PROTOCOL'
p2844
asbag55
(g76
g57
NtRp2845
(dp2846
g60
(dp2847
g87
g88
ssg69
g2836
sg62
(lp2848
S':'
asbag55
(g76
g57
NtRp2849
(dp2850
g60
(dp2851
sg69
g2836
sg62
(lp2852
g55
(g56
g57
NtRp2853
(dp2854
g60
(dp2855
g68
I3
ssg69
g2849
sg62
(lp2856
g1441
asbasbasbag55
(g71
g57
NtRp2857
(dp2858
g60
(dp2859
sg69
g2454
sg62
(lp2860
g55
(g76
g57
NtRp2861
(dp2862
g60
(dp2863
g80
g81
ssg69
g2857
sg62
(lp2864
S'SERVER_SOFTWARE'
p2865
asbag55
(g76
g57
NtRp2866
(dp2867
g60
(dp2868
g87
g88
ssg69
g2857
sg62
(lp2869
S':'
asbag55
(g76
g57
NtRp2870
(dp2871
g60
(dp2872
sg69
g2857
sg62
(lp2873
g55
(g56
g57
NtRp2874
(dp2875
g60
(dp2876
g68
I3
ssg69
g2870
sg62
(lp2877
g1463
asbasbasbag55
(g71
g57
NtRp2878
(dp2879
g60
(dp2880
sg69
g2454
sg62
(lp2881
g55
(g76
g57
NtRp2882
(dp2883
g60
(dp2884
g80
g81
ssg69
g2878
sg62
(lp2885
S'wsgi.errors'
p2886
asbag55
(g76
g57
NtRp2887
(dp2888
g60
(dp2889
g87
g88
ssg69
g2878
sg62
(lp2890
S':'
asbag55
(g76
g57
NtRp2891
(dp2892
g60
(dp2893
sg69
g2878
sg62
(lp2894
g55
(g56
g57
NtRp2895
(dp2896
g60
(dp2897
g68
I3
ssg69
g2891
sg62
(lp2898
S"<open file '<stderr>', mode 'w' at 0x7ff925b48270>"
p2899
asbasbasbag55
(g71
g57
NtRp2900
(dp2901
g60
(dp2902
sg69
g2454
sg62
(lp2903
g55
(g76
g57
NtRp2904
(dp2905
g60
(dp2906
g80
g81
ssg69
g2900
sg62
(lp2907
S'wsgi.file_wrapper'
p2908
asbag55
(g76
g57
NtRp2909
(dp2910
g60
(dp2911
g87
g88
ssg69
g2900
sg62
(lp2912
S':'
asbag55
(g76
g57
NtRp2913
(dp2914
g60
(dp2915
sg69
g2900
sg62
(lp2916
g55
(g56
g57
NtRp2917
(dp2918
g60
(dp2919
g68
I3
ssg69
g2913
sg62
(lp2920
S'<class wsgiref.util.FileWrapper at 0x27b2808>'
p2921
asbasbasbag55
(g71
g57
NtRp2922
(dp2923
g60
(dp2924
sg69
g2454
sg62
(lp2925
g55
(g76
g57
NtRp2926
(dp2927
g60
(dp2928
g80
g81
ssg69
g2922
sg62
(lp2929
S'wsgi.input'
p2930
asbag55
(g76
g57
NtRp2931
(dp2932
g60
(dp2933
g87
g88
ssg69
g2922
sg62
(lp2934
S':'
asbag55
(g76
g57
NtRp2935
(dp2936
g60
(dp2937
sg69
g2922
sg62
(lp2938
g55
(g56
g57
NtRp2939
(dp2940
g60
(dp2941
g68
I3
ssg69
g2935
sg62
(lp2942
S'<cStringIO.StringO object at 0x31a3d18>'
p2943
asbasbasbag55
(g71
g57
NtRp2944
(dp2945
g60
(dp2946
sg69
g2454
sg62
(lp2947
g55
(g76
g57
NtRp2948
(dp2949
g60
(dp2950
g80
g81
ssg69
g2944
sg62
(lp2951
S'wsgi.multiprocess'
p2952
asbag55
(g76
g57
NtRp2953
(dp2954
g60
(dp2955
g87
g88
ssg69
g2944
sg62
(lp2956
S':'
asbag55
(g76
g57
NtRp2957
(dp2958
g60
(dp2959
sg69
g2944
sg62
(lp2960
g55
(g56
g57
NtRp2961
(dp2962
g60
(dp2963
g68
I3
ssg69
g2957
sg62
(lp2964
g98
asbasbasbag55
(g71
g57
NtRp2965
(dp2966
g60
(dp2967
sg69
g2454
sg62
(lp2968
g55
(g76
g57
NtRp2969
(dp2970
g60
(dp2971
g80
g81
ssg69
g2965
sg62
(lp2972
S'wsgi.multithread'
p2973
asbag55
(g76
g57
NtRp2974
(dp2975
g60
(dp2976
g87
g88
ssg69
g2965
sg62
(lp2977
S':'
asbag55
(g76
g57
NtRp2978
(dp2979
g60
(dp2980
sg69
g2965
sg62
(lp2981
g55
(g56
g57
NtRp2982
(dp2983
g60
(dp2984
g68
I3
ssg69
g2978
sg62
(lp2985
g1703
asbasbasbag55
(g71
g57
NtRp2986
(dp2987
g60
(dp2988
sg69
g2454
sg62
(lp2989
g55
(g76
g57
NtRp2990
(dp2991
g60
(dp2992
g80
g81
ssg69
g2986
sg62
(lp2993
S'wsgi.run_once'
p2994
asbag55
(g76
g57
NtRp2995
(dp2996
g60
(dp2997
g87
g88
ssg69
g2986
sg62
(lp2998
S':'
asbag55
(g76
g57
NtRp2999
(dp3000
g60
(dp3001
sg69
g2986
sg62
(lp3002
g55
(g56
g57
NtRp3003
(dp3004
g60
(dp3005
g68
I3
ssg69
g2999
sg62
(lp3006
g98
asbasbasbag55
(g71
g57
NtRp3007
(dp3008
g60
(dp3009
sg69
g2454
sg62
(lp3010
g55
(g76
g57
NtRp3011
(dp3012
g60
(dp3013
g80
g81
ssg69
g3007
sg62
(lp3014
S'wsgi.url_scheme'
p3015
asbag55
(g76
g57
NtRp3016
(dp3017
g60
(dp3018
g87
g88
ssg69
g3007
sg62
(lp3019
S':'
asbag55
(g76
g57
NtRp3020
(dp3021
g60
(dp3022
sg69
g3007
sg62
(lp3023
g55
(g56
g57
NtRp3024
(dp3025
g60
(dp3026
g68
I3
ssg69
g3020
sg62
(lp3027
g1746
asbasbasbag55
(g71
g57
NtRp3028
(dp3029
g60
(dp3030
sg69
g2454
sg62
(lp3031
g55
(g76
g57
NtRp3032
(dp3033
g60
(dp3034
g80
g81
ssg69
g3028
sg62
(lp3035
S'wsgi.version'
p3036
asbag55
(g76
g57
NtRp3037
(dp3038
g60
(dp3039
g87
g88
ssg69
g3028
sg62
(lp3040
S':'
asbag55
(g76
g57
NtRp3041
(dp3042
g60
(dp3043
sg69
g3028
sg62
(lp3044
g55
(g56
g57
NtRp3045
(dp3046
g60
(dp3047
g68
I3
ssg69
g3041
sg62
(lp3048
S'1'
asbasbasbasbasbasbasbasbasbasbasbasbasbsS'frames'
p3049
(lp3050
(dp3051
S'file'
p3052
S'/home/ian/web2py/gluon/restricted.py'
p3053
sS'dump'
p3054
(dp3055
S'environment'
p3056
S"{'A': <class 'gluon.html.A'>, 'Auth': <class 'gluon.tools.Auth'>, 'B': <class 'gluon.html.B'>, 'BEAUTIFY': <class 'gluon.html.BEAUTIFY'>, 'BODY': <class 'gluon.html.BODY'>, 'BR': <class 'gluon.html.BR'>, 'BUTTON': <class 'gluon.html.BUTTON'>, 'CAT': <class 'gluon.html.CAT'>, 'CENTER': <class 'gluon.html.CENTER'>, 'CLEANUP': <class 'gluon.validators.CLEANUP'>, ...}"
p3057
sS'ccode'
p3058
S'<code object <module> at 0x32bd530, file "/home/...topoi/controllers/plugin_listandedit.py", line 3>'
p3059
ssS'lnum'
p3060
I194
sS'lines'
p3061
(dp3062
I192
S'        else:'
p3063
sI193
S'            ccode = compile2(code,layer)'
p3064
sI194
S'        exec ccode in environment'
p3065
sI195
S'    except HTTP:'
p3066
sI196
S'        raise'
p3067
sI197
S'    except Exception, error:'
p3068
sI198
S'        # XXX Show exception in Wing IDE if running in debugger'
p3069
sI189
S'    try:'
p3070
sI190
S'        if type(code) == types.CodeType:'
p3071
sI191
S'            ccode = code'
p3072
ssS'call'
p3073
S"(code='# coding: utf8\\n# try something like\\ndef list():\\n...m = form)\\n\\nresponse._vars=response._caller(list)\\n', environment={'A': <class 'gluon.html.A'>, 'Auth': <class 'gluon.tools.Auth'>, 'B': <class 'gluon.html.B'>, 'BEAUTIFY': <class 'gluon.html.BEAUTIFY'>, 'BODY': <class 'gluon.html.BODY'>, 'BR': <class 'gluon.html.BR'>, 'BUTTON': <class 'gluon.html.BUTTON'>, 'CAT': <class 'gluon.html.CAT'>, 'CENTER': <class 'gluon.html.CENTER'>, 'CLEANUP': <class 'gluon.validators.CLEANUP'>, ...}, layer='/home/ian/web2py/applications/topoi/controllers/plugin_listandedit.py')"
p3074
sS'func'
p3075
S'restricted'
p3076
sa(dp3077
g3052
S'/home/ian/web2py/applications/topoi/controllers/plugin_listandedit.py'
p3078
sg3054
(dp3079
sg3060
I35
sg3061
(dp3080
I32
S''
sI33
S'    return dict(form = form)'
p3081
sI24
S'        listset.append(i)'
p3082
sI25
S''
sI26
S'    return dict(listset = listset)'
p3083
sI27
S''
sI28
S'def edit():'
p3084
sI29
S'    tablename = request.args[0]'
p3085
sI30
S'    rowid = request.args[1]'
p3086
sI31
S'    form = crud.update(db[tablename], rowid)'
p3087
ssg3073
S'()'
p3088
sg3075
S'<module>'
p3089
sa(dp3090
g3052
S'/home/ian/web2py/gluon/globals.py'
p3091
sg3054
(dp3092
S'self'
p3093
S'undefined'
p3094
sS'f'
S'<function list>'
p3095
ssg3060
I149
sg3061
(dp3096
I144
S'        self.meta = Storage()      # used by web2py_ajax.html'
p3097
sI145
S'        self.menu = []             # used by the default view layout'
p3098
sI146
S'        self.files = []            # used by web2py_ajax.html'
p3099
sI147
S'        self.generic_patterns = [] # patterns to allow generic views'
p3100
sI148
S'        self._vars = None'
p3101
sI149
S'        self._caller = lambda f: f()'
p3102
sI150
S'        self._view_environment = None'
p3103
sI151
S'        self._custom_commit = None'
p3104
sI152
S'        self._custom_rollback = None'
p3105
sI153
S''
ssg3073
S'(f=<function list>)'
p3106
sg3075
S'<lambda>'
p3107
sa(dp3108
g3052
S'/home/ian/web2py/applications/topoi/controllers/plugin_listandedit.py'
p3109
sg3054
(dp3110
S'global request'
p3111
S"<Storage {'body': <cStringIO.StringO object at 0..._vars': <Storage {}>, 'post_vars': <Storage {}>}>"
p3112
sS'request.vars'
p3113
S'<Storage {}>'
p3114
sS'fieldnames'
p3115
g3094
ssg3060
I10
sg3061
(dp3116
I5
S"    response.files.append(URL('static', 'plugin_listandedit/plugin_listandedit.js'))"
p3117
sI6
S'    #settings'
p3118
sI7
S"    displayfield = ''"
p3119
sI8
S''
sI9
S'    tablename = request.args[0]'
p3120
sI10
S'    fieldnames = request.vars[0]'
p3121
sI11
S''
sI12
S'    print tablename'
p3122
sI13
S''
sI14
S"    rowlist = ''"
p3123
ssg3073
S'()'
p3124
sg3075
S'list'
p3125
sasS'pyver'
p3126
S'Python 2.7.2+: /usr/bin/python2.7'
p3127
sS'session'
p3128
g55
(g56
g57
NtRp3129
(dp3130
g60
(dp3131
sg62
(lp3132
g55
(g64
g57
NtRp3133
(dp3134
g60
(dp3135
g68
I5
ssg69
Nsg62
(lp3136
g55
(g71
g57
NtRp3137
(dp3138
g60
(dp3139
sg69
g3133
sg62
(lp3140
g55
(g76
g57
NtRp3141
(dp3142
g60
(dp3143
g80
g81
ssg69
g3137
sg62
(lp3144
S'auth'
p3145
asbag55
(g76
g57
NtRp3146
(dp3147
g60
(dp3148
g87
g88
ssg69
g3137
sg62
(lp3149
S':'
asbag55
(g76
g57
NtRp3150
(dp3151
g60
(dp3152
sg69
g3137
sg62
(lp3153
g55
(g56
g57
NtRp3154
(dp3155
g60
(dp3156
g68
I5
ssg69
g3150
sg62
(lp3157
g55
(g64
g57
NtRp3158
(dp3159
g60
(dp3160
g68
I4
ssg69
Nsg62
(lp3161
g55
(g71
g57
NtRp3162
(dp3163
g60
(dp3164
sg69
g3158
sg62
(lp3165
g55
(g76
g57
NtRp3166
(dp3167
g60
(dp3168
g80
g81
ssg69
g3162
sg62
(lp3169
S'expiration'
p3170
asbag55
(g76
g57
NtRp3171
(dp3172
g60
(dp3173
g87
g88
ssg69
g3162
sg62
(lp3174
S':'
asbag55
(g76
g57
NtRp3175
(dp3176
g60
(dp3177
sg69
g3162
sg62
(lp3178
g55
(g56
g57
NtRp3179
(dp3180
g60
(dp3181
g68
I4
ssg69
g3175
sg62
(lp3182
S'2592000'
p3183
asbasbasbag55
(g71
g57
NtRp3184
(dp3185
g60
(dp3186
sg69
g3158
sg62
(lp3187
g55
(g76
g57
NtRp3188
(dp3189
g60
(dp3190
g80
g81
ssg69
g3184
sg62
(lp3191
S'hmac_key'
p3192
asbag55
(g76
g57
NtRp3193
(dp3194
g60
(dp3195
g87
g88
ssg69
g3184
sg62
(lp3196
S':'
asbag55
(g76
g57
NtRp3197
(dp3198
g60
(dp3199
sg69
g3184
sg62
(lp3200
g55
(g56
g57
NtRp3201
(dp3202
g60
(dp3203
g68
I4
ssg69
g3197
sg62
(lp3204
S'eceeeca4-e0d7-49bc-a679-949298c4984a'
p3205
asbasbasbag55
(g71
g57
NtRp3206
(dp3207
g60
(dp3208
sg69
g3158
sg62
(lp3209
g55
(g76
g57
NtRp3210
(dp3211
g60
(dp3212
g80
g81
ssg69
g3206
sg62
(lp3213
S'last_visit'
p3214
asbag55
(g76
g57
NtRp3215
(dp3216
g60
(dp3217
g87
g88
ssg69
g3206
sg62
(lp3218
S':'
asbag55
(g76
g57
NtRp3219
(dp3220
g60
(dp3221
sg69
g3206
sg62
(lp3222
g55
(g56
g57
NtRp3223
(dp3224
g60
(dp3225
g68
I4
ssg69
g3219
sg62
(lp3226
S'datetime.datetime(2011, 11, 28, 8, 41, 19, 979285)'
p3227
asbasbasbag55
(g71
g57
NtRp3228
(dp3229
g60
(dp3230
sg69
g3158
sg62
(lp3231
g55
(g76
g57
NtRp3232
(dp3233
g60
(dp3234
g80
g81
ssg69
g3228
sg62
(lp3235
S'remember'
p3236
asbag55
(g76
g57
NtRp3237
(dp3238
g60
(dp3239
g87
g88
ssg69
g3228
sg62
(lp3240
S':'
asbag55
(g76
g57
NtRp3241
(dp3242
g60
(dp3243
sg69
g3228
sg62
(lp3244
g55
(g56
g57
NtRp3245
(dp3246
g60
(dp3247
g68
I4
ssg69
g3241
sg62
(lp3248
g1703
asbasbasbag55
(g71
g57
NtRp3249
(dp3250
g60
(dp3251
sg69
g3158
sg62
(lp3252
g55
(g76
g57
NtRp3253
(dp3254
g60
(dp3255
g80
g81
ssg69
g3249
sg62
(lp3256
S'user'
p3257
asbag55
(g76
g57
NtRp3258
(dp3259
g60
(dp3260
g87
g88
ssg69
g3249
sg62
(lp3261
S':'
asbag55
(g76
g57
NtRp3262
(dp3263
g60
(dp3264
sg69
g3249
sg62
(lp3265
g55
(g56
g57
NtRp3266
(dp3267
g60
(dp3268
g68
I4
ssg69
g3262
sg62
(lp3269
g55
(g64
g57
NtRp3270
(dp3271
g60
(dp3272
g68
I3
ssg69
Nsg62
(lp3273
g55
(g71
g57
NtRp3274
(dp3275
g60
(dp3276
sg69
g3270
sg62
(lp3277
g55
(g76
g57
NtRp3278
(dp3279
g60
(dp3280
g80
g81
ssg69
g3274
sg62
(lp3281
S'email'
p3282
asbag55
(g76
g57
NtRp3283
(dp3284
g60
(dp3285
g87
g88
ssg69
g3274
sg62
(lp3286
S':'
asbag55
(g76
g57
NtRp3287
(dp3288
g60
(dp3289
sg69
g3274
sg62
(lp3290
g55
(g56
g57
NtRp3291
(dp3292
g60
(dp3293
g68
I3
ssg69
g3287
sg62
(lp3294
S'scottianw@gmail.com'
p3295
asbasbasbag55
(g71
g57
NtRp3296
(dp3297
g60
(dp3298
sg69
g3270
sg62
(lp3299
g55
(g76
g57
NtRp3300
(dp3301
g60
(dp3302
g80
g81
ssg69
g3296
sg62
(lp3303
S'first_name'
p3304
asbag55
(g76
g57
NtRp3305
(dp3306
g60
(dp3307
g87
g88
ssg69
g3296
sg62
(lp3308
S':'
asbag55
(g76
g57
NtRp3309
(dp3310
g60
(dp3311
sg69
g3296
sg62
(lp3312
g55
(g56
g57
NtRp3313
(dp3314
g60
(dp3315
g68
I3
ssg69
g3309
sg62
(lp3316
S'Ian'
p3317
asbasbasbag55
(g71
g57
NtRp3318
(dp3319
g60
(dp3320
sg69
g3270
sg62
(lp3321
g55
(g76
g57
NtRp3322
(dp3323
g60
(dp3324
g80
g81
ssg69
g3318
sg62
(lp3325
S'id'
p3326
asbag55
(g76
g57
NtRp3327
(dp3328
g60
(dp3329
g87
g88
ssg69
g3318
sg62
(lp3330
S':'
asbag55
(g76
g57
NtRp3331
(dp3332
g60
(dp3333
sg69
g3318
sg62
(lp3334
g55
(g56
g57
NtRp3335
(dp3336
g60
(dp3337
g68
I3
ssg69
g3331
sg62
(lp3338
S'1'
asbasbasbag55
(g71
g57
NtRp3339
(dp3340
g60
(dp3341
sg69
g3270
sg62
(lp3342
g55
(g76
g57
NtRp3343
(dp3344
g60
(dp3345
g80
g81
ssg69
g3339
sg62
(lp3346
S'last_name'
p3347
asbag55
(g76
g57
NtRp3348
(dp3349
g60
(dp3350
g87
g88
ssg69
g3339
sg62
(lp3351
S':'
asbag55
(g76
g57
NtRp3352
(dp3353
g60
(dp3354
sg69
g3339
sg62
(lp3355
g55
(g56
g57
NtRp3356
(dp3357
g60
(dp3358
g68
I3
ssg69
g3352
sg62
(lp3359
S'Scott'
p3360
asbasbasbag55
(g71
g57
NtRp3361
(dp3362
g60
(dp3363
sg69
g3270
sg62
(lp3364
g55
(g76
g57
NtRp3365
(dp3366
g60
(dp3367
g80
g81
ssg69
g3361
sg62
(lp3368
S'password'
p3369
asbag55
(g76
g57
NtRp3370
(dp3371
g60
(dp3372
g87
g88
ssg69
g3361
sg62
(lp3373
S':'
asbag55
(g76
g57
NtRp3374
(dp3375
g60
(dp3376
sg69
g3361
sg62
(lp3377
g55
(g56
g57
NtRp3378
(dp3379
g60
(dp3380
g68
I3
ssg69
g3374
sg62
(lp3381
S'6fb48d01a3959846ba0fe062b1789f17d9cf3d34d3ec5aa948f598bbf4387cb10eb60c797988f41dfea97ee691b338dd77413d430229e401cf7c84e6cd9c4458'
p3382
asbasbasbag55
(g71
g57
NtRp3383
(dp3384
g60
(dp3385
sg69
g3270
sg62
(lp3386
g55
(g76
g57
NtRp3387
(dp3388
g60
(dp3389
g80
g81
ssg69
g3383
sg62
(lp3390
S'registration_key'
p3391
asbag55
(g76
g57
NtRp3392
(dp3393
g60
(dp3394
g87
g88
ssg69
g3383
sg62
(lp3395
S':'
asbag55
(g76
g57
NtRp3396
(dp3397
g60
(dp3398
sg69
g3383
sg62
(lp3399
g55
(g56
g57
NtRp3400
(dp3401
g60
(dp3402
g68
I3
ssg69
g3396
sg62
(lp3403
S''
asbasbasbag55
(g71
g57
NtRp3404
(dp3405
g60
(dp3406
sg69
g3270
sg62
(lp3407
g55
(g76
g57
NtRp3408
(dp3409
g60
(dp3410
g80
g81
ssg69
g3404
sg62
(lp3411
S'reset_password_key'
p3412
asbag55
(g76
g57
NtRp3413
(dp3414
g60
(dp3415
g87
g88
ssg69
g3404
sg62
(lp3416
S':'
asbag55
(g76
g57
NtRp3417
(dp3418
g60
(dp3419
sg69
g3404
sg62
(lp3420
g55
(g56
g57
NtRp3421
(dp3422
g60
(dp3423
g68
I3
ssg69
g3417
sg62
(lp3424
S''
asbasbasbasbasbasbasbasbasbasbasbasbasbsS'etype'
p3425
S"<type 'exceptions.KeyError'>"
p3426
sS'date'
p3427
S'Thu Dec  1 13:05:06 2011'
p3428
sS'response'
p3429
g55
(g56
g57
NtRp3430
(dp3431
g60
(dp3432
sg62
(lp3433
g55
(g64
g57
NtRp3434
(dp3435
g60
(dp3436
g68
I5
ssg69
Nsg62
(lp3437
g55
(g71
g57
NtRp3438
(dp3439
g60
(dp3440
sg69
g3434
sg62
(lp3441
g55
(g76
g57
NtRp3442
(dp3443
g60
(dp3444
g80
g81
ssg69
g3438
sg62
(lp3445
g179
asbag55
(g76
g57
NtRp3446
(dp3447
g60
(dp3448
g87
g88
ssg69
g3438
sg62
(lp3449
S':'
asbag55
(g76
g57
NtRp3450
(dp3451
g60
(dp3452
sg69
g3438
sg62
(lp3453
g55
(g56
g57
NtRp3454
(dp3455
g60
(dp3456
g68
I5
ssg69
g3450
sg62
(lp3457
S'<cStringIO.StringO object at 0x31dab58>'
p3458
asbasbasbag55
(g71
g57
NtRp3459
(dp3460
g60
(dp3461
sg69
g3434
sg62
(lp3462
g55
(g76
g57
NtRp3463
(dp3464
g60
(dp3465
g80
g81
ssg69
g3459
sg62
(lp3466
g245
asbag55
(g76
g57
NtRp3467
(dp3468
g60
(dp3469
g87
g88
ssg69
g3459
sg62
(lp3470
S':'
asbag55
(g76
g57
NtRp3471
(dp3472
g60
(dp3473
sg69
g3459
sg62
(lp3474
g55
(g56
g57
NtRp3475
(dp3476
g60
(dp3477
g68
I5
ssg69
g3471
sg62
(lp3478
g55
(g64
g57
NtRp3479
(dp3480
g60
(dp3481
g68
I4
ssg69
Nsg62
(lp3482
g55
(g71
g57
NtRp3483
(dp3484
g60
(dp3485
sg69
g3479
sg62
(lp3486
g55
(g76
g57
NtRp3487
(dp3488
g60
(dp3489
g80
g81
ssg69
g3483
sg62
(lp3490
S'session_id_topoi'
p3491
asbag55
(g76
g57
NtRp3492
(dp3493
g60
(dp3494
g87
g88
ssg69
g3483
sg62
(lp3495
S':'
asbag55
(g76
g57
NtRp3496
(dp3497
g60
(dp3498
sg69
g3483
sg62
(lp3499
g55
(g56
g57
NtRp3500
(dp3501
g60
(dp3502
g68
I4
ssg69
g3496
sg62
(lp3503
g55
(g64
g57
NtRp3504
(dp3505
g60
(dp3506
g68
I3
ssg69
Nsg62
(lp3507
g55
(g71
g57
NtRp3508
(dp3509
g60
(dp3510
sg69
g3504
sg62
(lp3511
g55
(g76
g57
NtRp3512
(dp3513
g60
(dp3514
g80
g81
ssg69
g3508
sg62
(lp3515
g295
asbag55
(g76
g57
NtRp3516
(dp3517
g60
(dp3518
g87
g88
ssg69
g3508
sg62
(lp3519
S':'
asbag55
(g76
g57
NtRp3520
(dp3521
g60
(dp3522
sg69
g3508
sg62
(lp3523
g55
(g56
g57
NtRp3524
(dp3525
g60
(dp3526
g68
I3
ssg69
g3520
sg62
(lp3527
S''
asbasbasbag55
(g71
g57
NtRp3528
(dp3529
g60
(dp3530
sg69
g3504
sg62
(lp3531
g55
(g76
g57
NtRp3532
(dp3533
g60
(dp3534
g80
g81
ssg69
g3528
sg62
(lp3535
g316
asbag55
(g76
g57
NtRp3536
(dp3537
g60
(dp3538
g87
g88
ssg69
g3528
sg62
(lp3539
S':'
asbag55
(g76
g57
NtRp3540
(dp3541
g60
(dp3542
sg69
g3528
sg62
(lp3543
g55
(g56
g57
NtRp3544
(dp3545
g60
(dp3546
g68
I3
ssg69
g3540
sg62
(lp3547
S''
asbasbasbag55
(g71
g57
NtRp3548
(dp3549
g60
(dp3550
sg69
g3504
sg62
(lp3551
g55
(g76
g57
NtRp3552
(dp3553
g60
(dp3554
g80
g81
ssg69
g3548
sg62
(lp3555
g337
asbag55
(g76
g57
NtRp3556
(dp3557
g60
(dp3558
g87
g88
ssg69
g3548
sg62
(lp3559
S':'
asbag55
(g76
g57
NtRp3560
(dp3561
g60
(dp3562
sg69
g3548
sg62
(lp3563
g55
(g56
g57
NtRp3564
(dp3565
g60
(dp3566
g68
I3
ssg69
g3560
sg62
(lp3567
S'2592000'
p3568
asbasbasbag55
(g71
g57
NtRp3569
(dp3570
g60
(dp3571
sg69
g3504
sg62
(lp3572
g55
(g76
g57
NtRp3573
(dp3574
g60
(dp3575
g80
g81
ssg69
g3569
sg62
(lp3576
g358
asbag55
(g76
g57
NtRp3577
(dp3578
g60
(dp3579
g87
g88
ssg69
g3569
sg62
(lp3580
S':'
asbag55
(g76
g57
NtRp3581
(dp3582
g60
(dp3583
sg69
g3569
sg62
(lp3584
g55
(g56
g57
NtRp3585
(dp3586
g60
(dp3587
g68
I3
ssg69
g3581
sg62
(lp3588
S''
asbasbasbag55
(g71
g57
NtRp3589
(dp3590
g60
(dp3591
sg69
g3504
sg62
(lp3592
g55
(g76
g57
NtRp3593
(dp3594
g60
(dp3595
g80
g81
ssg69
g3589
sg62
(lp3596
g379
asbag55
(g76
g57
NtRp3597
(dp3598
g60
(dp3599
g87
g88
ssg69
g3589
sg62
(lp3600
S':'
asbag55
(g76
g57
NtRp3601
(dp3602
g60
(dp3603
sg69
g3589
sg62
(lp3604
g55
(g56
g57
NtRp3605
(dp3606
g60
(dp3607
g68
I3
ssg69
g3601
sg62
(lp3608
S''
asbasbasbag55
(g71
g57
NtRp3609
(dp3610
g60
(dp3611
sg69
g3504
sg62
(lp3612
g55
(g76
g57
NtRp3613
(dp3614
g60
(dp3615
g80
g81
ssg69
g3609
sg62
(lp3616
g400
asbag55
(g76
g57
NtRp3617
(dp3618
g60
(dp3619
g87
g88
ssg69
g3609
sg62
(lp3620
S':'
asbag55
(g76
g57
NtRp3621
(dp3622
g60
(dp3623
sg69
g3609
sg62
(lp3624
g55
(g56
g57
NtRp3625
(dp3626
g60
(dp3627
g68
I3
ssg69
g3621
sg62
(lp3628
S'/'
asbasbasbag55
(g71
g57
NtRp3629
(dp3630
g60
(dp3631
sg69
g3504
sg62
(lp3632
g55
(g76
g57
NtRp3633
(dp3634
g60
(dp3635
g80
g81
ssg69
g3629
sg62
(lp3636
g421
asbag55
(g76
g57
NtRp3637
(dp3638
g60
(dp3639
g87
g88
ssg69
g3629
sg62
(lp3640
S':'
asbag55
(g76
g57
NtRp3641
(dp3642
g60
(dp3643
sg69
g3629
sg62
(lp3644
g55
(g56
g57
NtRp3645
(dp3646
g60
(dp3647
g68
I3
ssg69
g3641
sg62
(lp3648
S''
asbasbasbag55
(g71
g57
NtRp3649
(dp3650
g60
(dp3651
sg69
g3504
sg62
(lp3652
g55
(g76
g57
NtRp3653
(dp3654
g60
(dp3655
g80
g81
ssg69
g3649
sg62
(lp3656
g442
asbag55
(g76
g57
NtRp3657
(dp3658
g60
(dp3659
g87
g88
ssg69
g3649
sg62
(lp3660
S':'
asbag55
(g76
g57
NtRp3661
(dp3662
g60
(dp3663
sg69
g3649
sg62
(lp3664
g55
(g56
g57
NtRp3665
(dp3666
g60
(dp3667
g68
I3
ssg69
g3661
sg62
(lp3668
S''
asbasbasbasbasbasbasbasbasbasbasbag55
(g71
g57
NtRp3669
(dp3670
g60
(dp3671
sg69
g3434
sg62
(lp3672
g55
(g76
g57
NtRp3673
(dp3674
g60
(dp3675
g80
g81
ssg69
g3669
sg62
(lp3676
S'files'
p3677
asbag55
(g76
g57
NtRp3678
(dp3679
g60
(dp3680
g87
g88
ssg69
g3669
sg62
(lp3681
S':'
asbag55
(g76
g57
NtRp3682
(dp3683
g60
(dp3684
sg69
g3669
sg62
(lp3685
g55
(g56
g57
NtRp3686
(dp3687
g60
(dp3688
g68
I5
ssg69
g3682
sg62
(lp3689
g55
(g64
g57
NtRp3690
(dp3691
g60
(dp3692
g68
I4
ssg69
Nsg62
(lp3693
g55
(g71
g57
NtRp3694
(dp3695
g60
(dp3696
sg69
g3690
sg62
(lp3697
g55
(g76
g57
NtRp3698
(dp3699
g60
(dp3700
sg69
g3694
sg62
(lp3701
g55
(g56
g57
NtRp3702
(dp3703
g60
(dp3704
g68
I4
ssg69
g3698
sg62
(lp3705
S'/topoi/static/plugin_listandedit/plugin_listandedit.css'
p3706
asbasbasbag55
(g71
g57
NtRp3707
(dp3708
g60
(dp3709
sg69
g3690
sg62
(lp3710
g55
(g76
g57
NtRp3711
(dp3712
g60
(dp3713
sg69
g3707
sg62
(lp3714
g55
(g56
g57
NtRp3715
(dp3716
g60
(dp3717
g68
I4
ssg69
g3711
sg62
(lp3718
S'/topoi/static/plugin_listandedit/plugin_listandedit.js'
p3719
asbasbasbasbasbasbasbag55
(g71
g57
NtRp3720
(dp3721
g60
(dp3722
sg69
g3434
sg62
(lp3723
g55
(g76
g57
NtRp3724
(dp3725
g60
(dp3726
g80
g81
ssg69
g3720
sg62
(lp3727
S'flash'
p3728
asbag55
(g76
g57
NtRp3729
(dp3730
g60
(dp3731
g87
g88
ssg69
g3720
sg62
(lp3732
S':'
asbag55
(g76
g57
NtRp3733
(dp3734
g60
(dp3735
sg69
g3720
sg62
(lp3736
g55
(g56
g57
NtRp3737
(dp3738
g60
(dp3739
g68
I5
ssg69
g3733
sg62
(lp3740
S''
asbasbasbag55
(g71
g57
NtRp3741
(dp3742
g60
(dp3743
sg69
g3434
sg62
(lp3744
g55
(g76
g57
NtRp3745
(dp3746
g60
(dp3747
g80
g81
ssg69
g3741
sg62
(lp3748
S'generic_patterns'
p3749
asbag55
(g76
g57
NtRp3750
(dp3751
g60
(dp3752
g87
g88
ssg69
g3741
sg62
(lp3753
S':'
asbag55
(g76
g57
NtRp3754
(dp3755
g60
(dp3756
sg69
g3741
sg62
(lp3757
g55
(g56
g57
NtRp3758
(dp3759
g60
(dp3760
g68
I5
ssg69
g3754
sg62
(lp3761
g55
(g64
g57
NtRp3762
(dp3763
g60
(dp3764
g68
I4
ssg69
Nsg62
(lp3765
g55
(g71
g57
NtRp3766
(dp3767
g60
(dp3768
sg69
g3762
sg62
(lp3769
g55
(g76
g57
NtRp3770
(dp3771
g60
(dp3772
sg69
g3766
sg62
(lp3773
g55
(g56
g57
NtRp3774
(dp3775
g60
(dp3776
g68
I4
ssg69
g3770
sg62
(lp3777
S'*'
asbasbasbasbasbasbasbag55
(g71
g57
NtRp3778
(dp3779
g60
(dp3780
sg69
g3434
sg62
(lp3781
g55
(g76
g57
NtRp3782
(dp3783
g60
(dp3784
g80
g81
ssg69
g3778
sg62
(lp3785
S'headers'
p3786
asbag55
(g76
g57
NtRp3787
(dp3788
g60
(dp3789
g87
g88
ssg69
g3778
sg62
(lp3790
S':'
asbag55
(g76
g57
NtRp3791
(dp3792
g60
(dp3793
sg69
g3778
sg62
(lp3794
g55
(g56
g57
NtRp3795
(dp3796
g60
(dp3797
g68
I5
ssg69
g3791
sg62
(lp3798
g55
(g64
g57
NtRp3799
(dp3800
g60
(dp3801
g68
I4
ssg69
Nsg62
(lp3802
g55
(g71
g57
NtRp3803
(dp3804
g60
(dp3805
sg69
g3799
sg62
(lp3806
g55
(g76
g57
NtRp3807
(dp3808
g60
(dp3809
g80
g81
ssg69
g3803
sg62
(lp3810
S'Cache-Control'
p3811
asbag55
(g76
g57
NtRp3812
(dp3813
g60
(dp3814
g87
g88
ssg69
g3803
sg62
(lp3815
S':'
asbag55
(g76
g57
NtRp3816
(dp3817
g60
(dp3818
sg69
g3803
sg62
(lp3819
g55
(g56
g57
NtRp3820
(dp3821
g60
(dp3822
g68
I4
ssg69
g3816
sg62
(lp3823
S'no-store, no-cache, must-revalidate, post-check=0, pre-check=0'
p3824
asbasbasbag55
(g71
g57
NtRp3825
(dp3826
g60
(dp3827
sg69
g3799
sg62
(lp3828
g55
(g76
g57
NtRp3829
(dp3830
g60
(dp3831
g80
g81
ssg69
g3825
sg62
(lp3832
S'Content-Type'
p3833
asbag55
(g76
g57
NtRp3834
(dp3835
g60
(dp3836
g87
g88
ssg69
g3825
sg62
(lp3837
S':'
asbag55
(g76
g57
NtRp3838
(dp3839
g60
(dp3840
sg69
g3825
sg62
(lp3841
g55
(g56
g57
NtRp3842
(dp3843
g60
(dp3844
g68
I4
ssg69
g3838
sg62
(lp3845
S'text/html; charset=utf-8'
p3846
asbasbasbag55
(g71
g57
NtRp3847
(dp3848
g60
(dp3849
sg69
g3799
sg62
(lp3850
g55
(g76
g57
NtRp3851
(dp3852
g60
(dp3853
g80
g81
ssg69
g3847
sg62
(lp3854
S'Expires'
p3855
asbag55
(g76
g57
NtRp3856
(dp3857
g60
(dp3858
g87
g88
ssg69
g3847
sg62
(lp3859
S':'
asbag55
(g76
g57
NtRp3860
(dp3861
g60
(dp3862
sg69
g3847
sg62
(lp3863
g55
(g56
g57
NtRp3864
(dp3865
g60
(dp3866
g68
I4
ssg69
g3860
sg62
(lp3867
S'Thu, 01 Dec 2011 18:05:06 GMT'
p3868
asbasbasbag55
(g71
g57
NtRp3869
(dp3870
g60
(dp3871
sg69
g3799
sg62
(lp3872
g55
(g76
g57
NtRp3873
(dp3874
g60
(dp3875
g80
g81
ssg69
g3869
sg62
(lp3876
S'Pragma'
p3877
asbag55
(g76
g57
NtRp3878
(dp3879
g60
(dp3880
g87
g88
ssg69
g3869
sg62
(lp3881
S':'
asbag55
(g76
g57
NtRp3882
(dp3883
g60
(dp3884
sg69
g3869
sg62
(lp3885
g55
(g56
g57
NtRp3886
(dp3887
g60
(dp3888
g68
I4
ssg69
g3882
sg62
(lp3889
S'no-cache'
p3890
asbasbasbag55
(g71
g57
NtRp3891
(dp3892
g60
(dp3893
sg69
g3799
sg62
(lp3894
g55
(g76
g57
NtRp3895
(dp3896
g60
(dp3897
g80
g81
ssg69
g3891
sg62
(lp3898
S'X-Powered-By'
p3899
asbag55
(g76
g57
NtRp3900
(dp3901
g60
(dp3902
g87
g88
ssg69
g3891
sg62
(lp3903
S':'
asbag55
(g76
g57
NtRp3904
(dp3905
g60
(dp3906
sg69
g3891
sg62
(lp3907
g55
(g56
g57
NtRp3908
(dp3909
g60
(dp3910
g68
I4
ssg69
g3904
sg62
(lp3911
S'web2py'
p3912
asbasbasbasbasbasbasbag55
(g71
g57
NtRp3913
(dp3914
g60
(dp3915
sg69
g3434
sg62
(lp3916
g55
(g76
g57
NtRp3917
(dp3918
g60
(dp3919
g80
g81
ssg69
g3913
sg62
(lp3920
S'menu'
p3921
asbag55
(g76
g57
NtRp3922
(dp3923
g60
(dp3924
g87
g88
ssg69
g3913
sg62
(lp3925
S':'
asbag55
(g76
g57
NtRp3926
(dp3927
g60
(dp3928
sg69
g3913
sg62
(lp3929
g55
(g56
g57
NtRp3930
(dp3931
g60
(dp3932
g68
I5
ssg69
g3926
sg62
(lp3933
g55
(g64
g57
NtRp3934
(dp3935
g60
(dp3936
g68
I4
ssg69
Nsg62
(lp3937
g55
(g71
g57
NtRp3938
(dp3939
g60
(dp3940
sg69
g3934
sg62
(lp3941
g55
(g76
g57
NtRp3942
(dp3943
g60
(dp3944
sg69
g3938
sg62
(lp3945
g55
(g56
g57
NtRp3946
(dp3947
g60
(dp3948
g68
I4
ssg69
g3942
sg62
(lp3949
g55
(g64
g57
NtRp3950
(dp3951
g60
(dp3952
g68
I3
ssg69
Nsg62
(lp3953
g55
(g71
g57
NtRp3954
(dp3955
g60
(dp3956
sg69
g3950
sg62
(lp3957
g55
(g76
g57
NtRp3958
(dp3959
g60
(dp3960
sg69
g3954
sg62
(lp3961
g55
(g56
g57
NtRp3962
(dp3963
g60
(dp3964
g68
I3
ssg69
g3958
sg62
(lp3965
cgluon.languages
lazyT_unpickle
p3966
(S't\x04\x00\x00\x00Home'
tRp3967
asbasbasbag55
(g71
g57
NtRp3968
(dp3969
g60
(dp3970
sg69
g3950
sg62
(lp3971
g55
(g76
g57
NtRp3972
(dp3973
g60
(dp3974
sg69
g3968
sg62
(lp3975
g55
(g56
g57
NtRp3976
(dp3977
g60
(dp3978
g68
I3
ssg69
g3972
sg62
(lp3979
g98
asbasbasbag55
(g71
g57
NtRp3980
(dp3981
g60
(dp3982
sg69
g3950
sg62
(lp3983
g55
(g76
g57
NtRp3984
(dp3985
g60
(dp3986
sg69
g3980
sg62
(lp3987
g55
(g56
g57
NtRp3988
(dp3989
g60
(dp3990
g68
I3
ssg69
g3984
sg62
(lp3991
S'/topoi/default/index'
p3992
asbasbasbag55
(g71
g57
NtRp3993
(dp3994
g60
(dp3995
sg69
g3950
sg62
(lp3996
g55
(g76
g57
NtRp3997
(dp3998
g60
(dp3999
sg69
g3993
sg62
(lp4000
g55
(g56
g57
NtRp4001
(dp4002
g60
(dp4003
g68
I3
ssg69
g3997
sg62
(lp4004
g55
(g64
g57
NtRp4005
(dp4006
g60
(dp4007
g68
I2
ssg69
Nsg62
(lp4008
sbasbasbasbasbasbasbasbag55
(g71
g57
NtRp4009
(dp4010
g60
(dp4011
sg69
g3934
sg62
(lp4012
g55
(g76
g57
NtRp4013
(dp4014
g60
(dp4015
sg69
g4009
sg62
(lp4016
g55
(g56
g57
NtRp4017
(dp4018
g60
(dp4019
g68
I4
ssg69
g4013
sg62
(lp4020
g55
(g64
g57
NtRp4021
(dp4022
g60
(dp4023
g68
I3
ssg69
Nsg62
(lp4024
g55
(g71
g57
NtRp4025
(dp4026
g60
(dp4027
sg69
g4021
sg62
(lp4028
g55
(g76
g57
NtRp4029
(dp4030
g60
(dp4031
sg69
g4025
sg62
(lp4032
g55
(g56
g57
NtRp4033
(dp4034
g60
(dp4035
g68
I3
ssg69
g4029
sg62
(lp4036
g3966
(S's\x08\x00\x00\x00This App'
tRp4037
asbasbasbag55
(g71
g57
NtRp4038
(dp4039
g60
(dp4040
sg69
g4021
sg62
(lp4041
g55
(g76
g57
NtRp4042
(dp4043
g60
(dp4044
sg69
g4038
sg62
(lp4045
g55
(g56
g57
NtRp4046
(dp4047
g60
(dp4048
g68
I3
ssg69
g4042
sg62
(lp4049
g98
asbasbasbag55
(g71
g57
NtRp4050
(dp4051
g60
(dp4052
sg69
g4021
sg62
(lp4053
g55
(g76
g57
NtRp4054
(dp4055
g60
(dp4056
sg69
g4050
sg62
(lp4057
g55
(g56
g57
NtRp4058
(dp4059
g60
(dp4060
g68
I3
ssg69
g4054
sg62
(lp4061
S'/admin/default/design/topoi'
p4062
asbasbasbag55
(g71
g57
NtRp4063
(dp4064
g60
(dp4065
sg69
g4021
sg62
(lp4066
g55
(g76
g57
NtRp4067
(dp4068
g60
(dp4069
sg69
g4063
sg62
(lp4070
g55
(g56
g57
NtRp4071
(dp4072
g60
(dp4073
g68
I3
ssg69
g4067
sg62
(lp4074
g55
(g64
g57
NtRp4075
(dp4076
g60
(dp4077
g68
I2
ssg69
Nsg62
(lp4078
g55
(g71
g57
NtRp4079
(dp4080
g60
(dp4081
sg69
g4075
sg62
(lp4082
g55
(g76
g57
NtRp4083
(dp4084
g60
(dp4085
sg69
g4079
sg62
(lp4086
g55
(g56
g57
NtRp4087
(dp4088
g60
(dp4089
g68
I2
ssg69
g4083
sg62
(lp4090
g55
(g64
g57
NtRp4091
(dp4092
g60
(dp4093
g68
I1
ssg69
Nsg62
(lp4094
g55
(g71
g57
NtRp4095
(dp4096
g60
(dp4097
sg69
g4091
sg62
(lp4098
g55
(g76
g57
NtRp4099
(dp4100
g60
(dp4101
sg69
g4095
sg62
(lp4102
g55
(g56
g57
NtRp4103
(dp4104
g60
(dp4105
g68
I1
ssg69
g4099
sg62
(lp4106
g3966
(S't\n\x00\x00\x00Controller'
tRp4107
asbasbasbag55
(g71
g57
NtRp4108
(dp4109
g60
(dp4110
sg69
g4091
sg62
(lp4111
g55
(g76
g57
NtRp4112
(dp4113
g60
(dp4114
sg69
g4108
sg62
(lp4115
g55
(g56
g57
NtRp4116
(dp4117
g60
(dp4118
g68
I1
ssg69
g4112
sg62
(lp4119
I00
asbasbasbag55
(g71
g57
NtRp4120
(dp4121
g60
(dp4122
sg69
g4091
sg62
(lp4123
g55
(g76
g57
NtRp4124
(dp4125
g60
(dp4126
sg69
g4120
sg62
(lp4127
g55
(g56
g57
NtRp4128
(dp4129
g60
(dp4130
g68
I1
ssg69
g4124
sg62
(lp4131
S'/admin/default/edit/topoi/controllers/plugin_listandedit.py'
p4132
asbasbasbasbasbasbasbag55
(g71
g57
NtRp4133
(dp4134
g60
(dp4135
sg69
g4075
sg62
(lp4136
g55
(g76
g57
NtRp4137
(dp4138
g60
(dp4139
sg69
g4133
sg62
(lp4140
g55
(g56
g57
NtRp4141
(dp4142
g60
(dp4143
g68
I2
ssg69
g4137
sg62
(lp4144
g55
(g64
g57
NtRp4145
(dp4146
g60
(dp4147
g68
I1
ssg69
Nsg62
(lp4148
g55
(g71
g57
NtRp4149
(dp4150
g60
(dp4151
sg69
g4145
sg62
(lp4152
g55
(g76
g57
NtRp4153
(dp4154
g60
(dp4155
sg69
g4149
sg62
(lp4156
g55
(g56
g57
NtRp4157
(dp4158
g60
(dp4159
g68
I1
ssg69
g4153
sg62
(lp4160
g3966
(S't\x04\x00\x00\x00View'
tRp4161
asbasbasbag55
(g71
g57
NtRp4162
(dp4163
g60
(dp4164
sg69
g4145
sg62
(lp4165
g55
(g76
g57
NtRp4166
(dp4167
g60
(dp4168
sg69
g4162
sg62
(lp4169
g55
(g56
g57
NtRp4170
(dp4171
g60
(dp4172
g68
I1
ssg69
g4166
sg62
(lp4173
I00
asbasbasbag55
(g71
g57
NtRp4174
(dp4175
g60
(dp4176
sg69
g4145
sg62
(lp4177
g55
(g76
g57
NtRp4178
(dp4179
g60
(dp4180
sg69
g4174
sg62
(lp4181
g55
(g56
g57
NtRp4182
(dp4183
g60
(dp4184
g68
I1
ssg69
g4178
sg62
(lp4185
S'/admin/default/edit/topoi/views/plugin_listandedit/list.html'
p4186
asbasbasbasbasbasbasbag55
(g71
g57
NtRp4187
(dp4188
g60
(dp4189
sg69
g4075
sg62
(lp4190
g55
(g76
g57
NtRp4191
(dp4192
g60
(dp4193
sg69
g4187
sg62
(lp4194
g55
(g56
g57
NtRp4195
(dp4196
g60
(dp4197
g68
I2
ssg69
g4191
sg62
(lp4198
g55
(g64
g57
NtRp4199
(dp4200
g60
(dp4201
g68
I1
ssg69
Nsg62
(lp4202
g55
(g71
g57
NtRp4203
(dp4204
g60
(dp4205
sg69
g4199
sg62
(lp4206
g55
(g76
g57
NtRp4207
(dp4208
g60
(dp4209
sg69
g4203
sg62
(lp4210
g55
(g56
g57
NtRp4211
(dp4212
g60
(dp4213
g68
I1
ssg69
g4207
sg62
(lp4214
g3966
(S't\x06\x00\x00\x00Layout'
tRp4215
asbasbasbag55
(g71
g57
NtRp4216
(dp4217
g60
(dp4218
sg69
g4199
sg62
(lp4219
g55
(g76
g57
NtRp4220
(dp4221
g60
(dp4222
sg69
g4216
sg62
(lp4223
g55
(g56
g57
NtRp4224
(dp4225
g60
(dp4226
g68
I1
ssg69
g4220
sg62
(lp4227
I00
asbasbasbag55
(g71
g57
NtRp4228
(dp4229
g60
(dp4230
sg69
g4199
sg62
(lp4231
g55
(g76
g57
NtRp4232
(dp4233
g60
(dp4234
sg69
g4228
sg62
(lp4235
g55
(g56
g57
NtRp4236
(dp4237
g60
(dp4238
g68
I1
ssg69
g4232
sg62
(lp4239
S'/admin/default/edit/topoi/views/layout.html'
p4240
asbasbasbasbasbasbasbag55
(g71
g57
NtRp4241
(dp4242
g60
(dp4243
sg69
g4075
sg62
(lp4244
g55
(g76
g57
NtRp4245
(dp4246
g60
(dp4247
sg69
g4241
sg62
(lp4248
g55
(g56
g57
NtRp4249
(dp4250
g60
(dp4251
g68
I2
ssg69
g4245
sg62
(lp4252
g55
(g64
g57
NtRp4253
(dp4254
g60
(dp4255
g68
I1
ssg69
Nsg62
(lp4256
g55
(g71
g57
NtRp4257
(dp4258
g60
(dp4259
sg69
g4253
sg62
(lp4260
g55
(g76
g57
NtRp4261
(dp4262
g60
(dp4263
sg69
g4257
sg62
(lp4264
g55
(g56
g57
NtRp4265
(dp4266
g60
(dp4267
g68
I1
ssg69
g4261
sg62
(lp4268
g3966
(S't\n\x00\x00\x00Stylesheet'
tRp4269
asbasbasbag55
(g71
g57
NtRp4270
(dp4271
g60
(dp4272
sg69
g4253
sg62
(lp4273
g55
(g76
g57
NtRp4274
(dp4275
g60
(dp4276
sg69
g4270
sg62
(lp4277
g55
(g56
g57
NtRp4278
(dp4279
g60
(dp4280
g68
I1
ssg69
g4274
sg62
(lp4281
I00
asbasbasbag55
(g71
g57
NtRp4282
(dp4283
g60
(dp4284
sg69
g4253
sg62
(lp4285
g55
(g76
g57
NtRp4286
(dp4287
g60
(dp4288
sg69
g4282
sg62
(lp4289
g55
(g56
g57
NtRp4290
(dp4291
g60
(dp4292
g68
I1
ssg69
g4286
sg62
(lp4293
S'/admin/default/edit/topoi/static/base.css'
p4294
asbasbasbasbasbasbasbag55
(g71
g57
NtRp4295
(dp4296
g60
(dp4297
sg69
g4075
sg62
(lp4298
g55
(g76
g57
NtRp4299
(dp4300
g60
(dp4301
sg69
g4295
sg62
(lp4302
g55
(g56
g57
NtRp4303
(dp4304
g60
(dp4305
g68
I2
ssg69
g4299
sg62
(lp4306
g55
(g64
g57
NtRp4307
(dp4308
g60
(dp4309
g68
I1
ssg69
Nsg62
(lp4310
g55
(g71
g57
NtRp4311
(dp4312
g60
(dp4313
sg69
g4307
sg62
(lp4314
g55
(g76
g57
NtRp4315
(dp4316
g60
(dp4317
sg69
g4311
sg62
(lp4318
g55
(g56
g57
NtRp4319
(dp4320
g60
(dp4321
g68
I1
ssg69
g4315
sg62
(lp4322
g3966
(S's\x08\x00\x00\x00DB Model'
tRp4323
asbasbasbag55
(g71
g57
NtRp4324
(dp4325
g60
(dp4326
sg69
g4307
sg62
(lp4327
g55
(g76
g57
NtRp4328
(dp4329
g60
(dp4330
sg69
g4324
sg62
(lp4331
g55
(g56
g57
NtRp4332
(dp4333
g60
(dp4334
g68
I1
ssg69
g4328
sg62
(lp4335
I00
asbasbasbag55
(g71
g57
NtRp4336
(dp4337
g60
(dp4338
sg69
g4307
sg62
(lp4339
g55
(g76
g57
NtRp4340
(dp4341
g60
(dp4342
sg69
g4336
sg62
(lp4343
g55
(g56
g57
NtRp4344
(dp4345
g60
(dp4346
g68
I1
ssg69
g4340
sg62
(lp4347
S'/admin/default/edit/topoi/models/db.py'
p4348
asbasbasbasbasbasbasbag55
(g71
g57
NtRp4349
(dp4350
g60
(dp4351
sg69
g4075
sg62
(lp4352
g55
(g76
g57
NtRp4353
(dp4354
g60
(dp4355
sg69
g4349
sg62
(lp4356
g55
(g56
g57
NtRp4357
(dp4358
g60
(dp4359
g68
I2
ssg69
g4353
sg62
(lp4360
g55
(g64
g57
NtRp4361
(dp4362
g60
(dp4363
g68
I1
ssg69
Nsg62
(lp4364
g55
(g71
g57
NtRp4365
(dp4366
g60
(dp4367
sg69
g4361
sg62
(lp4368
g55
(g76
g57
NtRp4369
(dp4370
g60
(dp4371
sg69
g4365
sg62
(lp4372
g55
(g56
g57
NtRp4373
(dp4374
g60
(dp4375
g68
I1
ssg69
g4369
sg62
(lp4376
g3966
(S's\n\x00\x00\x00Menu Model'
tRp4377
asbasbasbag55
(g71
g57
NtRp4378
(dp4379
g60
(dp4380
sg69
g4361
sg62
(lp4381
g55
(g76
g57
NtRp4382
(dp4383
g60
(dp4384
sg69
g4378
sg62
(lp4385
g55
(g56
g57
NtRp4386
(dp4387
g60
(dp4388
g68
I1
ssg69
g4382
sg62
(lp4389
I00
asbasbasbag55
(g71
g57
NtRp4390
(dp4391
g60
(dp4392
sg69
g4361
sg62
(lp4393
g55
(g76
g57
NtRp4394
(dp4395
g60
(dp4396
sg69
g4390
sg62
(lp4397
g55
(g56
g57
NtRp4398
(dp4399
g60
(dp4400
g68
I1
ssg69
g4394
sg62
(lp4401
S'/admin/default/edit/topoi/models/menu.py'
p4402
asbasbasbasbasbasbasbag55
(g71
g57
NtRp4403
(dp4404
g60
(dp4405
sg69
g4075
sg62
(lp4406
g55
(g76
g57
NtRp4407
(dp4408
g60
(dp4409
sg69
g4403
sg62
(lp4410
g55
(g56
g57
NtRp4411
(dp4412
g60
(dp4413
g68
I2
ssg69
g4407
sg62
(lp4414
g55
(g64
g57
NtRp4415
(dp4416
g60
(dp4417
g68
I1
ssg69
Nsg62
(lp4418
g55
(g71
g57
NtRp4419
(dp4420
g60
(dp4421
sg69
g4415
sg62
(lp4422
g55
(g76
g57
NtRp4423
(dp4424
g60
(dp4425
sg69
g4419
sg62
(lp4426
g55
(g56
g57
NtRp4427
(dp4428
g60
(dp4429
g68
I1
ssg69
g4423
sg62
(lp4430
g3966
(S't\x08\x00\x00\x00Database'
tRp4431
asbasbasbag55
(g71
g57
NtRp4432
(dp4433
g60
(dp4434
sg69
g4415
sg62
(lp4435
g55
(g76
g57
NtRp4436
(dp4437
g60
(dp4438
sg69
g4432
sg62
(lp4439
g55
(g56
g57
NtRp4440
(dp4441
g60
(dp4442
g68
I1
ssg69
g4436
sg62
(lp4443
I00
asbasbasbag55
(g71
g57
NtRp4444
(dp4445
g60
(dp4446
sg69
g4415
sg62
(lp4447
g55
(g76
g57
NtRp4448
(dp4449
g60
(dp4450
sg69
g4444
sg62
(lp4451
g55
(g56
g57
NtRp4452
(dp4453
g60
(dp4454
g68
I1
ssg69
g4448
sg62
(lp4455
S'/topoi/appadmin/index'
p4456
asbasbasbasbasbasbasbag55
(g71
g57
NtRp4457
(dp4458
g60
(dp4459
sg69
g4075
sg62
(lp4460
g55
(g76
g57
NtRp4461
(dp4462
g60
(dp4463
sg69
g4457
sg62
(lp4464
g55
(g56
g57
NtRp4465
(dp4466
g60
(dp4467
g68
I2
ssg69
g4461
sg62
(lp4468
g55
(g64
g57
NtRp4469
(dp4470
g60
(dp4471
g68
I1
ssg69
Nsg62
(lp4472
g55
(g71
g57
NtRp4473
(dp4474
g60
(dp4475
sg69
g4469
sg62
(lp4476
g55
(g76
g57
NtRp4477
(dp4478
g60
(dp4479
sg69
g4473
sg62
(lp4480
g55
(g56
g57
NtRp4481
(dp4482
g60
(dp4483
g68
I1
ssg69
g4477
sg62
(lp4484
g3966
(S't\x06\x00\x00\x00Errors'
tRp4485
asbasbasbag55
(g71
g57
NtRp4486
(dp4487
g60
(dp4488
sg69
g4469
sg62
(lp4489
g55
(g76
g57
NtRp4490
(dp4491
g60
(dp4492
sg69
g4486
sg62
(lp4493
g55
(g56
g57
NtRp4494
(dp4495
g60
(dp4496
g68
I1
ssg69
g4490
sg62
(lp4497
I00
asbasbasbag55
(g71
g57
NtRp4498
(dp4499
g60
(dp4500
sg69
g4469
sg62
(lp4501
g55
(g76
g57
NtRp4502
(dp4503
g60
(dp4504
sg69
g4498
sg62
(lp4505
g55
(g56
g57
NtRp4506
(dp4507
g60
(dp4508
g68
I1
ssg69
g4502
sg62
(lp4509
S'/admin/default/errors/topoi'
p4510
asbasbasbasbasbasbasbag55
(g71
g57
NtRp4511
(dp4512
g60
(dp4513
sg69
g4075
sg62
(lp4514
g55
(g76
g57
NtRp4515
(dp4516
g60
(dp4517
sg69
g4511
sg62
(lp4518
g55
(g56
g57
NtRp4519
(dp4520
g60
(dp4521
g68
I2
ssg69
g4515
sg62
(lp4522
g55
(g64
g57
NtRp4523
(dp4524
g60
(dp4525
g68
I1
ssg69
Nsg62
(lp4526
g55
(g71
g57
NtRp4527
(dp4528
g60
(dp4529
sg69
g4523
sg62
(lp4530
g55
(g76
g57
NtRp4531
(dp4532
g60
(dp4533
sg69
g4527
sg62
(lp4534
g55
(g56
g57
NtRp4535
(dp4536
g60
(dp4537
g68
I1
ssg69
g4531
sg62
(lp4538
g3966
(S't\x05\x00\x00\x00About'
tRp4539
asbasbasbag55
(g71
g57
NtRp4540
(dp4541
g60
(dp4542
sg69
g4523
sg62
(lp4543
g55
(g76
g57
NtRp4544
(dp4545
g60
(dp4546
sg69
g4540
sg62
(lp4547
g55
(g56
g57
NtRp4548
(dp4549
g60
(dp4550
g68
I1
ssg69
g4544
sg62
(lp4551
I00
asbasbasbag55
(g71
g57
NtRp4552
(dp4553
g60
(dp4554
sg69
g4523
sg62
(lp4555
g55
(g76
g57
NtRp4556
(dp4557
g60
(dp4558
sg69
g4552
sg62
(lp4559
g55
(g56
g57
NtRp4560
(dp4561
g60
(dp4562
g68
I1
ssg69
g4556
sg62
(lp4563
S'/admin/default/about/topoi'
p4564
asbasbasbasbasbasbasbasbasbasbasbasbasbasbasbasbasbasbasbag55
(g71
g57
NtRp4565
(dp4566
g60
(dp4567
sg69
g3434
sg62
(lp4568
g55
(g76
g57
NtRp4569
(dp4570
g60
(dp4571
g80
g81
ssg69
g4565
sg62
(lp4572
S'meta'
p4573
asbag55
(g76
g57
NtRp4574
(dp4575
g60
(dp4576
g87
g88
ssg69
g4565
sg62
(lp4577
S':'
asbag55
(g76
g57
NtRp4578
(dp4579
g60
(dp4580
sg69
g4565
sg62
(lp4581
g55
(g56
g57
NtRp4582
(dp4583
g60
(dp4584
g68
I5
ssg69
g4578
sg62
(lp4585
g55
(g64
g57
NtRp4586
(dp4587
g60
(dp4588
g68
I4
ssg69
Nsg62
(lp4589
g55
(g71
g57
NtRp4590
(dp4591
g60
(dp4592
sg69
g4586
sg62
(lp4593
g55
(g76
g57
NtRp4594
(dp4595
g60
(dp4596
g80
g81
ssg69
g4590
sg62
(lp4597
S'author'
p4598
asbag55
(g76
g57
NtRp4599
(dp4600
g60
(dp4601
g87
g88
ssg69
g4590
sg62
(lp4602
S':'
asbag55
(g76
g57
NtRp4603
(dp4604
g60
(dp4605
sg69
g4590
sg62
(lp4606
g55
(g56
g57
NtRp4607
(dp4608
g60
(dp4609
g68
I4
ssg69
g4603
sg62
(lp4610
S'Ian W. Scott'
p4611
asbasbasbag55
(g71
g57
NtRp4612
(dp4613
g60
(dp4614
sg69
g4586
sg62
(lp4615
g55
(g76
g57
NtRp4616
(dp4617
g60
(dp4618
g80
g81
ssg69
g4612
sg62
(lp4619
S'copyright'
p4620
asbag55
(g76
g57
NtRp4621
(dp4622
g60
(dp4623
g87
g88
ssg69
g4612
sg62
(lp4624
S':'
asbag55
(g76
g57
NtRp4625
(dp4626
g60
(dp4627
sg69
g4612
sg62
(lp4628
g55
(g56
g57
NtRp4629
(dp4630
g60
(dp4631
g68
I4
ssg69
g4625
sg62
(lp4632
S'Copyright 2011'
p4633
asbasbasbag55
(g71
g57
NtRp4634
(dp4635
g60
(dp4636
sg69
g4586
sg62
(lp4637
g55
(g76
g57
NtRp4638
(dp4639
g60
(dp4640
g80
g81
ssg69
g4634
sg62
(lp4641
S'description'
p4642
asbag55
(g76
g57
NtRp4643
(dp4644
g60
(dp4645
g87
g88
ssg69
g4634
sg62
(lp4646
S':'
asbag55
(g76
g57
NtRp4647
(dp4648
g60
(dp4649
sg69
g4634
sg62
(lp4650
g55
(g56
g57
NtRp4651
(dp4652
g60
(dp4653
g68
I4
ssg69
g4647
sg62
(lp4654
S'A web-app for managing primary-text research in the humanities.'
p4655
asbasbasbag55
(g71
g57
NtRp4656
(dp4657
g60
(dp4658
sg69
g4586
sg62
(lp4659
g55
(g76
g57
NtRp4660
(dp4661
g60
(dp4662
g80
g81
ssg69
g4656
sg62
(lp4663
S'generator'
p4664
asbag55
(g76
g57
NtRp4665
(dp4666
g60
(dp4667
g87
g88
ssg69
g4656
sg62
(lp4668
S':'
asbag55
(g76
g57
NtRp4669
(dp4670
g60
(dp4671
sg69
g4656
sg62
(lp4672
g55
(g56
g57
NtRp4673
(dp4674
g60
(dp4675
g68
I4
ssg69
g4669
sg62
(lp4676
S'Web2py Enterprise Framework'
p4677
asbasbasbag55
(g71
g57
NtRp4678
(dp4679
g60
(dp4680
sg69
g4586
sg62
(lp4681
g55
(g76
g57
NtRp4682
(dp4683
g60
(dp4684
g80
g81
ssg69
g4678
sg62
(lp4685
S'keywords'
p4686
asbag55
(g76
g57
NtRp4687
(dp4688
g60
(dp4689
g87
g88
ssg69
g4678
sg62
(lp4690
S':'
asbag55
(g76
g57
NtRp4691
(dp4692
g60
(dp4693
sg69
g4678
sg62
(lp4694
g55
(g56
g57
NtRp4695
(dp4696
g60
(dp4697
g68
I4
ssg69
g4691
sg62
(lp4698
S'research, humanities, biblical'
p4699
asbasbasbasbasbasbasbag55
(g71
g57
NtRp4700
(dp4701
g60
(dp4702
sg69
g3434
sg62
(lp4703
g55
(g76
g57
NtRp4704
(dp4705
g60
(dp4706
g80
g81
ssg69
g4700
sg62
(lp4707
S'postprocessing'
p4708
asbag55
(g76
g57
NtRp4709
(dp4710
g60
(dp4711
g87
g88
ssg69
g4700
sg62
(lp4712
S':'
asbag55
(g76
g57
NtRp4713
(dp4714
g60
(dp4715
sg69
g4700
sg62
(lp4716
g55
(g56
g57
NtRp4717
(dp4718
g60
(dp4719
g68
I5
ssg69
g4713
sg62
(lp4720
g55
(g64
g57
NtRp4721
(dp4722
g60
(dp4723
g68
I4
ssg69
Nsg62
(lp4724
sbasbasbasbag55
(g71
g57
NtRp4725
(dp4726
g60
(dp4727
sg69
g3434
sg62
(lp4728
g55
(g76
g57
NtRp4729
(dp4730
g60
(dp4731
g80
g81
ssg69
g4725
sg62
(lp4732
S'session_file'
p4733
asbag55
(g76
g57
NtRp4734
(dp4735
g60
(dp4736
g87
g88
ssg69
g4725
sg62
(lp4737
S':'
asbag55
(g76
g57
NtRp4738
(dp4739
g60
(dp4740
sg69
g4725
sg62
(lp4741
g55
(g56
g57
NtRp4742
(dp4743
g60
(dp4744
g68
I5
ssg69
g4738
sg62
(lp4745
S"<open file '/home/ian/web2py/applications/topoi/sessions/127.0.0.1-af13e654-cdbc-4583-8d75-e46cda6f6e34', mode 'rb+' at 0x2e67ed0>"
p4746
asbasbasbag55
(g71
g57
NtRp4747
(dp4748
g60
(dp4749
sg69
g3434
sg62
(lp4750
g55
(g76
g57
NtRp4751
(dp4752
g60
(dp4753
g80
g81
ssg69
g4747
sg62
(lp4754
S'session_filename'
p4755
asbag55
(g76
g57
NtRp4756
(dp4757
g60
(dp4758
g87
g88
ssg69
g4747
sg62
(lp4759
S':'
asbag55
(g76
g57
NtRp4760
(dp4761
g60
(dp4762
sg69
g4747
sg62
(lp4763
g55
(g56
g57
NtRp4764
(dp4765
g60
(dp4766
g68
I5
ssg69
g4760
sg62
(lp4767
S'/home/ian/web2py/applications/topoi/sessions/127.0.0.1-af13e654-cdbc-4583-8d75-e46cda6f6e34'
p4768
asbasbasbag55
(g71
g57
NtRp4769
(dp4770
g60
(dp4771
sg69
g3434
sg62
(lp4772
g55
(g76
g57
NtRp4773
(dp4774
g60
(dp4775
g80
g81
ssg69
g4769
sg62
(lp4776
S'session_id'
p4777
asbag55
(g76
g57
NtRp4778
(dp4779
g60
(dp4780
g87
g88
ssg69
g4769
sg62
(lp4781
S':'
asbag55
(g76
g57
NtRp4782
(dp4783
g60
(dp4784
sg69
g4769
sg62
(lp4785
g55
(g56
g57
NtRp4786
(dp4787
g60
(dp4788
g68
I5
ssg69
g4782
sg62
(lp4789
S'127.0.0.1-af13e654-cdbc-4583-8d75-e46cda6f6e34'
p4790
asbasbasbag55
(g71
g57
NtRp4791
(dp4792
g60
(dp4793
sg69
g3434
sg62
(lp4794
g55
(g76
g57
NtRp4795
(dp4796
g60
(dp4797
g80
g81
ssg69
g4791
sg62
(lp4798
S'session_id_name'
p4799
asbag55
(g76
g57
NtRp4800
(dp4801
g60
(dp4802
g87
g88
ssg69
g4791
sg62
(lp4803
S':'
asbag55
(g76
g57
NtRp4804
(dp4805
g60
(dp4806
sg69
g4791
sg62
(lp4807
g55
(g56
g57
NtRp4808
(dp4809
g60
(dp4810
g68
I5
ssg69
g4804
sg62
(lp4811
g3491
asbasbasbag55
(g71
g57
NtRp4812
(dp4813
g60
(dp4814
sg69
g3434
sg62
(lp4815
g55
(g76
g57
NtRp4816
(dp4817
g60
(dp4818
g80
g81
ssg69
g4812
sg62
(lp4819
S'session_locked'
p4820
asbag55
(g76
g57
NtRp4821
(dp4822
g60
(dp4823
g87
g88
ssg69
g4812
sg62
(lp4824
S':'
asbag55
(g76
g57
NtRp4825
(dp4826
g60
(dp4827
sg69
g4812
sg62
(lp4828
g55
(g56
g57
NtRp4829
(dp4830
g60
(dp4831
g68
I5
ssg69
g4825
sg62
(lp4832
g1703
asbasbasbag55
(g71
g57
NtRp4833
(dp4834
g60
(dp4835
sg69
g3434
sg62
(lp4836
g55
(g76
g57
NtRp4837
(dp4838
g60
(dp4839
g80
g81
ssg69
g4833
sg62
(lp4840
S'session_new'
p4841
asbag55
(g76
g57
NtRp4842
(dp4843
g60
(dp4844
g87
g88
ssg69
g4833
sg62
(lp4845
S':'
asbag55
(g76
g57
NtRp4846
(dp4847
g60
(dp4848
sg69
g4833
sg62
(lp4849
g55
(g56
g57
NtRp4850
(dp4851
g60
(dp4852
g68
I5
ssg69
g4846
sg62
(lp4853
g98
asbasbasbag55
(g71
g57
NtRp4854
(dp4855
g60
(dp4856
sg69
g3434
sg62
(lp4857
g55
(g76
g57
NtRp4858
(dp4859
g60
(dp4860
g80
g81
ssg69
g4854
sg62
(lp4861
S'status'
p4862
asbag55
(g76
g57
NtRp4863
(dp4864
g60
(dp4865
g87
g88
ssg69
g4854
sg62
(lp4866
S':'
asbag55
(g76
g57
NtRp4867
(dp4868
g60
(dp4869
sg69
g4854
sg62
(lp4870
g55
(g56
g57
NtRp4871
(dp4872
g60
(dp4873
g68
I5
ssg69
g4867
sg62
(lp4874
S'200'
p4875
asbasbasbag55
(g71
g57
NtRp4876
(dp4877
g60
(dp4878
sg69
g3434
sg62
(lp4879
g55
(g76
g57
NtRp4880
(dp4881
g60
(dp4882
g80
g81
ssg69
g4876
sg62
(lp4883
S'subtitle'
p4884
asbag55
(g76
g57
NtRp4885
(dp4886
g60
(dp4887
g87
g88
ssg69
g4876
sg62
(lp4888
S':'
asbag55
(g76
g57
NtRp4889
(dp4890
g60
(dp4891
sg69
g4876
sg62
(lp4892
g55
(g56
g57
NtRp4893
(dp4894
g60
(dp4895
g68
I5
ssg69
g4889
sg62
(lp4896
g3966
(S's;\x00\x00\x00A tool for managing primary-text research in the humanities'
tRp4897
asbasbasbag55
(g71
g57
NtRp4898
(dp4899
g60
(dp4900
sg69
g3434
sg62
(lp4901
g55
(g76
g57
NtRp4902
(dp4903
g60
(dp4904
g80
g81
ssg69
g4898
sg62
(lp4905
S'title'
p4906
asbag55
(g76
g57
NtRp4907
(dp4908
g60
(dp4909
g87
g88
ssg69
g4898
sg62
(lp4910
S':'
asbag55
(g76
g57
NtRp4911
(dp4912
g60
(dp4913
sg69
g4898
sg62
(lp4914
g55
(g56
g57
NtRp4915
(dp4916
g60
(dp4917
g68
I5
ssg69
g4911
sg62
(lp4918
g120
asbasbasbag55
(g71
g57
NtRp4919
(dp4920
g60
(dp4921
sg69
g3434
sg62
(lp4922
g55
(g76
g57
NtRp4923
(dp4924
g60
(dp4925
g80
g81
ssg69
g4919
sg62
(lp4926
g2369
asbag55
(g76
g57
NtRp4927
(dp4928
g60
(dp4929
g87
g88
ssg69
g4919
sg62
(lp4930
S':'
asbag55
(g76
g57
NtRp4931
(dp4932
g60
(dp4933
sg69
g4919
sg62
(lp4934
g55
(g56
g57
NtRp4935
(dp4936
g60
(dp4937
g68
I5
ssg69
g4931
sg62
(lp4938
g2382
asbasbasbag55
(g71
g57
NtRp4939
(dp4940
g60
(dp4941
sg69
g3434
sg62
(lp4942
g55
(g76
g57
NtRp4943
(dp4944
g60
(dp4945
g80
g81
ssg69
g4939
sg62
(lp4946
S'view'
p4947
asbag55
(g76
g57
NtRp4948
(dp4949
g60
(dp4950
g87
g88
ssg69
g4939
sg62
(lp4951
S':'
asbag55
(g76
g57
NtRp4952
(dp4953
g60
(dp4954
sg69
g4939
sg62
(lp4955
g55
(g56
g57
NtRp4956
(dp4957
g60
(dp4958
g68
I5
ssg69
g4952
sg62
(lp4959
S'plugin_listandedit/list.html'
p4960
asbasbasbasbasbsS'locals'
p4961
(dp4962
S'displayfield'
p4963
S"''"
p4964
sS'tablename'
p4965
S"'notes'"
p4966
sssS'traceback'
p4967
S'Traceback (most recent call last):\n  File "/home/ian/web2py/gluon/restricted.py", line 194, in restricted\n    exec ccode in environment\n  File "/home/ian/web2py/applications/topoi/controllers/plugin_listandedit.py", line 35, in <module>\n  File "/home/ian/web2py/gluon/globals.py", line 149, in <lambda>\n    self._caller = lambda f: f()\n  File "/home/ian/web2py/applications/topoi/controllers/plugin_listandedit.py", line 10, in list\n    fieldnames = request.vars[0]\nKeyError: 0\n'
p4968
s.