(dp1
S'output'
p2
S''
sS'layer'
p3
S'/home/ian/web2py/applications/topoi/models/topoi.py'
p4
sS'code'
p5
S'# coding: utf8\n\nfrom plugin_multiselect_widget import hmultiselect_widget, vmultiselect_widget\nimport datetime\n\nadd_option = SELECT_OR_ADD_OPTION(form_title="Add new", controller="default", function="add", button_text = "Add New", dialog_width=500)\n\ndb.define_table(\'locations\',\n    Field(\'location\', \'string\'),\n    format=\'%(location)s\')\n\ndb.define_table(\'authors\', \n    Field(\'name\', \'string\', default=\'anonymous\'),\n    Field(\'location\', db.locations),\n    Field(\'lived\', \'string\'), \n    format=\'%(name)s\')\ndb.authors.location.widget = add.option.widget \n        \ndb.define_table(\'works\',\n    Field(\'title\', \'string\'),\n    Field(\'author\', db.authors),\n    Field(\'date_earliest\'),\n    Field(\'date_latest\'),\n    Field(\'date_likely\'),\n    Field(\'genre\'),\n    Field(\'source\'),\n    Field(\'comments\'),\n    format=\'%(title)s\')\n\ndb.define_table(\'projects\',\n    Field(\'projectname\', \'string\'),\n    Field(\'owner\', db.auth_user, default=auth.user_id),\n    Field(\'description\', \'text\'),\n    format=\'%(projectname)s\')\n\ndb.define_table(\'tags\',\n    Field(\'tagname\', \'string\'),\n    Field(\'creator\', db.auth_user, default=auth.user_id),\n    Field(\'project\', db.projects),\n    format=\'%(tagname)s\')\n    \ndb.define_table(\'notes\',\n    Field(\'label\', \'string\'),\n    Field(\'user\', db.auth_user, default=auth.user_id),\n    Field(\'author\', db.authors),\n    Field(\'work\', db.works),\n    Field(\'reference\'),\n    Field(\'excerpt\'),\n    Field(\'body\', \'text\'),\n    Field(\'tags\', \'list:reference db.tags\'),\n    Field(\'last_edited\', \'datetime\', default=datetime.datetime.utcnow()),\n    Field(\'project\', db.projects),\n    format=\'%(label)s\')\n#Initialize the add-or-select widget\ndb.notes.author.widget = add_option.widget\ndb.notes.work.widget = add_option.widget\ndb.notes.tags.requires = IS_IN_DB(db, \'tags.id\', db.tags._format, multiple = True)\ndb.notes.tags.widget = hmultiselect_widget\ndb.notes.project.widget = add_option.widget\n'
p6
sS'snapshot'
p7
(dp8
S'exception'
p9
(dp10
S'__hash__'
p11
S"<method-wrapper '__hash__' of exceptions.NameError object>"
p12
sS'__setattr__'
p13
S"<method-wrapper '__setattr__' of exceptions.NameError object>"
p14
sS'__reduce_ex__'
p15
S'<built-in method __reduce_ex__ of exceptions.NameError object>'
p16
sS'__getslice__'
p17
S"<method-wrapper '__getslice__' of exceptions.NameError object>"
p18
sS'__getitem__'
p19
S"<method-wrapper '__getitem__' of exceptions.NameError object>"
p20
sS'__setstate__'
p21
S'<built-in method __setstate__ of exceptions.NameError object>'
p22
sS'args'
p23
S'("name \'add\' is not defined",)'
p24
sS'__reduce__'
p25
S'<built-in method __reduce__ of exceptions.NameError object>'
p26
sS'__str__'
p27
S"<method-wrapper '__str__' of exceptions.NameError object>"
p28
sS'__format__'
p29
S'<built-in method __format__ of exceptions.NameError object>'
p30
sS'__getattribute__'
p31
S"<method-wrapper '__getattribute__' of exceptions.NameError object>"
p32
sS'__class__'
p33
S"<type 'exceptions.NameError'>"
p34
sS'__unicode__'
p35
S'<built-in method __unicode__ of exceptions.NameError object>'
p36
sS'__delattr__'
p37
S"<method-wrapper '__delattr__' of exceptions.NameError object>"
p38
sS'__subclasshook__'
p39
S'<built-in method __subclasshook__ of type object>'
p40
sS'__repr__'
p41
S"<method-wrapper '__repr__' of exceptions.NameError object>"
p42
sS'__dict__'
p43
S'{}'
p44
sS'__sizeof__'
p45
S'<built-in method __sizeof__ of exceptions.NameError object>'
p46
sS'__doc__'
p47
S"'Name not found globally.'"
p48
sS'__init__'
p49
S"<method-wrapper '__init__' of exceptions.NameError object>"
p50
sS'__new__'
p51
S'<built-in method __new__ of type object>'
p52
ssS'evalue'
p53
S"name 'add' is not defined"
p54
sS'request'
p55
ccopy_reg
_reconstructor
p56
(cgluon.html
BEAUTIFY
p57
c__builtin__
object
p58
NtRp59
(dp60
S'attributes'
p61
(dp62
sS'components'
p63
(lp64
g56
(cgluon.html
TABLE
p65
g58
NtRp66
(dp67
g61
(dp68
S'level'
p69
I5
ssS'parent'
p70
Nsg63
(lp71
g56
(cgluon.html
TR
p72
g58
NtRp73
(dp74
g61
(dp75
sg70
g66
sg63
(lp76
g56
(cgluon.html
TD
p77
g58
NtRp78
(dp79
g61
(dp80
S'_style'
p81
S'font-weight:bold;'
p82
ssg70
g73
sg63
(lp83
S'ajax'
p84
asbag56
(g77
g58
NtRp85
(dp86
g61
(dp87
S'_valign'
p88
S'top'
p89
ssg70
g73
sg63
(lp90
S':'
asbag56
(g77
g58
NtRp91
(dp92
g61
(dp93
sg70
g73
sg63
(lp94
g56
(g57
g58
NtRp95
(dp96
g61
(dp97
g69
I5
ssg70
g91
sg63
(lp98
S'False'
p99
asbasbasbag56
(g72
g58
NtRp100
(dp101
g61
(dp102
sg70
g66
sg63
(lp103
g56
(g77
g58
NtRp104
(dp105
g61
(dp106
g81
g82
ssg70
g100
sg63
(lp107
S'application'
p108
asbag56
(g77
g58
NtRp109
(dp110
g61
(dp111
g88
g89
ssg70
g100
sg63
(lp112
S':'
asbag56
(g77
g58
NtRp113
(dp114
g61
(dp115
sg70
g100
sg63
(lp116
g56
(g57
g58
NtRp117
(dp118
g61
(dp119
g69
I5
ssg70
g113
sg63
(lp120
S'topoi'
p121
asbasbasbag56
(g72
g58
NtRp122
(dp123
g61
(dp124
sg70
g66
sg63
(lp125
g56
(g77
g58
NtRp126
(dp127
g61
(dp128
g81
g82
ssg70
g122
sg63
(lp129
g23
asbag56
(g77
g58
NtRp130
(dp131
g61
(dp132
g88
g89
ssg70
g122
sg63
(lp133
S':'
asbag56
(g77
g58
NtRp134
(dp135
g61
(dp136
sg70
g122
sg63
(lp137
g56
(g57
g58
NtRp138
(dp139
g61
(dp140
g69
I5
ssg70
g134
sg63
(lp141
g56
(g65
g58
NtRp142
(dp143
g61
(dp144
g69
I4
ssg70
Nsg63
(lp145
g56
(g72
g58
NtRp146
(dp147
g61
(dp148
sg70
g142
sg63
(lp149
g56
(g77
g58
NtRp150
(dp151
g61
(dp152
sg70
g146
sg63
(lp153
g56
(g57
g58
NtRp154
(dp155
g61
(dp156
g69
I4
ssg70
g150
sg63
(lp157
S'new'
p158
asbasbasbag56
(g72
g58
NtRp159
(dp160
g61
(dp161
sg70
g142
sg63
(lp162
g56
(g77
g58
NtRp163
(dp164
g61
(dp165
sg70
g159
sg63
(lp166
g56
(g57
g58
NtRp167
(dp168
g61
(dp169
g69
I4
ssg70
g163
sg63
(lp170
S'notes'
p171
asbasbasbasbasbasbasbag56
(g72
g58
NtRp172
(dp173
g61
(dp174
sg70
g66
sg63
(lp175
g56
(g77
g58
NtRp176
(dp177
g61
(dp178
g81
g82
ssg70
g172
sg63
(lp179
S'body'
p180
asbag56
(g77
g58
NtRp181
(dp182
g61
(dp183
g88
g89
ssg70
g172
sg63
(lp184
S':'
asbag56
(g77
g58
NtRp185
(dp186
g61
(dp187
sg70
g172
sg63
(lp188
g56
(g57
g58
NtRp189
(dp190
g61
(dp191
g69
I5
ssg70
g185
sg63
(lp192
S'<cStringIO.StringO object at 0x2e6d2d0>'
p193
asbasbasbag56
(g72
g58
NtRp194
(dp195
g61
(dp196
sg70
g66
sg63
(lp197
g56
(g77
g58
NtRp198
(dp199
g61
(dp200
g81
g82
ssg70
g194
sg63
(lp201
S'client'
p202
asbag56
(g77
g58
NtRp203
(dp204
g61
(dp205
g88
g89
ssg70
g194
sg63
(lp206
S':'
asbag56
(g77
g58
NtRp207
(dp208
g61
(dp209
sg70
g194
sg63
(lp210
g56
(g57
g58
NtRp211
(dp212
g61
(dp213
g69
I5
ssg70
g207
sg63
(lp214
S'127.0.0.1'
p215
asbasbasbag56
(g72
g58
NtRp216
(dp217
g61
(dp218
sg70
g66
sg63
(lp219
g56
(g77
g58
NtRp220
(dp221
g61
(dp222
g81
g82
ssg70
g216
sg63
(lp223
S'controller'
p224
asbag56
(g77
g58
NtRp225
(dp226
g61
(dp227
g88
g89
ssg70
g216
sg63
(lp228
S':'
asbag56
(g77
g58
NtRp229
(dp230
g61
(dp231
sg70
g216
sg63
(lp232
g56
(g57
g58
NtRp233
(dp234
g61
(dp235
g69
I5
ssg70
g229
sg63
(lp236
S'default'
p237
asbasbasbag56
(g72
g58
NtRp238
(dp239
g61
(dp240
sg70
g66
sg63
(lp241
g56
(g77
g58
NtRp242
(dp243
g61
(dp244
g81
g82
ssg70
g238
sg63
(lp245
S'cookies'
p246
asbag56
(g77
g58
NtRp247
(dp248
g61
(dp249
g88
g89
ssg70
g238
sg63
(lp250
S':'
asbag56
(g77
g58
NtRp251
(dp252
g61
(dp253
sg70
g238
sg63
(lp254
g56
(g57
g58
NtRp255
(dp256
g61
(dp257
g69
I5
ssg70
g251
sg63
(lp258
g56
(g65
g58
NtRp259
(dp260
g61
(dp261
g69
I4
ssg70
Nsg63
(lp262
g56
(g72
g58
NtRp263
(dp264
g61
(dp265
sg70
g259
sg63
(lp266
g56
(g77
g58
NtRp267
(dp268
g61
(dp269
g81
g82
ssg70
g263
sg63
(lp270
S'session_id_admin'
p271
asbag56
(g77
g58
NtRp272
(dp273
g61
(dp274
g88
g89
ssg70
g263
sg63
(lp275
S':'
asbag56
(g77
g58
NtRp276
(dp277
g61
(dp278
sg70
g263
sg63
(lp279
g56
(g57
g58
NtRp280
(dp281
g61
(dp282
g69
I4
ssg70
g276
sg63
(lp283
g56
(g65
g58
NtRp284
(dp285
g61
(dp286
g69
I3
ssg70
Nsg63
(lp287
g56
(g72
g58
NtRp288
(dp289
g61
(dp290
sg70
g284
sg63
(lp291
g56
(g77
g58
NtRp292
(dp293
g61
(dp294
g81
g82
ssg70
g288
sg63
(lp295
S'comment'
p296
asbag56
(g77
g58
NtRp297
(dp298
g61
(dp299
g88
g89
ssg70
g288
sg63
(lp300
S':'
asbag56
(g77
g58
NtRp301
(dp302
g61
(dp303
sg70
g288
sg63
(lp304
g56
(g57
g58
NtRp305
(dp306
g61
(dp307
g69
I3
ssg70
g301
sg63
(lp308
S''
asbasbasbag56
(g72
g58
NtRp309
(dp310
g61
(dp311
sg70
g284
sg63
(lp312
g56
(g77
g58
NtRp313
(dp314
g61
(dp315
g81
g82
ssg70
g309
sg63
(lp316
S'domain'
p317
asbag56
(g77
g58
NtRp318
(dp319
g61
(dp320
g88
g89
ssg70
g309
sg63
(lp321
S':'
asbag56
(g77
g58
NtRp322
(dp323
g61
(dp324
sg70
g309
sg63
(lp325
g56
(g57
g58
NtRp326
(dp327
g61
(dp328
g69
I3
ssg70
g322
sg63
(lp329
S''
asbasbasbag56
(g72
g58
NtRp330
(dp331
g61
(dp332
sg70
g284
sg63
(lp333
g56
(g77
g58
NtRp334
(dp335
g61
(dp336
g81
g82
ssg70
g330
sg63
(lp337
S'expires'
p338
asbag56
(g77
g58
NtRp339
(dp340
g61
(dp341
g88
g89
ssg70
g330
sg63
(lp342
S':'
asbag56
(g77
g58
NtRp343
(dp344
g61
(dp345
sg70
g330
sg63
(lp346
g56
(g57
g58
NtRp347
(dp348
g61
(dp349
g69
I3
ssg70
g343
sg63
(lp350
S''
asbasbasbag56
(g72
g58
NtRp351
(dp352
g61
(dp353
sg70
g284
sg63
(lp354
g56
(g77
g58
NtRp355
(dp356
g61
(dp357
g81
g82
ssg70
g351
sg63
(lp358
S'httponly'
p359
asbag56
(g77
g58
NtRp360
(dp361
g61
(dp362
g88
g89
ssg70
g351
sg63
(lp363
S':'
asbag56
(g77
g58
NtRp364
(dp365
g61
(dp366
sg70
g351
sg63
(lp367
g56
(g57
g58
NtRp368
(dp369
g61
(dp370
g69
I3
ssg70
g364
sg63
(lp371
S''
asbasbasbag56
(g72
g58
NtRp372
(dp373
g61
(dp374
sg70
g284
sg63
(lp375
g56
(g77
g58
NtRp376
(dp377
g61
(dp378
g81
g82
ssg70
g372
sg63
(lp379
S'max-age'
p380
asbag56
(g77
g58
NtRp381
(dp382
g61
(dp383
g88
g89
ssg70
g372
sg63
(lp384
S':'
asbag56
(g77
g58
NtRp385
(dp386
g61
(dp387
sg70
g372
sg63
(lp388
g56
(g57
g58
NtRp389
(dp390
g61
(dp391
g69
I3
ssg70
g385
sg63
(lp392
S''
asbasbasbag56
(g72
g58
NtRp393
(dp394
g61
(dp395
sg70
g284
sg63
(lp396
g56
(g77
g58
NtRp397
(dp398
g61
(dp399
g81
g82
ssg70
g393
sg63
(lp400
S'path'
p401
asbag56
(g77
g58
NtRp402
(dp403
g61
(dp404
g88
g89
ssg70
g393
sg63
(lp405
S':'
asbag56
(g77
g58
NtRp406
(dp407
g61
(dp408
sg70
g393
sg63
(lp409
g56
(g57
g58
NtRp410
(dp411
g61
(dp412
g69
I3
ssg70
g406
sg63
(lp413
S''
asbasbasbag56
(g72
g58
NtRp414
(dp415
g61
(dp416
sg70
g284
sg63
(lp417
g56
(g77
g58
NtRp418
(dp419
g61
(dp420
g81
g82
ssg70
g414
sg63
(lp421
S'secure'
p422
asbag56
(g77
g58
NtRp423
(dp424
g61
(dp425
g88
g89
ssg70
g414
sg63
(lp426
S':'
asbag56
(g77
g58
NtRp427
(dp428
g61
(dp429
sg70
g414
sg63
(lp430
g56
(g57
g58
NtRp431
(dp432
g61
(dp433
g69
I3
ssg70
g427
sg63
(lp434
S''
asbasbasbag56
(g72
g58
NtRp435
(dp436
g61
(dp437
sg70
g284
sg63
(lp438
g56
(g77
g58
NtRp439
(dp440
g61
(dp441
g81
g82
ssg70
g435
sg63
(lp442
S'version'
p443
asbag56
(g77
g58
NtRp444
(dp445
g61
(dp446
g88
g89
ssg70
g435
sg63
(lp447
S':'
asbag56
(g77
g58
NtRp448
(dp449
g61
(dp450
sg70
g435
sg63
(lp451
g56
(g57
g58
NtRp452
(dp453
g61
(dp454
g69
I3
ssg70
g448
sg63
(lp455
S''
asbasbasbasbasbasbasbag56
(g72
g58
NtRp456
(dp457
g61
(dp458
sg70
g259
sg63
(lp459
g56
(g77
g58
NtRp460
(dp461
g61
(dp462
g81
g82
ssg70
g456
sg63
(lp463
S'session_id_topoi'
p464
asbag56
(g77
g58
NtRp465
(dp466
g61
(dp467
g88
g89
ssg70
g456
sg63
(lp468
S':'
asbag56
(g77
g58
NtRp469
(dp470
g61
(dp471
sg70
g456
sg63
(lp472
g56
(g57
g58
NtRp473
(dp474
g61
(dp475
g69
I4
ssg70
g469
sg63
(lp476
g56
(g65
g58
NtRp477
(dp478
g61
(dp479
g69
I3
ssg70
Nsg63
(lp480
g56
(g72
g58
NtRp481
(dp482
g61
(dp483
sg70
g477
sg63
(lp484
g56
(g77
g58
NtRp485
(dp486
g61
(dp487
g81
g82
ssg70
g481
sg63
(lp488
g296
asbag56
(g77
g58
NtRp489
(dp490
g61
(dp491
g88
g89
ssg70
g481
sg63
(lp492
S':'
asbag56
(g77
g58
NtRp493
(dp494
g61
(dp495
sg70
g481
sg63
(lp496
g56
(g57
g58
NtRp497
(dp498
g61
(dp499
g69
I3
ssg70
g493
sg63
(lp500
S''
asbasbasbag56
(g72
g58
NtRp501
(dp502
g61
(dp503
sg70
g477
sg63
(lp504
g56
(g77
g58
NtRp505
(dp506
g61
(dp507
g81
g82
ssg70
g501
sg63
(lp508
g317
asbag56
(g77
g58
NtRp509
(dp510
g61
(dp511
g88
g89
ssg70
g501
sg63
(lp512
S':'
asbag56
(g77
g58
NtRp513
(dp514
g61
(dp515
sg70
g501
sg63
(lp516
g56
(g57
g58
NtRp517
(dp518
g61
(dp519
g69
I3
ssg70
g513
sg63
(lp520
S''
asbasbasbag56
(g72
g58
NtRp521
(dp522
g61
(dp523
sg70
g477
sg63
(lp524
g56
(g77
g58
NtRp525
(dp526
g61
(dp527
g81
g82
ssg70
g521
sg63
(lp528
g338
asbag56
(g77
g58
NtRp529
(dp530
g61
(dp531
g88
g89
ssg70
g521
sg63
(lp532
S':'
asbag56
(g77
g58
NtRp533
(dp534
g61
(dp535
sg70
g521
sg63
(lp536
g56
(g57
g58
NtRp537
(dp538
g61
(dp539
g69
I3
ssg70
g533
sg63
(lp540
S''
asbasbasbag56
(g72
g58
NtRp541
(dp542
g61
(dp543
sg70
g477
sg63
(lp544
g56
(g77
g58
NtRp545
(dp546
g61
(dp547
g81
g82
ssg70
g541
sg63
(lp548
g359
asbag56
(g77
g58
NtRp549
(dp550
g61
(dp551
g88
g89
ssg70
g541
sg63
(lp552
S':'
asbag56
(g77
g58
NtRp553
(dp554
g61
(dp555
sg70
g541
sg63
(lp556
g56
(g57
g58
NtRp557
(dp558
g61
(dp559
g69
I3
ssg70
g553
sg63
(lp560
S''
asbasbasbag56
(g72
g58
NtRp561
(dp562
g61
(dp563
sg70
g477
sg63
(lp564
g56
(g77
g58
NtRp565
(dp566
g61
(dp567
g81
g82
ssg70
g561
sg63
(lp568
g380
asbag56
(g77
g58
NtRp569
(dp570
g61
(dp571
g88
g89
ssg70
g561
sg63
(lp572
S':'
asbag56
(g77
g58
NtRp573
(dp574
g61
(dp575
sg70
g561
sg63
(lp576
g56
(g57
g58
NtRp577
(dp578
g61
(dp579
g69
I3
ssg70
g573
sg63
(lp580
S''
asbasbasbag56
(g72
g58
NtRp581
(dp582
g61
(dp583
sg70
g477
sg63
(lp584
g56
(g77
g58
NtRp585
(dp586
g61
(dp587
g81
g82
ssg70
g581
sg63
(lp588
g401
asbag56
(g77
g58
NtRp589
(dp590
g61
(dp591
g88
g89
ssg70
g581
sg63
(lp592
S':'
asbag56
(g77
g58
NtRp593
(dp594
g61
(dp595
sg70
g581
sg63
(lp596
g56
(g57
g58
NtRp597
(dp598
g61
(dp599
g69
I3
ssg70
g593
sg63
(lp600
S''
asbasbasbag56
(g72
g58
NtRp601
(dp602
g61
(dp603
sg70
g477
sg63
(lp604
g56
(g77
g58
NtRp605
(dp606
g61
(dp607
g81
g82
ssg70
g601
sg63
(lp608
g422
asbag56
(g77
g58
NtRp609
(dp610
g61
(dp611
g88
g89
ssg70
g601
sg63
(lp612
S':'
asbag56
(g77
g58
NtRp613
(dp614
g61
(dp615
sg70
g601
sg63
(lp616
g56
(g57
g58
NtRp617
(dp618
g61
(dp619
g69
I3
ssg70
g613
sg63
(lp620
S''
asbasbasbag56
(g72
g58
NtRp621
(dp622
g61
(dp623
sg70
g477
sg63
(lp624
g56
(g77
g58
NtRp625
(dp626
g61
(dp627
g81
g82
ssg70
g621
sg63
(lp628
g443
asbag56
(g77
g58
NtRp629
(dp630
g61
(dp631
g88
g89
ssg70
g621
sg63
(lp632
S':'
asbag56
(g77
g58
NtRp633
(dp634
g61
(dp635
sg70
g621
sg63
(lp636
g56
(g57
g58
NtRp637
(dp638
g61
(dp639
g69
I3
ssg70
g633
sg63
(lp640
S''
asbasbasbasbasbasbasbag56
(g72
g58
NtRp641
(dp642
g61
(dp643
sg70
g259
sg63
(lp644
g56
(g77
g58
NtRp645
(dp646
g61
(dp647
g81
g82
ssg70
g641
sg63
(lp648
S'session_id_welcome'
p649
asbag56
(g77
g58
NtRp650
(dp651
g61
(dp652
g88
g89
ssg70
g641
sg63
(lp653
S':'
asbag56
(g77
g58
NtRp654
(dp655
g61
(dp656
sg70
g641
sg63
(lp657
g56
(g57
g58
NtRp658
(dp659
g61
(dp660
g69
I4
ssg70
g654
sg63
(lp661
g56
(g65
g58
NtRp662
(dp663
g61
(dp664
g69
I3
ssg70
Nsg63
(lp665
g56
(g72
g58
NtRp666
(dp667
g61
(dp668
sg70
g662
sg63
(lp669
g56
(g77
g58
NtRp670
(dp671
g61
(dp672
g81
g82
ssg70
g666
sg63
(lp673
g296
asbag56
(g77
g58
NtRp674
(dp675
g61
(dp676
g88
g89
ssg70
g666
sg63
(lp677
S':'
asbag56
(g77
g58
NtRp678
(dp679
g61
(dp680
sg70
g666
sg63
(lp681
g56
(g57
g58
NtRp682
(dp683
g61
(dp684
g69
I3
ssg70
g678
sg63
(lp685
S''
asbasbasbag56
(g72
g58
NtRp686
(dp687
g61
(dp688
sg70
g662
sg63
(lp689
g56
(g77
g58
NtRp690
(dp691
g61
(dp692
g81
g82
ssg70
g686
sg63
(lp693
g317
asbag56
(g77
g58
NtRp694
(dp695
g61
(dp696
g88
g89
ssg70
g686
sg63
(lp697
S':'
asbag56
(g77
g58
NtRp698
(dp699
g61
(dp700
sg70
g686
sg63
(lp701
g56
(g57
g58
NtRp702
(dp703
g61
(dp704
g69
I3
ssg70
g698
sg63
(lp705
S''
asbasbasbag56
(g72
g58
NtRp706
(dp707
g61
(dp708
sg70
g662
sg63
(lp709
g56
(g77
g58
NtRp710
(dp711
g61
(dp712
g81
g82
ssg70
g706
sg63
(lp713
g338
asbag56
(g77
g58
NtRp714
(dp715
g61
(dp716
g88
g89
ssg70
g706
sg63
(lp717
S':'
asbag56
(g77
g58
NtRp718
(dp719
g61
(dp720
sg70
g706
sg63
(lp721
g56
(g57
g58
NtRp722
(dp723
g61
(dp724
g69
I3
ssg70
g718
sg63
(lp725
S''
asbasbasbag56
(g72
g58
NtRp726
(dp727
g61
(dp728
sg70
g662
sg63
(lp729
g56
(g77
g58
NtRp730
(dp731
g61
(dp732
g81
g82
ssg70
g726
sg63
(lp733
g359
asbag56
(g77
g58
NtRp734
(dp735
g61
(dp736
g88
g89
ssg70
g726
sg63
(lp737
S':'
asbag56
(g77
g58
NtRp738
(dp739
g61
(dp740
sg70
g726
sg63
(lp741
g56
(g57
g58
NtRp742
(dp743
g61
(dp744
g69
I3
ssg70
g738
sg63
(lp745
S''
asbasbasbag56
(g72
g58
NtRp746
(dp747
g61
(dp748
sg70
g662
sg63
(lp749
g56
(g77
g58
NtRp750
(dp751
g61
(dp752
g81
g82
ssg70
g746
sg63
(lp753
g380
asbag56
(g77
g58
NtRp754
(dp755
g61
(dp756
g88
g89
ssg70
g746
sg63
(lp757
S':'
asbag56
(g77
g58
NtRp758
(dp759
g61
(dp760
sg70
g746
sg63
(lp761
g56
(g57
g58
NtRp762
(dp763
g61
(dp764
g69
I3
ssg70
g758
sg63
(lp765
S''
asbasbasbag56
(g72
g58
NtRp766
(dp767
g61
(dp768
sg70
g662
sg63
(lp769
g56
(g77
g58
NtRp770
(dp771
g61
(dp772
g81
g82
ssg70
g766
sg63
(lp773
g401
asbag56
(g77
g58
NtRp774
(dp775
g61
(dp776
g88
g89
ssg70
g766
sg63
(lp777
S':'
asbag56
(g77
g58
NtRp778
(dp779
g61
(dp780
sg70
g766
sg63
(lp781
g56
(g57
g58
NtRp782
(dp783
g61
(dp784
g69
I3
ssg70
g778
sg63
(lp785
S''
asbasbasbag56
(g72
g58
NtRp786
(dp787
g61
(dp788
sg70
g662
sg63
(lp789
g56
(g77
g58
NtRp790
(dp791
g61
(dp792
g81
g82
ssg70
g786
sg63
(lp793
g422
asbag56
(g77
g58
NtRp794
(dp795
g61
(dp796
g88
g89
ssg70
g786
sg63
(lp797
S':'
asbag56
(g77
g58
NtRp798
(dp799
g61
(dp800
sg70
g786
sg63
(lp801
g56
(g57
g58
NtRp802
(dp803
g61
(dp804
g69
I3
ssg70
g798
sg63
(lp805
S''
asbasbasbag56
(g72
g58
NtRp806
(dp807
g61
(dp808
sg70
g662
sg63
(lp809
g56
(g77
g58
NtRp810
(dp811
g61
(dp812
g81
g82
ssg70
g806
sg63
(lp813
g443
asbag56
(g77
g58
NtRp814
(dp815
g61
(dp816
g88
g89
ssg70
g806
sg63
(lp817
S':'
asbag56
(g77
g58
NtRp818
(dp819
g61
(dp820
sg70
g806
sg63
(lp821
g56
(g57
g58
NtRp822
(dp823
g61
(dp824
g69
I3
ssg70
g818
sg63
(lp825
S''
asbasbasbasbasbasbasbasbasbasbasbag56
(g72
g58
NtRp826
(dp827
g61
(dp828
sg70
g66
sg63
(lp829
g56
(g77
g58
NtRp830
(dp831
g61
(dp832
g81
g82
ssg70
g826
sg63
(lp833
S'env'
p834
asbag56
(g77
g58
NtRp835
(dp836
g61
(dp837
g88
g89
ssg70
g826
sg63
(lp838
S':'
asbag56
(g77
g58
NtRp839
(dp840
g61
(dp841
sg70
g826
sg63
(lp842
g56
(g57
g58
NtRp843
(dp844
g61
(dp845
g69
I5
ssg70
g839
sg63
(lp846
g56
(g65
g58
NtRp847
(dp848
g61
(dp849
g69
I4
ssg70
Nsg63
(lp850
g56
(g72
g58
NtRp851
(dp852
g61
(dp853
sg70
g847
sg63
(lp854
g56
(g77
g58
NtRp855
(dp856
g61
(dp857
g81
g82
ssg70
g851
sg63
(lp858
S'app_folders'
p859
asbag56
(g77
g58
NtRp860
(dp861
g61
(dp862
g88
g89
ssg70
g851
sg63
(lp863
S':'
asbag56
(g77
g58
NtRp864
(dp865
g61
(dp866
sg70
g851
sg63
(lp867
g56
(g57
g58
NtRp868
(dp869
g61
(dp870
g69
I4
ssg70
g864
sg63
(lp871
S"set(['/home/ian/web2py/applications/topoi/', '/home/ian/web2py/applications/welcome/', '/home/ian/web2py/applications/admin/'])"
p872
asbasbasbag56
(g72
g58
NtRp873
(dp874
g61
(dp875
sg70
g847
sg63
(lp876
g56
(g77
g58
NtRp877
(dp878
g61
(dp879
g81
g82
ssg70
g873
sg63
(lp880
S'applications_parent'
p881
asbag56
(g77
g58
NtRp882
(dp883
g61
(dp884
g88
g89
ssg70
g873
sg63
(lp885
S':'
asbag56
(g77
g58
NtRp886
(dp887
g61
(dp888
sg70
g873
sg63
(lp889
g56
(g57
g58
NtRp890
(dp891
g61
(dp892
g69
I4
ssg70
g886
sg63
(lp893
S'/home/ian/web2py'
p894
asbasbasbag56
(g72
g58
NtRp895
(dp896
g61
(dp897
sg70
g847
sg63
(lp898
g56
(g77
g58
NtRp899
(dp900
g61
(dp901
g81
g82
ssg70
g895
sg63
(lp902
S'cmd_args'
p903
asbag56
(g77
g58
NtRp904
(dp905
g61
(dp906
g88
g89
ssg70
g895
sg63
(lp907
S':'
asbag56
(g77
g58
NtRp908
(dp909
g61
(dp910
sg70
g895
sg63
(lp911
g56
(g57
g58
NtRp912
(dp913
g61
(dp914
g69
I4
ssg70
g908
sg63
(lp915
g56
(g65
g58
NtRp916
(dp917
g61
(dp918
g69
I3
ssg70
Nsg63
(lp919
sbasbasbasbag56
(g72
g58
NtRp920
(dp921
g61
(dp922
sg70
g847
sg63
(lp923
g56
(g77
g58
NtRp924
(dp925
g61
(dp926
g81
g82
ssg70
g920
sg63
(lp927
S'cmd_options'
p928
asbag56
(g77
g58
NtRp929
(dp930
g61
(dp931
g88
g89
ssg70
g920
sg63
(lp932
S':'
asbag56
(g77
g58
NtRp933
(dp934
g61
(dp935
sg70
g920
sg63
(lp936
g56
(g57
g58
NtRp937
(dp938
g61
(dp939
g69
I4
ssg70
g933
sg63
(lp940
S"<Values at 0x1e5f7e8: {'verbose': False, 'ip': '127.0.0.1', 'shutdown_timeout': 5, 'taskbar': False, 'nocron': False, 'pid_filename': 'httpserver.pid', 'maxthreads': None, 'softcron': False, 'server_name': 'Ariel-ubuntu', 'bpython': False, 'nogui': False, 'port': 8000, 'extcron': False, 'debuglevel': 30, 'test': None, 'folder': '/home/ian/web2py', 'config': '', 'import_models': False, 'winservice': '', 'shell': None, 'run': '', 'log_filename': 'httpserver.log', 'args': [''], 'ssl_ca_certificate': None, 'scheduler': None, 'profiler_filename': None, 'ssl_private_key': '', 'password': '<ask>', 'request_queue_size': 5, 'ssl_certificate': '', 'cronjob': False, 'plain': False, 'quiet': False, 'interfaces': None, 'minthreads': None, 'timeout': 10, 'numthreads': None, 'nobanner': False}>"
p941
asbasbasbag56
(g72
g58
NtRp942
(dp943
g61
(dp944
sg70
g847
sg63
(lp945
g56
(g77
g58
NtRp946
(dp947
g61
(dp948
g81
g82
ssg70
g942
sg63
(lp949
S'db_sessions'
p950
asbag56
(g77
g58
NtRp951
(dp952
g61
(dp953
g88
g89
ssg70
g942
sg63
(lp954
S':'
asbag56
(g77
g58
NtRp955
(dp956
g61
(dp957
sg70
g942
sg63
(lp958
g56
(g57
g58
NtRp959
(dp960
g61
(dp961
g69
I4
ssg70
g955
sg63
(lp962
S'set([])'
p963
asbasbasbag56
(g72
g58
NtRp964
(dp965
g61
(dp966
sg70
g847
sg63
(lp967
g56
(g77
g58
NtRp968
(dp969
g61
(dp970
g81
g82
ssg70
g964
sg63
(lp971
S'debugging'
p972
asbag56
(g77
g58
NtRp973
(dp974
g61
(dp975
g88
g89
ssg70
g964
sg63
(lp976
S':'
asbag56
(g77
g58
NtRp977
(dp978
g61
(dp979
sg70
g964
sg63
(lp980
g56
(g57
g58
NtRp981
(dp982
g61
(dp983
g69
I4
ssg70
g977
sg63
(lp984
g99
asbasbasbag56
(g72
g58
NtRp985
(dp986
g61
(dp987
sg70
g847
sg63
(lp988
g56
(g77
g58
NtRp989
(dp990
g61
(dp991
g81
g82
ssg70
g985
sg63
(lp992
S'gluon_parent'
p993
asbag56
(g77
g58
NtRp994
(dp995
g61
(dp996
g88
g89
ssg70
g985
sg63
(lp997
S':'
asbag56
(g77
g58
NtRp998
(dp999
g61
(dp1000
sg70
g985
sg63
(lp1001
g56
(g57
g58
NtRp1002
(dp1003
g61
(dp1004
g69
I4
ssg70
g998
sg63
(lp1005
S'/home/ian/web2py'
p1006
asbasbasbag56
(g72
g58
NtRp1007
(dp1008
g61
(dp1009
sg70
g847
sg63
(lp1010
g56
(g77
g58
NtRp1011
(dp1012
g61
(dp1013
g81
g82
ssg70
g1007
sg63
(lp1014
S'http_accept'
p1015
asbag56
(g77
g58
NtRp1016
(dp1017
g61
(dp1018
g88
g89
ssg70
g1007
sg63
(lp1019
S':'
asbag56
(g77
g58
NtRp1020
(dp1021
g61
(dp1022
sg70
g1007
sg63
(lp1023
g56
(g57
g58
NtRp1024
(dp1025
g61
(dp1026
g69
I4
ssg70
g1020
sg63
(lp1027
S'text/html,application/xhtml+xml,application/xml;q=0.9,*/*;q=0.8'
p1028
asbasbasbag56
(g72
g58
NtRp1029
(dp1030
g61
(dp1031
sg70
g847
sg63
(lp1032
g56
(g77
g58
NtRp1033
(dp1034
g61
(dp1035
g81
g82
ssg70
g1029
sg63
(lp1036
S'http_accept_charset'
p1037
asbag56
(g77
g58
NtRp1038
(dp1039
g61
(dp1040
g88
g89
ssg70
g1029
sg63
(lp1041
S':'
asbag56
(g77
g58
NtRp1042
(dp1043
g61
(dp1044
sg70
g1029
sg63
(lp1045
g56
(g57
g58
NtRp1046
(dp1047
g61
(dp1048
g69
I4
ssg70
g1042
sg63
(lp1049
S'ISO-8859-1,utf-8;q=0.7,*;q=0.7'
p1050
asbasbasbag56
(g72
g58
NtRp1051
(dp1052
g61
(dp1053
sg70
g847
sg63
(lp1054
g56
(g77
g58
NtRp1055
(dp1056
g61
(dp1057
g81
g82
ssg70
g1051
sg63
(lp1058
S'http_accept_encoding'
p1059
asbag56
(g77
g58
NtRp1060
(dp1061
g61
(dp1062
g88
g89
ssg70
g1051
sg63
(lp1063
S':'
asbag56
(g77
g58
NtRp1064
(dp1065
g61
(dp1066
sg70
g1051
sg63
(lp1067
g56
(g57
g58
NtRp1068
(dp1069
g61
(dp1070
g69
I4
ssg70
g1064
sg63
(lp1071
S'gzip, deflate'
p1072
asbasbasbag56
(g72
g58
NtRp1073
(dp1074
g61
(dp1075
sg70
g847
sg63
(lp1076
g56
(g77
g58
NtRp1077
(dp1078
g61
(dp1079
g81
g82
ssg70
g1073
sg63
(lp1080
S'http_accept_language'
p1081
asbag56
(g77
g58
NtRp1082
(dp1083
g61
(dp1084
g88
g89
ssg70
g1073
sg63
(lp1085
S':'
asbag56
(g77
g58
NtRp1086
(dp1087
g61
(dp1088
sg70
g1073
sg63
(lp1089
g56
(g57
g58
NtRp1090
(dp1091
g61
(dp1092
g69
I4
ssg70
g1086
sg63
(lp1093
S'en-us,en;q=0.5'
p1094
asbasbasbag56
(g72
g58
NtRp1095
(dp1096
g61
(dp1097
sg70
g847
sg63
(lp1098
g56
(g77
g58
NtRp1099
(dp1100
g61
(dp1101
g81
g82
ssg70
g1095
sg63
(lp1102
S'http_cache_control'
p1103
asbag56
(g77
g58
NtRp1104
(dp1105
g61
(dp1106
g88
g89
ssg70
g1095
sg63
(lp1107
S':'
asbag56
(g77
g58
NtRp1108
(dp1109
g61
(dp1110
sg70
g1095
sg63
(lp1111
g56
(g57
g58
NtRp1112
(dp1113
g61
(dp1114
g69
I4
ssg70
g1108
sg63
(lp1115
S'max-age=0'
p1116
asbasbasbag56
(g72
g58
NtRp1117
(dp1118
g61
(dp1119
sg70
g847
sg63
(lp1120
g56
(g77
g58
NtRp1121
(dp1122
g61
(dp1123
g81
g82
ssg70
g1117
sg63
(lp1124
S'http_connection'
p1125
asbag56
(g77
g58
NtRp1126
(dp1127
g61
(dp1128
g88
g89
ssg70
g1117
sg63
(lp1129
S':'
asbag56
(g77
g58
NtRp1130
(dp1131
g61
(dp1132
sg70
g1117
sg63
(lp1133
g56
(g57
g58
NtRp1134
(dp1135
g61
(dp1136
g69
I4
ssg70
g1130
sg63
(lp1137
S'keep-alive'
p1138
asbasbasbag56
(g72
g58
NtRp1139
(dp1140
g61
(dp1141
sg70
g847
sg63
(lp1142
g56
(g77
g58
NtRp1143
(dp1144
g61
(dp1145
g81
g82
ssg70
g1139
sg63
(lp1146
S'http_cookie'
p1147
asbag56
(g77
g58
NtRp1148
(dp1149
g61
(dp1150
g88
g89
ssg70
g1139
sg63
(lp1151
S':'
asbag56
(g77
g58
NtRp1152
(dp1153
g61
(dp1154
sg70
g1139
sg63
(lp1155
g56
(g57
g58
NtRp1156
(dp1157
g61
(dp1158
g69
I4
ssg70
g1152
sg63
(lp1159
S'__utma_a2a=9789918665.1351576430.1320019504.1320019504.1320019504.1; session_id_welcome=127.0.0.1-801d3c18-bd4b-45b6-9a2f-8d3498975c58; session_id_topoi=127.0.0.1-26891f27-7a1a-4fa5-81a0-16ff25069026; session_id_admin=127.0.0.1-9dc69978-32f5-488b-bf3c-74ef5b2a4254'
p1160
asbasbasbag56
(g72
g58
NtRp1161
(dp1162
g61
(dp1163
sg70
g847
sg63
(lp1164
g56
(g77
g58
NtRp1165
(dp1166
g61
(dp1167
g81
g82
ssg70
g1161
sg63
(lp1168
S'http_host'
p1169
asbag56
(g77
g58
NtRp1170
(dp1171
g61
(dp1172
g88
g89
ssg70
g1161
sg63
(lp1173
S':'
asbag56
(g77
g58
NtRp1174
(dp1175
g61
(dp1176
sg70
g1161
sg63
(lp1177
g56
(g57
g58
NtRp1178
(dp1179
g61
(dp1180
g69
I4
ssg70
g1174
sg63
(lp1181
S'127.0.0.1:8000'
p1182
asbasbasbag56
(g72
g58
NtRp1183
(dp1184
g61
(dp1185
sg70
g847
sg63
(lp1186
g56
(g77
g58
NtRp1187
(dp1188
g61
(dp1189
g81
g82
ssg70
g1183
sg63
(lp1190
S'http_referer'
p1191
asbag56
(g77
g58
NtRp1192
(dp1193
g61
(dp1194
g88
g89
ssg70
g1183
sg63
(lp1195
S':'
asbag56
(g77
g58
NtRp1196
(dp1197
g61
(dp1198
sg70
g1183
sg63
(lp1199
g56
(g57
g58
NtRp1200
(dp1201
g61
(dp1202
g69
I4
ssg70
g1196
sg63
(lp1203
S'http://127.0.0.1:8000/topoi/default/notes?_signature=baf3f806082225e04b2bd2cff7922a3c2856c4ff'
p1204
asbasbasbag56
(g72
g58
NtRp1205
(dp1206
g61
(dp1207
sg70
g847
sg63
(lp1208
g56
(g77
g58
NtRp1209
(dp1210
g61
(dp1211
g81
g82
ssg70
g1205
sg63
(lp1212
S'http_user_agent'
p1213
asbag56
(g77
g58
NtRp1214
(dp1215
g61
(dp1216
g88
g89
ssg70
g1205
sg63
(lp1217
S':'
asbag56
(g77
g58
NtRp1218
(dp1219
g61
(dp1220
sg70
g1205
sg63
(lp1221
g56
(g57
g58
NtRp1222
(dp1223
g61
(dp1224
g69
I4
ssg70
g1218
sg63
(lp1225
S'Mozilla/5.0 (X11; Linux x86_64; rv:7.0.1) Gecko/20100101 Firefox/7.0.1'
p1226
asbasbasbag56
(g72
g58
NtRp1227
(dp1228
g61
(dp1229
sg70
g847
sg63
(lp1230
g56
(g77
g58
NtRp1231
(dp1232
g61
(dp1233
g81
g82
ssg70
g1227
sg63
(lp1234
S'is_jython'
p1235
asbag56
(g77
g58
NtRp1236
(dp1237
g61
(dp1238
g88
g89
ssg70
g1227
sg63
(lp1239
S':'
asbag56
(g77
g58
NtRp1240
(dp1241
g61
(dp1242
sg70
g1227
sg63
(lp1243
g56
(g57
g58
NtRp1244
(dp1245
g61
(dp1246
g69
I4
ssg70
g1240
sg63
(lp1247
g99
asbasbasbag56
(g72
g58
NtRp1248
(dp1249
g61
(dp1250
sg70
g847
sg63
(lp1251
g56
(g77
g58
NtRp1252
(dp1253
g61
(dp1254
g81
g82
ssg70
g1248
sg63
(lp1255
S'path_info'
p1256
asbag56
(g77
g58
NtRp1257
(dp1258
g61
(dp1259
g88
g89
ssg70
g1248
sg63
(lp1260
S':'
asbag56
(g77
g58
NtRp1261
(dp1262
g61
(dp1263
sg70
g1248
sg63
(lp1264
g56
(g57
g58
NtRp1265
(dp1266
g61
(dp1267
g69
I4
ssg70
g1261
sg63
(lp1268
S'/topoi/default/notes/new/notes'
p1269
asbasbasbag56
(g72
g58
NtRp1270
(dp1271
g61
(dp1272
sg70
g847
sg63
(lp1273
g56
(g77
g58
NtRp1274
(dp1275
g61
(dp1276
g81
g82
ssg70
g1270
sg63
(lp1277
S'query_string'
p1278
asbag56
(g77
g58
NtRp1279
(dp1280
g61
(dp1281
g88
g89
ssg70
g1270
sg63
(lp1282
S':'
asbag56
(g77
g58
NtRp1283
(dp1284
g61
(dp1285
sg70
g1270
sg63
(lp1286
g56
(g57
g58
NtRp1287
(dp1288
g61
(dp1289
g69
I4
ssg70
g1283
sg63
(lp1290
S'_signature=a1ce2a1be157ab8cf4b99a9cd11fad104f00e7cc'
p1291
asbasbasbag56
(g72
g58
NtRp1292
(dp1293
g61
(dp1294
sg70
g847
sg63
(lp1295
g56
(g77
g58
NtRp1296
(dp1297
g61
(dp1298
g81
g82
ssg70
g1292
sg63
(lp1299
S'remote_addr'
p1300
asbag56
(g77
g58
NtRp1301
(dp1302
g61
(dp1303
g88
g89
ssg70
g1292
sg63
(lp1304
S':'
asbag56
(g77
g58
NtRp1305
(dp1306
g61
(dp1307
sg70
g1292
sg63
(lp1308
g56
(g57
g58
NtRp1309
(dp1310
g61
(dp1311
g69
I4
ssg70
g1305
sg63
(lp1312
g215
asbasbasbag56
(g72
g58
NtRp1313
(dp1314
g61
(dp1315
sg70
g847
sg63
(lp1316
g56
(g77
g58
NtRp1317
(dp1318
g61
(dp1319
g81
g82
ssg70
g1313
sg63
(lp1320
S'remote_port'
p1321
asbag56
(g77
g58
NtRp1322
(dp1323
g61
(dp1324
g88
g89
ssg70
g1313
sg63
(lp1325
S':'
asbag56
(g77
g58
NtRp1326
(dp1327
g61
(dp1328
sg70
g1313
sg63
(lp1329
g56
(g57
g58
NtRp1330
(dp1331
g61
(dp1332
g69
I4
ssg70
g1326
sg63
(lp1333
S'35337'
p1334
asbasbasbag56
(g72
g58
NtRp1335
(dp1336
g61
(dp1337
sg70
g847
sg63
(lp1338
g56
(g77
g58
NtRp1339
(dp1340
g61
(dp1341
g81
g82
ssg70
g1335
sg63
(lp1342
S'request_method'
p1343
asbag56
(g77
g58
NtRp1344
(dp1345
g61
(dp1346
g88
g89
ssg70
g1335
sg63
(lp1347
S':'
asbag56
(g77
g58
NtRp1348
(dp1349
g61
(dp1350
sg70
g1335
sg63
(lp1351
g56
(g57
g58
NtRp1352
(dp1353
g61
(dp1354
g69
I4
ssg70
g1348
sg63
(lp1355
S'GET'
p1356
asbasbasbag56
(g72
g58
NtRp1357
(dp1358
g61
(dp1359
sg70
g847
sg63
(lp1360
g56
(g77
g58
NtRp1361
(dp1362
g61
(dp1363
g81
g82
ssg70
g1357
sg63
(lp1364
S'script_name'
p1365
asbag56
(g77
g58
NtRp1366
(dp1367
g61
(dp1368
g88
g89
ssg70
g1357
sg63
(lp1369
S':'
asbag56
(g77
g58
NtRp1370
(dp1371
g61
(dp1372
sg70
g1357
sg63
(lp1373
g56
(g57
g58
NtRp1374
(dp1375
g61
(dp1376
g69
I4
ssg70
g1370
sg63
(lp1377
S''
asbasbasbag56
(g72
g58
NtRp1378
(dp1379
g61
(dp1380
sg70
g847
sg63
(lp1381
g56
(g77
g58
NtRp1382
(dp1383
g61
(dp1384
g81
g82
ssg70
g1378
sg63
(lp1385
S'server_name'
p1386
asbag56
(g77
g58
NtRp1387
(dp1388
g61
(dp1389
g88
g89
ssg70
g1378
sg63
(lp1390
S':'
asbag56
(g77
g58
NtRp1391
(dp1392
g61
(dp1393
sg70
g1378
sg63
(lp1394
g56
(g57
g58
NtRp1395
(dp1396
g61
(dp1397
g69
I4
ssg70
g1391
sg63
(lp1398
S'Ariel-ubuntu'
p1399
asbasbasbag56
(g72
g58
NtRp1400
(dp1401
g61
(dp1402
sg70
g847
sg63
(lp1403
g56
(g77
g58
NtRp1404
(dp1405
g61
(dp1406
g81
g82
ssg70
g1400
sg63
(lp1407
S'server_port'
p1408
asbag56
(g77
g58
NtRp1409
(dp1410
g61
(dp1411
g88
g89
ssg70
g1400
sg63
(lp1412
S':'
asbag56
(g77
g58
NtRp1413
(dp1414
g61
(dp1415
sg70
g1400
sg63
(lp1416
g56
(g57
g58
NtRp1417
(dp1418
g61
(dp1419
g69
I4
ssg70
g1413
sg63
(lp1420
S'8000'
p1421
asbasbasbag56
(g72
g58
NtRp1422
(dp1423
g61
(dp1424
sg70
g847
sg63
(lp1425
g56
(g77
g58
NtRp1426
(dp1427
g61
(dp1428
g81
g82
ssg70
g1422
sg63
(lp1429
S'server_protocol'
p1430
asbag56
(g77
g58
NtRp1431
(dp1432
g61
(dp1433
g88
g89
ssg70
g1422
sg63
(lp1434
S':'
asbag56
(g77
g58
NtRp1435
(dp1436
g61
(dp1437
sg70
g1422
sg63
(lp1438
g56
(g57
g58
NtRp1439
(dp1440
g61
(dp1441
g69
I4
ssg70
g1435
sg63
(lp1442
S'HTTP/1.1'
p1443
asbasbasbag56
(g72
g58
NtRp1444
(dp1445
g61
(dp1446
sg70
g847
sg63
(lp1447
g56
(g77
g58
NtRp1448
(dp1449
g61
(dp1450
g81
g82
ssg70
g1444
sg63
(lp1451
S'server_software'
p1452
asbag56
(g77
g58
NtRp1453
(dp1454
g61
(dp1455
g88
g89
ssg70
g1444
sg63
(lp1456
S':'
asbag56
(g77
g58
NtRp1457
(dp1458
g61
(dp1459
sg70
g1444
sg63
(lp1460
g56
(g57
g58
NtRp1461
(dp1462
g61
(dp1463
g69
I4
ssg70
g1457
sg63
(lp1464
S'Rocket 1.2.4'
p1465
asbasbasbag56
(g72
g58
NtRp1466
(dp1467
g61
(dp1468
sg70
g847
sg63
(lp1469
g56
(g77
g58
NtRp1470
(dp1471
g61
(dp1472
g81
g82
ssg70
g1466
sg63
(lp1473
S'web2py_crontype'
p1474
asbag56
(g77
g58
NtRp1475
(dp1476
g61
(dp1477
g88
g89
ssg70
g1466
sg63
(lp1478
S':'
asbag56
(g77
g58
NtRp1479
(dp1480
g61
(dp1481
sg70
g1466
sg63
(lp1482
g56
(g57
g58
NtRp1483
(dp1484
g61
(dp1485
g69
I4
ssg70
g1479
sg63
(lp1486
S'hard'
p1487
asbasbasbag56
(g72
g58
NtRp1488
(dp1489
g61
(dp1490
sg70
g847
sg63
(lp1491
g56
(g77
g58
NtRp1492
(dp1493
g61
(dp1494
g81
g82
ssg70
g1488
sg63
(lp1495
S'web2py_path'
p1496
asbag56
(g77
g58
NtRp1497
(dp1498
g61
(dp1499
g88
g89
ssg70
g1488
sg63
(lp1500
S':'
asbag56
(g77
g58
NtRp1501
(dp1502
g61
(dp1503
sg70
g1488
sg63
(lp1504
g56
(g57
g58
NtRp1505
(dp1506
g61
(dp1507
g69
I4
ssg70
g1501
sg63
(lp1508
g894
asbasbasbag56
(g72
g58
NtRp1509
(dp1510
g61
(dp1511
sg70
g847
sg63
(lp1512
g56
(g77
g58
NtRp1513
(dp1514
g61
(dp1515
g81
g82
ssg70
g1509
sg63
(lp1516
S'web2py_version'
p1517
asbag56
(g77
g58
NtRp1518
(dp1519
g61
(dp1520
g88
g89
ssg70
g1509
sg63
(lp1521
S':'
asbag56
(g77
g58
NtRp1522
(dp1523
g61
(dp1524
sg70
g1509
sg63
(lp1525
g56
(g57
g58
NtRp1526
(dp1527
g61
(dp1528
g69
I4
ssg70
g1522
sg63
(lp1529
g56
(g65
g58
NtRp1530
(dp1531
g61
(dp1532
g69
I3
ssg70
Nsg63
(lp1533
g56
(g72
g58
NtRp1534
(dp1535
g61
(dp1536
sg70
g1530
sg63
(lp1537
g56
(g77
g58
NtRp1538
(dp1539
g61
(dp1540
sg70
g1534
sg63
(lp1541
g56
(g57
g58
NtRp1542
(dp1543
g61
(dp1544
g69
I3
ssg70
g1538
sg63
(lp1545
S'1'
asbasbasbag56
(g72
g58
NtRp1546
(dp1547
g61
(dp1548
sg70
g1530
sg63
(lp1549
g56
(g77
g58
NtRp1550
(dp1551
g61
(dp1552
sg70
g1546
sg63
(lp1553
g56
(g57
g58
NtRp1554
(dp1555
g61
(dp1556
g69
I3
ssg70
g1550
sg63
(lp1557
S'99'
p1558
asbasbasbag56
(g72
g58
NtRp1559
(dp1560
g61
(dp1561
sg70
g1530
sg63
(lp1562
g56
(g77
g58
NtRp1563
(dp1564
g61
(dp1565
sg70
g1559
sg63
(lp1566
g56
(g57
g58
NtRp1567
(dp1568
g61
(dp1569
g69
I3
ssg70
g1563
sg63
(lp1570
S'2'
asbasbasbag56
(g72
g58
NtRp1571
(dp1572
g61
(dp1573
sg70
g1530
sg63
(lp1574
g56
(g77
g58
NtRp1575
(dp1576
g61
(dp1577
sg70
g1571
sg63
(lp1578
g56
(g57
g58
NtRp1579
(dp1580
g61
(dp1581
g69
I3
ssg70
g1575
sg63
(lp1582
S'datetime.datetime(2011, 9, 26, 6, 55, 33)'
p1583
asbasbasbag56
(g72
g58
NtRp1584
(dp1585
g61
(dp1586
sg70
g1530
sg63
(lp1587
g56
(g77
g58
NtRp1588
(dp1589
g61
(dp1590
sg70
g1584
sg63
(lp1591
g56
(g57
g58
NtRp1592
(dp1593
g61
(dp1594
g69
I3
ssg70
g1588
sg63
(lp1595
S'stable'
p1596
asbasbasbasbasbasbasbag56
(g72
g58
NtRp1597
(dp1598
g61
(dp1599
sg70
g847
sg63
(lp1600
g56
(g77
g58
NtRp1601
(dp1602
g61
(dp1603
g81
g82
ssg70
g1597
sg63
(lp1604
S'wsgi_errors'
p1605
asbag56
(g77
g58
NtRp1606
(dp1607
g61
(dp1608
g88
g89
ssg70
g1597
sg63
(lp1609
S':'
asbag56
(g77
g58
NtRp1610
(dp1611
g61
(dp1612
sg70
g1597
sg63
(lp1613
g56
(g57
g58
NtRp1614
(dp1615
g61
(dp1616
g69
I4
ssg70
g1610
sg63
(lp1617
S"<open file '<stderr>', mode 'w' at 0x7fafe3e4a270>"
p1618
asbasbasbag56
(g72
g58
NtRp1619
(dp1620
g61
(dp1621
sg70
g847
sg63
(lp1622
g56
(g77
g58
NtRp1623
(dp1624
g61
(dp1625
g81
g82
ssg70
g1619
sg63
(lp1626
S'wsgi_file_wrapper'
p1627
asbag56
(g77
g58
NtRp1628
(dp1629
g61
(dp1630
g88
g89
ssg70
g1619
sg63
(lp1631
S':'
asbag56
(g77
g58
NtRp1632
(dp1633
g61
(dp1634
sg70
g1619
sg63
(lp1635
g56
(g57
g58
NtRp1636
(dp1637
g61
(dp1638
g69
I4
ssg70
g1632
sg63
(lp1639
S'<class wsgiref.util.FileWrapper at 0x1d28808>'
p1640
asbasbasbag56
(g72
g58
NtRp1641
(dp1642
g61
(dp1643
sg70
g847
sg63
(lp1644
g56
(g77
g58
NtRp1645
(dp1646
g61
(dp1647
g81
g82
ssg70
g1641
sg63
(lp1648
S'wsgi_input'
p1649
asbag56
(g77
g58
NtRp1650
(dp1651
g61
(dp1652
g88
g89
ssg70
g1641
sg63
(lp1653
S':'
asbag56
(g77
g58
NtRp1654
(dp1655
g61
(dp1656
sg70
g1641
sg63
(lp1657
g56
(g57
g58
NtRp1658
(dp1659
g61
(dp1660
g69
I4
ssg70
g1654
sg63
(lp1661
S'<socket._fileobject object at 0x2e4add0>'
p1662
asbasbasbag56
(g72
g58
NtRp1663
(dp1664
g61
(dp1665
sg70
g847
sg63
(lp1666
g56
(g77
g58
NtRp1667
(dp1668
g61
(dp1669
g81
g82
ssg70
g1663
sg63
(lp1670
S'wsgi_multiprocess'
p1671
asbag56
(g77
g58
NtRp1672
(dp1673
g61
(dp1674
g88
g89
ssg70
g1663
sg63
(lp1675
S':'
asbag56
(g77
g58
NtRp1676
(dp1677
g61
(dp1678
sg70
g1663
sg63
(lp1679
g56
(g57
g58
NtRp1680
(dp1681
g61
(dp1682
g69
I4
ssg70
g1676
sg63
(lp1683
g99
asbasbasbag56
(g72
g58
NtRp1684
(dp1685
g61
(dp1686
sg70
g847
sg63
(lp1687
g56
(g77
g58
NtRp1688
(dp1689
g61
(dp1690
g81
g82
ssg70
g1684
sg63
(lp1691
S'wsgi_multithread'
p1692
asbag56
(g77
g58
NtRp1693
(dp1694
g61
(dp1695
g88
g89
ssg70
g1684
sg63
(lp1696
S':'
asbag56
(g77
g58
NtRp1697
(dp1698
g61
(dp1699
sg70
g1684
sg63
(lp1700
g56
(g57
g58
NtRp1701
(dp1702
g61
(dp1703
g69
I4
ssg70
g1697
sg63
(lp1704
S'True'
p1705
asbasbasbag56
(g72
g58
NtRp1706
(dp1707
g61
(dp1708
sg70
g847
sg63
(lp1709
g56
(g77
g58
NtRp1710
(dp1711
g61
(dp1712
g81
g82
ssg70
g1706
sg63
(lp1713
S'wsgi_run_once'
p1714
asbag56
(g77
g58
NtRp1715
(dp1716
g61
(dp1717
g88
g89
ssg70
g1706
sg63
(lp1718
S':'
asbag56
(g77
g58
NtRp1719
(dp1720
g61
(dp1721
sg70
g1706
sg63
(lp1722
g56
(g57
g58
NtRp1723
(dp1724
g61
(dp1725
g69
I4
ssg70
g1719
sg63
(lp1726
g99
asbasbasbag56
(g72
g58
NtRp1727
(dp1728
g61
(dp1729
sg70
g847
sg63
(lp1730
g56
(g77
g58
NtRp1731
(dp1732
g61
(dp1733
g81
g82
ssg70
g1727
sg63
(lp1734
S'wsgi_url_scheme'
p1735
asbag56
(g77
g58
NtRp1736
(dp1737
g61
(dp1738
g88
g89
ssg70
g1727
sg63
(lp1739
S':'
asbag56
(g77
g58
NtRp1740
(dp1741
g61
(dp1742
sg70
g1727
sg63
(lp1743
g56
(g57
g58
NtRp1744
(dp1745
g61
(dp1746
g69
I4
ssg70
g1740
sg63
(lp1747
S'http'
p1748
asbasbasbag56
(g72
g58
NtRp1749
(dp1750
g61
(dp1751
sg70
g847
sg63
(lp1752
g56
(g77
g58
NtRp1753
(dp1754
g61
(dp1755
g81
g82
ssg70
g1749
sg63
(lp1756
S'wsgi_version'
p1757
asbag56
(g77
g58
NtRp1758
(dp1759
g61
(dp1760
g88
g89
ssg70
g1749
sg63
(lp1761
S':'
asbag56
(g77
g58
NtRp1762
(dp1763
g61
(dp1764
sg70
g1749
sg63
(lp1765
g56
(g57
g58
NtRp1766
(dp1767
g61
(dp1768
g69
I4
ssg70
g1762
sg63
(lp1769
g56
(g65
g58
NtRp1770
(dp1771
g61
(dp1772
g69
I3
ssg70
Nsg63
(lp1773
g56
(g72
g58
NtRp1774
(dp1775
g61
(dp1776
sg70
g1770
sg63
(lp1777
g56
(g77
g58
NtRp1778
(dp1779
g61
(dp1780
sg70
g1774
sg63
(lp1781
g56
(g57
g58
NtRp1782
(dp1783
g61
(dp1784
g69
I3
ssg70
g1778
sg63
(lp1785
S'1'
asbasbasbag56
(g72
g58
NtRp1786
(dp1787
g61
(dp1788
sg70
g1770
sg63
(lp1789
g56
(g77
g58
NtRp1790
(dp1791
g61
(dp1792
sg70
g1786
sg63
(lp1793
g56
(g57
g58
NtRp1794
(dp1795
g61
(dp1796
g69
I3
ssg70
g1790
sg63
(lp1797
S'0'
asbasbasbasbasbasbasbasbasbasbasbag56
(g72
g58
NtRp1798
(dp1799
g61
(dp1800
sg70
g66
sg63
(lp1801
g56
(g77
g58
NtRp1802
(dp1803
g61
(dp1804
g81
g82
ssg70
g1798
sg63
(lp1805
S'extension'
p1806
asbag56
(g77
g58
NtRp1807
(dp1808
g61
(dp1809
g88
g89
ssg70
g1798
sg63
(lp1810
S':'
asbag56
(g77
g58
NtRp1811
(dp1812
g61
(dp1813
sg70
g1798
sg63
(lp1814
g56
(g57
g58
NtRp1815
(dp1816
g61
(dp1817
g69
I5
ssg70
g1811
sg63
(lp1818
S'html'
p1819
asbasbasbag56
(g72
g58
NtRp1820
(dp1821
g61
(dp1822
sg70
g66
sg63
(lp1823
g56
(g77
g58
NtRp1824
(dp1825
g61
(dp1826
g81
g82
ssg70
g1820
sg63
(lp1827
S'folder'
p1828
asbag56
(g77
g58
NtRp1829
(dp1830
g61
(dp1831
g88
g89
ssg70
g1820
sg63
(lp1832
S':'
asbag56
(g77
g58
NtRp1833
(dp1834
g61
(dp1835
sg70
g1820
sg63
(lp1836
g56
(g57
g58
NtRp1837
(dp1838
g61
(dp1839
g69
I5
ssg70
g1833
sg63
(lp1840
S'/home/ian/web2py/applications/topoi/'
p1841
asbasbasbag56
(g72
g58
NtRp1842
(dp1843
g61
(dp1844
sg70
g66
sg63
(lp1845
g56
(g77
g58
NtRp1846
(dp1847
g61
(dp1848
g81
g82
ssg70
g1842
sg63
(lp1849
S'function'
p1850
asbag56
(g77
g58
NtRp1851
(dp1852
g61
(dp1853
g88
g89
ssg70
g1842
sg63
(lp1854
S':'
asbag56
(g77
g58
NtRp1855
(dp1856
g61
(dp1857
sg70
g1842
sg63
(lp1858
g56
(g57
g58
NtRp1859
(dp1860
g61
(dp1861
g69
I5
ssg70
g1855
sg63
(lp1862
S'notes'
p1863
asbasbasbag56
(g72
g58
NtRp1864
(dp1865
g61
(dp1866
sg70
g66
sg63
(lp1867
g56
(g77
g58
NtRp1868
(dp1869
g61
(dp1870
g81
g82
ssg70
g1864
sg63
(lp1871
S'get_vars'
p1872
asbag56
(g77
g58
NtRp1873
(dp1874
g61
(dp1875
g88
g89
ssg70
g1864
sg63
(lp1876
S':'
asbag56
(g77
g58
NtRp1877
(dp1878
g61
(dp1879
sg70
g1864
sg63
(lp1880
g56
(g57
g58
NtRp1881
(dp1882
g61
(dp1883
g69
I5
ssg70
g1877
sg63
(lp1884
g56
(g65
g58
NtRp1885
(dp1886
g61
(dp1887
g69
I4
ssg70
Nsg63
(lp1888
sbasbasbasbag56
(g72
g58
NtRp1889
(dp1890
g61
(dp1891
sg70
g66
sg63
(lp1892
g56
(g77
g58
NtRp1893
(dp1894
g61
(dp1895
g81
g82
ssg70
g1889
sg63
(lp1896
S'global_settings'
p1897
asbag56
(g77
g58
NtRp1898
(dp1899
g61
(dp1900
g88
g89
ssg70
g1889
sg63
(lp1901
S':'
asbag56
(g77
g58
NtRp1902
(dp1903
g61
(dp1904
sg70
g1889
sg63
(lp1905
g56
(g57
g58
NtRp1906
(dp1907
g61
(dp1908
g69
I5
ssg70
g1902
sg63
(lp1909
g56
(g65
g58
NtRp1910
(dp1911
g61
(dp1912
g69
I4
ssg70
Nsg63
(lp1913
g56
(g72
g58
NtRp1914
(dp1915
g61
(dp1916
sg70
g1910
sg63
(lp1917
g56
(g77
g58
NtRp1918
(dp1919
g61
(dp1920
g81
g82
ssg70
g1914
sg63
(lp1921
g859
asbag56
(g77
g58
NtRp1922
(dp1923
g61
(dp1924
g88
g89
ssg70
g1914
sg63
(lp1925
S':'
asbag56
(g77
g58
NtRp1926
(dp1927
g61
(dp1928
sg70
g1914
sg63
(lp1929
g56
(g57
g58
NtRp1930
(dp1931
g61
(dp1932
g69
I4
ssg70
g1926
sg63
(lp1933
S"set(['/home/ian/web2py/applications/topoi/', '/home/ian/web2py/applications/welcome/', '/home/ian/web2py/applications/admin/'])"
p1934
asbasbasbag56
(g72
g58
NtRp1935
(dp1936
g61
(dp1937
sg70
g1910
sg63
(lp1938
g56
(g77
g58
NtRp1939
(dp1940
g61
(dp1941
g81
g82
ssg70
g1935
sg63
(lp1942
g881
asbag56
(g77
g58
NtRp1943
(dp1944
g61
(dp1945
g88
g89
ssg70
g1935
sg63
(lp1946
S':'
asbag56
(g77
g58
NtRp1947
(dp1948
g61
(dp1949
sg70
g1935
sg63
(lp1950
g56
(g57
g58
NtRp1951
(dp1952
g61
(dp1953
g69
I4
ssg70
g1947
sg63
(lp1954
g894
asbasbasbag56
(g72
g58
NtRp1955
(dp1956
g61
(dp1957
sg70
g1910
sg63
(lp1958
g56
(g77
g58
NtRp1959
(dp1960
g61
(dp1961
g81
g82
ssg70
g1955
sg63
(lp1962
g903
asbag56
(g77
g58
NtRp1963
(dp1964
g61
(dp1965
g88
g89
ssg70
g1955
sg63
(lp1966
S':'
asbag56
(g77
g58
NtRp1967
(dp1968
g61
(dp1969
sg70
g1955
sg63
(lp1970
g56
(g57
g58
NtRp1971
(dp1972
g61
(dp1973
g69
I4
ssg70
g1967
sg63
(lp1974
g56
(g65
g58
NtRp1975
(dp1976
g61
(dp1977
g69
I3
ssg70
Nsg63
(lp1978
sbasbasbasbag56
(g72
g58
NtRp1979
(dp1980
g61
(dp1981
sg70
g1910
sg63
(lp1982
g56
(g77
g58
NtRp1983
(dp1984
g61
(dp1985
g81
g82
ssg70
g1979
sg63
(lp1986
g928
asbag56
(g77
g58
NtRp1987
(dp1988
g61
(dp1989
g88
g89
ssg70
g1979
sg63
(lp1990
S':'
asbag56
(g77
g58
NtRp1991
(dp1992
g61
(dp1993
sg70
g1979
sg63
(lp1994
g56
(g57
g58
NtRp1995
(dp1996
g61
(dp1997
g69
I4
ssg70
g1991
sg63
(lp1998
S"<Values at 0x1e5f7e8: {'verbose': False, 'ip': '127.0.0.1', 'shutdown_timeout': 5, 'taskbar': False, 'nocron': False, 'pid_filename': 'httpserver.pid', 'maxthreads': None, 'softcron': False, 'server_name': 'Ariel-ubuntu', 'bpython': False, 'nogui': False, 'port': 8000, 'extcron': False, 'debuglevel': 30, 'test': None, 'folder': '/home/ian/web2py', 'config': '', 'import_models': False, 'winservice': '', 'shell': None, 'run': '', 'log_filename': 'httpserver.log', 'args': [''], 'ssl_ca_certificate': None, 'scheduler': None, 'profiler_filename': None, 'ssl_private_key': '', 'password': '<ask>', 'request_queue_size': 5, 'ssl_certificate': '', 'cronjob': False, 'plain': False, 'quiet': False, 'interfaces': None, 'minthreads': None, 'timeout': 10, 'numthreads': None, 'nobanner': False}>"
p1999
asbasbasbag56
(g72
g58
NtRp2000
(dp2001
g61
(dp2002
sg70
g1910
sg63
(lp2003
g56
(g77
g58
NtRp2004
(dp2005
g61
(dp2006
g81
g82
ssg70
g2000
sg63
(lp2007
g950
asbag56
(g77
g58
NtRp2008
(dp2009
g61
(dp2010
g88
g89
ssg70
g2000
sg63
(lp2011
S':'
asbag56
(g77
g58
NtRp2012
(dp2013
g61
(dp2014
sg70
g2000
sg63
(lp2015
g56
(g57
g58
NtRp2016
(dp2017
g61
(dp2018
g69
I4
ssg70
g2012
sg63
(lp2019
S'set([])'
p2020
asbasbasbag56
(g72
g58
NtRp2021
(dp2022
g61
(dp2023
sg70
g1910
sg63
(lp2024
g56
(g77
g58
NtRp2025
(dp2026
g61
(dp2027
g81
g82
ssg70
g2021
sg63
(lp2028
g972
asbag56
(g77
g58
NtRp2029
(dp2030
g61
(dp2031
g88
g89
ssg70
g2021
sg63
(lp2032
S':'
asbag56
(g77
g58
NtRp2033
(dp2034
g61
(dp2035
sg70
g2021
sg63
(lp2036
g56
(g57
g58
NtRp2037
(dp2038
g61
(dp2039
g69
I4
ssg70
g2033
sg63
(lp2040
g99
asbasbasbag56
(g72
g58
NtRp2041
(dp2042
g61
(dp2043
sg70
g1910
sg63
(lp2044
g56
(g77
g58
NtRp2045
(dp2046
g61
(dp2047
g81
g82
ssg70
g2041
sg63
(lp2048
g993
asbag56
(g77
g58
NtRp2049
(dp2050
g61
(dp2051
g88
g89
ssg70
g2041
sg63
(lp2052
S':'
asbag56
(g77
g58
NtRp2053
(dp2054
g61
(dp2055
sg70
g2041
sg63
(lp2056
g56
(g57
g58
NtRp2057
(dp2058
g61
(dp2059
g69
I4
ssg70
g2053
sg63
(lp2060
g1006
asbasbasbag56
(g72
g58
NtRp2061
(dp2062
g61
(dp2063
sg70
g1910
sg63
(lp2064
g56
(g77
g58
NtRp2065
(dp2066
g61
(dp2067
g81
g82
ssg70
g2061
sg63
(lp2068
g1235
asbag56
(g77
g58
NtRp2069
(dp2070
g61
(dp2071
g88
g89
ssg70
g2061
sg63
(lp2072
S':'
asbag56
(g77
g58
NtRp2073
(dp2074
g61
(dp2075
sg70
g2061
sg63
(lp2076
g56
(g57
g58
NtRp2077
(dp2078
g61
(dp2079
g69
I4
ssg70
g2073
sg63
(lp2080
g99
asbasbasbag56
(g72
g58
NtRp2081
(dp2082
g61
(dp2083
sg70
g1910
sg63
(lp2084
g56
(g77
g58
NtRp2085
(dp2086
g61
(dp2087
g81
g82
ssg70
g2081
sg63
(lp2088
g1474
asbag56
(g77
g58
NtRp2089
(dp2090
g61
(dp2091
g88
g89
ssg70
g2081
sg63
(lp2092
S':'
asbag56
(g77
g58
NtRp2093
(dp2094
g61
(dp2095
sg70
g2081
sg63
(lp2096
g56
(g57
g58
NtRp2097
(dp2098
g61
(dp2099
g69
I4
ssg70
g2093
sg63
(lp2100
g1487
asbasbasbag56
(g72
g58
NtRp2101
(dp2102
g61
(dp2103
sg70
g1910
sg63
(lp2104
g56
(g77
g58
NtRp2105
(dp2106
g61
(dp2107
g81
g82
ssg70
g2101
sg63
(lp2108
g1517
asbag56
(g77
g58
NtRp2109
(dp2110
g61
(dp2111
g88
g89
ssg70
g2101
sg63
(lp2112
S':'
asbag56
(g77
g58
NtRp2113
(dp2114
g61
(dp2115
sg70
g2101
sg63
(lp2116
g56
(g57
g58
NtRp2117
(dp2118
g61
(dp2119
g69
I4
ssg70
g2113
sg63
(lp2120
g56
(g65
g58
NtRp2121
(dp2122
g61
(dp2123
g69
I3
ssg70
Nsg63
(lp2124
g56
(g72
g58
NtRp2125
(dp2126
g61
(dp2127
sg70
g2121
sg63
(lp2128
g56
(g77
g58
NtRp2129
(dp2130
g61
(dp2131
sg70
g2125
sg63
(lp2132
g56
(g57
g58
NtRp2133
(dp2134
g61
(dp2135
g69
I3
ssg70
g2129
sg63
(lp2136
S'1'
asbasbasbag56
(g72
g58
NtRp2137
(dp2138
g61
(dp2139
sg70
g2121
sg63
(lp2140
g56
(g77
g58
NtRp2141
(dp2142
g61
(dp2143
sg70
g2137
sg63
(lp2144
g56
(g57
g58
NtRp2145
(dp2146
g61
(dp2147
g69
I3
ssg70
g2141
sg63
(lp2148
S'99'
p2149
asbasbasbag56
(g72
g58
NtRp2150
(dp2151
g61
(dp2152
sg70
g2121
sg63
(lp2153
g56
(g77
g58
NtRp2154
(dp2155
g61
(dp2156
sg70
g2150
sg63
(lp2157
g56
(g57
g58
NtRp2158
(dp2159
g61
(dp2160
g69
I3
ssg70
g2154
sg63
(lp2161
S'2'
asbasbasbag56
(g72
g58
NtRp2162
(dp2163
g61
(dp2164
sg70
g2121
sg63
(lp2165
g56
(g77
g58
NtRp2166
(dp2167
g61
(dp2168
sg70
g2162
sg63
(lp2169
g56
(g57
g58
NtRp2170
(dp2171
g61
(dp2172
g69
I3
ssg70
g2166
sg63
(lp2173
S'datetime.datetime(2011, 9, 26, 6, 55, 33)'
p2174
asbasbasbag56
(g72
g58
NtRp2175
(dp2176
g61
(dp2177
sg70
g2121
sg63
(lp2178
g56
(g77
g58
NtRp2179
(dp2180
g61
(dp2181
sg70
g2175
sg63
(lp2182
g56
(g57
g58
NtRp2183
(dp2184
g61
(dp2185
g69
I3
ssg70
g2179
sg63
(lp2186
g1596
asbasbasbasbasbasbasbasbasbasbasbag56
(g72
g58
NtRp2187
(dp2188
g61
(dp2189
sg70
g66
sg63
(lp2190
g56
(g77
g58
NtRp2191
(dp2192
g61
(dp2193
g81
g82
ssg70
g2187
sg63
(lp2194
S'is_https'
p2195
asbag56
(g77
g58
NtRp2196
(dp2197
g61
(dp2198
g88
g89
ssg70
g2187
sg63
(lp2199
S':'
asbag56
(g77
g58
NtRp2200
(dp2201
g61
(dp2202
sg70
g2187
sg63
(lp2203
g56
(g57
g58
NtRp2204
(dp2205
g61
(dp2206
g69
I5
ssg70
g2200
sg63
(lp2207
g99
asbasbasbag56
(g72
g58
NtRp2208
(dp2209
g61
(dp2210
sg70
g66
sg63
(lp2211
g56
(g77
g58
NtRp2212
(dp2213
g61
(dp2214
g81
g82
ssg70
g2208
sg63
(lp2215
S'is_local'
p2216
asbag56
(g77
g58
NtRp2217
(dp2218
g61
(dp2219
g88
g89
ssg70
g2208
sg63
(lp2220
S':'
asbag56
(g77
g58
NtRp2221
(dp2222
g61
(dp2223
sg70
g2208
sg63
(lp2224
g56
(g57
g58
NtRp2225
(dp2226
g61
(dp2227
g69
I5
ssg70
g2221
sg63
(lp2228
g1705
asbasbasbag56
(g72
g58
NtRp2229
(dp2230
g61
(dp2231
sg70
g66
sg63
(lp2232
g56
(g77
g58
NtRp2233
(dp2234
g61
(dp2235
g81
g82
ssg70
g2229
sg63
(lp2236
S'is_restful'
p2237
asbag56
(g77
g58
NtRp2238
(dp2239
g61
(dp2240
g88
g89
ssg70
g2229
sg63
(lp2241
S':'
asbag56
(g77
g58
NtRp2242
(dp2243
g61
(dp2244
sg70
g2229
sg63
(lp2245
g56
(g57
g58
NtRp2246
(dp2247
g61
(dp2248
g69
I5
ssg70
g2242
sg63
(lp2249
g99
asbasbasbag56
(g72
g58
NtRp2250
(dp2251
g61
(dp2252
sg70
g66
sg63
(lp2253
g56
(g77
g58
NtRp2254
(dp2255
g61
(dp2256
g81
g82
ssg70
g2250
sg63
(lp2257
S'now'
p2258
asbag56
(g77
g58
NtRp2259
(dp2260
g61
(dp2261
g88
g89
ssg70
g2250
sg63
(lp2262
S':'
asbag56
(g77
g58
NtRp2263
(dp2264
g61
(dp2265
sg70
g2250
sg63
(lp2266
g56
(g57
g58
NtRp2267
(dp2268
g61
(dp2269
g69
I5
ssg70
g2263
sg63
(lp2270
S'datetime.datetime(2011, 11, 21, 16, 32, 19, 58144)'
p2271
asbasbasbag56
(g72
g58
NtRp2272
(dp2273
g61
(dp2274
sg70
g66
sg63
(lp2275
g56
(g77
g58
NtRp2276
(dp2277
g61
(dp2278
g81
g82
ssg70
g2272
sg63
(lp2279
S'post_vars'
p2280
asbag56
(g77
g58
NtRp2281
(dp2282
g61
(dp2283
g88
g89
ssg70
g2272
sg63
(lp2284
S':'
asbag56
(g77
g58
NtRp2285
(dp2286
g61
(dp2287
sg70
g2272
sg63
(lp2288
g56
(g57
g58
NtRp2289
(dp2290
g61
(dp2291
g69
I5
ssg70
g2285
sg63
(lp2292
g56
(g65
g58
NtRp2293
(dp2294
g61
(dp2295
g69
I4
ssg70
Nsg63
(lp2296
sbasbasbasbag56
(g72
g58
NtRp2297
(dp2298
g61
(dp2299
sg70
g66
sg63
(lp2300
g56
(g77
g58
NtRp2301
(dp2302
g61
(dp2303
g81
g82
ssg70
g2297
sg63
(lp2304
S'raw_args'
p2305
asbag56
(g77
g58
NtRp2306
(dp2307
g61
(dp2308
g88
g89
ssg70
g2297
sg63
(lp2309
S':'
asbag56
(g77
g58
NtRp2310
(dp2311
g61
(dp2312
sg70
g2297
sg63
(lp2313
g56
(g57
g58
NtRp2314
(dp2315
g61
(dp2316
g69
I5
ssg70
g2310
sg63
(lp2317
S'new/notes'
p2318
asbasbasbag56
(g72
g58
NtRp2319
(dp2320
g61
(dp2321
sg70
g66
sg63
(lp2322
g56
(g77
g58
NtRp2323
(dp2324
g61
(dp2325
g81
g82
ssg70
g2319
sg63
(lp2326
S'url'
p2327
asbag56
(g77
g58
NtRp2328
(dp2329
g61
(dp2330
g88
g89
ssg70
g2319
sg63
(lp2331
S':'
asbag56
(g77
g58
NtRp2332
(dp2333
g61
(dp2334
sg70
g2319
sg63
(lp2335
g56
(g57
g58
NtRp2336
(dp2337
g61
(dp2338
g69
I5
ssg70
g2332
sg63
(lp2339
S'/topoi/default/notes/new/notes'
p2340
asbasbasbag56
(g72
g58
NtRp2341
(dp2342
g61
(dp2343
sg70
g66
sg63
(lp2344
g56
(g77
g58
NtRp2345
(dp2346
g61
(dp2347
g81
g82
ssg70
g2341
sg63
(lp2348
S'utcnow'
p2349
asbag56
(g77
g58
NtRp2350
(dp2351
g61
(dp2352
g88
g89
ssg70
g2341
sg63
(lp2353
S':'
asbag56
(g77
g58
NtRp2354
(dp2355
g61
(dp2356
sg70
g2341
sg63
(lp2357
g56
(g57
g58
NtRp2358
(dp2359
g61
(dp2360
g69
I5
ssg70
g2354
sg63
(lp2361
S'datetime.datetime(2011, 11, 22, 0, 32, 19, 58213)'
p2362
asbasbasbag56
(g72
g58
NtRp2363
(dp2364
g61
(dp2365
sg70
g66
sg63
(lp2366
g56
(g77
g58
NtRp2367
(dp2368
g61
(dp2369
g81
g82
ssg70
g2363
sg63
(lp2370
S'uuid'
p2371
asbag56
(g77
g58
NtRp2372
(dp2373
g61
(dp2374
g88
g89
ssg70
g2363
sg63
(lp2375
S':'
asbag56
(g77
g58
NtRp2376
(dp2377
g61
(dp2378
sg70
g2363
sg63
(lp2379
g56
(g57
g58
NtRp2380
(dp2381
g61
(dp2382
g69
I5
ssg70
g2376
sg63
(lp2383
S'topoi/127.0.0.1.2011-11-21.16-32-19.8ca0cf91-5c03-4c5d-a6b7-9256f126bb3c'
p2384
asbasbasbag56
(g72
g58
NtRp2385
(dp2386
g61
(dp2387
sg70
g66
sg63
(lp2388
g56
(g77
g58
NtRp2389
(dp2390
g61
(dp2391
g81
g82
ssg70
g2385
sg63
(lp2392
S'vars'
p2393
asbag56
(g77
g58
NtRp2394
(dp2395
g61
(dp2396
g88
g89
ssg70
g2385
sg63
(lp2397
S':'
asbag56
(g77
g58
NtRp2398
(dp2399
g61
(dp2400
sg70
g2385
sg63
(lp2401
g56
(g57
g58
NtRp2402
(dp2403
g61
(dp2404
g69
I5
ssg70
g2398
sg63
(lp2405
g56
(g65
g58
NtRp2406
(dp2407
g61
(dp2408
g69
I4
ssg70
Nsg63
(lp2409
sbasbasbasbag56
(g72
g58
NtRp2410
(dp2411
g61
(dp2412
sg70
g66
sg63
(lp2413
g56
(g77
g58
NtRp2414
(dp2415
g61
(dp2416
g81
g82
ssg70
g2410
sg63
(lp2417
S'wsgi'
p2418
asbag56
(g77
g58
NtRp2419
(dp2420
g61
(dp2421
g88
g89
ssg70
g2410
sg63
(lp2422
S':'
asbag56
(g77
g58
NtRp2423
(dp2424
g61
(dp2425
sg70
g2410
sg63
(lp2426
g56
(g57
g58
NtRp2427
(dp2428
g61
(dp2429
g69
I5
ssg70
g2423
sg63
(lp2430
g56
(g65
g58
NtRp2431
(dp2432
g61
(dp2433
g69
I4
ssg70
Nsg63
(lp2434
g56
(g72
g58
NtRp2435
(dp2436
g61
(dp2437
sg70
g2431
sg63
(lp2438
g56
(g77
g58
NtRp2439
(dp2440
g61
(dp2441
g81
g82
ssg70
g2435
sg63
(lp2442
S'environ'
p2443
asbag56
(g77
g58
NtRp2444
(dp2445
g61
(dp2446
g88
g89
ssg70
g2435
sg63
(lp2447
S':'
asbag56
(g77
g58
NtRp2448
(dp2449
g61
(dp2450
sg70
g2435
sg63
(lp2451
g56
(g57
g58
NtRp2452
(dp2453
g61
(dp2454
g69
I4
ssg70
g2448
sg63
(lp2455
g56
(g65
g58
NtRp2456
(dp2457
g61
(dp2458
g69
I3
ssg70
Nsg63
(lp2459
g56
(g72
g58
NtRp2460
(dp2461
g61
(dp2462
sg70
g2456
sg63
(lp2463
g56
(g77
g58
NtRp2464
(dp2465
g61
(dp2466
g81
g82
ssg70
g2460
sg63
(lp2467
S'HTTP_ACCEPT'
p2468
asbag56
(g77
g58
NtRp2469
(dp2470
g61
(dp2471
g88
g89
ssg70
g2460
sg63
(lp2472
S':'
asbag56
(g77
g58
NtRp2473
(dp2474
g61
(dp2475
sg70
g2460
sg63
(lp2476
g56
(g57
g58
NtRp2477
(dp2478
g61
(dp2479
g69
I3
ssg70
g2473
sg63
(lp2480
g1028
asbasbasbag56
(g72
g58
NtRp2481
(dp2482
g61
(dp2483
sg70
g2456
sg63
(lp2484
g56
(g77
g58
NtRp2485
(dp2486
g61
(dp2487
g81
g82
ssg70
g2481
sg63
(lp2488
S'HTTP_ACCEPT_CHARSET'
p2489
asbag56
(g77
g58
NtRp2490
(dp2491
g61
(dp2492
g88
g89
ssg70
g2481
sg63
(lp2493
S':'
asbag56
(g77
g58
NtRp2494
(dp2495
g61
(dp2496
sg70
g2481
sg63
(lp2497
g56
(g57
g58
NtRp2498
(dp2499
g61
(dp2500
g69
I3
ssg70
g2494
sg63
(lp2501
g1050
asbasbasbag56
(g72
g58
NtRp2502
(dp2503
g61
(dp2504
sg70
g2456
sg63
(lp2505
g56
(g77
g58
NtRp2506
(dp2507
g61
(dp2508
g81
g82
ssg70
g2502
sg63
(lp2509
S'HTTP_ACCEPT_ENCODING'
p2510
asbag56
(g77
g58
NtRp2511
(dp2512
g61
(dp2513
g88
g89
ssg70
g2502
sg63
(lp2514
S':'
asbag56
(g77
g58
NtRp2515
(dp2516
g61
(dp2517
sg70
g2502
sg63
(lp2518
g56
(g57
g58
NtRp2519
(dp2520
g61
(dp2521
g69
I3
ssg70
g2515
sg63
(lp2522
g1072
asbasbasbag56
(g72
g58
NtRp2523
(dp2524
g61
(dp2525
sg70
g2456
sg63
(lp2526
g56
(g77
g58
NtRp2527
(dp2528
g61
(dp2529
g81
g82
ssg70
g2523
sg63
(lp2530
S'HTTP_ACCEPT_LANGUAGE'
p2531
asbag56
(g77
g58
NtRp2532
(dp2533
g61
(dp2534
g88
g89
ssg70
g2523
sg63
(lp2535
S':'
asbag56
(g77
g58
NtRp2536
(dp2537
g61
(dp2538
sg70
g2523
sg63
(lp2539
g56
(g57
g58
NtRp2540
(dp2541
g61
(dp2542
g69
I3
ssg70
g2536
sg63
(lp2543
g1094
asbasbasbag56
(g72
g58
NtRp2544
(dp2545
g61
(dp2546
sg70
g2456
sg63
(lp2547
g56
(g77
g58
NtRp2548
(dp2549
g61
(dp2550
g81
g82
ssg70
g2544
sg63
(lp2551
S'HTTP_CACHE_CONTROL'
p2552
asbag56
(g77
g58
NtRp2553
(dp2554
g61
(dp2555
g88
g89
ssg70
g2544
sg63
(lp2556
S':'
asbag56
(g77
g58
NtRp2557
(dp2558
g61
(dp2559
sg70
g2544
sg63
(lp2560
g56
(g57
g58
NtRp2561
(dp2562
g61
(dp2563
g69
I3
ssg70
g2557
sg63
(lp2564
g1116
asbasbasbag56
(g72
g58
NtRp2565
(dp2566
g61
(dp2567
sg70
g2456
sg63
(lp2568
g56
(g77
g58
NtRp2569
(dp2570
g61
(dp2571
g81
g82
ssg70
g2565
sg63
(lp2572
S'HTTP_CONNECTION'
p2573
asbag56
(g77
g58
NtRp2574
(dp2575
g61
(dp2576
g88
g89
ssg70
g2565
sg63
(lp2577
S':'
asbag56
(g77
g58
NtRp2578
(dp2579
g61
(dp2580
sg70
g2565
sg63
(lp2581
g56
(g57
g58
NtRp2582
(dp2583
g61
(dp2584
g69
I3
ssg70
g2578
sg63
(lp2585
g1138
asbasbasbag56
(g72
g58
NtRp2586
(dp2587
g61
(dp2588
sg70
g2456
sg63
(lp2589
g56
(g77
g58
NtRp2590
(dp2591
g61
(dp2592
g81
g82
ssg70
g2586
sg63
(lp2593
S'HTTP_COOKIE'
p2594
asbag56
(g77
g58
NtRp2595
(dp2596
g61
(dp2597
g88
g89
ssg70
g2586
sg63
(lp2598
S':'
asbag56
(g77
g58
NtRp2599
(dp2600
g61
(dp2601
sg70
g2586
sg63
(lp2602
g56
(g57
g58
NtRp2603
(dp2604
g61
(dp2605
g69
I3
ssg70
g2599
sg63
(lp2606
g1160
asbasbasbag56
(g72
g58
NtRp2607
(dp2608
g61
(dp2609
sg70
g2456
sg63
(lp2610
g56
(g77
g58
NtRp2611
(dp2612
g61
(dp2613
g81
g82
ssg70
g2607
sg63
(lp2614
S'HTTP_HOST'
p2615
asbag56
(g77
g58
NtRp2616
(dp2617
g61
(dp2618
g88
g89
ssg70
g2607
sg63
(lp2619
S':'
asbag56
(g77
g58
NtRp2620
(dp2621
g61
(dp2622
sg70
g2607
sg63
(lp2623
g56
(g57
g58
NtRp2624
(dp2625
g61
(dp2626
g69
I3
ssg70
g2620
sg63
(lp2627
g1182
asbasbasbag56
(g72
g58
NtRp2628
(dp2629
g61
(dp2630
sg70
g2456
sg63
(lp2631
g56
(g77
g58
NtRp2632
(dp2633
g61
(dp2634
g81
g82
ssg70
g2628
sg63
(lp2635
S'HTTP_REFERER'
p2636
asbag56
(g77
g58
NtRp2637
(dp2638
g61
(dp2639
g88
g89
ssg70
g2628
sg63
(lp2640
S':'
asbag56
(g77
g58
NtRp2641
(dp2642
g61
(dp2643
sg70
g2628
sg63
(lp2644
g56
(g57
g58
NtRp2645
(dp2646
g61
(dp2647
g69
I3
ssg70
g2641
sg63
(lp2648
g1204
asbasbasbag56
(g72
g58
NtRp2649
(dp2650
g61
(dp2651
sg70
g2456
sg63
(lp2652
g56
(g77
g58
NtRp2653
(dp2654
g61
(dp2655
g81
g82
ssg70
g2649
sg63
(lp2656
S'HTTP_USER_AGENT'
p2657
asbag56
(g77
g58
NtRp2658
(dp2659
g61
(dp2660
g88
g89
ssg70
g2649
sg63
(lp2661
S':'
asbag56
(g77
g58
NtRp2662
(dp2663
g61
(dp2664
sg70
g2649
sg63
(lp2665
g56
(g57
g58
NtRp2666
(dp2667
g61
(dp2668
g69
I3
ssg70
g2662
sg63
(lp2669
g1226
asbasbasbag56
(g72
g58
NtRp2670
(dp2671
g61
(dp2672
sg70
g2456
sg63
(lp2673
g56
(g77
g58
NtRp2674
(dp2675
g61
(dp2676
g81
g82
ssg70
g2670
sg63
(lp2677
S'PATH_INFO'
p2678
asbag56
(g77
g58
NtRp2679
(dp2680
g61
(dp2681
g88
g89
ssg70
g2670
sg63
(lp2682
S':'
asbag56
(g77
g58
NtRp2683
(dp2684
g61
(dp2685
sg70
g2670
sg63
(lp2686
g56
(g57
g58
NtRp2687
(dp2688
g61
(dp2689
g69
I3
ssg70
g2683
sg63
(lp2690
g1269
asbasbasbag56
(g72
g58
NtRp2691
(dp2692
g61
(dp2693
sg70
g2456
sg63
(lp2694
g56
(g77
g58
NtRp2695
(dp2696
g61
(dp2697
g81
g82
ssg70
g2691
sg63
(lp2698
S'QUERY_STRING'
p2699
asbag56
(g77
g58
NtRp2700
(dp2701
g61
(dp2702
g88
g89
ssg70
g2691
sg63
(lp2703
S':'
asbag56
(g77
g58
NtRp2704
(dp2705
g61
(dp2706
sg70
g2691
sg63
(lp2707
g56
(g57
g58
NtRp2708
(dp2709
g61
(dp2710
g69
I3
ssg70
g2704
sg63
(lp2711
g1291
asbasbasbag56
(g72
g58
NtRp2712
(dp2713
g61
(dp2714
sg70
g2456
sg63
(lp2715
g56
(g77
g58
NtRp2716
(dp2717
g61
(dp2718
g81
g82
ssg70
g2712
sg63
(lp2719
S'REMOTE_ADDR'
p2720
asbag56
(g77
g58
NtRp2721
(dp2722
g61
(dp2723
g88
g89
ssg70
g2712
sg63
(lp2724
S':'
asbag56
(g77
g58
NtRp2725
(dp2726
g61
(dp2727
sg70
g2712
sg63
(lp2728
g56
(g57
g58
NtRp2729
(dp2730
g61
(dp2731
g69
I3
ssg70
g2725
sg63
(lp2732
g215
asbasbasbag56
(g72
g58
NtRp2733
(dp2734
g61
(dp2735
sg70
g2456
sg63
(lp2736
g56
(g77
g58
NtRp2737
(dp2738
g61
(dp2739
g81
g82
ssg70
g2733
sg63
(lp2740
S'REMOTE_PORT'
p2741
asbag56
(g77
g58
NtRp2742
(dp2743
g61
(dp2744
g88
g89
ssg70
g2733
sg63
(lp2745
S':'
asbag56
(g77
g58
NtRp2746
(dp2747
g61
(dp2748
sg70
g2733
sg63
(lp2749
g56
(g57
g58
NtRp2750
(dp2751
g61
(dp2752
g69
I3
ssg70
g2746
sg63
(lp2753
g1334
asbasbasbag56
(g72
g58
NtRp2754
(dp2755
g61
(dp2756
sg70
g2456
sg63
(lp2757
g56
(g77
g58
NtRp2758
(dp2759
g61
(dp2760
g81
g82
ssg70
g2754
sg63
(lp2761
S'REQUEST_METHOD'
p2762
asbag56
(g77
g58
NtRp2763
(dp2764
g61
(dp2765
g88
g89
ssg70
g2754
sg63
(lp2766
S':'
asbag56
(g77
g58
NtRp2767
(dp2768
g61
(dp2769
sg70
g2754
sg63
(lp2770
g56
(g57
g58
NtRp2771
(dp2772
g61
(dp2773
g69
I3
ssg70
g2767
sg63
(lp2774
g1356
asbasbasbag56
(g72
g58
NtRp2775
(dp2776
g61
(dp2777
sg70
g2456
sg63
(lp2778
g56
(g77
g58
NtRp2779
(dp2780
g61
(dp2781
g81
g82
ssg70
g2775
sg63
(lp2782
S'SCRIPT_NAME'
p2783
asbag56
(g77
g58
NtRp2784
(dp2785
g61
(dp2786
g88
g89
ssg70
g2775
sg63
(lp2787
S':'
asbag56
(g77
g58
NtRp2788
(dp2789
g61
(dp2790
sg70
g2775
sg63
(lp2791
g56
(g57
g58
NtRp2792
(dp2793
g61
(dp2794
g69
I3
ssg70
g2788
sg63
(lp2795
S''
asbasbasbag56
(g72
g58
NtRp2796
(dp2797
g61
(dp2798
sg70
g2456
sg63
(lp2799
g56
(g77
g58
NtRp2800
(dp2801
g61
(dp2802
g81
g82
ssg70
g2796
sg63
(lp2803
S'SERVER_NAME'
p2804
asbag56
(g77
g58
NtRp2805
(dp2806
g61
(dp2807
g88
g89
ssg70
g2796
sg63
(lp2808
S':'
asbag56
(g77
g58
NtRp2809
(dp2810
g61
(dp2811
sg70
g2796
sg63
(lp2812
g56
(g57
g58
NtRp2813
(dp2814
g61
(dp2815
g69
I3
ssg70
g2809
sg63
(lp2816
g1399
asbasbasbag56
(g72
g58
NtRp2817
(dp2818
g61
(dp2819
sg70
g2456
sg63
(lp2820
g56
(g77
g58
NtRp2821
(dp2822
g61
(dp2823
g81
g82
ssg70
g2817
sg63
(lp2824
S'SERVER_PORT'
p2825
asbag56
(g77
g58
NtRp2826
(dp2827
g61
(dp2828
g88
g89
ssg70
g2817
sg63
(lp2829
S':'
asbag56
(g77
g58
NtRp2830
(dp2831
g61
(dp2832
sg70
g2817
sg63
(lp2833
g56
(g57
g58
NtRp2834
(dp2835
g61
(dp2836
g69
I3
ssg70
g2830
sg63
(lp2837
g1421
asbasbasbag56
(g72
g58
NtRp2838
(dp2839
g61
(dp2840
sg70
g2456
sg63
(lp2841
g56
(g77
g58
NtRp2842
(dp2843
g61
(dp2844
g81
g82
ssg70
g2838
sg63
(lp2845
S'SERVER_PROTOCOL'
p2846
asbag56
(g77
g58
NtRp2847
(dp2848
g61
(dp2849
g88
g89
ssg70
g2838
sg63
(lp2850
S':'
asbag56
(g77
g58
NtRp2851
(dp2852
g61
(dp2853
sg70
g2838
sg63
(lp2854
g56
(g57
g58
NtRp2855
(dp2856
g61
(dp2857
g69
I3
ssg70
g2851
sg63
(lp2858
g1443
asbasbasbag56
(g72
g58
NtRp2859
(dp2860
g61
(dp2861
sg70
g2456
sg63
(lp2862
g56
(g77
g58
NtRp2863
(dp2864
g61
(dp2865
g81
g82
ssg70
g2859
sg63
(lp2866
S'SERVER_SOFTWARE'
p2867
asbag56
(g77
g58
NtRp2868
(dp2869
g61
(dp2870
g88
g89
ssg70
g2859
sg63
(lp2871
S':'
asbag56
(g77
g58
NtRp2872
(dp2873
g61
(dp2874
sg70
g2859
sg63
(lp2875
g56
(g57
g58
NtRp2876
(dp2877
g61
(dp2878
g69
I3
ssg70
g2872
sg63
(lp2879
g1465
asbasbasbag56
(g72
g58
NtRp2880
(dp2881
g61
(dp2882
sg70
g2456
sg63
(lp2883
g56
(g77
g58
NtRp2884
(dp2885
g61
(dp2886
g81
g82
ssg70
g2880
sg63
(lp2887
S'wsgi.errors'
p2888
asbag56
(g77
g58
NtRp2889
(dp2890
g61
(dp2891
g88
g89
ssg70
g2880
sg63
(lp2892
S':'
asbag56
(g77
g58
NtRp2893
(dp2894
g61
(dp2895
sg70
g2880
sg63
(lp2896
g56
(g57
g58
NtRp2897
(dp2898
g61
(dp2899
g69
I3
ssg70
g2893
sg63
(lp2900
S"<open file '<stderr>', mode 'w' at 0x7fafe3e4a270>"
p2901
asbasbasbag56
(g72
g58
NtRp2902
(dp2903
g61
(dp2904
sg70
g2456
sg63
(lp2905
g56
(g77
g58
NtRp2906
(dp2907
g61
(dp2908
g81
g82
ssg70
g2902
sg63
(lp2909
S'wsgi.file_wrapper'
p2910
asbag56
(g77
g58
NtRp2911
(dp2912
g61
(dp2913
g88
g89
ssg70
g2902
sg63
(lp2914
S':'
asbag56
(g77
g58
NtRp2915
(dp2916
g61
(dp2917
sg70
g2902
sg63
(lp2918
g56
(g57
g58
NtRp2919
(dp2920
g61
(dp2921
g69
I3
ssg70
g2915
sg63
(lp2922
S'<class wsgiref.util.FileWrapper at 0x1d28808>'
p2923
asbasbasbag56
(g72
g58
NtRp2924
(dp2925
g61
(dp2926
sg70
g2456
sg63
(lp2927
g56
(g77
g58
NtRp2928
(dp2929
g61
(dp2930
g81
g82
ssg70
g2924
sg63
(lp2931
S'wsgi.input'
p2932
asbag56
(g77
g58
NtRp2933
(dp2934
g61
(dp2935
g88
g89
ssg70
g2924
sg63
(lp2936
S':'
asbag56
(g77
g58
NtRp2937
(dp2938
g61
(dp2939
sg70
g2924
sg63
(lp2940
g56
(g57
g58
NtRp2941
(dp2942
g61
(dp2943
g69
I3
ssg70
g2937
sg63
(lp2944
S'<cStringIO.StringO object at 0x2e6d2d0>'
p2945
asbasbasbag56
(g72
g58
NtRp2946
(dp2947
g61
(dp2948
sg70
g2456
sg63
(lp2949
g56
(g77
g58
NtRp2950
(dp2951
g61
(dp2952
g81
g82
ssg70
g2946
sg63
(lp2953
S'wsgi.multiprocess'
p2954
asbag56
(g77
g58
NtRp2955
(dp2956
g61
(dp2957
g88
g89
ssg70
g2946
sg63
(lp2958
S':'
asbag56
(g77
g58
NtRp2959
(dp2960
g61
(dp2961
sg70
g2946
sg63
(lp2962
g56
(g57
g58
NtRp2963
(dp2964
g61
(dp2965
g69
I3
ssg70
g2959
sg63
(lp2966
g99
asbasbasbag56
(g72
g58
NtRp2967
(dp2968
g61
(dp2969
sg70
g2456
sg63
(lp2970
g56
(g77
g58
NtRp2971
(dp2972
g61
(dp2973
g81
g82
ssg70
g2967
sg63
(lp2974
S'wsgi.multithread'
p2975
asbag56
(g77
g58
NtRp2976
(dp2977
g61
(dp2978
g88
g89
ssg70
g2967
sg63
(lp2979
S':'
asbag56
(g77
g58
NtRp2980
(dp2981
g61
(dp2982
sg70
g2967
sg63
(lp2983
g56
(g57
g58
NtRp2984
(dp2985
g61
(dp2986
g69
I3
ssg70
g2980
sg63
(lp2987
g1705
asbasbasbag56
(g72
g58
NtRp2988
(dp2989
g61
(dp2990
sg70
g2456
sg63
(lp2991
g56
(g77
g58
NtRp2992
(dp2993
g61
(dp2994
g81
g82
ssg70
g2988
sg63
(lp2995
S'wsgi.run_once'
p2996
asbag56
(g77
g58
NtRp2997
(dp2998
g61
(dp2999
g88
g89
ssg70
g2988
sg63
(lp3000
S':'
asbag56
(g77
g58
NtRp3001
(dp3002
g61
(dp3003
sg70
g2988
sg63
(lp3004
g56
(g57
g58
NtRp3005
(dp3006
g61
(dp3007
g69
I3
ssg70
g3001
sg63
(lp3008
g99
asbasbasbag56
(g72
g58
NtRp3009
(dp3010
g61
(dp3011
sg70
g2456
sg63
(lp3012
g56
(g77
g58
NtRp3013
(dp3014
g61
(dp3015
g81
g82
ssg70
g3009
sg63
(lp3016
S'wsgi.url_scheme'
p3017
asbag56
(g77
g58
NtRp3018
(dp3019
g61
(dp3020
g88
g89
ssg70
g3009
sg63
(lp3021
S':'
asbag56
(g77
g58
NtRp3022
(dp3023
g61
(dp3024
sg70
g3009
sg63
(lp3025
g56
(g57
g58
NtRp3026
(dp3027
g61
(dp3028
g69
I3
ssg70
g3022
sg63
(lp3029
g1748
asbasbasbag56
(g72
g58
NtRp3030
(dp3031
g61
(dp3032
sg70
g2456
sg63
(lp3033
g56
(g77
g58
NtRp3034
(dp3035
g61
(dp3036
g81
g82
ssg70
g3030
sg63
(lp3037
S'wsgi.version'
p3038
asbag56
(g77
g58
NtRp3039
(dp3040
g61
(dp3041
g88
g89
ssg70
g3030
sg63
(lp3042
S':'
asbag56
(g77
g58
NtRp3043
(dp3044
g61
(dp3045
sg70
g3030
sg63
(lp3046
g56
(g57
g58
NtRp3047
(dp3048
g61
(dp3049
g69
I3
ssg70
g3043
sg63
(lp3050
S'1'
asbasbasbasbasbasbasbasbasbasbasbasbasbsS'frames'
p3051
(lp3052
(dp3053
S'file'
p3054
S'/home/ian/web2py/gluon/restricted.py'
p3055
sS'dump'
p3056
(dp3057
S'environment'
p3058
S"{'A': <class 'gluon.html.A'>, 'Auth': <class 'gluon.tools.Auth'>, 'AutocompleteWidget': <class 'gluon.sqlhtml.AutocompleteWidget'>, 'B': <class 'gluon.html.B'>, 'BEAUTIFY': <class 'gluon.html.BEAUTIFY'>, 'BODY': <class 'gluon.html.BODY'>, 'BR': <class 'gluon.html.BR'>, 'BUTTON': <class 'gluon.html.BUTTON'>, 'BooleanWidget': <class 'gluon.sqlhtml.BooleanWidget'>, 'CALLABLETYPES': (<type 'function'>, <type 'function'>, <type 'builtin_function_or_method'>, <type 'instancemethod'>, <type 'builtin_function_or_method'>), ...}"
p3059
sS'ccode'
p3060
S'<code object <module> at 0x2b1fb30, file "/home/...b2py/applications/topoi/models/topoi.py", line 3>'
p3061
ssS'lnum'
p3062
I194
sS'lines'
p3063
(dp3064
I192
S'        else:'
p3065
sI193
S'            ccode = compile2(code,layer)'
p3066
sI194
S'        exec ccode in environment'
p3067
sI195
S'    except HTTP:'
p3068
sI196
S'        raise'
p3069
sI197
S'    except Exception, error:'
p3070
sI198
S'        # XXX Show exception in Wing IDE if running in debugger'
p3071
sI189
S'    try:'
p3072
sI190
S'        if type(code) == types.CodeType:'
p3073
sI191
S'            ccode = code'
p3074
ssS'call'
p3075
S"(code='# coding: utf8\\n\\nfrom plugin_multiselect_widget i...dget\\ndb.notes.project.widget = add_option.widget\\n', environment={'A': <class 'gluon.html.A'>, 'Auth': <class 'gluon.tools.Auth'>, 'AutocompleteWidget': <class 'gluon.sqlhtml.AutocompleteWidget'>, 'B': <class 'gluon.html.B'>, 'BEAUTIFY': <class 'gluon.html.BEAUTIFY'>, 'BODY': <class 'gluon.html.BODY'>, 'BR': <class 'gluon.html.BR'>, 'BUTTON': <class 'gluon.html.BUTTON'>, 'BooleanWidget': <class 'gluon.sqlhtml.BooleanWidget'>, 'CALLABLETYPES': (<type 'function'>, <type 'function'>, <type 'builtin_function_or_method'>, <type 'instancemethod'>, <type 'builtin_function_or_method'>), ...}, layer='/home/ian/web2py/applications/topoi/models/topoi.py')"
p3076
sS'func'
p3077
S'restricted'
p3078
sa(dp3079
g3054
S'/home/ian/web2py/applications/topoi/models/topoi.py'
p3080
sg3056
(dp3081
S'db.authors.location'
p3082
S'<gluon.dal.Field object>'
p3083
sS'add'
p3084
S'undefined'
p3085
sS'db'
p3086
S"<DAL {'auth_event': <Table {'origin': <gluon.dal..., 'id': <gluon.dal.Field object at 0x2e6ad50>}>}>"
p3087
sS'db.authors'
p3088
S"<Table {'ALL': <gluon.dal.SQLALL object at 0x2e6...0>, 'id': <gluon.dal.Field object at 0x2e6b110>}>"
p3089
sS'db.authors.location.widget'
p3090
S'None'
p3091
ssg3062
I17
sg3063
(dp3092
I12
S"db.define_table('authors',"
p3093
sI13
S"    Field('name', 'string', default='anonymous'),"
p3094
sI14
S"    Field('location', db.locations),"
p3095
sI15
S"    Field('lived', 'string'),"
p3096
sI16
S"    format='%(name)s')"
p3097
sI17
S'db.authors.location.widget = add.option.widget'
p3098
sI18
S''
sI19
S"db.define_table('works',"
p3099
sI20
S"    Field('title', 'string'),"
p3100
sI21
S"    Field('author', db.authors),"
p3101
ssg3075
S'()'
p3102
sg3077
S'<module>'
p3103
sasS'pyver'
p3104
S'Python 2.7.2+: /usr/bin/python2.7'
p3105
sS'session'
p3106
g56
(g57
g58
NtRp3107
(dp3108
g61
(dp3109
sg63
(lp3110
g56
(g65
g58
NtRp3111
(dp3112
g61
(dp3113
g69
I5
ssg70
Nsg63
(lp3114
g56
(g72
g58
NtRp3115
(dp3116
g61
(dp3117
sg70
g3111
sg63
(lp3118
g56
(g77
g58
NtRp3119
(dp3120
g61
(dp3121
g81
g82
ssg70
g3115
sg63
(lp3122
S'auth'
p3123
asbag56
(g77
g58
NtRp3124
(dp3125
g61
(dp3126
g88
g89
ssg70
g3115
sg63
(lp3127
S':'
asbag56
(g77
g58
NtRp3128
(dp3129
g61
(dp3130
sg70
g3115
sg63
(lp3131
g56
(g57
g58
NtRp3132
(dp3133
g61
(dp3134
g69
I5
ssg70
g3128
sg63
(lp3135
g56
(g65
g58
NtRp3136
(dp3137
g61
(dp3138
g69
I4
ssg70
Nsg63
(lp3139
g56
(g72
g58
NtRp3140
(dp3141
g61
(dp3142
sg70
g3136
sg63
(lp3143
g56
(g77
g58
NtRp3144
(dp3145
g61
(dp3146
g81
g82
ssg70
g3140
sg63
(lp3147
S'expiration'
p3148
asbag56
(g77
g58
NtRp3149
(dp3150
g61
(dp3151
g88
g89
ssg70
g3140
sg63
(lp3152
S':'
asbag56
(g77
g58
NtRp3153
(dp3154
g61
(dp3155
sg70
g3140
sg63
(lp3156
g56
(g57
g58
NtRp3157
(dp3158
g61
(dp3159
g69
I4
ssg70
g3153
sg63
(lp3160
S'2592000'
p3161
asbasbasbag56
(g72
g58
NtRp3162
(dp3163
g61
(dp3164
sg70
g3136
sg63
(lp3165
g56
(g77
g58
NtRp3166
(dp3167
g61
(dp3168
g81
g82
ssg70
g3162
sg63
(lp3169
S'hmac_key'
p3170
asbag56
(g77
g58
NtRp3171
(dp3172
g61
(dp3173
g88
g89
ssg70
g3162
sg63
(lp3174
S':'
asbag56
(g77
g58
NtRp3175
(dp3176
g61
(dp3177
sg70
g3162
sg63
(lp3178
g56
(g57
g58
NtRp3179
(dp3180
g61
(dp3181
g69
I4
ssg70
g3175
sg63
(lp3182
S'8775d0f3-def5-448d-b826-6c678fe79968'
p3183
asbasbasbag56
(g72
g58
NtRp3184
(dp3185
g61
(dp3186
sg70
g3136
sg63
(lp3187
g56
(g77
g58
NtRp3188
(dp3189
g61
(dp3190
g81
g82
ssg70
g3184
sg63
(lp3191
S'last_visit'
p3192
asbag56
(g77
g58
NtRp3193
(dp3194
g61
(dp3195
g88
g89
ssg70
g3184
sg63
(lp3196
S':'
asbag56
(g77
g58
NtRp3197
(dp3198
g61
(dp3199
sg70
g3184
sg63
(lp3200
g56
(g57
g58
NtRp3201
(dp3202
g61
(dp3203
g69
I4
ssg70
g3197
sg63
(lp3204
S'datetime.datetime(2011, 11, 21, 9, 36, 1, 518712)'
p3205
asbasbasbag56
(g72
g58
NtRp3206
(dp3207
g61
(dp3208
sg70
g3136
sg63
(lp3209
g56
(g77
g58
NtRp3210
(dp3211
g61
(dp3212
g81
g82
ssg70
g3206
sg63
(lp3213
S'remember'
p3214
asbag56
(g77
g58
NtRp3215
(dp3216
g61
(dp3217
g88
g89
ssg70
g3206
sg63
(lp3218
S':'
asbag56
(g77
g58
NtRp3219
(dp3220
g61
(dp3221
sg70
g3206
sg63
(lp3222
g56
(g57
g58
NtRp3223
(dp3224
g61
(dp3225
g69
I4
ssg70
g3219
sg63
(lp3226
g99
asbasbasbag56
(g72
g58
NtRp3227
(dp3228
g61
(dp3229
sg70
g3136
sg63
(lp3230
g56
(g77
g58
NtRp3231
(dp3232
g61
(dp3233
g81
g82
ssg70
g3227
sg63
(lp3234
S'user'
p3235
asbag56
(g77
g58
NtRp3236
(dp3237
g61
(dp3238
g88
g89
ssg70
g3227
sg63
(lp3239
S':'
asbag56
(g77
g58
NtRp3240
(dp3241
g61
(dp3242
sg70
g3227
sg63
(lp3243
g56
(g57
g58
NtRp3244
(dp3245
g61
(dp3246
g69
I4
ssg70
g3240
sg63
(lp3247
g56
(g65
g58
NtRp3248
(dp3249
g61
(dp3250
g69
I3
ssg70
Nsg63
(lp3251
g56
(g72
g58
NtRp3252
(dp3253
g61
(dp3254
sg70
g3248
sg63
(lp3255
g56
(g77
g58
NtRp3256
(dp3257
g61
(dp3258
g81
g82
ssg70
g3252
sg63
(lp3259
S'email'
p3260
asbag56
(g77
g58
NtRp3261
(dp3262
g61
(dp3263
g88
g89
ssg70
g3252
sg63
(lp3264
S':'
asbag56
(g77
g58
NtRp3265
(dp3266
g61
(dp3267
sg70
g3252
sg63
(lp3268
g56
(g57
g58
NtRp3269
(dp3270
g61
(dp3271
g69
I3
ssg70
g3265
sg63
(lp3272
S'scottianw@gmail.com'
p3273
asbasbasbag56
(g72
g58
NtRp3274
(dp3275
g61
(dp3276
sg70
g3248
sg63
(lp3277
g56
(g77
g58
NtRp3278
(dp3279
g61
(dp3280
g81
g82
ssg70
g3274
sg63
(lp3281
S'first_name'
p3282
asbag56
(g77
g58
NtRp3283
(dp3284
g61
(dp3285
g88
g89
ssg70
g3274
sg63
(lp3286
S':'
asbag56
(g77
g58
NtRp3287
(dp3288
g61
(dp3289
sg70
g3274
sg63
(lp3290
g56
(g57
g58
NtRp3291
(dp3292
g61
(dp3293
g69
I3
ssg70
g3287
sg63
(lp3294
S'Ian'
p3295
asbasbasbag56
(g72
g58
NtRp3296
(dp3297
g61
(dp3298
sg70
g3248
sg63
(lp3299
g56
(g77
g58
NtRp3300
(dp3301
g61
(dp3302
g81
g82
ssg70
g3296
sg63
(lp3303
S'id'
p3304
asbag56
(g77
g58
NtRp3305
(dp3306
g61
(dp3307
g88
g89
ssg70
g3296
sg63
(lp3308
S':'
asbag56
(g77
g58
NtRp3309
(dp3310
g61
(dp3311
sg70
g3296
sg63
(lp3312
g56
(g57
g58
NtRp3313
(dp3314
g61
(dp3315
g69
I3
ssg70
g3309
sg63
(lp3316
S'1'
asbasbasbag56
(g72
g58
NtRp3317
(dp3318
g61
(dp3319
sg70
g3248
sg63
(lp3320
g56
(g77
g58
NtRp3321
(dp3322
g61
(dp3323
g81
g82
ssg70
g3317
sg63
(lp3324
S'last_name'
p3325
asbag56
(g77
g58
NtRp3326
(dp3327
g61
(dp3328
g88
g89
ssg70
g3317
sg63
(lp3329
S':'
asbag56
(g77
g58
NtRp3330
(dp3331
g61
(dp3332
sg70
g3317
sg63
(lp3333
g56
(g57
g58
NtRp3334
(dp3335
g61
(dp3336
g69
I3
ssg70
g3330
sg63
(lp3337
S'Scott'
p3338
asbasbasbag56
(g72
g58
NtRp3339
(dp3340
g61
(dp3341
sg70
g3248
sg63
(lp3342
g56
(g77
g58
NtRp3343
(dp3344
g61
(dp3345
g81
g82
ssg70
g3339
sg63
(lp3346
S'password'
p3347
asbag56
(g77
g58
NtRp3348
(dp3349
g61
(dp3350
g88
g89
ssg70
g3339
sg63
(lp3351
S':'
asbag56
(g77
g58
NtRp3352
(dp3353
g61
(dp3354
sg70
g3339
sg63
(lp3355
g56
(g57
g58
NtRp3356
(dp3357
g61
(dp3358
g69
I3
ssg70
g3352
sg63
(lp3359
S'6fb48d01a3959846ba0fe062b1789f17d9cf3d34d3ec5aa948f598bbf4387cb10eb60c797988f41dfea97ee691b338dd77413d430229e401cf7c84e6cd9c4458'
p3360
asbasbasbag56
(g72
g58
NtRp3361
(dp3362
g61
(dp3363
sg70
g3248
sg63
(lp3364
g56
(g77
g58
NtRp3365
(dp3366
g61
(dp3367
g81
g82
ssg70
g3361
sg63
(lp3368
S'registration_key'
p3369
asbag56
(g77
g58
NtRp3370
(dp3371
g61
(dp3372
g88
g89
ssg70
g3361
sg63
(lp3373
S':'
asbag56
(g77
g58
NtRp3374
(dp3375
g61
(dp3376
sg70
g3361
sg63
(lp3377
g56
(g57
g58
NtRp3378
(dp3379
g61
(dp3380
g69
I3
ssg70
g3374
sg63
(lp3381
S''
asbasbasbag56
(g72
g58
NtRp3382
(dp3383
g61
(dp3384
sg70
g3248
sg63
(lp3385
g56
(g77
g58
NtRp3386
(dp3387
g61
(dp3388
g81
g82
ssg70
g3382
sg63
(lp3389
S'reset_password_key'
p3390
asbag56
(g77
g58
NtRp3391
(dp3392
g61
(dp3393
g88
g89
ssg70
g3382
sg63
(lp3394
S':'
asbag56
(g77
g58
NtRp3395
(dp3396
g61
(dp3397
sg70
g3382
sg63
(lp3398
g56
(g57
g58
NtRp3399
(dp3400
g61
(dp3401
g69
I3
ssg70
g3395
sg63
(lp3402
S''
asbasbasbasbasbasbasbasbasbasbasbag56
(g72
g58
NtRp3403
(dp3404
g61
(dp3405
sg70
g3111
sg63
(lp3406
g56
(g77
g58
NtRp3407
(dp3408
g61
(dp3409
g81
g82
ssg70
g3403
sg63
(lp3410
S'last_query'
p3411
asbag56
(g77
g58
NtRp3412
(dp3413
g61
(dp3414
g88
g89
ssg70
g3403
sg63
(lp3415
S':'
asbag56
(g77
g58
NtRp3416
(dp3417
g61
(dp3418
sg70
g3403
sg63
(lp3419
g56
(g57
g58
NtRp3420
(dp3421
g61
(dp3422
g69
I5
ssg70
g3416
sg63
(lp3423
S'db.authors.id>0'
p3424
asbasbasbasbasbsS'etype'
p3425
S"<type 'exceptions.NameError'>"
p3426
sS'date'
p3427
S'Mon Nov 21 16:32:19 2011'
p3428
sS'response'
p3429
g56
(g57
g58
NtRp3430
(dp3431
g61
(dp3432
sg63
(lp3433
g56
(g65
g58
NtRp3434
(dp3435
g61
(dp3436
g69
I5
ssg70
Nsg63
(lp3437
g56
(g72
g58
NtRp3438
(dp3439
g61
(dp3440
sg70
g3434
sg63
(lp3441
g56
(g77
g58
NtRp3442
(dp3443
g61
(dp3444
g81
g82
ssg70
g3438
sg63
(lp3445
g180
asbag56
(g77
g58
NtRp3446
(dp3447
g61
(dp3448
g88
g89
ssg70
g3438
sg63
(lp3449
S':'
asbag56
(g77
g58
NtRp3450
(dp3451
g61
(dp3452
sg70
g3438
sg63
(lp3453
g56
(g57
g58
NtRp3454
(dp3455
g61
(dp3456
g69
I5
ssg70
g3450
sg63
(lp3457
S'<cStringIO.StringO object at 0x2e6dd18>'
p3458
asbasbasbag56
(g72
g58
NtRp3459
(dp3460
g61
(dp3461
sg70
g3434
sg63
(lp3462
g56
(g77
g58
NtRp3463
(dp3464
g61
(dp3465
g81
g82
ssg70
g3459
sg63
(lp3466
g246
asbag56
(g77
g58
NtRp3467
(dp3468
g61
(dp3469
g88
g89
ssg70
g3459
sg63
(lp3470
S':'
asbag56
(g77
g58
NtRp3471
(dp3472
g61
(dp3473
sg70
g3459
sg63
(lp3474
g56
(g57
g58
NtRp3475
(dp3476
g61
(dp3477
g69
I5
ssg70
g3471
sg63
(lp3478
g56
(g65
g58
NtRp3479
(dp3480
g61
(dp3481
g69
I4
ssg70
Nsg63
(lp3482
g56
(g72
g58
NtRp3483
(dp3484
g61
(dp3485
sg70
g3479
sg63
(lp3486
g56
(g77
g58
NtRp3487
(dp3488
g61
(dp3489
g81
g82
ssg70
g3483
sg63
(lp3490
S'session_id_topoi'
p3491
asbag56
(g77
g58
NtRp3492
(dp3493
g61
(dp3494
g88
g89
ssg70
g3483
sg63
(lp3495
S':'
asbag56
(g77
g58
NtRp3496
(dp3497
g61
(dp3498
sg70
g3483
sg63
(lp3499
g56
(g57
g58
NtRp3500
(dp3501
g61
(dp3502
g69
I4
ssg70
g3496
sg63
(lp3503
g56
(g65
g58
NtRp3504
(dp3505
g61
(dp3506
g69
I3
ssg70
Nsg63
(lp3507
g56
(g72
g58
NtRp3508
(dp3509
g61
(dp3510
sg70
g3504
sg63
(lp3511
g56
(g77
g58
NtRp3512
(dp3513
g61
(dp3514
g81
g82
ssg70
g3508
sg63
(lp3515
g296
asbag56
(g77
g58
NtRp3516
(dp3517
g61
(dp3518
g88
g89
ssg70
g3508
sg63
(lp3519
S':'
asbag56
(g77
g58
NtRp3520
(dp3521
g61
(dp3522
sg70
g3508
sg63
(lp3523
g56
(g57
g58
NtRp3524
(dp3525
g61
(dp3526
g69
I3
ssg70
g3520
sg63
(lp3527
S''
asbasbasbag56
(g72
g58
NtRp3528
(dp3529
g61
(dp3530
sg70
g3504
sg63
(lp3531
g56
(g77
g58
NtRp3532
(dp3533
g61
(dp3534
g81
g82
ssg70
g3528
sg63
(lp3535
g317
asbag56
(g77
g58
NtRp3536
(dp3537
g61
(dp3538
g88
g89
ssg70
g3528
sg63
(lp3539
S':'
asbag56
(g77
g58
NtRp3540
(dp3541
g61
(dp3542
sg70
g3528
sg63
(lp3543
g56
(g57
g58
NtRp3544
(dp3545
g61
(dp3546
g69
I3
ssg70
g3540
sg63
(lp3547
S''
asbasbasbag56
(g72
g58
NtRp3548
(dp3549
g61
(dp3550
sg70
g3504
sg63
(lp3551
g56
(g77
g58
NtRp3552
(dp3553
g61
(dp3554
g81
g82
ssg70
g3548
sg63
(lp3555
g338
asbag56
(g77
g58
NtRp3556
(dp3557
g61
(dp3558
g88
g89
ssg70
g3548
sg63
(lp3559
S':'
asbag56
(g77
g58
NtRp3560
(dp3561
g61
(dp3562
sg70
g3548
sg63
(lp3563
g56
(g57
g58
NtRp3564
(dp3565
g61
(dp3566
g69
I3
ssg70
g3560
sg63
(lp3567
S''
asbasbasbag56
(g72
g58
NtRp3568
(dp3569
g61
(dp3570
sg70
g3504
sg63
(lp3571
g56
(g77
g58
NtRp3572
(dp3573
g61
(dp3574
g81
g82
ssg70
g3568
sg63
(lp3575
g359
asbag56
(g77
g58
NtRp3576
(dp3577
g61
(dp3578
g88
g89
ssg70
g3568
sg63
(lp3579
S':'
asbag56
(g77
g58
NtRp3580
(dp3581
g61
(dp3582
sg70
g3568
sg63
(lp3583
g56
(g57
g58
NtRp3584
(dp3585
g61
(dp3586
g69
I3
ssg70
g3580
sg63
(lp3587
S''
asbasbasbag56
(g72
g58
NtRp3588
(dp3589
g61
(dp3590
sg70
g3504
sg63
(lp3591
g56
(g77
g58
NtRp3592
(dp3593
g61
(dp3594
g81
g82
ssg70
g3588
sg63
(lp3595
g380
asbag56
(g77
g58
NtRp3596
(dp3597
g61
(dp3598
g88
g89
ssg70
g3588
sg63
(lp3599
S':'
asbag56
(g77
g58
NtRp3600
(dp3601
g61
(dp3602
sg70
g3588
sg63
(lp3603
g56
(g57
g58
NtRp3604
(dp3605
g61
(dp3606
g69
I3
ssg70
g3600
sg63
(lp3607
S''
asbasbasbag56
(g72
g58
NtRp3608
(dp3609
g61
(dp3610
sg70
g3504
sg63
(lp3611
g56
(g77
g58
NtRp3612
(dp3613
g61
(dp3614
g81
g82
ssg70
g3608
sg63
(lp3615
g401
asbag56
(g77
g58
NtRp3616
(dp3617
g61
(dp3618
g88
g89
ssg70
g3608
sg63
(lp3619
S':'
asbag56
(g77
g58
NtRp3620
(dp3621
g61
(dp3622
sg70
g3608
sg63
(lp3623
g56
(g57
g58
NtRp3624
(dp3625
g61
(dp3626
g69
I3
ssg70
g3620
sg63
(lp3627
S'/'
asbasbasbag56
(g72
g58
NtRp3628
(dp3629
g61
(dp3630
sg70
g3504
sg63
(lp3631
g56
(g77
g58
NtRp3632
(dp3633
g61
(dp3634
g81
g82
ssg70
g3628
sg63
(lp3635
g422
asbag56
(g77
g58
NtRp3636
(dp3637
g61
(dp3638
g88
g89
ssg70
g3628
sg63
(lp3639
S':'
asbag56
(g77
g58
NtRp3640
(dp3641
g61
(dp3642
sg70
g3628
sg63
(lp3643
g56
(g57
g58
NtRp3644
(dp3645
g61
(dp3646
g69
I3
ssg70
g3640
sg63
(lp3647
S''
asbasbasbag56
(g72
g58
NtRp3648
(dp3649
g61
(dp3650
sg70
g3504
sg63
(lp3651
g56
(g77
g58
NtRp3652
(dp3653
g61
(dp3654
g81
g82
ssg70
g3648
sg63
(lp3655
g443
asbag56
(g77
g58
NtRp3656
(dp3657
g61
(dp3658
g88
g89
ssg70
g3648
sg63
(lp3659
S':'
asbag56
(g77
g58
NtRp3660
(dp3661
g61
(dp3662
sg70
g3648
sg63
(lp3663
g56
(g57
g58
NtRp3664
(dp3665
g61
(dp3666
g69
I3
ssg70
g3660
sg63
(lp3667
S''
asbasbasbasbasbasbasbasbasbasbasbag56
(g72
g58
NtRp3668
(dp3669
g61
(dp3670
sg70
g3434
sg63
(lp3671
g56
(g77
g58
NtRp3672
(dp3673
g61
(dp3674
g81
g82
ssg70
g3668
sg63
(lp3675
S'files'
p3676
asbag56
(g77
g58
NtRp3677
(dp3678
g61
(dp3679
g88
g89
ssg70
g3668
sg63
(lp3680
S':'
asbag56
(g77
g58
NtRp3681
(dp3682
g61
(dp3683
sg70
g3668
sg63
(lp3684
g56
(g57
g58
NtRp3685
(dp3686
g61
(dp3687
g69
I5
ssg70
g3681
sg63
(lp3688
g56
(g65
g58
NtRp3689
(dp3690
g61
(dp3691
g69
I4
ssg70
Nsg63
(lp3692
sbasbasbasbag56
(g72
g58
NtRp3693
(dp3694
g61
(dp3695
sg70
g3434
sg63
(lp3696
g56
(g77
g58
NtRp3697
(dp3698
g61
(dp3699
g81
g82
ssg70
g3693
sg63
(lp3700
S'flash'
p3701
asbag56
(g77
g58
NtRp3702
(dp3703
g61
(dp3704
g88
g89
ssg70
g3693
sg63
(lp3705
S':'
asbag56
(g77
g58
NtRp3706
(dp3707
g61
(dp3708
sg70
g3693
sg63
(lp3709
g56
(g57
g58
NtRp3710
(dp3711
g61
(dp3712
g69
I5
ssg70
g3706
sg63
(lp3713
S''
asbasbasbag56
(g72
g58
NtRp3714
(dp3715
g61
(dp3716
sg70
g3434
sg63
(lp3717
g56
(g77
g58
NtRp3718
(dp3719
g61
(dp3720
g81
g82
ssg70
g3714
sg63
(lp3721
S'generic_patterns'
p3722
asbag56
(g77
g58
NtRp3723
(dp3724
g61
(dp3725
g88
g89
ssg70
g3714
sg63
(lp3726
S':'
asbag56
(g77
g58
NtRp3727
(dp3728
g61
(dp3729
sg70
g3714
sg63
(lp3730
g56
(g57
g58
NtRp3731
(dp3732
g61
(dp3733
g69
I5
ssg70
g3727
sg63
(lp3734
g56
(g65
g58
NtRp3735
(dp3736
g61
(dp3737
g69
I4
ssg70
Nsg63
(lp3738
g56
(g72
g58
NtRp3739
(dp3740
g61
(dp3741
sg70
g3735
sg63
(lp3742
g56
(g77
g58
NtRp3743
(dp3744
g61
(dp3745
sg70
g3739
sg63
(lp3746
g56
(g57
g58
NtRp3747
(dp3748
g61
(dp3749
g69
I4
ssg70
g3743
sg63
(lp3750
S'*'
asbasbasbasbasbasbasbag56
(g72
g58
NtRp3751
(dp3752
g61
(dp3753
sg70
g3434
sg63
(lp3754
g56
(g77
g58
NtRp3755
(dp3756
g61
(dp3757
g81
g82
ssg70
g3751
sg63
(lp3758
S'headers'
p3759
asbag56
(g77
g58
NtRp3760
(dp3761
g61
(dp3762
g88
g89
ssg70
g3751
sg63
(lp3763
S':'
asbag56
(g77
g58
NtRp3764
(dp3765
g61
(dp3766
sg70
g3751
sg63
(lp3767
g56
(g57
g58
NtRp3768
(dp3769
g61
(dp3770
g69
I5
ssg70
g3764
sg63
(lp3771
g56
(g65
g58
NtRp3772
(dp3773
g61
(dp3774
g69
I4
ssg70
Nsg63
(lp3775
g56
(g72
g58
NtRp3776
(dp3777
g61
(dp3778
sg70
g3772
sg63
(lp3779
g56
(g77
g58
NtRp3780
(dp3781
g61
(dp3782
g81
g82
ssg70
g3776
sg63
(lp3783
S'Cache-Control'
p3784
asbag56
(g77
g58
NtRp3785
(dp3786
g61
(dp3787
g88
g89
ssg70
g3776
sg63
(lp3788
S':'
asbag56
(g77
g58
NtRp3789
(dp3790
g61
(dp3791
sg70
g3776
sg63
(lp3792
g56
(g57
g58
NtRp3793
(dp3794
g61
(dp3795
g69
I4
ssg70
g3789
sg63
(lp3796
S'no-store, no-cache, must-revalidate, post-check=0, pre-check=0'
p3797
asbasbasbag56
(g72
g58
NtRp3798
(dp3799
g61
(dp3800
sg70
g3772
sg63
(lp3801
g56
(g77
g58
NtRp3802
(dp3803
g61
(dp3804
g81
g82
ssg70
g3798
sg63
(lp3805
S'Content-Type'
p3806
asbag56
(g77
g58
NtRp3807
(dp3808
g61
(dp3809
g88
g89
ssg70
g3798
sg63
(lp3810
S':'
asbag56
(g77
g58
NtRp3811
(dp3812
g61
(dp3813
sg70
g3798
sg63
(lp3814
g56
(g57
g58
NtRp3815
(dp3816
g61
(dp3817
g69
I4
ssg70
g3811
sg63
(lp3818
S'text/html; charset=utf-8'
p3819
asbasbasbag56
(g72
g58
NtRp3820
(dp3821
g61
(dp3822
sg70
g3772
sg63
(lp3823
g56
(g77
g58
NtRp3824
(dp3825
g61
(dp3826
g81
g82
ssg70
g3820
sg63
(lp3827
S'Expires'
p3828
asbag56
(g77
g58
NtRp3829
(dp3830
g61
(dp3831
g88
g89
ssg70
g3820
sg63
(lp3832
S':'
asbag56
(g77
g58
NtRp3833
(dp3834
g61
(dp3835
sg70
g3820
sg63
(lp3836
g56
(g57
g58
NtRp3837
(dp3838
g61
(dp3839
g69
I4
ssg70
g3833
sg63
(lp3840
S'Tue, 22 Nov 2011 00:32:19 GMT'
p3841
asbasbasbag56
(g72
g58
NtRp3842
(dp3843
g61
(dp3844
sg70
g3772
sg63
(lp3845
g56
(g77
g58
NtRp3846
(dp3847
g61
(dp3848
g81
g82
ssg70
g3842
sg63
(lp3849
S'Pragma'
p3850
asbag56
(g77
g58
NtRp3851
(dp3852
g61
(dp3853
g88
g89
ssg70
g3842
sg63
(lp3854
S':'
asbag56
(g77
g58
NtRp3855
(dp3856
g61
(dp3857
sg70
g3842
sg63
(lp3858
g56
(g57
g58
NtRp3859
(dp3860
g61
(dp3861
g69
I4
ssg70
g3855
sg63
(lp3862
S'no-cache'
p3863
asbasbasbag56
(g72
g58
NtRp3864
(dp3865
g61
(dp3866
sg70
g3772
sg63
(lp3867
g56
(g77
g58
NtRp3868
(dp3869
g61
(dp3870
g81
g82
ssg70
g3864
sg63
(lp3871
S'X-Powered-By'
p3872
asbag56
(g77
g58
NtRp3873
(dp3874
g61
(dp3875
g88
g89
ssg70
g3864
sg63
(lp3876
S':'
asbag56
(g77
g58
NtRp3877
(dp3878
g61
(dp3879
sg70
g3864
sg63
(lp3880
g56
(g57
g58
NtRp3881
(dp3882
g61
(dp3883
g69
I4
ssg70
g3877
sg63
(lp3884
S'web2py'
p3885
asbasbasbasbasbasbasbag56
(g72
g58
NtRp3886
(dp3887
g61
(dp3888
sg70
g3434
sg63
(lp3889
g56
(g77
g58
NtRp3890
(dp3891
g61
(dp3892
g81
g82
ssg70
g3886
sg63
(lp3893
S'menu'
p3894
asbag56
(g77
g58
NtRp3895
(dp3896
g61
(dp3897
g88
g89
ssg70
g3886
sg63
(lp3898
S':'
asbag56
(g77
g58
NtRp3899
(dp3900
g61
(dp3901
sg70
g3886
sg63
(lp3902
g56
(g57
g58
NtRp3903
(dp3904
g61
(dp3905
g69
I5
ssg70
g3899
sg63
(lp3906
g56
(g65
g58
NtRp3907
(dp3908
g61
(dp3909
g69
I4
ssg70
Nsg63
(lp3910
g56
(g72
g58
NtRp3911
(dp3912
g61
(dp3913
sg70
g3907
sg63
(lp3914
g56
(g77
g58
NtRp3915
(dp3916
g61
(dp3917
sg70
g3911
sg63
(lp3918
g56
(g57
g58
NtRp3919
(dp3920
g61
(dp3921
g69
I4
ssg70
g3915
sg63
(lp3922
g56
(g65
g58
NtRp3923
(dp3924
g61
(dp3925
g69
I3
ssg70
Nsg63
(lp3926
g56
(g72
g58
NtRp3927
(dp3928
g61
(dp3929
sg70
g3923
sg63
(lp3930
g56
(g77
g58
NtRp3931
(dp3932
g61
(dp3933
sg70
g3927
sg63
(lp3934
g56
(g57
g58
NtRp3935
(dp3936
g61
(dp3937
g69
I3
ssg70
g3931
sg63
(lp3938
cgluon.languages
lazyT_unpickle
p3939
(S't\x04\x00\x00\x00Home'
tRp3940
asbasbasbag56
(g72
g58
NtRp3941
(dp3942
g61
(dp3943
sg70
g3923
sg63
(lp3944
g56
(g77
g58
NtRp3945
(dp3946
g61
(dp3947
sg70
g3941
sg63
(lp3948
g56
(g57
g58
NtRp3949
(dp3950
g61
(dp3951
g69
I3
ssg70
g3945
sg63
(lp3952
g99
asbasbasbag56
(g72
g58
NtRp3953
(dp3954
g61
(dp3955
sg70
g3923
sg63
(lp3956
g56
(g77
g58
NtRp3957
(dp3958
g61
(dp3959
sg70
g3953
sg63
(lp3960
g56
(g57
g58
NtRp3961
(dp3962
g61
(dp3963
g69
I3
ssg70
g3957
sg63
(lp3964
S'/topoi/default/index'
p3965
asbasbasbag56
(g72
g58
NtRp3966
(dp3967
g61
(dp3968
sg70
g3923
sg63
(lp3969
g56
(g77
g58
NtRp3970
(dp3971
g61
(dp3972
sg70
g3966
sg63
(lp3973
g56
(g57
g58
NtRp3974
(dp3975
g61
(dp3976
g69
I3
ssg70
g3970
sg63
(lp3977
g56
(g65
g58
NtRp3978
(dp3979
g61
(dp3980
g69
I2
ssg70
Nsg63
(lp3981
sbasbasbasbasbasbasbasbag56
(g72
g58
NtRp3982
(dp3983
g61
(dp3984
sg70
g3907
sg63
(lp3985
g56
(g77
g58
NtRp3986
(dp3987
g61
(dp3988
sg70
g3982
sg63
(lp3989
g56
(g57
g58
NtRp3990
(dp3991
g61
(dp3992
g69
I4
ssg70
g3986
sg63
(lp3993
g56
(g65
g58
NtRp3994
(dp3995
g61
(dp3996
g69
I3
ssg70
Nsg63
(lp3997
g56
(g72
g58
NtRp3998
(dp3999
g61
(dp4000
sg70
g3994
sg63
(lp4001
g56
(g77
g58
NtRp4002
(dp4003
g61
(dp4004
sg70
g3998
sg63
(lp4005
g56
(g57
g58
NtRp4006
(dp4007
g61
(dp4008
g69
I3
ssg70
g4002
sg63
(lp4009
g3939
(S's\x08\x00\x00\x00This App'
tRp4010
asbasbasbag56
(g72
g58
NtRp4011
(dp4012
g61
(dp4013
sg70
g3994
sg63
(lp4014
g56
(g77
g58
NtRp4015
(dp4016
g61
(dp4017
sg70
g4011
sg63
(lp4018
g56
(g57
g58
NtRp4019
(dp4020
g61
(dp4021
g69
I3
ssg70
g4015
sg63
(lp4022
g99
asbasbasbag56
(g72
g58
NtRp4023
(dp4024
g61
(dp4025
sg70
g3994
sg63
(lp4026
g56
(g77
g58
NtRp4027
(dp4028
g61
(dp4029
sg70
g4023
sg63
(lp4030
g56
(g57
g58
NtRp4031
(dp4032
g61
(dp4033
g69
I3
ssg70
g4027
sg63
(lp4034
S'/admin/default/design/topoi'
p4035
asbasbasbag56
(g72
g58
NtRp4036
(dp4037
g61
(dp4038
sg70
g3994
sg63
(lp4039
g56
(g77
g58
NtRp4040
(dp4041
g61
(dp4042
sg70
g4036
sg63
(lp4043
g56
(g57
g58
NtRp4044
(dp4045
g61
(dp4046
g69
I3
ssg70
g4040
sg63
(lp4047
g56
(g65
g58
NtRp4048
(dp4049
g61
(dp4050
g69
I2
ssg70
Nsg63
(lp4051
g56
(g72
g58
NtRp4052
(dp4053
g61
(dp4054
sg70
g4048
sg63
(lp4055
g56
(g77
g58
NtRp4056
(dp4057
g61
(dp4058
sg70
g4052
sg63
(lp4059
g56
(g57
g58
NtRp4060
(dp4061
g61
(dp4062
g69
I2
ssg70
g4056
sg63
(lp4063
g56
(g65
g58
NtRp4064
(dp4065
g61
(dp4066
g69
I1
ssg70
Nsg63
(lp4067
g56
(g72
g58
NtRp4068
(dp4069
g61
(dp4070
sg70
g4064
sg63
(lp4071
g56
(g77
g58
NtRp4072
(dp4073
g61
(dp4074
sg70
g4068
sg63
(lp4075
g56
(g57
g58
NtRp4076
(dp4077
g61
(dp4078
g69
I1
ssg70
g4072
sg63
(lp4079
g3939
(S't\n\x00\x00\x00Controller'
tRp4080
asbasbasbag56
(g72
g58
NtRp4081
(dp4082
g61
(dp4083
sg70
g4064
sg63
(lp4084
g56
(g77
g58
NtRp4085
(dp4086
g61
(dp4087
sg70
g4081
sg63
(lp4088
g56
(g57
g58
NtRp4089
(dp4090
g61
(dp4091
g69
I1
ssg70
g4085
sg63
(lp4092
I00
asbasbasbag56
(g72
g58
NtRp4093
(dp4094
g61
(dp4095
sg70
g4064
sg63
(lp4096
g56
(g77
g58
NtRp4097
(dp4098
g61
(dp4099
sg70
g4093
sg63
(lp4100
g56
(g57
g58
NtRp4101
(dp4102
g61
(dp4103
g69
I1
ssg70
g4097
sg63
(lp4104
S'/admin/default/edit/topoi/controllers/default.py'
p4105
asbasbasbasbasbasbasbag56
(g72
g58
NtRp4106
(dp4107
g61
(dp4108
sg70
g4048
sg63
(lp4109
g56
(g77
g58
NtRp4110
(dp4111
g61
(dp4112
sg70
g4106
sg63
(lp4113
g56
(g57
g58
NtRp4114
(dp4115
g61
(dp4116
g69
I2
ssg70
g4110
sg63
(lp4117
g56
(g65
g58
NtRp4118
(dp4119
g61
(dp4120
g69
I1
ssg70
Nsg63
(lp4121
g56
(g72
g58
NtRp4122
(dp4123
g61
(dp4124
sg70
g4118
sg63
(lp4125
g56
(g77
g58
NtRp4126
(dp4127
g61
(dp4128
sg70
g4122
sg63
(lp4129
g56
(g57
g58
NtRp4130
(dp4131
g61
(dp4132
g69
I1
ssg70
g4126
sg63
(lp4133
g3939
(S't\x04\x00\x00\x00View'
tRp4134
asbasbasbag56
(g72
g58
NtRp4135
(dp4136
g61
(dp4137
sg70
g4118
sg63
(lp4138
g56
(g77
g58
NtRp4139
(dp4140
g61
(dp4141
sg70
g4135
sg63
(lp4142
g56
(g57
g58
NtRp4143
(dp4144
g61
(dp4145
g69
I1
ssg70
g4139
sg63
(lp4146
I00
asbasbasbag56
(g72
g58
NtRp4147
(dp4148
g61
(dp4149
sg70
g4118
sg63
(lp4150
g56
(g77
g58
NtRp4151
(dp4152
g61
(dp4153
sg70
g4147
sg63
(lp4154
g56
(g57
g58
NtRp4155
(dp4156
g61
(dp4157
g69
I1
ssg70
g4151
sg63
(lp4158
S'/admin/default/edit/topoi/views/default/notes.html'
p4159
asbasbasbasbasbasbasbag56
(g72
g58
NtRp4160
(dp4161
g61
(dp4162
sg70
g4048
sg63
(lp4163
g56
(g77
g58
NtRp4164
(dp4165
g61
(dp4166
sg70
g4160
sg63
(lp4167
g56
(g57
g58
NtRp4168
(dp4169
g61
(dp4170
g69
I2
ssg70
g4164
sg63
(lp4171
g56
(g65
g58
NtRp4172
(dp4173
g61
(dp4174
g69
I1
ssg70
Nsg63
(lp4175
g56
(g72
g58
NtRp4176
(dp4177
g61
(dp4178
sg70
g4172
sg63
(lp4179
g56
(g77
g58
NtRp4180
(dp4181
g61
(dp4182
sg70
g4176
sg63
(lp4183
g56
(g57
g58
NtRp4184
(dp4185
g61
(dp4186
g69
I1
ssg70
g4180
sg63
(lp4187
g3939
(S't\x06\x00\x00\x00Layout'
tRp4188
asbasbasbag56
(g72
g58
NtRp4189
(dp4190
g61
(dp4191
sg70
g4172
sg63
(lp4192
g56
(g77
g58
NtRp4193
(dp4194
g61
(dp4195
sg70
g4189
sg63
(lp4196
g56
(g57
g58
NtRp4197
(dp4198
g61
(dp4199
g69
I1
ssg70
g4193
sg63
(lp4200
I00
asbasbasbag56
(g72
g58
NtRp4201
(dp4202
g61
(dp4203
sg70
g4172
sg63
(lp4204
g56
(g77
g58
NtRp4205
(dp4206
g61
(dp4207
sg70
g4201
sg63
(lp4208
g56
(g57
g58
NtRp4209
(dp4210
g61
(dp4211
g69
I1
ssg70
g4205
sg63
(lp4212
S'/admin/default/edit/topoi/views/layout.html'
p4213
asbasbasbasbasbasbasbag56
(g72
g58
NtRp4214
(dp4215
g61
(dp4216
sg70
g4048
sg63
(lp4217
g56
(g77
g58
NtRp4218
(dp4219
g61
(dp4220
sg70
g4214
sg63
(lp4221
g56
(g57
g58
NtRp4222
(dp4223
g61
(dp4224
g69
I2
ssg70
g4218
sg63
(lp4225
g56
(g65
g58
NtRp4226
(dp4227
g61
(dp4228
g69
I1
ssg70
Nsg63
(lp4229
g56
(g72
g58
NtRp4230
(dp4231
g61
(dp4232
sg70
g4226
sg63
(lp4233
g56
(g77
g58
NtRp4234
(dp4235
g61
(dp4236
sg70
g4230
sg63
(lp4237
g56
(g57
g58
NtRp4238
(dp4239
g61
(dp4240
g69
I1
ssg70
g4234
sg63
(lp4241
g3939
(S't\n\x00\x00\x00Stylesheet'
tRp4242
asbasbasbag56
(g72
g58
NtRp4243
(dp4244
g61
(dp4245
sg70
g4226
sg63
(lp4246
g56
(g77
g58
NtRp4247
(dp4248
g61
(dp4249
sg70
g4243
sg63
(lp4250
g56
(g57
g58
NtRp4251
(dp4252
g61
(dp4253
g69
I1
ssg70
g4247
sg63
(lp4254
I00
asbasbasbag56
(g72
g58
NtRp4255
(dp4256
g61
(dp4257
sg70
g4226
sg63
(lp4258
g56
(g77
g58
NtRp4259
(dp4260
g61
(dp4261
sg70
g4255
sg63
(lp4262
g56
(g57
g58
NtRp4263
(dp4264
g61
(dp4265
g69
I1
ssg70
g4259
sg63
(lp4266
S'/admin/default/edit/topoi/static/base.css'
p4267
asbasbasbasbasbasbasbag56
(g72
g58
NtRp4268
(dp4269
g61
(dp4270
sg70
g4048
sg63
(lp4271
g56
(g77
g58
NtRp4272
(dp4273
g61
(dp4274
sg70
g4268
sg63
(lp4275
g56
(g57
g58
NtRp4276
(dp4277
g61
(dp4278
g69
I2
ssg70
g4272
sg63
(lp4279
g56
(g65
g58
NtRp4280
(dp4281
g61
(dp4282
g69
I1
ssg70
Nsg63
(lp4283
g56
(g72
g58
NtRp4284
(dp4285
g61
(dp4286
sg70
g4280
sg63
(lp4287
g56
(g77
g58
NtRp4288
(dp4289
g61
(dp4290
sg70
g4284
sg63
(lp4291
g56
(g57
g58
NtRp4292
(dp4293
g61
(dp4294
g69
I1
ssg70
g4288
sg63
(lp4295
g3939
(S's\x08\x00\x00\x00DB Model'
tRp4296
asbasbasbag56
(g72
g58
NtRp4297
(dp4298
g61
(dp4299
sg70
g4280
sg63
(lp4300
g56
(g77
g58
NtRp4301
(dp4302
g61
(dp4303
sg70
g4297
sg63
(lp4304
g56
(g57
g58
NtRp4305
(dp4306
g61
(dp4307
g69
I1
ssg70
g4301
sg63
(lp4308
I00
asbasbasbag56
(g72
g58
NtRp4309
(dp4310
g61
(dp4311
sg70
g4280
sg63
(lp4312
g56
(g77
g58
NtRp4313
(dp4314
g61
(dp4315
sg70
g4309
sg63
(lp4316
g56
(g57
g58
NtRp4317
(dp4318
g61
(dp4319
g69
I1
ssg70
g4313
sg63
(lp4320
S'/admin/default/edit/topoi/models/db.py'
p4321
asbasbasbasbasbasbasbag56
(g72
g58
NtRp4322
(dp4323
g61
(dp4324
sg70
g4048
sg63
(lp4325
g56
(g77
g58
NtRp4326
(dp4327
g61
(dp4328
sg70
g4322
sg63
(lp4329
g56
(g57
g58
NtRp4330
(dp4331
g61
(dp4332
g69
I2
ssg70
g4326
sg63
(lp4333
g56
(g65
g58
NtRp4334
(dp4335
g61
(dp4336
g69
I1
ssg70
Nsg63
(lp4337
g56
(g72
g58
NtRp4338
(dp4339
g61
(dp4340
sg70
g4334
sg63
(lp4341
g56
(g77
g58
NtRp4342
(dp4343
g61
(dp4344
sg70
g4338
sg63
(lp4345
g56
(g57
g58
NtRp4346
(dp4347
g61
(dp4348
g69
I1
ssg70
g4342
sg63
(lp4349
g3939
(S's\n\x00\x00\x00Menu Model'
tRp4350
asbasbasbag56
(g72
g58
NtRp4351
(dp4352
g61
(dp4353
sg70
g4334
sg63
(lp4354
g56
(g77
g58
NtRp4355
(dp4356
g61
(dp4357
sg70
g4351
sg63
(lp4358
g56
(g57
g58
NtRp4359
(dp4360
g61
(dp4361
g69
I1
ssg70
g4355
sg63
(lp4362
I00
asbasbasbag56
(g72
g58
NtRp4363
(dp4364
g61
(dp4365
sg70
g4334
sg63
(lp4366
g56
(g77
g58
NtRp4367
(dp4368
g61
(dp4369
sg70
g4363
sg63
(lp4370
g56
(g57
g58
NtRp4371
(dp4372
g61
(dp4373
g69
I1
ssg70
g4367
sg63
(lp4374
S'/admin/default/edit/topoi/models/menu.py'
p4375
asbasbasbasbasbasbasbag56
(g72
g58
NtRp4376
(dp4377
g61
(dp4378
sg70
g4048
sg63
(lp4379
g56
(g77
g58
NtRp4380
(dp4381
g61
(dp4382
sg70
g4376
sg63
(lp4383
g56
(g57
g58
NtRp4384
(dp4385
g61
(dp4386
g69
I2
ssg70
g4380
sg63
(lp4387
g56
(g65
g58
NtRp4388
(dp4389
g61
(dp4390
g69
I1
ssg70
Nsg63
(lp4391
g56
(g72
g58
NtRp4392
(dp4393
g61
(dp4394
sg70
g4388
sg63
(lp4395
g56
(g77
g58
NtRp4396
(dp4397
g61
(dp4398
sg70
g4392
sg63
(lp4399
g56
(g57
g58
NtRp4400
(dp4401
g61
(dp4402
g69
I1
ssg70
g4396
sg63
(lp4403
g3939
(S't\x08\x00\x00\x00Database'
tRp4404
asbasbasbag56
(g72
g58
NtRp4405
(dp4406
g61
(dp4407
sg70
g4388
sg63
(lp4408
g56
(g77
g58
NtRp4409
(dp4410
g61
(dp4411
sg70
g4405
sg63
(lp4412
g56
(g57
g58
NtRp4413
(dp4414
g61
(dp4415
g69
I1
ssg70
g4409
sg63
(lp4416
I00
asbasbasbag56
(g72
g58
NtRp4417
(dp4418
g61
(dp4419
sg70
g4388
sg63
(lp4420
g56
(g77
g58
NtRp4421
(dp4422
g61
(dp4423
sg70
g4417
sg63
(lp4424
g56
(g57
g58
NtRp4425
(dp4426
g61
(dp4427
g69
I1
ssg70
g4421
sg63
(lp4428
S'/topoi/appadmin/index'
p4429
asbasbasbasbasbasbasbag56
(g72
g58
NtRp4430
(dp4431
g61
(dp4432
sg70
g4048
sg63
(lp4433
g56
(g77
g58
NtRp4434
(dp4435
g61
(dp4436
sg70
g4430
sg63
(lp4437
g56
(g57
g58
NtRp4438
(dp4439
g61
(dp4440
g69
I2
ssg70
g4434
sg63
(lp4441
g56
(g65
g58
NtRp4442
(dp4443
g61
(dp4444
g69
I1
ssg70
Nsg63
(lp4445
g56
(g72
g58
NtRp4446
(dp4447
g61
(dp4448
sg70
g4442
sg63
(lp4449
g56
(g77
g58
NtRp4450
(dp4451
g61
(dp4452
sg70
g4446
sg63
(lp4453
g56
(g57
g58
NtRp4454
(dp4455
g61
(dp4456
g69
I1
ssg70
g4450
sg63
(lp4457
g3939
(S't\x06\x00\x00\x00Errors'
tRp4458
asbasbasbag56
(g72
g58
NtRp4459
(dp4460
g61
(dp4461
sg70
g4442
sg63
(lp4462
g56
(g77
g58
NtRp4463
(dp4464
g61
(dp4465
sg70
g4459
sg63
(lp4466
g56
(g57
g58
NtRp4467
(dp4468
g61
(dp4469
g69
I1
ssg70
g4463
sg63
(lp4470
I00
asbasbasbag56
(g72
g58
NtRp4471
(dp4472
g61
(dp4473
sg70
g4442
sg63
(lp4474
g56
(g77
g58
NtRp4475
(dp4476
g61
(dp4477
sg70
g4471
sg63
(lp4478
g56
(g57
g58
NtRp4479
(dp4480
g61
(dp4481
g69
I1
ssg70
g4475
sg63
(lp4482
S'/admin/default/errors/topoi'
p4483
asbasbasbasbasbasbasbag56
(g72
g58
NtRp4484
(dp4485
g61
(dp4486
sg70
g4048
sg63
(lp4487
g56
(g77
g58
NtRp4488
(dp4489
g61
(dp4490
sg70
g4484
sg63
(lp4491
g56
(g57
g58
NtRp4492
(dp4493
g61
(dp4494
g69
I2
ssg70
g4488
sg63
(lp4495
g56
(g65
g58
NtRp4496
(dp4497
g61
(dp4498
g69
I1
ssg70
Nsg63
(lp4499
g56
(g72
g58
NtRp4500
(dp4501
g61
(dp4502
sg70
g4496
sg63
(lp4503
g56
(g77
g58
NtRp4504
(dp4505
g61
(dp4506
sg70
g4500
sg63
(lp4507
g56
(g57
g58
NtRp4508
(dp4509
g61
(dp4510
g69
I1
ssg70
g4504
sg63
(lp4511
g3939
(S't\x05\x00\x00\x00About'
tRp4512
asbasbasbag56
(g72
g58
NtRp4513
(dp4514
g61
(dp4515
sg70
g4496
sg63
(lp4516
g56
(g77
g58
NtRp4517
(dp4518
g61
(dp4519
sg70
g4513
sg63
(lp4520
g56
(g57
g58
NtRp4521
(dp4522
g61
(dp4523
g69
I1
ssg70
g4517
sg63
(lp4524
I00
asbasbasbag56
(g72
g58
NtRp4525
(dp4526
g61
(dp4527
sg70
g4496
sg63
(lp4528
g56
(g77
g58
NtRp4529
(dp4530
g61
(dp4531
sg70
g4525
sg63
(lp4532
g56
(g57
g58
NtRp4533
(dp4534
g61
(dp4535
g69
I1
ssg70
g4529
sg63
(lp4536
S'/admin/default/about/topoi'
p4537
asbasbasbasbasbasbasbasbasbasbasbasbasbasbasbag56
(g72
g58
NtRp4538
(dp4539
g61
(dp4540
sg70
g3907
sg63
(lp4541
g56
(g77
g58
NtRp4542
(dp4543
g61
(dp4544
sg70
g4538
sg63
(lp4545
g56
(g57
g58
NtRp4546
(dp4547
g61
(dp4548
g69
I4
ssg70
g4542
sg63
(lp4549
g56
(g65
g58
NtRp4550
(dp4551
g61
(dp4552
g69
I3
ssg70
Nsg63
(lp4553
g56
(g72
g58
NtRp4554
(dp4555
g61
(dp4556
sg70
g4550
sg63
(lp4557
g56
(g77
g58
NtRp4558
(dp4559
g61
(dp4560
sg70
g4554
sg63
(lp4561
g56
(g57
g58
NtRp4562
(dp4563
g61
(dp4564
g69
I3
ssg70
g4558
sg63
(lp4565
g3939
(S't\t\x00\x00\x00Resources'
tRp4566
asbasbasbag56
(g72
g58
NtRp4567
(dp4568
g61
(dp4569
sg70
g4550
sg63
(lp4570
g56
(g77
g58
NtRp4571
(dp4572
g61
(dp4573
sg70
g4567
sg63
(lp4574
g56
(g57
g58
NtRp4575
(dp4576
g61
(dp4577
g69
I3
ssg70
g4571
sg63
(lp4578
g99
asbasbasbag56
(g72
g58
NtRp4579
(dp4580
g61
(dp4581
sg70
g4550
sg63
(lp4582
g56
(g77
g58
NtRp4583
(dp4584
g61
(dp4585
sg70
g4579
sg63
(lp4586
g56
(g57
g58
NtRp4587
(dp4588
g61
(dp4589
g69
I3
ssg70
g4583
sg63
(lp4590
S'None'
p4591
asbasbasbag56
(g72
g58
NtRp4592
(dp4593
g61
(dp4594
sg70
g4550
sg63
(lp4595
g56
(g77
g58
NtRp4596
(dp4597
g61
(dp4598
sg70
g4592
sg63
(lp4599
g56
(g57
g58
NtRp4600
(dp4601
g61
(dp4602
g69
I3
ssg70
g4596
sg63
(lp4603
g56
(g65
g58
NtRp4604
(dp4605
g61
(dp4606
g69
I2
ssg70
Nsg63
(lp4607
g56
(g72
g58
NtRp4608
(dp4609
g61
(dp4610
sg70
g4604
sg63
(lp4611
g56
(g77
g58
NtRp4612
(dp4613
g61
(dp4614
sg70
g4608
sg63
(lp4615
g56
(g57
g58
NtRp4616
(dp4617
g61
(dp4618
g69
I2
ssg70
g4612
sg63
(lp4619
g56
(g65
g58
NtRp4620
(dp4621
g61
(dp4622
g69
I1
ssg70
Nsg63
(lp4623
g56
(g72
g58
NtRp4624
(dp4625
g61
(dp4626
sg70
g4620
sg63
(lp4627
g56
(g77
g58
NtRp4628
(dp4629
g61
(dp4630
sg70
g4624
sg63
(lp4631
g56
(g57
g58
NtRp4632
(dp4633
g61
(dp4634
g69
I1
ssg70
g4628
sg63
(lp4635
g3939
(S't\r\x00\x00\x00Documentation'
tRp4636
asbasbasbag56
(g72
g58
NtRp4637
(dp4638
g61
(dp4639
sg70
g4620
sg63
(lp4640
g56
(g77
g58
NtRp4641
(dp4642
g61
(dp4643
sg70
g4637
sg63
(lp4644
g56
(g57
g58
NtRp4645
(dp4646
g61
(dp4647
g69
I1
ssg70
g4641
sg63
(lp4648
I00
asbasbasbag56
(g72
g58
NtRp4649
(dp4650
g61
(dp4651
sg70
g4620
sg63
(lp4652
g56
(g77
g58
NtRp4653
(dp4654
g61
(dp4655
sg70
g4649
sg63
(lp4656
g56
(g57
g58
NtRp4657
(dp4658
g61
(dp4659
g69
I1
ssg70
g4653
sg63
(lp4660
S'http://www.web2py.com/book'
p4661
asbasbasbag56
(g72
g58
NtRp4662
(dp4663
g61
(dp4664
sg70
g4620
sg63
(lp4665
g56
(g77
g58
NtRp4666
(dp4667
g61
(dp4668
sg70
g4662
sg63
(lp4669
g56
(g57
g58
NtRp4670
(dp4671
g61
(dp4672
g69
I1
ssg70
g4666
sg63
(lp4673
(lp4674
(g3939
(S't\x07\x00\x00\x00Preface'
tRp4675
I00
S'http://www.web2py.com/book/default/chapter/00'
tp4676
a(g3939
(S't\x0c\x00\x00\x00Introduction'
tRp4677
I00
S'http://www.web2py.com/book/default/chapter/01'
tp4678
a(g3939
(S't\x06\x00\x00\x00Python'
tRp4679
I00
S'http://www.web2py.com/book/default/chapter/02'
tp4680
a(g3939
(S't\x08\x00\x00\x00Overview'
tRp4681
I00
S'http://www.web2py.com/book/default/chapter/03'
tp4682
a(g3939
(S's\x08\x00\x00\x00The Core'
tRp4683
I00
S'http://www.web2py.com/book/default/chapter/04'
tp4684
a(g3939
(S's\t\x00\x00\x00The Views'
tRp4685
I00
S'http://www.web2py.com/book/default/chapter/05'
tp4686
a(g3939
(S't\x08\x00\x00\x00Database'
tRp4687
I00
S'http://www.web2py.com/book/default/chapter/06'
tp4688
a(g3939
(S's\x14\x00\x00\x00Forms and Validators'
tRp4689
I00
S'http://www.web2py.com/book/default/chapter/07'
tp4690
a(g3939
(S's\x0e\x00\x00\x00Access Control'
tRp4691
I00
S'http://www.web2py.com/book/default/chapter/08'
tp4692
a(g3939
(S't\x08\x00\x00\x00Services'
tRp4693
I00
S'http://www.web2py.com/book/default/chapter/09'
tp4694
a(g3939
(S's\x0c\x00\x00\x00Ajax Recipes'
tRp4695
I00
S'http://www.web2py.com/book/default/chapter/10'
tp4696
a(g3939
(S's\x12\x00\x00\x00Deployment Recipes'
tRp4697
I00
S'http://www.web2py.com/book/default/chapter/11'
tp4698
a(g3939
(S's\r\x00\x00\x00Other Recipes'
tRp4699
I00
S'http://www.web2py.com/book/default/chapter/12'
tp4700
a(g3939
(S's\r\x00\x00\x00Buy this book'
tRp4701
I00
S'http://stores.lulu.com/web2py'
tp4702
aasbasbasbasbasbasbasbag56
(g72
g58
NtRp4703
(dp4704
g61
(dp4705
sg70
g4604
sg63
(lp4706
g56
(g77
g58
NtRp4707
(dp4708
g61
(dp4709
sg70
g4703
sg63
(lp4710
g56
(g57
g58
NtRp4711
(dp4712
g61
(dp4713
g69
I2
ssg70
g4707
sg63
(lp4714
g56
(g65
g58
NtRp4715
(dp4716
g61
(dp4717
g69
I1
ssg70
Nsg63
(lp4718
g56
(g72
g58
NtRp4719
(dp4720
g61
(dp4721
sg70
g4715
sg63
(lp4722
g56
(g77
g58
NtRp4723
(dp4724
g61
(dp4725
sg70
g4719
sg63
(lp4726
g56
(g57
g58
NtRp4727
(dp4728
g61
(dp4729
g69
I1
ssg70
g4723
sg63
(lp4730
g3939
(S't\t\x00\x00\x00Community'
tRp4731
asbasbasbag56
(g72
g58
NtRp4732
(dp4733
g61
(dp4734
sg70
g4715
sg63
(lp4735
g56
(g77
g58
NtRp4736
(dp4737
g61
(dp4738
sg70
g4732
sg63
(lp4739
g56
(g57
g58
NtRp4740
(dp4741
g61
(dp4742
g69
I1
ssg70
g4736
sg63
(lp4743
I00
asbasbasbag56
(g72
g58
NtRp4744
(dp4745
g61
(dp4746
sg70
g4715
sg63
(lp4747
g56
(g77
g58
NtRp4748
(dp4749
g61
(dp4750
sg70
g4744
sg63
(lp4751
g56
(g57
g58
NtRp4752
(dp4753
g61
(dp4754
g69
I1
ssg70
g4748
sg63
(lp4755
Nasbasbasbag56
(g72
g58
NtRp4756
(dp4757
g61
(dp4758
sg70
g4715
sg63
(lp4759
g56
(g77
g58
NtRp4760
(dp4761
g61
(dp4762
sg70
g4756
sg63
(lp4763
g56
(g57
g58
NtRp4764
(dp4765
g61
(dp4766
g69
I1
ssg70
g4760
sg63
(lp4767
(lp4768
(g3939
(S't\x06\x00\x00\x00Groups'
tRp4769
I00
S'http://www.web2py.com/examples/default/usergroups'
tp4770
a(g3939
(S't\x07\x00\x00\x00Twitter'
tRp4771
I00
S'http://twitter.com/web2py'
tp4772
a(g3939
(S's\t\x00\x00\x00Live chat'
tRp4773
I00
S'http://mibbit.com/?channel=%23web2py&server=irc.mibbit.net'
tp4774
a(g3939
(S's\n\x00\x00\x00User Voice'
tRp4775
I00
S'http://web2py.uservoice.com/'
tp4776
aasbasbasbasbasbasbasbag56
(g72
g58
NtRp4777
(dp4778
g61
(dp4779
sg70
g4604
sg63
(lp4780
g56
(g77
g58
NtRp4781
(dp4782
g61
(dp4783
sg70
g4777
sg63
(lp4784
g56
(g57
g58
NtRp4785
(dp4786
g61
(dp4787
g69
I2
ssg70
g4781
sg63
(lp4788
g56
(g65
g58
NtRp4789
(dp4790
g61
(dp4791
g69
I1
ssg70
Nsg63
(lp4792
g56
(g72
g58
NtRp4793
(dp4794
g61
(dp4795
sg70
g4789
sg63
(lp4796
g56
(g77
g58
NtRp4797
(dp4798
g61
(dp4799
sg70
g4793
sg63
(lp4800
g56
(g57
g58
NtRp4801
(dp4802
g61
(dp4803
g69
I1
ssg70
g4797
sg63
(lp4804
g3939
(S't\x06\x00\x00\x00Web2py'
tRp4805
asbasbasbag56
(g72
g58
NtRp4806
(dp4807
g61
(dp4808
sg70
g4789
sg63
(lp4809
g56
(g77
g58
NtRp4810
(dp4811
g61
(dp4812
sg70
g4806
sg63
(lp4813
g56
(g57
g58
NtRp4814
(dp4815
g61
(dp4816
g69
I1
ssg70
g4810
sg63
(lp4817
I00
asbasbasbag56
(g72
g58
NtRp4818
(dp4819
g61
(dp4820
sg70
g4789
sg63
(lp4821
g56
(g77
g58
NtRp4822
(dp4823
g61
(dp4824
sg70
g4818
sg63
(lp4825
g56
(g57
g58
NtRp4826
(dp4827
g61
(dp4828
g69
I1
ssg70
g4822
sg63
(lp4829
S'http://www.web2py.com'
p4830
asbasbasbag56
(g72
g58
NtRp4831
(dp4832
g61
(dp4833
sg70
g4789
sg63
(lp4834
g56
(g77
g58
NtRp4835
(dp4836
g61
(dp4837
sg70
g4831
sg63
(lp4838
g56
(g57
g58
NtRp4839
(dp4840
g61
(dp4841
g69
I1
ssg70
g4835
sg63
(lp4842
(lp4843
(g3939
(S't\x08\x00\x00\x00Download'
tRp4844
I00
S'http://www.web2py.com/examples/default/download'
tp4845
a(g3939
(S't\x07\x00\x00\x00Support'
tRp4846
I00
S'http://www.web2py.com/examples/default/support'
tp4847
a(g3939
(S's\x0e\x00\x00\x00Quick Examples'
tRp4848
I00
S'http://web2py.com/examples/default/examples'
tp4849
a(g3939
(S't\x03\x00\x00\x00FAQ'
tRp4850
I00
S'http://web2py.com/AlterEgo'
tp4851
a(g3939
(S's\x11\x00\x00\x00Free Applications'
tRp4852
I00
S'http://web2py.com/appliances'
tp4853
a(g3939
(S't\x07\x00\x00\x00Plugins'
tRp4854
I00
S'http://web2py.com/plugins'
tp4855
a(g3939
(S't\x07\x00\x00\x00Recipes'
tRp4856
I00
S'http://web2pyslices.com/'
tp4857
a(g3939
(S't\x04\x00\x00\x00Demo'
tRp4858
I00
S'http://web2py.com/demo_admin'
tp4859
a(g3939
(S't\x08\x00\x00\x00Semantic'
tRp4860
I00
S'http://web2py.com/semantic'
tp4861
a(g3939
(S't\x07\x00\x00\x00Layouts'
tRp4862
I00
S'http://web2py.com/layouts'
tp4863
a(g3939
(S't\x06\x00\x00\x00Videos'
tRp4864
I00
S'http://www.web2py.com/examples/default/videos/'
tp4865
aasbasbasbasbasbasbasbasbasbasbasbasbasbasbasbasbasbasbasbag56
(g72
g58
NtRp4866
(dp4867
g61
(dp4868
sg70
g3434
sg63
(lp4869
g56
(g77
g58
NtRp4870
(dp4871
g61
(dp4872
g81
g82
ssg70
g4866
sg63
(lp4873
S'meta'
p4874
asbag56
(g77
g58
NtRp4875
(dp4876
g61
(dp4877
g88
g89
ssg70
g4866
sg63
(lp4878
S':'
asbag56
(g77
g58
NtRp4879
(dp4880
g61
(dp4881
sg70
g4866
sg63
(lp4882
g56
(g57
g58
NtRp4883
(dp4884
g61
(dp4885
g69
I5
ssg70
g4879
sg63
(lp4886
g56
(g65
g58
NtRp4887
(dp4888
g61
(dp4889
g69
I4
ssg70
Nsg63
(lp4890
g56
(g72
g58
NtRp4891
(dp4892
g61
(dp4893
sg70
g4887
sg63
(lp4894
g56
(g77
g58
NtRp4895
(dp4896
g61
(dp4897
g81
g82
ssg70
g4891
sg63
(lp4898
S'author'
p4899
asbag56
(g77
g58
NtRp4900
(dp4901
g61
(dp4902
g88
g89
ssg70
g4891
sg63
(lp4903
S':'
asbag56
(g77
g58
NtRp4904
(dp4905
g61
(dp4906
sg70
g4891
sg63
(lp4907
g56
(g57
g58
NtRp4908
(dp4909
g61
(dp4910
g69
I4
ssg70
g4904
sg63
(lp4911
S'you'
p4912
asbasbasbag56
(g72
g58
NtRp4913
(dp4914
g61
(dp4915
sg70
g4887
sg63
(lp4916
g56
(g77
g58
NtRp4917
(dp4918
g61
(dp4919
g81
g82
ssg70
g4913
sg63
(lp4920
S'copyright'
p4921
asbag56
(g77
g58
NtRp4922
(dp4923
g61
(dp4924
g88
g89
ssg70
g4913
sg63
(lp4925
S':'
asbag56
(g77
g58
NtRp4926
(dp4927
g61
(dp4928
sg70
g4913
sg63
(lp4929
g56
(g57
g58
NtRp4930
(dp4931
g61
(dp4932
g69
I4
ssg70
g4926
sg63
(lp4933
S'Copyright 2007-2010'
p4934
asbasbasbag56
(g72
g58
NtRp4935
(dp4936
g61
(dp4937
sg70
g4887
sg63
(lp4938
g56
(g77
g58
NtRp4939
(dp4940
g61
(dp4941
g81
g82
ssg70
g4935
sg63
(lp4942
S'description'
p4943
asbag56
(g77
g58
NtRp4944
(dp4945
g61
(dp4946
g88
g89
ssg70
g4935
sg63
(lp4947
S':'
asbag56
(g77
g58
NtRp4948
(dp4949
g61
(dp4950
sg70
g4935
sg63
(lp4951
g56
(g57
g58
NtRp4952
(dp4953
g61
(dp4954
g69
I4
ssg70
g4948
sg63
(lp4955
S'Free and open source full-stack enterprise framework for agile development of fast, scalable, secure and portable database-driven web-based applications. Written and programmable in Python'
p4956
asbasbasbag56
(g72
g58
NtRp4957
(dp4958
g61
(dp4959
sg70
g4887
sg63
(lp4960
g56
(g77
g58
NtRp4961
(dp4962
g61
(dp4963
g81
g82
ssg70
g4957
sg63
(lp4964
S'generator'
p4965
asbag56
(g77
g58
NtRp4966
(dp4967
g61
(dp4968
g88
g89
ssg70
g4957
sg63
(lp4969
S':'
asbag56
(g77
g58
NtRp4970
(dp4971
g61
(dp4972
sg70
g4957
sg63
(lp4973
g56
(g57
g58
NtRp4974
(dp4975
g61
(dp4976
g69
I4
ssg70
g4970
sg63
(lp4977
S'Web2py Enterprise Framework'
p4978
asbasbasbag56
(g72
g58
NtRp4979
(dp4980
g61
(dp4981
sg70
g4887
sg63
(lp4982
g56
(g77
g58
NtRp4983
(dp4984
g61
(dp4985
g81
g82
ssg70
g4979
sg63
(lp4986
S'keywords'
p4987
asbag56
(g77
g58
NtRp4988
(dp4989
g61
(dp4990
g88
g89
ssg70
g4979
sg63
(lp4991
S':'
asbag56
(g77
g58
NtRp4992
(dp4993
g61
(dp4994
sg70
g4979
sg63
(lp4995
g56
(g57
g58
NtRp4996
(dp4997
g61
(dp4998
g69
I4
ssg70
g4992
sg63
(lp4999
S'web2py, python, framework'
p5000
asbasbasbasbasbasbasbag56
(g72
g58
NtRp5001
(dp5002
g61
(dp5003
sg70
g3434
sg63
(lp5004
g56
(g77
g58
NtRp5005
(dp5006
g61
(dp5007
g81
g82
ssg70
g5001
sg63
(lp5008
S'postprocessing'
p5009
asbag56
(g77
g58
NtRp5010
(dp5011
g61
(dp5012
g88
g89
ssg70
g5001
sg63
(lp5013
S':'
asbag56
(g77
g58
NtRp5014
(dp5015
g61
(dp5016
sg70
g5001
sg63
(lp5017
g56
(g57
g58
NtRp5018
(dp5019
g61
(dp5020
g69
I5
ssg70
g5014
sg63
(lp5021
g56
(g65
g58
NtRp5022
(dp5023
g61
(dp5024
g69
I4
ssg70
Nsg63
(lp5025
sbasbasbasbag56
(g72
g58
NtRp5026
(dp5027
g61
(dp5028
sg70
g3434
sg63
(lp5029
g56
(g77
g58
NtRp5030
(dp5031
g61
(dp5032
g81
g82
ssg70
g5026
sg63
(lp5033
S'session_file'
p5034
asbag56
(g77
g58
NtRp5035
(dp5036
g61
(dp5037
g88
g89
ssg70
g5026
sg63
(lp5038
S':'
asbag56
(g77
g58
NtRp5039
(dp5040
g61
(dp5041
sg70
g5026
sg63
(lp5042
g56
(g57
g58
NtRp5043
(dp5044
g61
(dp5045
g69
I5
ssg70
g5039
sg63
(lp5046
S"<open file '/home/ian/web2py/applications/topoi/sessions/127.0.0.1-26891f27-7a1a-4fa5-81a0-16ff25069026', mode 'rb+' at 0x2e429c0>"
p5047
asbasbasbag56
(g72
g58
NtRp5048
(dp5049
g61
(dp5050
sg70
g3434
sg63
(lp5051
g56
(g77
g58
NtRp5052
(dp5053
g61
(dp5054
g81
g82
ssg70
g5048
sg63
(lp5055
S'session_filename'
p5056
asbag56
(g77
g58
NtRp5057
(dp5058
g61
(dp5059
g88
g89
ssg70
g5048
sg63
(lp5060
S':'
asbag56
(g77
g58
NtRp5061
(dp5062
g61
(dp5063
sg70
g5048
sg63
(lp5064
g56
(g57
g58
NtRp5065
(dp5066
g61
(dp5067
g69
I5
ssg70
g5061
sg63
(lp5068
S'/home/ian/web2py/applications/topoi/sessions/127.0.0.1-26891f27-7a1a-4fa5-81a0-16ff25069026'
p5069
asbasbasbag56
(g72
g58
NtRp5070
(dp5071
g61
(dp5072
sg70
g3434
sg63
(lp5073
g56
(g77
g58
NtRp5074
(dp5075
g61
(dp5076
g81
g82
ssg70
g5070
sg63
(lp5077
S'session_id'
p5078
asbag56
(g77
g58
NtRp5079
(dp5080
g61
(dp5081
g88
g89
ssg70
g5070
sg63
(lp5082
S':'
asbag56
(g77
g58
NtRp5083
(dp5084
g61
(dp5085
sg70
g5070
sg63
(lp5086
g56
(g57
g58
NtRp5087
(dp5088
g61
(dp5089
g69
I5
ssg70
g5083
sg63
(lp5090
S'127.0.0.1-26891f27-7a1a-4fa5-81a0-16ff25069026'
p5091
asbasbasbag56
(g72
g58
NtRp5092
(dp5093
g61
(dp5094
sg70
g3434
sg63
(lp5095
g56
(g77
g58
NtRp5096
(dp5097
g61
(dp5098
g81
g82
ssg70
g5092
sg63
(lp5099
S'session_id_name'
p5100
asbag56
(g77
g58
NtRp5101
(dp5102
g61
(dp5103
g88
g89
ssg70
g5092
sg63
(lp5104
S':'
asbag56
(g77
g58
NtRp5105
(dp5106
g61
(dp5107
sg70
g5092
sg63
(lp5108
g56
(g57
g58
NtRp5109
(dp5110
g61
(dp5111
g69
I5
ssg70
g5105
sg63
(lp5112
g3491
asbasbasbag56
(g72
g58
NtRp5113
(dp5114
g61
(dp5115
sg70
g3434
sg63
(lp5116
g56
(g77
g58
NtRp5117
(dp5118
g61
(dp5119
g81
g82
ssg70
g5113
sg63
(lp5120
S'session_locked'
p5121
asbag56
(g77
g58
NtRp5122
(dp5123
g61
(dp5124
g88
g89
ssg70
g5113
sg63
(lp5125
S':'
asbag56
(g77
g58
NtRp5126
(dp5127
g61
(dp5128
sg70
g5113
sg63
(lp5129
g56
(g57
g58
NtRp5130
(dp5131
g61
(dp5132
g69
I5
ssg70
g5126
sg63
(lp5133
g1705
asbasbasbag56
(g72
g58
NtRp5134
(dp5135
g61
(dp5136
sg70
g3434
sg63
(lp5137
g56
(g77
g58
NtRp5138
(dp5139
g61
(dp5140
g81
g82
ssg70
g5134
sg63
(lp5141
S'session_new'
p5142
asbag56
(g77
g58
NtRp5143
(dp5144
g61
(dp5145
g88
g89
ssg70
g5134
sg63
(lp5146
S':'
asbag56
(g77
g58
NtRp5147
(dp5148
g61
(dp5149
sg70
g5134
sg63
(lp5150
g56
(g57
g58
NtRp5151
(dp5152
g61
(dp5153
g69
I5
ssg70
g5147
sg63
(lp5154
g99
asbasbasbag56
(g72
g58
NtRp5155
(dp5156
g61
(dp5157
sg70
g3434
sg63
(lp5158
g56
(g77
g58
NtRp5159
(dp5160
g61
(dp5161
g81
g82
ssg70
g5155
sg63
(lp5162
S'status'
p5163
asbag56
(g77
g58
NtRp5164
(dp5165
g61
(dp5166
g88
g89
ssg70
g5155
sg63
(lp5167
S':'
asbag56
(g77
g58
NtRp5168
(dp5169
g61
(dp5170
sg70
g5155
sg63
(lp5171
g56
(g57
g58
NtRp5172
(dp5173
g61
(dp5174
g69
I5
ssg70
g5168
sg63
(lp5175
S'200'
p5176
asbasbasbag56
(g72
g58
NtRp5177
(dp5178
g61
(dp5179
sg70
g3434
sg63
(lp5180
g56
(g77
g58
NtRp5181
(dp5182
g61
(dp5183
g81
g82
ssg70
g5177
sg63
(lp5184
S'subtitle'
p5185
asbag56
(g77
g58
NtRp5186
(dp5187
g61
(dp5188
g88
g89
ssg70
g5177
sg63
(lp5189
S':'
asbag56
(g77
g58
NtRp5190
(dp5191
g61
(dp5192
sg70
g5177
sg63
(lp5193
g56
(g57
g58
NtRp5194
(dp5195
g61
(dp5196
g69
I5
ssg70
g5190
sg63
(lp5197
g3939
(S's\r\x00\x00\x00customize me!'
tRp5198
asbasbasbag56
(g72
g58
NtRp5199
(dp5200
g61
(dp5201
sg70
g3434
sg63
(lp5202
g56
(g77
g58
NtRp5203
(dp5204
g61
(dp5205
g81
g82
ssg70
g5199
sg63
(lp5206
S'title'
p5207
asbag56
(g77
g58
NtRp5208
(dp5209
g61
(dp5210
g88
g89
ssg70
g5199
sg63
(lp5211
S':'
asbag56
(g77
g58
NtRp5212
(dp5213
g61
(dp5214
sg70
g5199
sg63
(lp5215
g56
(g57
g58
NtRp5216
(dp5217
g61
(dp5218
g69
I5
ssg70
g5212
sg63
(lp5219
g121
asbasbasbag56
(g72
g58
NtRp5220
(dp5221
g61
(dp5222
sg70
g3434
sg63
(lp5223
g56
(g77
g58
NtRp5224
(dp5225
g61
(dp5226
g81
g82
ssg70
g5220
sg63
(lp5227
g2371
asbag56
(g77
g58
NtRp5228
(dp5229
g61
(dp5230
g88
g89
ssg70
g5220
sg63
(lp5231
S':'
asbag56
(g77
g58
NtRp5232
(dp5233
g61
(dp5234
sg70
g5220
sg63
(lp5235
g56
(g57
g58
NtRp5236
(dp5237
g61
(dp5238
g69
I5
ssg70
g5232
sg63
(lp5239
g2384
asbasbasbag56
(g72
g58
NtRp5240
(dp5241
g61
(dp5242
sg70
g3434
sg63
(lp5243
g56
(g77
g58
NtRp5244
(dp5245
g61
(dp5246
g81
g82
ssg70
g5240
sg63
(lp5247
S'view'
p5248
asbag56
(g77
g58
NtRp5249
(dp5250
g61
(dp5251
g88
g89
ssg70
g5240
sg63
(lp5252
S':'
asbag56
(g77
g58
NtRp5253
(dp5254
g61
(dp5255
sg70
g5240
sg63
(lp5256
g56
(g57
g58
NtRp5257
(dp5258
g61
(dp5259
g69
I5
ssg70
g5253
sg63
(lp5260
S'default/notes.html'
p5261
asbasbasbasbasbsS'locals'
p5262
(dp5263
S'represent'
p5264
S'<function represent>'
p5265
sS'Service'
p5266
S"<class 'gluon.tools.Service'>"
p5267
sS'OBJECT'
p5268
S"<class 'gluon.html.OBJECT'>"
p5269
sS'SQLDB'
p5270
S"<class 'gluon.dal.DAL'>"
p5271
sg3106
S"<Storage {'last_query': 'db.authors.id>0', '_for.../None]': 'f13813eb-6c87-4d6b-b674-38a78b65080d'}>"
p5272
sS'LINK'
p5273
S"<class 'gluon.html.LINK'>"
p5274
sS'safe_float'
p5275
S'<function safe_float>'
p5276
sS'BR'
p5277
S"<class 'gluon.html.BR'>"
p5278
sS'local_import'
p5279
S'<function <lambda>>'
p5280
sS'OPTGROUP'
p5281
S"<class 'gluon.html.OPTGROUP'>"
p5282
sS'LI'
p5283
S"<class 'gluon.html.LI'>"
p5284
sS'PRE'
p5285
S"<class 'gluon.html.PRE'>"
p5286
sS'IS_INT_IN_RANGE'
p5287
S"<class 'gluon.validators.IS_INT_IN_RANGE'>"
p5288
sS'IS_LOWER'
p5289
S"<class 'gluon.validators.IS_LOWER'>"
p5290
sS'IS_STRONG'
p5291
S"<class 'gluon.validators.IS_STRONG'>"
p5292
sS'cache'
p5293
S'<gluon.cache.Cache object>'
p5294
sS'IS_IN_DB'
p5295
S"<class 'gluon.validators.IS_IN_DB'>"
p5296
sS'table_field'
p5297
S'<_sre.SRE_Pattern object>'
p5298
sS'TAG'
p5299
S'<gluon.html.__TAG__ object>'
p5300
sS'SQLField'
p5301
S"<class 'gluon.dal.Field'>"
p5302
sS'mail'
p5303
S'<gluon.tools.Mail object>'
p5304
sS'BODY'
p5305
S"<class 'gluon.html.BODY'>"
p5306
sS'IS_DATE_IN_RANGE'
p5307
S"<class 'gluon.validators.IS_DATE_IN_RANGE'>"
p5308
sS'IFRAME'
p5309
S"<class 'gluon.html.IFRAME'>"
p5310
sS'URL'
p5311
S'<function URL>'
p5312
sS'DatetimeWidget'
p5313
S"<class 'gluon.sqlhtml.DatetimeWidget'>"
p5314
sS'__file__'
p5315
S"'/home/ian/web2py/applications/topoi/models/topoi.py'"
p5316
sS'db'
p5317
S"<DAL {'auth_event': <Table {'origin': <gluon.dal..., 'id': <gluon.dal.Field object at 0x2e6ad50>}>}>"
p5318
sS'auth'
p5319
S'<gluon.tools.Auth object>'
p5320
sS'P'
S"<class 'gluon.html.P'>"
p5321
sS'TFOOT'
p5322
S"<class 'gluon.html.TFOOT'>"
p5323
sS'XHTML'
p5324
S"<class 'gluon.html.XHTML'>"
p5325
sS'datetime'
p5326
S"<module 'datetime' from '/usr/lib/python2.7/lib-dynload/datetime.so'>"
p5327
sS'IntegerWidget'
p5328
S"<class 'gluon.sqlhtml.IntegerWidget'>"
p5329
sS'ON'
p5330
g1705
sS'OL'
p5331
S"<class 'gluon.html.OL'>"
p5332
sS'TEXTAREA'
p5333
S"<class 'gluon.html.TEXTAREA'>"
p5334
sS'MENU'
p5335
S"<class 'gluon.html.MENU'>"
p5336
sS'PasswordWidget'
p5337
S"<class 'gluon.sqlhtml.PasswordWidget'>"
p5338
sS'hmultiselect_widget'
p5339
S'<function hmultiselect_widget>'
p5340
sS'EM'
p5341
S"<class 'gluon.html.EM'>"
p5342
sS'CODE'
p5343
S"<class 'gluon.html.CODE'>"
p5344
sS'HTTP'
p5345
S"<class 'gluon.http.HTTP'>"
p5346
sS'HR'
p5347
S"<class 'gluon.html.HR'>"
p5348
sS'IS_DATETIME'
p5349
S"<class 'gluon.validators.IS_DATETIME'>"
p5350
sS'Storage'
p5351
S"<class 'gluon.storage.Storage'>"
p5352
sS'STYLE'
p5353
S"<class 'gluon.html.STYLE'>"
p5354
sS'LABEL'
p5355
S"<class 'gluon.html.LABEL'>"
p5356
sS'META'
p5357
S"<class 'gluon.html.META'>"
p5358
sS'plugins'
p5359
S'<gluon.tools.PluginManager object>'
p5360
sS'SELECT'
p5361
S"<class 'gluon.html.SELECT'>"
p5362
sS'CENTER'
p5363
S"<class 'gluon.html.CENTER'>"
p5364
sS'prettydate'
p5365
S'<function prettydate>'
p5366
sS'Crud'
p5367
S"<class 'gluon.tools.Crud'>"
p5368
sS'BooleanWidget'
p5369
S"<class 'gluon.sqlhtml.BooleanWidget'>"
p5370
sS'urllib'
p5371
S"<module 'urllib' from '/usr/lib/python2.7/urllib.pyc'>"
p5372
sS'__builtins__'
p5373
S"{'ArithmeticError': <type 'exceptions.ArithmeticError'>, 'AssertionError': <type 'exceptions.AssertionError'>, 'AttributeError': <type 'exceptions.AttributeError'>, 'BaseException': <type 'exceptions.BaseException'>, 'BufferError': <type 'exceptions.BufferError'>, 'BytesWarning': <type 'exceptions.BytesWarning'>, 'DeprecationWarning': <type 'exceptions.DeprecationWarning'>, 'EOFError': <type 'exceptions.EOFError'>, 'Ellipsis': Ellipsis, 'EnvironmentError': <type 'exceptions.EnvironmentError'>, ...}"
p5374
sS'HTML'
p5375
S"<class 'gluon.html.HTML'>"
p5376
sS'SQLFORM'
p5377
S"<class 'gluon.sqlhtml.SQLFORM'>"
p5378
sS'LOAD'
p5379
S'<gluon.compileapp.LoadFactory object>'
p5380
sS'redirect'
p5381
S'<function redirect>'
p5382
sS'FIELDSET'
p5383
S"<class 'gluon.html.FIELDSET'>"
p5384
sS'IS_EQUAL_TO'
p5385
S"<class 'gluon.validators.IS_EQUAL_TO'>"
p5386
sS'embed64'
p5387
S'<function embed64>'
p5388
sS'IS_LIST_OF'
p5389
S"<class 'gluon.validators.IS_LIST_OF'>"
p5390
sS'ListWidget'
p5391
S"<class 'gluon.sqlhtml.ListWidget'>"
p5392
sS'INPUT'
p5393
S"<class 'gluon.html.INPUT'>"
p5394
sS'EMBED'
p5395
S"<class 'gluon.html.EMBED'>"
p5396
sS'FORM'
p5397
S"<class 'gluon.html.FORM'>"
p5398
sS'H2'
p5399
S"<class 'gluon.html.H2'>"
p5400
sS'H3'
p5401
S"<class 'gluon.html.H3'>"
p5402
sS'BUTTON'
p5403
S"<class 'gluon.html.BUTTON'>"
p5404
sS'H1'
p5405
S"<class 'gluon.html.H1'>"
p5406
sS'H6'
p5407
S"<class 'gluon.html.H6'>"
p5408
sS'H4'
p5409
S"<class 'gluon.html.H4'>"
p5410
sS'H5'
p5411
S"<class 'gluon.html.H5'>"
p5412
sS'UL'
p5413
S"<class 'gluon.html.UL'>"
p5414
sS'IS_UPPER'
p5415
S"<class 'gluon.validators.IS_UPPER'>"
p5416
sS'xmlescape'
p5417
S'<function xmlescape>'
p5418
sS'IS_TIME'
p5419
S"<class 'gluon.validators.IS_TIME'>"
p5420
sS'Row'
p5421
S"<class 'gluon.dal.Row'>"
p5422
sS'OPTION'
p5423
S"<class 'gluon.html.OPTION'>"
p5424
sS'TITLE'
p5425
S"<class 'gluon.html.TITLE'>"
p5426
sS'CRYPT'
p5427
S"<class 'gluon.validators.CRYPT'>"
p5428
sS'IS_EMPTY_OR'
p5429
S"<class 'gluon.validators.IS_EMPTY_OR'>"
p5430
sS'MARKMIN'
p5431
S"<class 'gluon.html.MARKMIN'>"
p5432
sS'DecimalWidget'
p5433
S"<class 'gluon.sqlhtml.DecimalWidget'>"
p5434
sS'vmultiselect_widget'
p5435
S'<function vmultiselect_widget>'
p5436
sS'COL'
p5437
S"<class 'gluon.html.COL'>"
p5438
sS'IS_EMAIL'
p5439
S"<class 'gluon.validators.IS_EMAIL'>"
p5440
sS'service'
p5441
S'<gluon.tools.Service object>'
p5442
sS'SCRIPT'
p5443
S"<class 'gluon.html.SCRIPT'>"
p5444
sS'DateWidget'
p5445
S"<class 'gluon.sqlhtml.DateWidget'>"
p5446
sS'TABLE'
p5447
S"<class 'gluon.html.TABLE'>"
p5448
sS'IS_IPV4'
p5449
S"<class 'gluon.validators.IS_IPV4'>"
p5450
sS'IS_LENGTH'
p5451
S"<class 'gluon.validators.IS_LENGTH'>"
p5452
sS'XML'
p5453
S"<class 'gluon.html.XML'>"
p5454
sS'B'
S"<class 'gluon.html.B'>"
p5455
sS'IMG'
p5456
S"<class 'gluon.html.IMG'>"
p5457
sS'SQLTABLE'
p5458
S"<class 'gluon.sqlhtml.SQLTABLE'>"
p5459
sS'IS_MATCH'
p5460
S"<class 'gluon.validators.IS_MATCH'>"
p5461
sS'IS_ALPHANUMERIC'
p5462
S"<class 'gluon.validators.IS_ALPHANUMERIC'>"
p5463
sS'TBODY'
p5464
S"<class 'gluon.html.TBODY'>"
p5465
sS'CAT'
p5466
S"<class 'gluon.html.CAT'>"
p5467
sS'SPAN'
p5468
S"<class 'gluon.html.SPAN'>"
p5469
sS'smart_query'
p5470
S'<function smart_query>'
p5471
sS'IS_SLUG'
p5472
S"<class 'gluon.validators.IS_SLUG'>"
p5473
sS'CLEANUP'
p5474
S"<class 'gluon.validators.CLEANUP'>"
p5475
sS'md5_hash'
p5476
S'<function md5_hash>'
p5477
sS'CALLABLETYPES'
p5478
S"(<type 'function'>, <type 'function'>, <type 'builtin_function_or_method'>, <type 'instancemethod'>, <type 'builtin_function_or_method'>)"
p5479
sS'CheckboxesWidget'
p5480
S"<class 'gluon.sqlhtml.CheckboxesWidget'>"
p5481
sS'OptionsWidget'
p5482
S"<class 'gluon.sqlhtml.OptionsWidget'>"
p5483
sS'IS_DATE'
p5484
S"<class 'gluon.validators.IS_DATE'>"
p5485
sS'safe_int'
p5486
S'<function safe_int>'
p5487
sS'IS_NOT_EMPTY'
p5488
S"<class 'gluon.validators.IS_NOT_EMPTY'>"
p5489
sS'IS_FLOAT_IN_RANGE'
p5490
S"<class 'gluon.validators.IS_FLOAT_IN_RANGE'>"
p5491
sS'AutocompleteWidget'
p5492
S"<class 'gluon.sqlhtml.AutocompleteWidget'>"
p5493
sS'BEAUTIFY'
p5494
S"<class 'gluon.html.BEAUTIFY'>"
p5495
sS'widget_class'
p5496
S'<_sre.SRE_Pattern object>'
p5497
sS'Auth'
p5498
S"<class 'gluon.tools.Auth'>"
p5499
sS'Field'
p5500
S"<class 'gluon.dal.Field'>"
p5501
sS'LEGEND'
p5502
S"<class 'gluon.html.LEGEND'>"
p5503
sS'Mail'
p5504
S"<class 'gluon.tools.Mail'>"
p5505
sS'RadioWidget'
p5506
S"<class 'gluon.sqlhtml.RadioWidget'>"
p5507
sS'DIV'
p5508
S"<class 'gluon.html.DIV'>"
p5509
sS'form_factory'
p5510
S'<function factory>'
p5511
sS'COLGROUP'
p5512
S"<class 'gluon.html.COLGROUP'>"
p5513
sS'DAL'
p5514
S"<class 'gluon.dal.DAL'>"
p5515
sS'TT'
p5516
S"<class 'gluon.html.TT'>"
p5517
sS'TR'
p5518
S"<class 'gluon.html.TR'>"
p5519
sS'TextWidget'
p5520
S"<class 'gluon.sqlhtml.TextWidget'>"
p5521
sS'TH'
p5522
S"<class 'gluon.html.TH'>"
p5523
sS'SELECT_OR_ADD_OPTION'
p5524
S"<class 'SELECT_OR_ADD_OPTION'>"
p5525
sS'TD'
p5526
S"<class 'gluon.html.TD'>"
p5527
sS'PluginManager'
p5528
S"<class 'gluon.tools.PluginManager'>"
p5529
sS'IS_URL'
p5530
S"<class 'gluon.validators.IS_URL'>"
p5531
sS'A'
S"<class 'gluon.html.A'>"
p5532
sS'HEAD'
p5533
S"<class 'gluon.html.HEAD'>"
p5534
sS'IS_DATETIME_IN_RANGE'
p5535
S"<class 'gluon.validators.IS_DATETIME_IN_RANGE'>"
p5536
sS'IS_IMAGE'
p5537
S"<class 'gluon.validators.IS_IMAGE'>"
p5538
sS'I'
S"<class 'gluon.html.I'>"
p5539
sS'crud'
p5540
S'<gluon.tools.Crud object>'
p5541
sS'IS_NOT_IN_DB'
p5542
S"<class 'gluon.validators.IS_NOT_IN_DB'>"
p5543
sS'DoubleWidget'
p5544
S"<class 'gluon.sqlhtml.DoubleWidget'>"
p5545
sS'FormWidget'
p5546
S"<class 'gluon.sqlhtml.FormWidget'>"
p5547
sg3429
S"<Storage {'body': <cStringIO.StringO object at 0...da> at 0x24c8398>, 'view': 'default/notes.html'}>"
p5548
sS'THEAD'
p5549
S"<class 'gluon.html.THEAD'>"
p5550
sS'IS_NULL_OR'
p5551
S"<class 'gluon.validators.IS_EMPTY_OR'>"
p5552
sS'TimeWidget'
p5553
S"<class 'gluon.sqlhtml.TimeWidget'>"
p5554
sS'StringWidget'
p5555
S"<class 'gluon.sqlhtml.StringWidget'>"
p5556
sg55
S"<Storage {'body': <cStringIO.StringO object at 0...cd11fad104f00e7cc'}>, 'post_vars': <Storage {}>}>"
p5557
sS'IS_EXPR'
p5558
S"<class 'gluon.validators.IS_EXPR'>"
p5559
sS'UploadWidget'
p5560
S"<class 'gluon.sqlhtml.UploadWidget'>"
p5561
sS'IS_IN_SET'
p5562
S"<class 'gluon.validators.IS_IN_SET'>"
p5563
sS'add_option'
p5564
S'<SELECT_OR_ADD_OPTION object>'
p5565
sS'IS_UPLOAD_FILENAME'
p5566
S"<class 'gluon.validators.IS_UPLOAD_FILENAME'>"
p5567
sS'MultipleOptionsWidget'
p5568
S"<class 'gluon.sqlhtml.MultipleOptionsWidget'>"
p5569
sS'cStringIO'
p5570
S"<module 'cStringIO' (built-in)>"
p5571
sS'Table'
p5572
S"<class 'gluon.dal.Table'>"
p5573
sS'IS_DECIMAL_IN_RANGE'
p5574
S"<class 'gluon.validators.IS_DECIMAL_IN_RANGE'>"
p5575
sS're'
p5576
S"<module 're' from '/usr/lib/python2.7/re.pyc'>"
p5577
sS'T'
S'<gluon.languages.translator object>'
p5578
sssS'traceback'
p5579
S'Traceback (most recent call last):\n  File "/home/ian/web2py/gluon/restricted.py", line 194, in restricted\n    exec ccode in environment\n  File "/home/ian/web2py/applications/topoi/models/topoi.py", line 17, in <module>\n    db.authors.location.widget = add.option.widget\nNameError: name \'add\' is not defined\n'
p5580
s.