(dp1
S'output'
p2
S''
sS'layer'
p3
S'/home/ian/web2py/applications/topoi/controllers/plugin_listandedit.py'
p4
sS'code'
p5
S"# coding: utf8\n# try something like\ndef list(): \n    response.files.append(URL('static', 'plugin_listandedit/plugin_listandedit.css'))\n    response.files.append(URL('static', 'plugin_listandedit/plugin_listandedit.js'))\n    #settings    \n    displayfield = ''\n    \n    tablename = request.args[0]\n    #FIXME: Hack here to solve problem of field name not being identical to table name\n    tablename = tablename + 's'\n    \n    fieldname = db[tablename].fields[1]    \n    print tablename\n        \n    rowlist = ''    \n    if not tablename in db.tables():\n        response.flash = 'error'\n    else:\n        tb = db[tablename]\n        rowlist = db(tb).select()\n    \n    listset = []\n    for r in rowlist:\n        i = A(r[fieldname], _href=URL('plugin_listandedit', 'edit.load', args=[tablename, r.id]), _class='plugin_listandedit_list', cid='viewpane')    \n        listset.append(i)\n                \n    return dict(listset = listset)\n\ndef edit():\n    tablename = request.args[0]\n    rowid = request.args[1]\n    form = crud.update(db[tablename], rowid)\n    \n    return dict(form = form)\n\nresponse._vars=response._caller(edit)\n"
p6
sS'snapshot'
p7
(dp8
S'exception'
p9
(dp10
S'__hash__'
p11
S"<method-wrapper '__hash__' of exceptions.NameError object>"
p12
sS'__setattr__'
p13
S"<method-wrapper '__setattr__' of exceptions.NameError object>"
p14
sS'__reduce_ex__'
p15
S'<built-in method __reduce_ex__ of exceptions.NameError object>'
p16
sS'__getslice__'
p17
S"<method-wrapper '__getslice__' of exceptions.NameError object>"
p18
sS'__getitem__'
p19
S"<method-wrapper '__getitem__' of exceptions.NameError object>"
p20
sS'__setstate__'
p21
S'<built-in method __setstate__ of exceptions.NameError object>'
p22
sS'args'
p23
S'("global name \'LOAD\' is not defined",)'
p24
sS'__reduce__'
p25
S'<built-in method __reduce__ of exceptions.NameError object>'
p26
sS'__str__'
p27
S"<method-wrapper '__str__' of exceptions.NameError object>"
p28
sS'__format__'
p29
S'<built-in method __format__ of exceptions.NameError object>'
p30
sS'__getattribute__'
p31
S"<method-wrapper '__getattribute__' of exceptions.NameError object>"
p32
sS'__class__'
p33
S"<type 'exceptions.NameError'>"
p34
sS'__unicode__'
p35
S'<built-in method __unicode__ of exceptions.NameError object>'
p36
sS'__delattr__'
p37
S"<method-wrapper '__delattr__' of exceptions.NameError object>"
p38
sS'__subclasshook__'
p39
S'<built-in method __subclasshook__ of type object>'
p40
sS'__repr__'
p41
S"<method-wrapper '__repr__' of exceptions.NameError object>"
p42
sS'__dict__'
p43
S'{}'
p44
sS'__sizeof__'
p45
S'<built-in method __sizeof__ of exceptions.NameError object>'
p46
sS'__doc__'
p47
S"'Name not found globally.'"
p48
sS'__init__'
p49
S"<method-wrapper '__init__' of exceptions.NameError object>"
p50
sS'__new__'
p51
S'<built-in method __new__ of type object>'
p52
ssS'evalue'
p53
S"global name 'LOAD' is not defined"
p54
sS'request'
p55
ccopy_reg
_reconstructor
p56
(cgluon.html
BEAUTIFY
p57
c__builtin__
object
p58
NtRp59
(dp60
S'attributes'
p61
(dp62
sS'components'
p63
(lp64
g56
(cgluon.html
TABLE
p65
g58
NtRp66
(dp67
g61
(dp68
S'level'
p69
I5
ssS'parent'
p70
Nsg63
(lp71
g56
(cgluon.html
TR
p72
g58
NtRp73
(dp74
g61
(dp75
sg70
g66
sg63
(lp76
g56
(cgluon.html
TD
p77
g58
NtRp78
(dp79
g61
(dp80
S'_style'
p81
S'font-weight:bold;'
p82
ssg70
g73
sg63
(lp83
S'ajax'
p84
asbag56
(g77
g58
NtRp85
(dp86
g61
(dp87
S'_valign'
p88
S'top'
p89
ssg70
g73
sg63
(lp90
S':'
asbag56
(g77
g58
NtRp91
(dp92
g61
(dp93
sg70
g73
sg63
(lp94
g56
(g57
g58
NtRp95
(dp96
g61
(dp97
g69
I5
ssg70
g91
sg63
(lp98
S'True'
p99
asbasbasbag56
(g72
g58
NtRp100
(dp101
g61
(dp102
sg70
g66
sg63
(lp103
g56
(g77
g58
NtRp104
(dp105
g61
(dp106
g81
g82
ssg70
g100
sg63
(lp107
S'application'
p108
asbag56
(g77
g58
NtRp109
(dp110
g61
(dp111
g88
g89
ssg70
g100
sg63
(lp112
S':'
asbag56
(g77
g58
NtRp113
(dp114
g61
(dp115
sg70
g100
sg63
(lp116
g56
(g57
g58
NtRp117
(dp118
g61
(dp119
g69
I5
ssg70
g113
sg63
(lp120
S'topoi'
p121
asbasbasbag56
(g72
g58
NtRp122
(dp123
g61
(dp124
sg70
g66
sg63
(lp125
g56
(g77
g58
NtRp126
(dp127
g61
(dp128
g81
g82
ssg70
g122
sg63
(lp129
g23
asbag56
(g77
g58
NtRp130
(dp131
g61
(dp132
g88
g89
ssg70
g122
sg63
(lp133
S':'
asbag56
(g77
g58
NtRp134
(dp135
g61
(dp136
sg70
g122
sg63
(lp137
g56
(g57
g58
NtRp138
(dp139
g61
(dp140
g69
I5
ssg70
g134
sg63
(lp141
g56
(g65
g58
NtRp142
(dp143
g61
(dp144
g69
I4
ssg70
Nsg63
(lp145
g56
(g72
g58
NtRp146
(dp147
g61
(dp148
sg70
g142
sg63
(lp149
g56
(g77
g58
NtRp150
(dp151
g61
(dp152
sg70
g146
sg63
(lp153
g56
(g57
g58
NtRp154
(dp155
g61
(dp156
g69
I4
ssg70
g150
sg63
(lp157
S'notes'
p158
asbasbasbag56
(g72
g58
NtRp159
(dp160
g61
(dp161
sg70
g142
sg63
(lp162
g56
(g77
g58
NtRp163
(dp164
g61
(dp165
sg70
g159
sg63
(lp166
g56
(g57
g58
NtRp167
(dp168
g61
(dp169
g69
I4
ssg70
g163
sg63
(lp170
S'1'
asbasbasbasbasbasbasbag56
(g72
g58
NtRp171
(dp172
g61
(dp173
sg70
g66
sg63
(lp174
g56
(g77
g58
NtRp175
(dp176
g61
(dp177
g81
g82
ssg70
g171
sg63
(lp178
S'body'
p179
asbag56
(g77
g58
NtRp180
(dp181
g61
(dp182
g88
g89
ssg70
g171
sg63
(lp183
S':'
asbag56
(g77
g58
NtRp184
(dp185
g61
(dp186
sg70
g171
sg63
(lp187
g56
(g57
g58
NtRp188
(dp189
g61
(dp190
g69
I5
ssg70
g184
sg63
(lp191
S'<cStringIO.StringO object at 0x3c5ce68>'
p192
asbasbasbag56
(g72
g58
NtRp193
(dp194
g61
(dp195
sg70
g66
sg63
(lp196
g56
(g77
g58
NtRp197
(dp198
g61
(dp199
g81
g82
ssg70
g193
sg63
(lp200
S'cid'
p201
asbag56
(g77
g58
NtRp202
(dp203
g61
(dp204
g88
g89
ssg70
g193
sg63
(lp205
S':'
asbag56
(g77
g58
NtRp206
(dp207
g61
(dp208
sg70
g193
sg63
(lp209
g56
(g57
g58
NtRp210
(dp211
g61
(dp212
g69
I5
ssg70
g206
sg63
(lp213
S'viewpane'
p214
asbasbasbag56
(g72
g58
NtRp215
(dp216
g61
(dp217
sg70
g66
sg63
(lp218
g56
(g77
g58
NtRp219
(dp220
g61
(dp221
g81
g82
ssg70
g215
sg63
(lp222
S'client'
p223
asbag56
(g77
g58
NtRp224
(dp225
g61
(dp226
g88
g89
ssg70
g215
sg63
(lp227
S':'
asbag56
(g77
g58
NtRp228
(dp229
g61
(dp230
sg70
g215
sg63
(lp231
g56
(g57
g58
NtRp232
(dp233
g61
(dp234
g69
I5
ssg70
g228
sg63
(lp235
S'127.0.0.1'
p236
asbasbasbag56
(g72
g58
NtRp237
(dp238
g61
(dp239
sg70
g66
sg63
(lp240
g56
(g77
g58
NtRp241
(dp242
g61
(dp243
g81
g82
ssg70
g237
sg63
(lp244
S'controller'
p245
asbag56
(g77
g58
NtRp246
(dp247
g61
(dp248
g88
g89
ssg70
g237
sg63
(lp249
S':'
asbag56
(g77
g58
NtRp250
(dp251
g61
(dp252
sg70
g237
sg63
(lp253
g56
(g57
g58
NtRp254
(dp255
g61
(dp256
g69
I5
ssg70
g250
sg63
(lp257
S'plugin_listandedit'
p258
asbasbasbag56
(g72
g58
NtRp259
(dp260
g61
(dp261
sg70
g66
sg63
(lp262
g56
(g77
g58
NtRp263
(dp264
g61
(dp265
g81
g82
ssg70
g259
sg63
(lp266
S'cookies'
p267
asbag56
(g77
g58
NtRp268
(dp269
g61
(dp270
g88
g89
ssg70
g259
sg63
(lp271
S':'
asbag56
(g77
g58
NtRp272
(dp273
g61
(dp274
sg70
g259
sg63
(lp275
g56
(g57
g58
NtRp276
(dp277
g61
(dp278
g69
I5
ssg70
g272
sg63
(lp279
g56
(g65
g58
NtRp280
(dp281
g61
(dp282
g69
I4
ssg70
Nsg63
(lp283
g56
(g72
g58
NtRp284
(dp285
g61
(dp286
sg70
g280
sg63
(lp287
g56
(g77
g58
NtRp288
(dp289
g61
(dp290
g81
g82
ssg70
g284
sg63
(lp291
S'session_id_admin'
p292
asbag56
(g77
g58
NtRp293
(dp294
g61
(dp295
g88
g89
ssg70
g284
sg63
(lp296
S':'
asbag56
(g77
g58
NtRp297
(dp298
g61
(dp299
sg70
g284
sg63
(lp300
g56
(g57
g58
NtRp301
(dp302
g61
(dp303
g69
I4
ssg70
g297
sg63
(lp304
g56
(g65
g58
NtRp305
(dp306
g61
(dp307
g69
I3
ssg70
Nsg63
(lp308
g56
(g72
g58
NtRp309
(dp310
g61
(dp311
sg70
g305
sg63
(lp312
g56
(g77
g58
NtRp313
(dp314
g61
(dp315
g81
g82
ssg70
g309
sg63
(lp316
S'comment'
p317
asbag56
(g77
g58
NtRp318
(dp319
g61
(dp320
g88
g89
ssg70
g309
sg63
(lp321
S':'
asbag56
(g77
g58
NtRp322
(dp323
g61
(dp324
sg70
g309
sg63
(lp325
g56
(g57
g58
NtRp326
(dp327
g61
(dp328
g69
I3
ssg70
g322
sg63
(lp329
S''
asbasbasbag56
(g72
g58
NtRp330
(dp331
g61
(dp332
sg70
g305
sg63
(lp333
g56
(g77
g58
NtRp334
(dp335
g61
(dp336
g81
g82
ssg70
g330
sg63
(lp337
S'domain'
p338
asbag56
(g77
g58
NtRp339
(dp340
g61
(dp341
g88
g89
ssg70
g330
sg63
(lp342
S':'
asbag56
(g77
g58
NtRp343
(dp344
g61
(dp345
sg70
g330
sg63
(lp346
g56
(g57
g58
NtRp347
(dp348
g61
(dp349
g69
I3
ssg70
g343
sg63
(lp350
S''
asbasbasbag56
(g72
g58
NtRp351
(dp352
g61
(dp353
sg70
g305
sg63
(lp354
g56
(g77
g58
NtRp355
(dp356
g61
(dp357
g81
g82
ssg70
g351
sg63
(lp358
S'expires'
p359
asbag56
(g77
g58
NtRp360
(dp361
g61
(dp362
g88
g89
ssg70
g351
sg63
(lp363
S':'
asbag56
(g77
g58
NtRp364
(dp365
g61
(dp366
sg70
g351
sg63
(lp367
g56
(g57
g58
NtRp368
(dp369
g61
(dp370
g69
I3
ssg70
g364
sg63
(lp371
S''
asbasbasbag56
(g72
g58
NtRp372
(dp373
g61
(dp374
sg70
g305
sg63
(lp375
g56
(g77
g58
NtRp376
(dp377
g61
(dp378
g81
g82
ssg70
g372
sg63
(lp379
S'httponly'
p380
asbag56
(g77
g58
NtRp381
(dp382
g61
(dp383
g88
g89
ssg70
g372
sg63
(lp384
S':'
asbag56
(g77
g58
NtRp385
(dp386
g61
(dp387
sg70
g372
sg63
(lp388
g56
(g57
g58
NtRp389
(dp390
g61
(dp391
g69
I3
ssg70
g385
sg63
(lp392
S''
asbasbasbag56
(g72
g58
NtRp393
(dp394
g61
(dp395
sg70
g305
sg63
(lp396
g56
(g77
g58
NtRp397
(dp398
g61
(dp399
g81
g82
ssg70
g393
sg63
(lp400
S'max-age'
p401
asbag56
(g77
g58
NtRp402
(dp403
g61
(dp404
g88
g89
ssg70
g393
sg63
(lp405
S':'
asbag56
(g77
g58
NtRp406
(dp407
g61
(dp408
sg70
g393
sg63
(lp409
g56
(g57
g58
NtRp410
(dp411
g61
(dp412
g69
I3
ssg70
g406
sg63
(lp413
S''
asbasbasbag56
(g72
g58
NtRp414
(dp415
g61
(dp416
sg70
g305
sg63
(lp417
g56
(g77
g58
NtRp418
(dp419
g61
(dp420
g81
g82
ssg70
g414
sg63
(lp421
S'path'
p422
asbag56
(g77
g58
NtRp423
(dp424
g61
(dp425
g88
g89
ssg70
g414
sg63
(lp426
S':'
asbag56
(g77
g58
NtRp427
(dp428
g61
(dp429
sg70
g414
sg63
(lp430
g56
(g57
g58
NtRp431
(dp432
g61
(dp433
g69
I3
ssg70
g427
sg63
(lp434
S''
asbasbasbag56
(g72
g58
NtRp435
(dp436
g61
(dp437
sg70
g305
sg63
(lp438
g56
(g77
g58
NtRp439
(dp440
g61
(dp441
g81
g82
ssg70
g435
sg63
(lp442
S'secure'
p443
asbag56
(g77
g58
NtRp444
(dp445
g61
(dp446
g88
g89
ssg70
g435
sg63
(lp447
S':'
asbag56
(g77
g58
NtRp448
(dp449
g61
(dp450
sg70
g435
sg63
(lp451
g56
(g57
g58
NtRp452
(dp453
g61
(dp454
g69
I3
ssg70
g448
sg63
(lp455
S''
asbasbasbag56
(g72
g58
NtRp456
(dp457
g61
(dp458
sg70
g305
sg63
(lp459
g56
(g77
g58
NtRp460
(dp461
g61
(dp462
g81
g82
ssg70
g456
sg63
(lp463
S'version'
p464
asbag56
(g77
g58
NtRp465
(dp466
g61
(dp467
g88
g89
ssg70
g456
sg63
(lp468
S':'
asbag56
(g77
g58
NtRp469
(dp470
g61
(dp471
sg70
g456
sg63
(lp472
g56
(g57
g58
NtRp473
(dp474
g61
(dp475
g69
I3
ssg70
g469
sg63
(lp476
S''
asbasbasbasbasbasbasbag56
(g72
g58
NtRp477
(dp478
g61
(dp479
sg70
g280
sg63
(lp480
g56
(g77
g58
NtRp481
(dp482
g61
(dp483
g81
g82
ssg70
g477
sg63
(lp484
S'session_id_topoi'
p485
asbag56
(g77
g58
NtRp486
(dp487
g61
(dp488
g88
g89
ssg70
g477
sg63
(lp489
S':'
asbag56
(g77
g58
NtRp490
(dp491
g61
(dp492
sg70
g477
sg63
(lp493
g56
(g57
g58
NtRp494
(dp495
g61
(dp496
g69
I4
ssg70
g490
sg63
(lp497
g56
(g65
g58
NtRp498
(dp499
g61
(dp500
g69
I3
ssg70
Nsg63
(lp501
g56
(g72
g58
NtRp502
(dp503
g61
(dp504
sg70
g498
sg63
(lp505
g56
(g77
g58
NtRp506
(dp507
g61
(dp508
g81
g82
ssg70
g502
sg63
(lp509
g317
asbag56
(g77
g58
NtRp510
(dp511
g61
(dp512
g88
g89
ssg70
g502
sg63
(lp513
S':'
asbag56
(g77
g58
NtRp514
(dp515
g61
(dp516
sg70
g502
sg63
(lp517
g56
(g57
g58
NtRp518
(dp519
g61
(dp520
g69
I3
ssg70
g514
sg63
(lp521
S''
asbasbasbag56
(g72
g58
NtRp522
(dp523
g61
(dp524
sg70
g498
sg63
(lp525
g56
(g77
g58
NtRp526
(dp527
g61
(dp528
g81
g82
ssg70
g522
sg63
(lp529
g338
asbag56
(g77
g58
NtRp530
(dp531
g61
(dp532
g88
g89
ssg70
g522
sg63
(lp533
S':'
asbag56
(g77
g58
NtRp534
(dp535
g61
(dp536
sg70
g522
sg63
(lp537
g56
(g57
g58
NtRp538
(dp539
g61
(dp540
g69
I3
ssg70
g534
sg63
(lp541
S''
asbasbasbag56
(g72
g58
NtRp542
(dp543
g61
(dp544
sg70
g498
sg63
(lp545
g56
(g77
g58
NtRp546
(dp547
g61
(dp548
g81
g82
ssg70
g542
sg63
(lp549
g359
asbag56
(g77
g58
NtRp550
(dp551
g61
(dp552
g88
g89
ssg70
g542
sg63
(lp553
S':'
asbag56
(g77
g58
NtRp554
(dp555
g61
(dp556
sg70
g542
sg63
(lp557
g56
(g57
g58
NtRp558
(dp559
g61
(dp560
g69
I3
ssg70
g554
sg63
(lp561
S''
asbasbasbag56
(g72
g58
NtRp562
(dp563
g61
(dp564
sg70
g498
sg63
(lp565
g56
(g77
g58
NtRp566
(dp567
g61
(dp568
g81
g82
ssg70
g562
sg63
(lp569
g380
asbag56
(g77
g58
NtRp570
(dp571
g61
(dp572
g88
g89
ssg70
g562
sg63
(lp573
S':'
asbag56
(g77
g58
NtRp574
(dp575
g61
(dp576
sg70
g562
sg63
(lp577
g56
(g57
g58
NtRp578
(dp579
g61
(dp580
g69
I3
ssg70
g574
sg63
(lp581
S''
asbasbasbag56
(g72
g58
NtRp582
(dp583
g61
(dp584
sg70
g498
sg63
(lp585
g56
(g77
g58
NtRp586
(dp587
g61
(dp588
g81
g82
ssg70
g582
sg63
(lp589
g401
asbag56
(g77
g58
NtRp590
(dp591
g61
(dp592
g88
g89
ssg70
g582
sg63
(lp593
S':'
asbag56
(g77
g58
NtRp594
(dp595
g61
(dp596
sg70
g582
sg63
(lp597
g56
(g57
g58
NtRp598
(dp599
g61
(dp600
g69
I3
ssg70
g594
sg63
(lp601
S''
asbasbasbag56
(g72
g58
NtRp602
(dp603
g61
(dp604
sg70
g498
sg63
(lp605
g56
(g77
g58
NtRp606
(dp607
g61
(dp608
g81
g82
ssg70
g602
sg63
(lp609
g422
asbag56
(g77
g58
NtRp610
(dp611
g61
(dp612
g88
g89
ssg70
g602
sg63
(lp613
S':'
asbag56
(g77
g58
NtRp614
(dp615
g61
(dp616
sg70
g602
sg63
(lp617
g56
(g57
g58
NtRp618
(dp619
g61
(dp620
g69
I3
ssg70
g614
sg63
(lp621
S''
asbasbasbag56
(g72
g58
NtRp622
(dp623
g61
(dp624
sg70
g498
sg63
(lp625
g56
(g77
g58
NtRp626
(dp627
g61
(dp628
g81
g82
ssg70
g622
sg63
(lp629
g443
asbag56
(g77
g58
NtRp630
(dp631
g61
(dp632
g88
g89
ssg70
g622
sg63
(lp633
S':'
asbag56
(g77
g58
NtRp634
(dp635
g61
(dp636
sg70
g622
sg63
(lp637
g56
(g57
g58
NtRp638
(dp639
g61
(dp640
g69
I3
ssg70
g634
sg63
(lp641
S''
asbasbasbag56
(g72
g58
NtRp642
(dp643
g61
(dp644
sg70
g498
sg63
(lp645
g56
(g77
g58
NtRp646
(dp647
g61
(dp648
g81
g82
ssg70
g642
sg63
(lp649
g464
asbag56
(g77
g58
NtRp650
(dp651
g61
(dp652
g88
g89
ssg70
g642
sg63
(lp653
S':'
asbag56
(g77
g58
NtRp654
(dp655
g61
(dp656
sg70
g642
sg63
(lp657
g56
(g57
g58
NtRp658
(dp659
g61
(dp660
g69
I3
ssg70
g654
sg63
(lp661
S''
asbasbasbasbasbasbasbag56
(g72
g58
NtRp662
(dp663
g61
(dp664
sg70
g280
sg63
(lp665
g56
(g77
g58
NtRp666
(dp667
g61
(dp668
g81
g82
ssg70
g662
sg63
(lp669
S'session_id_welcome'
p670
asbag56
(g77
g58
NtRp671
(dp672
g61
(dp673
g88
g89
ssg70
g662
sg63
(lp674
S':'
asbag56
(g77
g58
NtRp675
(dp676
g61
(dp677
sg70
g662
sg63
(lp678
g56
(g57
g58
NtRp679
(dp680
g61
(dp681
g69
I4
ssg70
g675
sg63
(lp682
g56
(g65
g58
NtRp683
(dp684
g61
(dp685
g69
I3
ssg70
Nsg63
(lp686
g56
(g72
g58
NtRp687
(dp688
g61
(dp689
sg70
g683
sg63
(lp690
g56
(g77
g58
NtRp691
(dp692
g61
(dp693
g81
g82
ssg70
g687
sg63
(lp694
g317
asbag56
(g77
g58
NtRp695
(dp696
g61
(dp697
g88
g89
ssg70
g687
sg63
(lp698
S':'
asbag56
(g77
g58
NtRp699
(dp700
g61
(dp701
sg70
g687
sg63
(lp702
g56
(g57
g58
NtRp703
(dp704
g61
(dp705
g69
I3
ssg70
g699
sg63
(lp706
S''
asbasbasbag56
(g72
g58
NtRp707
(dp708
g61
(dp709
sg70
g683
sg63
(lp710
g56
(g77
g58
NtRp711
(dp712
g61
(dp713
g81
g82
ssg70
g707
sg63
(lp714
g338
asbag56
(g77
g58
NtRp715
(dp716
g61
(dp717
g88
g89
ssg70
g707
sg63
(lp718
S':'
asbag56
(g77
g58
NtRp719
(dp720
g61
(dp721
sg70
g707
sg63
(lp722
g56
(g57
g58
NtRp723
(dp724
g61
(dp725
g69
I3
ssg70
g719
sg63
(lp726
S''
asbasbasbag56
(g72
g58
NtRp727
(dp728
g61
(dp729
sg70
g683
sg63
(lp730
g56
(g77
g58
NtRp731
(dp732
g61
(dp733
g81
g82
ssg70
g727
sg63
(lp734
g359
asbag56
(g77
g58
NtRp735
(dp736
g61
(dp737
g88
g89
ssg70
g727
sg63
(lp738
S':'
asbag56
(g77
g58
NtRp739
(dp740
g61
(dp741
sg70
g727
sg63
(lp742
g56
(g57
g58
NtRp743
(dp744
g61
(dp745
g69
I3
ssg70
g739
sg63
(lp746
S''
asbasbasbag56
(g72
g58
NtRp747
(dp748
g61
(dp749
sg70
g683
sg63
(lp750
g56
(g77
g58
NtRp751
(dp752
g61
(dp753
g81
g82
ssg70
g747
sg63
(lp754
g380
asbag56
(g77
g58
NtRp755
(dp756
g61
(dp757
g88
g89
ssg70
g747
sg63
(lp758
S':'
asbag56
(g77
g58
NtRp759
(dp760
g61
(dp761
sg70
g747
sg63
(lp762
g56
(g57
g58
NtRp763
(dp764
g61
(dp765
g69
I3
ssg70
g759
sg63
(lp766
S''
asbasbasbag56
(g72
g58
NtRp767
(dp768
g61
(dp769
sg70
g683
sg63
(lp770
g56
(g77
g58
NtRp771
(dp772
g61
(dp773
g81
g82
ssg70
g767
sg63
(lp774
g401
asbag56
(g77
g58
NtRp775
(dp776
g61
(dp777
g88
g89
ssg70
g767
sg63
(lp778
S':'
asbag56
(g77
g58
NtRp779
(dp780
g61
(dp781
sg70
g767
sg63
(lp782
g56
(g57
g58
NtRp783
(dp784
g61
(dp785
g69
I3
ssg70
g779
sg63
(lp786
S''
asbasbasbag56
(g72
g58
NtRp787
(dp788
g61
(dp789
sg70
g683
sg63
(lp790
g56
(g77
g58
NtRp791
(dp792
g61
(dp793
g81
g82
ssg70
g787
sg63
(lp794
g422
asbag56
(g77
g58
NtRp795
(dp796
g61
(dp797
g88
g89
ssg70
g787
sg63
(lp798
S':'
asbag56
(g77
g58
NtRp799
(dp800
g61
(dp801
sg70
g787
sg63
(lp802
g56
(g57
g58
NtRp803
(dp804
g61
(dp805
g69
I3
ssg70
g799
sg63
(lp806
S''
asbasbasbag56
(g72
g58
NtRp807
(dp808
g61
(dp809
sg70
g683
sg63
(lp810
g56
(g77
g58
NtRp811
(dp812
g61
(dp813
g81
g82
ssg70
g807
sg63
(lp814
g443
asbag56
(g77
g58
NtRp815
(dp816
g61
(dp817
g88
g89
ssg70
g807
sg63
(lp818
S':'
asbag56
(g77
g58
NtRp819
(dp820
g61
(dp821
sg70
g807
sg63
(lp822
g56
(g57
g58
NtRp823
(dp824
g61
(dp825
g69
I3
ssg70
g819
sg63
(lp826
S''
asbasbasbag56
(g72
g58
NtRp827
(dp828
g61
(dp829
sg70
g683
sg63
(lp830
g56
(g77
g58
NtRp831
(dp832
g61
(dp833
g81
g82
ssg70
g827
sg63
(lp834
g464
asbag56
(g77
g58
NtRp835
(dp836
g61
(dp837
g88
g89
ssg70
g827
sg63
(lp838
S':'
asbag56
(g77
g58
NtRp839
(dp840
g61
(dp841
sg70
g827
sg63
(lp842
g56
(g57
g58
NtRp843
(dp844
g61
(dp845
g69
I3
ssg70
g839
sg63
(lp846
S''
asbasbasbasbasbasbasbasbasbasbasbag56
(g72
g58
NtRp847
(dp848
g61
(dp849
sg70
g66
sg63
(lp850
g56
(g77
g58
NtRp851
(dp852
g61
(dp853
g81
g82
ssg70
g847
sg63
(lp854
S'env'
p855
asbag56
(g77
g58
NtRp856
(dp857
g61
(dp858
g88
g89
ssg70
g847
sg63
(lp859
S':'
asbag56
(g77
g58
NtRp860
(dp861
g61
(dp862
sg70
g847
sg63
(lp863
g56
(g57
g58
NtRp864
(dp865
g61
(dp866
g69
I5
ssg70
g860
sg63
(lp867
g56
(g65
g58
NtRp868
(dp869
g61
(dp870
g69
I4
ssg70
Nsg63
(lp871
g56
(g72
g58
NtRp872
(dp873
g61
(dp874
sg70
g868
sg63
(lp875
g56
(g77
g58
NtRp876
(dp877
g61
(dp878
g81
g82
ssg70
g872
sg63
(lp879
S'app_folders'
p880
asbag56
(g77
g58
NtRp881
(dp882
g61
(dp883
g88
g89
ssg70
g872
sg63
(lp884
S':'
asbag56
(g77
g58
NtRp885
(dp886
g61
(dp887
sg70
g872
sg63
(lp888
g56
(g57
g58
NtRp889
(dp890
g61
(dp891
g69
I4
ssg70
g885
sg63
(lp892
S"set(['/home/ian/web2py/applications/topoi/', '/home/ian/web2py/applications/welcome/', '/home/ian/web2py/applications/admin/'])"
p893
asbasbasbag56
(g72
g58
NtRp894
(dp895
g61
(dp896
sg70
g868
sg63
(lp897
g56
(g77
g58
NtRp898
(dp899
g61
(dp900
g81
g82
ssg70
g894
sg63
(lp901
S'applications_parent'
p902
asbag56
(g77
g58
NtRp903
(dp904
g61
(dp905
g88
g89
ssg70
g894
sg63
(lp906
S':'
asbag56
(g77
g58
NtRp907
(dp908
g61
(dp909
sg70
g894
sg63
(lp910
g56
(g57
g58
NtRp911
(dp912
g61
(dp913
g69
I4
ssg70
g907
sg63
(lp914
S'/home/ian/web2py'
p915
asbasbasbag56
(g72
g58
NtRp916
(dp917
g61
(dp918
sg70
g868
sg63
(lp919
g56
(g77
g58
NtRp920
(dp921
g61
(dp922
g81
g82
ssg70
g916
sg63
(lp923
S'cmd_args'
p924
asbag56
(g77
g58
NtRp925
(dp926
g61
(dp927
g88
g89
ssg70
g916
sg63
(lp928
S':'
asbag56
(g77
g58
NtRp929
(dp930
g61
(dp931
sg70
g916
sg63
(lp932
g56
(g57
g58
NtRp933
(dp934
g61
(dp935
g69
I4
ssg70
g929
sg63
(lp936
g56
(g65
g58
NtRp937
(dp938
g61
(dp939
g69
I3
ssg70
Nsg63
(lp940
sbasbasbasbag56
(g72
g58
NtRp941
(dp942
g61
(dp943
sg70
g868
sg63
(lp944
g56
(g77
g58
NtRp945
(dp946
g61
(dp947
g81
g82
ssg70
g941
sg63
(lp948
S'cmd_options'
p949
asbag56
(g77
g58
NtRp950
(dp951
g61
(dp952
g88
g89
ssg70
g941
sg63
(lp953
S':'
asbag56
(g77
g58
NtRp954
(dp955
g61
(dp956
sg70
g941
sg63
(lp957
g56
(g57
g58
NtRp958
(dp959
g61
(dp960
g69
I4
ssg70
g954
sg63
(lp961
S"<Values at 0x23c17e8: {'verbose': False, 'ip': '127.0.0.1', 'shutdown_timeout': 5, 'taskbar': False, 'nocron': False, 'pid_filename': 'httpserver.pid', 'maxthreads': None, 'softcron': False, 'server_name': 'Ariel-ubuntu', 'bpython': False, 'nogui': False, 'port': 8000, 'extcron': False, 'debuglevel': 30, 'test': None, 'folder': '/home/ian/web2py', 'config': '', 'import_models': False, 'winservice': '', 'shell': None, 'run': '', 'log_filename': 'httpserver.log', 'args': [''], 'ssl_ca_certificate': None, 'scheduler': None, 'profiler_filename': None, 'ssl_private_key': '', 'password': '<ask>', 'request_queue_size': 5, 'ssl_certificate': '', 'cronjob': False, 'plain': False, 'quiet': False, 'interfaces': None, 'minthreads': None, 'timeout': 10, 'numthreads': None, 'nobanner': False}>"
p962
asbasbasbag56
(g72
g58
NtRp963
(dp964
g61
(dp965
sg70
g868
sg63
(lp966
g56
(g77
g58
NtRp967
(dp968
g61
(dp969
g81
g82
ssg70
g963
sg63
(lp970
S'db_sessions'
p971
asbag56
(g77
g58
NtRp972
(dp973
g61
(dp974
g88
g89
ssg70
g963
sg63
(lp975
S':'
asbag56
(g77
g58
NtRp976
(dp977
g61
(dp978
sg70
g963
sg63
(lp979
g56
(g57
g58
NtRp980
(dp981
g61
(dp982
g69
I4
ssg70
g976
sg63
(lp983
S'set([])'
p984
asbasbasbag56
(g72
g58
NtRp985
(dp986
g61
(dp987
sg70
g868
sg63
(lp988
g56
(g77
g58
NtRp989
(dp990
g61
(dp991
g81
g82
ssg70
g985
sg63
(lp992
S'debugging'
p993
asbag56
(g77
g58
NtRp994
(dp995
g61
(dp996
g88
g89
ssg70
g985
sg63
(lp997
S':'
asbag56
(g77
g58
NtRp998
(dp999
g61
(dp1000
sg70
g985
sg63
(lp1001
g56
(g57
g58
NtRp1002
(dp1003
g61
(dp1004
g69
I4
ssg70
g998
sg63
(lp1005
S'False'
p1006
asbasbasbag56
(g72
g58
NtRp1007
(dp1008
g61
(dp1009
sg70
g868
sg63
(lp1010
g56
(g77
g58
NtRp1011
(dp1012
g61
(dp1013
g81
g82
ssg70
g1007
sg63
(lp1014
S'gluon_parent'
p1015
asbag56
(g77
g58
NtRp1016
(dp1017
g61
(dp1018
g88
g89
ssg70
g1007
sg63
(lp1019
S':'
asbag56
(g77
g58
NtRp1020
(dp1021
g61
(dp1022
sg70
g1007
sg63
(lp1023
g56
(g57
g58
NtRp1024
(dp1025
g61
(dp1026
g69
I4
ssg70
g1020
sg63
(lp1027
S'/home/ian/web2py'
p1028
asbasbasbag56
(g72
g58
NtRp1029
(dp1030
g61
(dp1031
sg70
g868
sg63
(lp1032
g56
(g77
g58
NtRp1033
(dp1034
g61
(dp1035
g81
g82
ssg70
g1029
sg63
(lp1036
S'http_accept'
p1037
asbag56
(g77
g58
NtRp1038
(dp1039
g61
(dp1040
g88
g89
ssg70
g1029
sg63
(lp1041
S':'
asbag56
(g77
g58
NtRp1042
(dp1043
g61
(dp1044
sg70
g1029
sg63
(lp1045
g56
(g57
g58
NtRp1046
(dp1047
g61
(dp1048
g69
I4
ssg70
g1042
sg63
(lp1049
S'*/*'
p1050
asbasbasbag56
(g72
g58
NtRp1051
(dp1052
g61
(dp1053
sg70
g868
sg63
(lp1054
g56
(g77
g58
NtRp1055
(dp1056
g61
(dp1057
g81
g82
ssg70
g1051
sg63
(lp1058
S'http_accept_charset'
p1059
asbag56
(g77
g58
NtRp1060
(dp1061
g61
(dp1062
g88
g89
ssg70
g1051
sg63
(lp1063
S':'
asbag56
(g77
g58
NtRp1064
(dp1065
g61
(dp1066
sg70
g1051
sg63
(lp1067
g56
(g57
g58
NtRp1068
(dp1069
g61
(dp1070
g69
I4
ssg70
g1064
sg63
(lp1071
S'ISO-8859-1,utf-8;q=0.7,*;q=0.7'
p1072
asbasbasbag56
(g72
g58
NtRp1073
(dp1074
g61
(dp1075
sg70
g868
sg63
(lp1076
g56
(g77
g58
NtRp1077
(dp1078
g61
(dp1079
g81
g82
ssg70
g1073
sg63
(lp1080
S'http_accept_encoding'
p1081
asbag56
(g77
g58
NtRp1082
(dp1083
g61
(dp1084
g88
g89
ssg70
g1073
sg63
(lp1085
S':'
asbag56
(g77
g58
NtRp1086
(dp1087
g61
(dp1088
sg70
g1073
sg63
(lp1089
g56
(g57
g58
NtRp1090
(dp1091
g61
(dp1092
g69
I4
ssg70
g1086
sg63
(lp1093
S'gzip, deflate'
p1094
asbasbasbag56
(g72
g58
NtRp1095
(dp1096
g61
(dp1097
sg70
g868
sg63
(lp1098
g56
(g77
g58
NtRp1099
(dp1100
g61
(dp1101
g81
g82
ssg70
g1095
sg63
(lp1102
S'http_accept_language'
p1103
asbag56
(g77
g58
NtRp1104
(dp1105
g61
(dp1106
g88
g89
ssg70
g1095
sg63
(lp1107
S':'
asbag56
(g77
g58
NtRp1108
(dp1109
g61
(dp1110
sg70
g1095
sg63
(lp1111
g56
(g57
g58
NtRp1112
(dp1113
g61
(dp1114
g69
I4
ssg70
g1108
sg63
(lp1115
S'en-us,en;q=0.5'
p1116
asbasbasbag56
(g72
g58
NtRp1117
(dp1118
g61
(dp1119
sg70
g868
sg63
(lp1120
g56
(g77
g58
NtRp1121
(dp1122
g61
(dp1123
g81
g82
ssg70
g1117
sg63
(lp1124
S'http_connection'
p1125
asbag56
(g77
g58
NtRp1126
(dp1127
g61
(dp1128
g88
g89
ssg70
g1117
sg63
(lp1129
S':'
asbag56
(g77
g58
NtRp1130
(dp1131
g61
(dp1132
sg70
g1117
sg63
(lp1133
g56
(g57
g58
NtRp1134
(dp1135
g61
(dp1136
g69
I4
ssg70
g1130
sg63
(lp1137
S'keep-alive'
p1138
asbasbasbag56
(g72
g58
NtRp1139
(dp1140
g61
(dp1141
sg70
g868
sg63
(lp1142
g56
(g77
g58
NtRp1143
(dp1144
g61
(dp1145
g81
g82
ssg70
g1139
sg63
(lp1146
S'http_cookie'
p1147
asbag56
(g77
g58
NtRp1148
(dp1149
g61
(dp1150
g88
g89
ssg70
g1139
sg63
(lp1151
S':'
asbag56
(g77
g58
NtRp1152
(dp1153
g61
(dp1154
sg70
g1139
sg63
(lp1155
g56
(g57
g58
NtRp1156
(dp1157
g61
(dp1158
g69
I4
ssg70
g1152
sg63
(lp1159
S'__utma_a2a=9789918665.1351576430.1320019504.1320019504.1320019504.1; session_id_welcome=127.0.0.1-c099ee82-154f-4f22-875b-8209dcd26d13; session_id_topoi=127.0.0.1-f0efcb76-3b86-48f1-96a5-832049053a3b; session_id_admin=127.0.0.1-7f2e3fc8-1364-4dfb-b356-76e4726e60da'
p1160
asbasbasbag56
(g72
g58
NtRp1161
(dp1162
g61
(dp1163
sg70
g868
sg63
(lp1164
g56
(g77
g58
NtRp1165
(dp1166
g61
(dp1167
g81
g82
ssg70
g1161
sg63
(lp1168
S'http_host'
p1169
asbag56
(g77
g58
NtRp1170
(dp1171
g61
(dp1172
g88
g89
ssg70
g1161
sg63
(lp1173
S':'
asbag56
(g77
g58
NtRp1174
(dp1175
g61
(dp1176
sg70
g1161
sg63
(lp1177
g56
(g57
g58
NtRp1178
(dp1179
g61
(dp1180
g69
I4
ssg70
g1174
sg63
(lp1181
S'127.0.0.1:8000'
p1182
asbasbasbag56
(g72
g58
NtRp1183
(dp1184
g61
(dp1185
sg70
g868
sg63
(lp1186
g56
(g77
g58
NtRp1187
(dp1188
g61
(dp1189
g81
g82
ssg70
g1183
sg63
(lp1190
S'http_referer'
p1191
asbag56
(g77
g58
NtRp1192
(dp1193
g61
(dp1194
g88
g89
ssg70
g1183
sg63
(lp1195
S':'
asbag56
(g77
g58
NtRp1196
(dp1197
g61
(dp1198
sg70
g1183
sg63
(lp1199
g56
(g57
g58
NtRp1200
(dp1201
g61
(dp1202
g69
I4
ssg70
g1196
sg63
(lp1203
S'http://127.0.0.1:8000/topoi/plugin_listandedit/list/note/1'
p1204
asbasbasbag56
(g72
g58
NtRp1205
(dp1206
g61
(dp1207
sg70
g868
sg63
(lp1208
g56
(g77
g58
NtRp1209
(dp1210
g61
(dp1211
g81
g82
ssg70
g1205
sg63
(lp1212
S'http_user_agent'
p1213
asbag56
(g77
g58
NtRp1214
(dp1215
g61
(dp1216
g88
g89
ssg70
g1205
sg63
(lp1217
S':'
asbag56
(g77
g58
NtRp1218
(dp1219
g61
(dp1220
sg70
g1205
sg63
(lp1221
g56
(g57
g58
NtRp1222
(dp1223
g61
(dp1224
g69
I4
ssg70
g1218
sg63
(lp1225
S'Mozilla/5.0 (Ubuntu; X11; Linux x86_64; rv:8.0) Gecko/20100101 Firefox/8.0 FirePHP/0.6'
p1226
asbasbasbag56
(g72
g58
NtRp1227
(dp1228
g61
(dp1229
sg70
g868
sg63
(lp1230
g56
(g77
g58
NtRp1231
(dp1232
g61
(dp1233
g81
g82
ssg70
g1227
sg63
(lp1234
S'http_web2py_component_element'
p1235
asbag56
(g77
g58
NtRp1236
(dp1237
g61
(dp1238
g88
g89
ssg70
g1227
sg63
(lp1239
S':'
asbag56
(g77
g58
NtRp1240
(dp1241
g61
(dp1242
sg70
g1227
sg63
(lp1243
g56
(g57
g58
NtRp1244
(dp1245
g61
(dp1246
g69
I4
ssg70
g1240
sg63
(lp1247
g214
asbasbasbag56
(g72
g58
NtRp1248
(dp1249
g61
(dp1250
sg70
g868
sg63
(lp1251
g56
(g77
g58
NtRp1252
(dp1253
g61
(dp1254
g81
g82
ssg70
g1248
sg63
(lp1255
S'http_web2py_component_location'
p1256
asbag56
(g77
g58
NtRp1257
(dp1258
g61
(dp1259
g88
g89
ssg70
g1248
sg63
(lp1260
S':'
asbag56
(g77
g58
NtRp1261
(dp1262
g61
(dp1263
sg70
g1248
sg63
(lp1264
g56
(g57
g58
NtRp1265
(dp1266
g61
(dp1267
g69
I4
ssg70
g1261
sg63
(lp1268
S'http://127.0.0.1:8000/topoi/plugin_listandedit/list/note/1'
p1269
asbasbasbag56
(g72
g58
NtRp1270
(dp1271
g61
(dp1272
sg70
g868
sg63
(lp1273
g56
(g77
g58
NtRp1274
(dp1275
g61
(dp1276
g81
g82
ssg70
g1270
sg63
(lp1277
S'http_x_insight'
p1278
asbag56
(g77
g58
NtRp1279
(dp1280
g61
(dp1281
g88
g89
ssg70
g1270
sg63
(lp1282
S':'
asbag56
(g77
g58
NtRp1283
(dp1284
g61
(dp1285
sg70
g1270
sg63
(lp1286
g56
(g57
g58
NtRp1287
(dp1288
g61
(dp1289
g69
I4
ssg70
g1283
sg63
(lp1290
S'activate'
p1291
asbasbasbag56
(g72
g58
NtRp1292
(dp1293
g61
(dp1294
sg70
g868
sg63
(lp1295
g56
(g77
g58
NtRp1296
(dp1297
g61
(dp1298
g81
g82
ssg70
g1292
sg63
(lp1299
S'http_x_requested_with'
p1300
asbag56
(g77
g58
NtRp1301
(dp1302
g61
(dp1303
g88
g89
ssg70
g1292
sg63
(lp1304
S':'
asbag56
(g77
g58
NtRp1305
(dp1306
g61
(dp1307
sg70
g1292
sg63
(lp1308
g56
(g57
g58
NtRp1309
(dp1310
g61
(dp1311
g69
I4
ssg70
g1305
sg63
(lp1312
S'XMLHttpRequest'
p1313
asbasbasbag56
(g72
g58
NtRp1314
(dp1315
g61
(dp1316
sg70
g868
sg63
(lp1317
g56
(g77
g58
NtRp1318
(dp1319
g61
(dp1320
g81
g82
ssg70
g1314
sg63
(lp1321
S'is_jython'
p1322
asbag56
(g77
g58
NtRp1323
(dp1324
g61
(dp1325
g88
g89
ssg70
g1314
sg63
(lp1326
S':'
asbag56
(g77
g58
NtRp1327
(dp1328
g61
(dp1329
sg70
g1314
sg63
(lp1330
g56
(g57
g58
NtRp1331
(dp1332
g61
(dp1333
g69
I4
ssg70
g1327
sg63
(lp1334
g1006
asbasbasbag56
(g72
g58
NtRp1335
(dp1336
g61
(dp1337
sg70
g868
sg63
(lp1338
g56
(g77
g58
NtRp1339
(dp1340
g61
(dp1341
g81
g82
ssg70
g1335
sg63
(lp1342
S'path_info'
p1343
asbag56
(g77
g58
NtRp1344
(dp1345
g61
(dp1346
g88
g89
ssg70
g1335
sg63
(lp1347
S':'
asbag56
(g77
g58
NtRp1348
(dp1349
g61
(dp1350
sg70
g1335
sg63
(lp1351
g56
(g57
g58
NtRp1352
(dp1353
g61
(dp1354
g69
I4
ssg70
g1348
sg63
(lp1355
S'/topoi/plugin_listandedit/edit.load/notes/1'
p1356
asbasbasbag56
(g72
g58
NtRp1357
(dp1358
g61
(dp1359
sg70
g868
sg63
(lp1360
g56
(g77
g58
NtRp1361
(dp1362
g61
(dp1363
g81
g82
ssg70
g1357
sg63
(lp1364
S'query_string'
p1365
asbag56
(g77
g58
NtRp1366
(dp1367
g61
(dp1368
g88
g89
ssg70
g1357
sg63
(lp1369
S':'
asbag56
(g77
g58
NtRp1370
(dp1371
g61
(dp1372
sg70
g1357
sg63
(lp1373
g56
(g57
g58
NtRp1374
(dp1375
g61
(dp1376
g69
I4
ssg70
g1370
sg63
(lp1377
S''
asbasbasbag56
(g72
g58
NtRp1378
(dp1379
g61
(dp1380
sg70
g868
sg63
(lp1381
g56
(g77
g58
NtRp1382
(dp1383
g61
(dp1384
g81
g82
ssg70
g1378
sg63
(lp1385
S'remote_addr'
p1386
asbag56
(g77
g58
NtRp1387
(dp1388
g61
(dp1389
g88
g89
ssg70
g1378
sg63
(lp1390
S':'
asbag56
(g77
g58
NtRp1391
(dp1392
g61
(dp1393
sg70
g1378
sg63
(lp1394
g56
(g57
g58
NtRp1395
(dp1396
g61
(dp1397
g69
I4
ssg70
g1391
sg63
(lp1398
g236
asbasbasbag56
(g72
g58
NtRp1399
(dp1400
g61
(dp1401
sg70
g868
sg63
(lp1402
g56
(g77
g58
NtRp1403
(dp1404
g61
(dp1405
g81
g82
ssg70
g1399
sg63
(lp1406
S'remote_port'
p1407
asbag56
(g77
g58
NtRp1408
(dp1409
g61
(dp1410
g88
g89
ssg70
g1399
sg63
(lp1411
S':'
asbag56
(g77
g58
NtRp1412
(dp1413
g61
(dp1414
sg70
g1399
sg63
(lp1415
g56
(g57
g58
NtRp1416
(dp1417
g61
(dp1418
g69
I4
ssg70
g1412
sg63
(lp1419
S'54166'
p1420
asbasbasbag56
(g72
g58
NtRp1421
(dp1422
g61
(dp1423
sg70
g868
sg63
(lp1424
g56
(g77
g58
NtRp1425
(dp1426
g61
(dp1427
g81
g82
ssg70
g1421
sg63
(lp1428
S'request_method'
p1429
asbag56
(g77
g58
NtRp1430
(dp1431
g61
(dp1432
g88
g89
ssg70
g1421
sg63
(lp1433
S':'
asbag56
(g77
g58
NtRp1434
(dp1435
g61
(dp1436
sg70
g1421
sg63
(lp1437
g56
(g57
g58
NtRp1438
(dp1439
g61
(dp1440
g69
I4
ssg70
g1434
sg63
(lp1441
S'GET'
p1442
asbasbasbag56
(g72
g58
NtRp1443
(dp1444
g61
(dp1445
sg70
g868
sg63
(lp1446
g56
(g77
g58
NtRp1447
(dp1448
g61
(dp1449
g81
g82
ssg70
g1443
sg63
(lp1450
S'script_name'
p1451
asbag56
(g77
g58
NtRp1452
(dp1453
g61
(dp1454
g88
g89
ssg70
g1443
sg63
(lp1455
S':'
asbag56
(g77
g58
NtRp1456
(dp1457
g61
(dp1458
sg70
g1443
sg63
(lp1459
g56
(g57
g58
NtRp1460
(dp1461
g61
(dp1462
g69
I4
ssg70
g1456
sg63
(lp1463
S''
asbasbasbag56
(g72
g58
NtRp1464
(dp1465
g61
(dp1466
sg70
g868
sg63
(lp1467
g56
(g77
g58
NtRp1468
(dp1469
g61
(dp1470
g81
g82
ssg70
g1464
sg63
(lp1471
S'server_name'
p1472
asbag56
(g77
g58
NtRp1473
(dp1474
g61
(dp1475
g88
g89
ssg70
g1464
sg63
(lp1476
S':'
asbag56
(g77
g58
NtRp1477
(dp1478
g61
(dp1479
sg70
g1464
sg63
(lp1480
g56
(g57
g58
NtRp1481
(dp1482
g61
(dp1483
g69
I4
ssg70
g1477
sg63
(lp1484
S'Ariel-ubuntu'
p1485
asbasbasbag56
(g72
g58
NtRp1486
(dp1487
g61
(dp1488
sg70
g868
sg63
(lp1489
g56
(g77
g58
NtRp1490
(dp1491
g61
(dp1492
g81
g82
ssg70
g1486
sg63
(lp1493
S'server_port'
p1494
asbag56
(g77
g58
NtRp1495
(dp1496
g61
(dp1497
g88
g89
ssg70
g1486
sg63
(lp1498
S':'
asbag56
(g77
g58
NtRp1499
(dp1500
g61
(dp1501
sg70
g1486
sg63
(lp1502
g56
(g57
g58
NtRp1503
(dp1504
g61
(dp1505
g69
I4
ssg70
g1499
sg63
(lp1506
S'8000'
p1507
asbasbasbag56
(g72
g58
NtRp1508
(dp1509
g61
(dp1510
sg70
g868
sg63
(lp1511
g56
(g77
g58
NtRp1512
(dp1513
g61
(dp1514
g81
g82
ssg70
g1508
sg63
(lp1515
S'server_protocol'
p1516
asbag56
(g77
g58
NtRp1517
(dp1518
g61
(dp1519
g88
g89
ssg70
g1508
sg63
(lp1520
S':'
asbag56
(g77
g58
NtRp1521
(dp1522
g61
(dp1523
sg70
g1508
sg63
(lp1524
g56
(g57
g58
NtRp1525
(dp1526
g61
(dp1527
g69
I4
ssg70
g1521
sg63
(lp1528
S'HTTP/1.1'
p1529
asbasbasbag56
(g72
g58
NtRp1530
(dp1531
g61
(dp1532
sg70
g868
sg63
(lp1533
g56
(g77
g58
NtRp1534
(dp1535
g61
(dp1536
g81
g82
ssg70
g1530
sg63
(lp1537
S'server_software'
p1538
asbag56
(g77
g58
NtRp1539
(dp1540
g61
(dp1541
g88
g89
ssg70
g1530
sg63
(lp1542
S':'
asbag56
(g77
g58
NtRp1543
(dp1544
g61
(dp1545
sg70
g1530
sg63
(lp1546
g56
(g57
g58
NtRp1547
(dp1548
g61
(dp1549
g69
I4
ssg70
g1543
sg63
(lp1550
S'Rocket 1.2.4'
p1551
asbasbasbag56
(g72
g58
NtRp1552
(dp1553
g61
(dp1554
sg70
g868
sg63
(lp1555
g56
(g77
g58
NtRp1556
(dp1557
g61
(dp1558
g81
g82
ssg70
g1552
sg63
(lp1559
S'web2py_crontype'
p1560
asbag56
(g77
g58
NtRp1561
(dp1562
g61
(dp1563
g88
g89
ssg70
g1552
sg63
(lp1564
S':'
asbag56
(g77
g58
NtRp1565
(dp1566
g61
(dp1567
sg70
g1552
sg63
(lp1568
g56
(g57
g58
NtRp1569
(dp1570
g61
(dp1571
g69
I4
ssg70
g1565
sg63
(lp1572
S'hard'
p1573
asbasbasbag56
(g72
g58
NtRp1574
(dp1575
g61
(dp1576
sg70
g868
sg63
(lp1577
g56
(g77
g58
NtRp1578
(dp1579
g61
(dp1580
g81
g82
ssg70
g1574
sg63
(lp1581
S'web2py_path'
p1582
asbag56
(g77
g58
NtRp1583
(dp1584
g61
(dp1585
g88
g89
ssg70
g1574
sg63
(lp1586
S':'
asbag56
(g77
g58
NtRp1587
(dp1588
g61
(dp1589
sg70
g1574
sg63
(lp1590
g56
(g57
g58
NtRp1591
(dp1592
g61
(dp1593
g69
I4
ssg70
g1587
sg63
(lp1594
g915
asbasbasbag56
(g72
g58
NtRp1595
(dp1596
g61
(dp1597
sg70
g868
sg63
(lp1598
g56
(g77
g58
NtRp1599
(dp1600
g61
(dp1601
g81
g82
ssg70
g1595
sg63
(lp1602
S'web2py_version'
p1603
asbag56
(g77
g58
NtRp1604
(dp1605
g61
(dp1606
g88
g89
ssg70
g1595
sg63
(lp1607
S':'
asbag56
(g77
g58
NtRp1608
(dp1609
g61
(dp1610
sg70
g1595
sg63
(lp1611
g56
(g57
g58
NtRp1612
(dp1613
g61
(dp1614
g69
I4
ssg70
g1608
sg63
(lp1615
g56
(g65
g58
NtRp1616
(dp1617
g61
(dp1618
g69
I3
ssg70
Nsg63
(lp1619
g56
(g72
g58
NtRp1620
(dp1621
g61
(dp1622
sg70
g1616
sg63
(lp1623
g56
(g77
g58
NtRp1624
(dp1625
g61
(dp1626
sg70
g1620
sg63
(lp1627
g56
(g57
g58
NtRp1628
(dp1629
g61
(dp1630
g69
I3
ssg70
g1624
sg63
(lp1631
S'1'
asbasbasbag56
(g72
g58
NtRp1632
(dp1633
g61
(dp1634
sg70
g1616
sg63
(lp1635
g56
(g77
g58
NtRp1636
(dp1637
g61
(dp1638
sg70
g1632
sg63
(lp1639
g56
(g57
g58
NtRp1640
(dp1641
g61
(dp1642
g69
I3
ssg70
g1636
sg63
(lp1643
S'99'
p1644
asbasbasbag56
(g72
g58
NtRp1645
(dp1646
g61
(dp1647
sg70
g1616
sg63
(lp1648
g56
(g77
g58
NtRp1649
(dp1650
g61
(dp1651
sg70
g1645
sg63
(lp1652
g56
(g57
g58
NtRp1653
(dp1654
g61
(dp1655
g69
I3
ssg70
g1649
sg63
(lp1656
S'2'
asbasbasbag56
(g72
g58
NtRp1657
(dp1658
g61
(dp1659
sg70
g1616
sg63
(lp1660
g56
(g77
g58
NtRp1661
(dp1662
g61
(dp1663
sg70
g1657
sg63
(lp1664
g56
(g57
g58
NtRp1665
(dp1666
g61
(dp1667
g69
I3
ssg70
g1661
sg63
(lp1668
S'datetime.datetime(2011, 9, 26, 6, 55, 33)'
p1669
asbasbasbag56
(g72
g58
NtRp1670
(dp1671
g61
(dp1672
sg70
g1616
sg63
(lp1673
g56
(g77
g58
NtRp1674
(dp1675
g61
(dp1676
sg70
g1670
sg63
(lp1677
g56
(g57
g58
NtRp1678
(dp1679
g61
(dp1680
g69
I3
ssg70
g1674
sg63
(lp1681
S'stable'
p1682
asbasbasbasbasbasbasbag56
(g72
g58
NtRp1683
(dp1684
g61
(dp1685
sg70
g868
sg63
(lp1686
g56
(g77
g58
NtRp1687
(dp1688
g61
(dp1689
g81
g82
ssg70
g1683
sg63
(lp1690
S'wsgi_errors'
p1691
asbag56
(g77
g58
NtRp1692
(dp1693
g61
(dp1694
g88
g89
ssg70
g1683
sg63
(lp1695
S':'
asbag56
(g77
g58
NtRp1696
(dp1697
g61
(dp1698
sg70
g1683
sg63
(lp1699
g56
(g57
g58
NtRp1700
(dp1701
g61
(dp1702
g69
I4
ssg70
g1696
sg63
(lp1703
S"<open file '<stderr>', mode 'w' at 0x7ffcfbcc0270>"
p1704
asbasbasbag56
(g72
g58
NtRp1705
(dp1706
g61
(dp1707
sg70
g868
sg63
(lp1708
g56
(g77
g58
NtRp1709
(dp1710
g61
(dp1711
g81
g82
ssg70
g1705
sg63
(lp1712
S'wsgi_file_wrapper'
p1713
asbag56
(g77
g58
NtRp1714
(dp1715
g61
(dp1716
g88
g89
ssg70
g1705
sg63
(lp1717
S':'
asbag56
(g77
g58
NtRp1718
(dp1719
g61
(dp1720
sg70
g1705
sg63
(lp1721
g56
(g57
g58
NtRp1722
(dp1723
g61
(dp1724
g69
I4
ssg70
g1718
sg63
(lp1725
S'<class wsgiref.util.FileWrapper at 0x228a808>'
p1726
asbasbasbag56
(g72
g58
NtRp1727
(dp1728
g61
(dp1729
sg70
g868
sg63
(lp1730
g56
(g77
g58
NtRp1731
(dp1732
g61
(dp1733
g81
g82
ssg70
g1727
sg63
(lp1734
S'wsgi_input'
p1735
asbag56
(g77
g58
NtRp1736
(dp1737
g61
(dp1738
g88
g89
ssg70
g1727
sg63
(lp1739
S':'
asbag56
(g77
g58
NtRp1740
(dp1741
g61
(dp1742
sg70
g1727
sg63
(lp1743
g56
(g57
g58
NtRp1744
(dp1745
g61
(dp1746
g69
I4
ssg70
g1740
sg63
(lp1747
S'<socket._fileobject object at 0x3a14ad0>'
p1748
asbasbasbag56
(g72
g58
NtRp1749
(dp1750
g61
(dp1751
sg70
g868
sg63
(lp1752
g56
(g77
g58
NtRp1753
(dp1754
g61
(dp1755
g81
g82
ssg70
g1749
sg63
(lp1756
S'wsgi_multiprocess'
p1757
asbag56
(g77
g58
NtRp1758
(dp1759
g61
(dp1760
g88
g89
ssg70
g1749
sg63
(lp1761
S':'
asbag56
(g77
g58
NtRp1762
(dp1763
g61
(dp1764
sg70
g1749
sg63
(lp1765
g56
(g57
g58
NtRp1766
(dp1767
g61
(dp1768
g69
I4
ssg70
g1762
sg63
(lp1769
g1006
asbasbasbag56
(g72
g58
NtRp1770
(dp1771
g61
(dp1772
sg70
g868
sg63
(lp1773
g56
(g77
g58
NtRp1774
(dp1775
g61
(dp1776
g81
g82
ssg70
g1770
sg63
(lp1777
S'wsgi_multithread'
p1778
asbag56
(g77
g58
NtRp1779
(dp1780
g61
(dp1781
g88
g89
ssg70
g1770
sg63
(lp1782
S':'
asbag56
(g77
g58
NtRp1783
(dp1784
g61
(dp1785
sg70
g1770
sg63
(lp1786
g56
(g57
g58
NtRp1787
(dp1788
g61
(dp1789
g69
I4
ssg70
g1783
sg63
(lp1790
g99
asbasbasbag56
(g72
g58
NtRp1791
(dp1792
g61
(dp1793
sg70
g868
sg63
(lp1794
g56
(g77
g58
NtRp1795
(dp1796
g61
(dp1797
g81
g82
ssg70
g1791
sg63
(lp1798
S'wsgi_run_once'
p1799
asbag56
(g77
g58
NtRp1800
(dp1801
g61
(dp1802
g88
g89
ssg70
g1791
sg63
(lp1803
S':'
asbag56
(g77
g58
NtRp1804
(dp1805
g61
(dp1806
sg70
g1791
sg63
(lp1807
g56
(g57
g58
NtRp1808
(dp1809
g61
(dp1810
g69
I4
ssg70
g1804
sg63
(lp1811
g1006
asbasbasbag56
(g72
g58
NtRp1812
(dp1813
g61
(dp1814
sg70
g868
sg63
(lp1815
g56
(g77
g58
NtRp1816
(dp1817
g61
(dp1818
g81
g82
ssg70
g1812
sg63
(lp1819
S'wsgi_url_scheme'
p1820
asbag56
(g77
g58
NtRp1821
(dp1822
g61
(dp1823
g88
g89
ssg70
g1812
sg63
(lp1824
S':'
asbag56
(g77
g58
NtRp1825
(dp1826
g61
(dp1827
sg70
g1812
sg63
(lp1828
g56
(g57
g58
NtRp1829
(dp1830
g61
(dp1831
g69
I4
ssg70
g1825
sg63
(lp1832
S'http'
p1833
asbasbasbag56
(g72
g58
NtRp1834
(dp1835
g61
(dp1836
sg70
g868
sg63
(lp1837
g56
(g77
g58
NtRp1838
(dp1839
g61
(dp1840
g81
g82
ssg70
g1834
sg63
(lp1841
S'wsgi_version'
p1842
asbag56
(g77
g58
NtRp1843
(dp1844
g61
(dp1845
g88
g89
ssg70
g1834
sg63
(lp1846
S':'
asbag56
(g77
g58
NtRp1847
(dp1848
g61
(dp1849
sg70
g1834
sg63
(lp1850
g56
(g57
g58
NtRp1851
(dp1852
g61
(dp1853
g69
I4
ssg70
g1847
sg63
(lp1854
g56
(g65
g58
NtRp1855
(dp1856
g61
(dp1857
g69
I3
ssg70
Nsg63
(lp1858
g56
(g72
g58
NtRp1859
(dp1860
g61
(dp1861
sg70
g1855
sg63
(lp1862
g56
(g77
g58
NtRp1863
(dp1864
g61
(dp1865
sg70
g1859
sg63
(lp1866
g56
(g57
g58
NtRp1867
(dp1868
g61
(dp1869
g69
I3
ssg70
g1863
sg63
(lp1870
S'1'
asbasbasbag56
(g72
g58
NtRp1871
(dp1872
g61
(dp1873
sg70
g1855
sg63
(lp1874
g56
(g77
g58
NtRp1875
(dp1876
g61
(dp1877
sg70
g1871
sg63
(lp1878
g56
(g57
g58
NtRp1879
(dp1880
g61
(dp1881
g69
I3
ssg70
g1875
sg63
(lp1882
S'0'
asbasbasbasbasbasbasbasbasbasbasbag56
(g72
g58
NtRp1883
(dp1884
g61
(dp1885
sg70
g66
sg63
(lp1886
g56
(g77
g58
NtRp1887
(dp1888
g61
(dp1889
g81
g82
ssg70
g1883
sg63
(lp1890
S'extension'
p1891
asbag56
(g77
g58
NtRp1892
(dp1893
g61
(dp1894
g88
g89
ssg70
g1883
sg63
(lp1895
S':'
asbag56
(g77
g58
NtRp1896
(dp1897
g61
(dp1898
sg70
g1883
sg63
(lp1899
g56
(g57
g58
NtRp1900
(dp1901
g61
(dp1902
g69
I5
ssg70
g1896
sg63
(lp1903
S'load'
p1904
asbasbasbag56
(g72
g58
NtRp1905
(dp1906
g61
(dp1907
sg70
g66
sg63
(lp1908
g56
(g77
g58
NtRp1909
(dp1910
g61
(dp1911
g81
g82
ssg70
g1905
sg63
(lp1912
S'folder'
p1913
asbag56
(g77
g58
NtRp1914
(dp1915
g61
(dp1916
g88
g89
ssg70
g1905
sg63
(lp1917
S':'
asbag56
(g77
g58
NtRp1918
(dp1919
g61
(dp1920
sg70
g1905
sg63
(lp1921
g56
(g57
g58
NtRp1922
(dp1923
g61
(dp1924
g69
I5
ssg70
g1918
sg63
(lp1925
S'/home/ian/web2py/applications/topoi/'
p1926
asbasbasbag56
(g72
g58
NtRp1927
(dp1928
g61
(dp1929
sg70
g66
sg63
(lp1930
g56
(g77
g58
NtRp1931
(dp1932
g61
(dp1933
g81
g82
ssg70
g1927
sg63
(lp1934
S'function'
p1935
asbag56
(g77
g58
NtRp1936
(dp1937
g61
(dp1938
g88
g89
ssg70
g1927
sg63
(lp1939
S':'
asbag56
(g77
g58
NtRp1940
(dp1941
g61
(dp1942
sg70
g1927
sg63
(lp1943
g56
(g57
g58
NtRp1944
(dp1945
g61
(dp1946
g69
I5
ssg70
g1940
sg63
(lp1947
S'edit'
p1948
asbasbasbag56
(g72
g58
NtRp1949
(dp1950
g61
(dp1951
sg70
g66
sg63
(lp1952
g56
(g77
g58
NtRp1953
(dp1954
g61
(dp1955
g81
g82
ssg70
g1949
sg63
(lp1956
S'get_vars'
p1957
asbag56
(g77
g58
NtRp1958
(dp1959
g61
(dp1960
g88
g89
ssg70
g1949
sg63
(lp1961
S':'
asbag56
(g77
g58
NtRp1962
(dp1963
g61
(dp1964
sg70
g1949
sg63
(lp1965
g56
(g57
g58
NtRp1966
(dp1967
g61
(dp1968
g69
I5
ssg70
g1962
sg63
(lp1969
g56
(g65
g58
NtRp1970
(dp1971
g61
(dp1972
g69
I4
ssg70
Nsg63
(lp1973
sbasbasbasbag56
(g72
g58
NtRp1974
(dp1975
g61
(dp1976
sg70
g66
sg63
(lp1977
g56
(g77
g58
NtRp1978
(dp1979
g61
(dp1980
g81
g82
ssg70
g1974
sg63
(lp1981
S'global_settings'
p1982
asbag56
(g77
g58
NtRp1983
(dp1984
g61
(dp1985
g88
g89
ssg70
g1974
sg63
(lp1986
S':'
asbag56
(g77
g58
NtRp1987
(dp1988
g61
(dp1989
sg70
g1974
sg63
(lp1990
g56
(g57
g58
NtRp1991
(dp1992
g61
(dp1993
g69
I5
ssg70
g1987
sg63
(lp1994
g56
(g65
g58
NtRp1995
(dp1996
g61
(dp1997
g69
I4
ssg70
Nsg63
(lp1998
g56
(g72
g58
NtRp1999
(dp2000
g61
(dp2001
sg70
g1995
sg63
(lp2002
g56
(g77
g58
NtRp2003
(dp2004
g61
(dp2005
g81
g82
ssg70
g1999
sg63
(lp2006
g880
asbag56
(g77
g58
NtRp2007
(dp2008
g61
(dp2009
g88
g89
ssg70
g1999
sg63
(lp2010
S':'
asbag56
(g77
g58
NtRp2011
(dp2012
g61
(dp2013
sg70
g1999
sg63
(lp2014
g56
(g57
g58
NtRp2015
(dp2016
g61
(dp2017
g69
I4
ssg70
g2011
sg63
(lp2018
S"set(['/home/ian/web2py/applications/topoi/', '/home/ian/web2py/applications/welcome/', '/home/ian/web2py/applications/admin/'])"
p2019
asbasbasbag56
(g72
g58
NtRp2020
(dp2021
g61
(dp2022
sg70
g1995
sg63
(lp2023
g56
(g77
g58
NtRp2024
(dp2025
g61
(dp2026
g81
g82
ssg70
g2020
sg63
(lp2027
g902
asbag56
(g77
g58
NtRp2028
(dp2029
g61
(dp2030
g88
g89
ssg70
g2020
sg63
(lp2031
S':'
asbag56
(g77
g58
NtRp2032
(dp2033
g61
(dp2034
sg70
g2020
sg63
(lp2035
g56
(g57
g58
NtRp2036
(dp2037
g61
(dp2038
g69
I4
ssg70
g2032
sg63
(lp2039
g915
asbasbasbag56
(g72
g58
NtRp2040
(dp2041
g61
(dp2042
sg70
g1995
sg63
(lp2043
g56
(g77
g58
NtRp2044
(dp2045
g61
(dp2046
g81
g82
ssg70
g2040
sg63
(lp2047
g924
asbag56
(g77
g58
NtRp2048
(dp2049
g61
(dp2050
g88
g89
ssg70
g2040
sg63
(lp2051
S':'
asbag56
(g77
g58
NtRp2052
(dp2053
g61
(dp2054
sg70
g2040
sg63
(lp2055
g56
(g57
g58
NtRp2056
(dp2057
g61
(dp2058
g69
I4
ssg70
g2052
sg63
(lp2059
g56
(g65
g58
NtRp2060
(dp2061
g61
(dp2062
g69
I3
ssg70
Nsg63
(lp2063
sbasbasbasbag56
(g72
g58
NtRp2064
(dp2065
g61
(dp2066
sg70
g1995
sg63
(lp2067
g56
(g77
g58
NtRp2068
(dp2069
g61
(dp2070
g81
g82
ssg70
g2064
sg63
(lp2071
g949
asbag56
(g77
g58
NtRp2072
(dp2073
g61
(dp2074
g88
g89
ssg70
g2064
sg63
(lp2075
S':'
asbag56
(g77
g58
NtRp2076
(dp2077
g61
(dp2078
sg70
g2064
sg63
(lp2079
g56
(g57
g58
NtRp2080
(dp2081
g61
(dp2082
g69
I4
ssg70
g2076
sg63
(lp2083
S"<Values at 0x23c17e8: {'verbose': False, 'ip': '127.0.0.1', 'shutdown_timeout': 5, 'taskbar': False, 'nocron': False, 'pid_filename': 'httpserver.pid', 'maxthreads': None, 'softcron': False, 'server_name': 'Ariel-ubuntu', 'bpython': False, 'nogui': False, 'port': 8000, 'extcron': False, 'debuglevel': 30, 'test': None, 'folder': '/home/ian/web2py', 'config': '', 'import_models': False, 'winservice': '', 'shell': None, 'run': '', 'log_filename': 'httpserver.log', 'args': [''], 'ssl_ca_certificate': None, 'scheduler': None, 'profiler_filename': None, 'ssl_private_key': '', 'password': '<ask>', 'request_queue_size': 5, 'ssl_certificate': '', 'cronjob': False, 'plain': False, 'quiet': False, 'interfaces': None, 'minthreads': None, 'timeout': 10, 'numthreads': None, 'nobanner': False}>"
p2084
asbasbasbag56
(g72
g58
NtRp2085
(dp2086
g61
(dp2087
sg70
g1995
sg63
(lp2088
g56
(g77
g58
NtRp2089
(dp2090
g61
(dp2091
g81
g82
ssg70
g2085
sg63
(lp2092
g971
asbag56
(g77
g58
NtRp2093
(dp2094
g61
(dp2095
g88
g89
ssg70
g2085
sg63
(lp2096
S':'
asbag56
(g77
g58
NtRp2097
(dp2098
g61
(dp2099
sg70
g2085
sg63
(lp2100
g56
(g57
g58
NtRp2101
(dp2102
g61
(dp2103
g69
I4
ssg70
g2097
sg63
(lp2104
S'set([])'
p2105
asbasbasbag56
(g72
g58
NtRp2106
(dp2107
g61
(dp2108
sg70
g1995
sg63
(lp2109
g56
(g77
g58
NtRp2110
(dp2111
g61
(dp2112
g81
g82
ssg70
g2106
sg63
(lp2113
g993
asbag56
(g77
g58
NtRp2114
(dp2115
g61
(dp2116
g88
g89
ssg70
g2106
sg63
(lp2117
S':'
asbag56
(g77
g58
NtRp2118
(dp2119
g61
(dp2120
sg70
g2106
sg63
(lp2121
g56
(g57
g58
NtRp2122
(dp2123
g61
(dp2124
g69
I4
ssg70
g2118
sg63
(lp2125
g1006
asbasbasbag56
(g72
g58
NtRp2126
(dp2127
g61
(dp2128
sg70
g1995
sg63
(lp2129
g56
(g77
g58
NtRp2130
(dp2131
g61
(dp2132
g81
g82
ssg70
g2126
sg63
(lp2133
g1015
asbag56
(g77
g58
NtRp2134
(dp2135
g61
(dp2136
g88
g89
ssg70
g2126
sg63
(lp2137
S':'
asbag56
(g77
g58
NtRp2138
(dp2139
g61
(dp2140
sg70
g2126
sg63
(lp2141
g56
(g57
g58
NtRp2142
(dp2143
g61
(dp2144
g69
I4
ssg70
g2138
sg63
(lp2145
g1028
asbasbasbag56
(g72
g58
NtRp2146
(dp2147
g61
(dp2148
sg70
g1995
sg63
(lp2149
g56
(g77
g58
NtRp2150
(dp2151
g61
(dp2152
g81
g82
ssg70
g2146
sg63
(lp2153
g1322
asbag56
(g77
g58
NtRp2154
(dp2155
g61
(dp2156
g88
g89
ssg70
g2146
sg63
(lp2157
S':'
asbag56
(g77
g58
NtRp2158
(dp2159
g61
(dp2160
sg70
g2146
sg63
(lp2161
g56
(g57
g58
NtRp2162
(dp2163
g61
(dp2164
g69
I4
ssg70
g2158
sg63
(lp2165
g1006
asbasbasbag56
(g72
g58
NtRp2166
(dp2167
g61
(dp2168
sg70
g1995
sg63
(lp2169
g56
(g77
g58
NtRp2170
(dp2171
g61
(dp2172
g81
g82
ssg70
g2166
sg63
(lp2173
g1560
asbag56
(g77
g58
NtRp2174
(dp2175
g61
(dp2176
g88
g89
ssg70
g2166
sg63
(lp2177
S':'
asbag56
(g77
g58
NtRp2178
(dp2179
g61
(dp2180
sg70
g2166
sg63
(lp2181
g56
(g57
g58
NtRp2182
(dp2183
g61
(dp2184
g69
I4
ssg70
g2178
sg63
(lp2185
g1573
asbasbasbag56
(g72
g58
NtRp2186
(dp2187
g61
(dp2188
sg70
g1995
sg63
(lp2189
g56
(g77
g58
NtRp2190
(dp2191
g61
(dp2192
g81
g82
ssg70
g2186
sg63
(lp2193
g1603
asbag56
(g77
g58
NtRp2194
(dp2195
g61
(dp2196
g88
g89
ssg70
g2186
sg63
(lp2197
S':'
asbag56
(g77
g58
NtRp2198
(dp2199
g61
(dp2200
sg70
g2186
sg63
(lp2201
g56
(g57
g58
NtRp2202
(dp2203
g61
(dp2204
g69
I4
ssg70
g2198
sg63
(lp2205
g56
(g65
g58
NtRp2206
(dp2207
g61
(dp2208
g69
I3
ssg70
Nsg63
(lp2209
g56
(g72
g58
NtRp2210
(dp2211
g61
(dp2212
sg70
g2206
sg63
(lp2213
g56
(g77
g58
NtRp2214
(dp2215
g61
(dp2216
sg70
g2210
sg63
(lp2217
g56
(g57
g58
NtRp2218
(dp2219
g61
(dp2220
g69
I3
ssg70
g2214
sg63
(lp2221
S'1'
asbasbasbag56
(g72
g58
NtRp2222
(dp2223
g61
(dp2224
sg70
g2206
sg63
(lp2225
g56
(g77
g58
NtRp2226
(dp2227
g61
(dp2228
sg70
g2222
sg63
(lp2229
g56
(g57
g58
NtRp2230
(dp2231
g61
(dp2232
g69
I3
ssg70
g2226
sg63
(lp2233
S'99'
p2234
asbasbasbag56
(g72
g58
NtRp2235
(dp2236
g61
(dp2237
sg70
g2206
sg63
(lp2238
g56
(g77
g58
NtRp2239
(dp2240
g61
(dp2241
sg70
g2235
sg63
(lp2242
g56
(g57
g58
NtRp2243
(dp2244
g61
(dp2245
g69
I3
ssg70
g2239
sg63
(lp2246
S'2'
asbasbasbag56
(g72
g58
NtRp2247
(dp2248
g61
(dp2249
sg70
g2206
sg63
(lp2250
g56
(g77
g58
NtRp2251
(dp2252
g61
(dp2253
sg70
g2247
sg63
(lp2254
g56
(g57
g58
NtRp2255
(dp2256
g61
(dp2257
g69
I3
ssg70
g2251
sg63
(lp2258
S'datetime.datetime(2011, 9, 26, 6, 55, 33)'
p2259
asbasbasbag56
(g72
g58
NtRp2260
(dp2261
g61
(dp2262
sg70
g2206
sg63
(lp2263
g56
(g77
g58
NtRp2264
(dp2265
g61
(dp2266
sg70
g2260
sg63
(lp2267
g56
(g57
g58
NtRp2268
(dp2269
g61
(dp2270
g69
I3
ssg70
g2264
sg63
(lp2271
g1682
asbasbasbasbasbasbasbasbasbasbasbag56
(g72
g58
NtRp2272
(dp2273
g61
(dp2274
sg70
g66
sg63
(lp2275
g56
(g77
g58
NtRp2276
(dp2277
g61
(dp2278
g81
g82
ssg70
g2272
sg63
(lp2279
S'is_https'
p2280
asbag56
(g77
g58
NtRp2281
(dp2282
g61
(dp2283
g88
g89
ssg70
g2272
sg63
(lp2284
S':'
asbag56
(g77
g58
NtRp2285
(dp2286
g61
(dp2287
sg70
g2272
sg63
(lp2288
g56
(g57
g58
NtRp2289
(dp2290
g61
(dp2291
g69
I5
ssg70
g2285
sg63
(lp2292
g1006
asbasbasbag56
(g72
g58
NtRp2293
(dp2294
g61
(dp2295
sg70
g66
sg63
(lp2296
g56
(g77
g58
NtRp2297
(dp2298
g61
(dp2299
g81
g82
ssg70
g2293
sg63
(lp2300
S'is_local'
p2301
asbag56
(g77
g58
NtRp2302
(dp2303
g61
(dp2304
g88
g89
ssg70
g2293
sg63
(lp2305
S':'
asbag56
(g77
g58
NtRp2306
(dp2307
g61
(dp2308
sg70
g2293
sg63
(lp2309
g56
(g57
g58
NtRp2310
(dp2311
g61
(dp2312
g69
I5
ssg70
g2306
sg63
(lp2313
g99
asbasbasbag56
(g72
g58
NtRp2314
(dp2315
g61
(dp2316
sg70
g66
sg63
(lp2317
g56
(g77
g58
NtRp2318
(dp2319
g61
(dp2320
g81
g82
ssg70
g2314
sg63
(lp2321
S'is_restful'
p2322
asbag56
(g77
g58
NtRp2323
(dp2324
g61
(dp2325
g88
g89
ssg70
g2314
sg63
(lp2326
S':'
asbag56
(g77
g58
NtRp2327
(dp2328
g61
(dp2329
sg70
g2314
sg63
(lp2330
g56
(g57
g58
NtRp2331
(dp2332
g61
(dp2333
g69
I5
ssg70
g2327
sg63
(lp2334
g1006
asbasbasbag56
(g72
g58
NtRp2335
(dp2336
g61
(dp2337
sg70
g66
sg63
(lp2338
g56
(g77
g58
NtRp2339
(dp2340
g61
(dp2341
g81
g82
ssg70
g2335
sg63
(lp2342
S'now'
p2343
asbag56
(g77
g58
NtRp2344
(dp2345
g61
(dp2346
g88
g89
ssg70
g2335
sg63
(lp2347
S':'
asbag56
(g77
g58
NtRp2348
(dp2349
g61
(dp2350
sg70
g2335
sg63
(lp2351
g56
(g57
g58
NtRp2352
(dp2353
g61
(dp2354
g69
I5
ssg70
g2348
sg63
(lp2355
S'datetime.datetime(2011, 11, 23, 21, 53, 1, 205077)'
p2356
asbasbasbag56
(g72
g58
NtRp2357
(dp2358
g61
(dp2359
sg70
g66
sg63
(lp2360
g56
(g77
g58
NtRp2361
(dp2362
g61
(dp2363
g81
g82
ssg70
g2357
sg63
(lp2364
S'post_vars'
p2365
asbag56
(g77
g58
NtRp2366
(dp2367
g61
(dp2368
g88
g89
ssg70
g2357
sg63
(lp2369
S':'
asbag56
(g77
g58
NtRp2370
(dp2371
g61
(dp2372
sg70
g2357
sg63
(lp2373
g56
(g57
g58
NtRp2374
(dp2375
g61
(dp2376
g69
I5
ssg70
g2370
sg63
(lp2377
g56
(g65
g58
NtRp2378
(dp2379
g61
(dp2380
g69
I4
ssg70
Nsg63
(lp2381
sbasbasbasbag56
(g72
g58
NtRp2382
(dp2383
g61
(dp2384
sg70
g66
sg63
(lp2385
g56
(g77
g58
NtRp2386
(dp2387
g61
(dp2388
g81
g82
ssg70
g2382
sg63
(lp2389
S'raw_args'
p2390
asbag56
(g77
g58
NtRp2391
(dp2392
g61
(dp2393
g88
g89
ssg70
g2382
sg63
(lp2394
S':'
asbag56
(g77
g58
NtRp2395
(dp2396
g61
(dp2397
sg70
g2382
sg63
(lp2398
g56
(g57
g58
NtRp2399
(dp2400
g61
(dp2401
g69
I5
ssg70
g2395
sg63
(lp2402
S'notes/1'
p2403
asbasbasbag56
(g72
g58
NtRp2404
(dp2405
g61
(dp2406
sg70
g66
sg63
(lp2407
g56
(g77
g58
NtRp2408
(dp2409
g61
(dp2410
g81
g82
ssg70
g2404
sg63
(lp2411
S'raw_extension'
p2412
asbag56
(g77
g58
NtRp2413
(dp2414
g61
(dp2415
g88
g89
ssg70
g2404
sg63
(lp2416
S':'
asbag56
(g77
g58
NtRp2417
(dp2418
g61
(dp2419
sg70
g2404
sg63
(lp2420
g56
(g57
g58
NtRp2421
(dp2422
g61
(dp2423
g69
I5
ssg70
g2417
sg63
(lp2424
g1904
asbasbasbag56
(g72
g58
NtRp2425
(dp2426
g61
(dp2427
sg70
g66
sg63
(lp2428
g56
(g77
g58
NtRp2429
(dp2430
g61
(dp2431
g81
g82
ssg70
g2425
sg63
(lp2432
S'url'
p2433
asbag56
(g77
g58
NtRp2434
(dp2435
g61
(dp2436
g88
g89
ssg70
g2425
sg63
(lp2437
S':'
asbag56
(g77
g58
NtRp2438
(dp2439
g61
(dp2440
sg70
g2425
sg63
(lp2441
g56
(g57
g58
NtRp2442
(dp2443
g61
(dp2444
g69
I5
ssg70
g2438
sg63
(lp2445
S'/topoi/plugin_listandedit/edit.load/notes/1'
p2446
asbasbasbag56
(g72
g58
NtRp2447
(dp2448
g61
(dp2449
sg70
g66
sg63
(lp2450
g56
(g77
g58
NtRp2451
(dp2452
g61
(dp2453
g81
g82
ssg70
g2447
sg63
(lp2454
S'utcnow'
p2455
asbag56
(g77
g58
NtRp2456
(dp2457
g61
(dp2458
g88
g89
ssg70
g2447
sg63
(lp2459
S':'
asbag56
(g77
g58
NtRp2460
(dp2461
g61
(dp2462
sg70
g2447
sg63
(lp2463
g56
(g57
g58
NtRp2464
(dp2465
g61
(dp2466
g69
I5
ssg70
g2460
sg63
(lp2467
S'datetime.datetime(2011, 11, 24, 2, 53, 1, 205122)'
p2468
asbasbasbag56
(g72
g58
NtRp2469
(dp2470
g61
(dp2471
sg70
g66
sg63
(lp2472
g56
(g77
g58
NtRp2473
(dp2474
g61
(dp2475
g81
g82
ssg70
g2469
sg63
(lp2476
S'uuid'
p2477
asbag56
(g77
g58
NtRp2478
(dp2479
g61
(dp2480
g88
g89
ssg70
g2469
sg63
(lp2481
S':'
asbag56
(g77
g58
NtRp2482
(dp2483
g61
(dp2484
sg70
g2469
sg63
(lp2485
g56
(g57
g58
NtRp2486
(dp2487
g61
(dp2488
g69
I5
ssg70
g2482
sg63
(lp2489
S'topoi/127.0.0.1.2011-11-23.21-53-01.185bb006-4c9a-4864-a439-1067bddad86e'
p2490
asbasbasbag56
(g72
g58
NtRp2491
(dp2492
g61
(dp2493
sg70
g66
sg63
(lp2494
g56
(g77
g58
NtRp2495
(dp2496
g61
(dp2497
g81
g82
ssg70
g2491
sg63
(lp2498
S'vars'
p2499
asbag56
(g77
g58
NtRp2500
(dp2501
g61
(dp2502
g88
g89
ssg70
g2491
sg63
(lp2503
S':'
asbag56
(g77
g58
NtRp2504
(dp2505
g61
(dp2506
sg70
g2491
sg63
(lp2507
g56
(g57
g58
NtRp2508
(dp2509
g61
(dp2510
g69
I5
ssg70
g2504
sg63
(lp2511
g56
(g65
g58
NtRp2512
(dp2513
g61
(dp2514
g69
I4
ssg70
Nsg63
(lp2515
sbasbasbasbag56
(g72
g58
NtRp2516
(dp2517
g61
(dp2518
sg70
g66
sg63
(lp2519
g56
(g77
g58
NtRp2520
(dp2521
g61
(dp2522
g81
g82
ssg70
g2516
sg63
(lp2523
S'wsgi'
p2524
asbag56
(g77
g58
NtRp2525
(dp2526
g61
(dp2527
g88
g89
ssg70
g2516
sg63
(lp2528
S':'
asbag56
(g77
g58
NtRp2529
(dp2530
g61
(dp2531
sg70
g2516
sg63
(lp2532
g56
(g57
g58
NtRp2533
(dp2534
g61
(dp2535
g69
I5
ssg70
g2529
sg63
(lp2536
g56
(g65
g58
NtRp2537
(dp2538
g61
(dp2539
g69
I4
ssg70
Nsg63
(lp2540
g56
(g72
g58
NtRp2541
(dp2542
g61
(dp2543
sg70
g2537
sg63
(lp2544
g56
(g77
g58
NtRp2545
(dp2546
g61
(dp2547
g81
g82
ssg70
g2541
sg63
(lp2548
S'environ'
p2549
asbag56
(g77
g58
NtRp2550
(dp2551
g61
(dp2552
g88
g89
ssg70
g2541
sg63
(lp2553
S':'
asbag56
(g77
g58
NtRp2554
(dp2555
g61
(dp2556
sg70
g2541
sg63
(lp2557
g56
(g57
g58
NtRp2558
(dp2559
g61
(dp2560
g69
I4
ssg70
g2554
sg63
(lp2561
g56
(g65
g58
NtRp2562
(dp2563
g61
(dp2564
g69
I3
ssg70
Nsg63
(lp2565
g56
(g72
g58
NtRp2566
(dp2567
g61
(dp2568
sg70
g2562
sg63
(lp2569
g56
(g77
g58
NtRp2570
(dp2571
g61
(dp2572
g81
g82
ssg70
g2566
sg63
(lp2573
S'HTTP_ACCEPT'
p2574
asbag56
(g77
g58
NtRp2575
(dp2576
g61
(dp2577
g88
g89
ssg70
g2566
sg63
(lp2578
S':'
asbag56
(g77
g58
NtRp2579
(dp2580
g61
(dp2581
sg70
g2566
sg63
(lp2582
g56
(g57
g58
NtRp2583
(dp2584
g61
(dp2585
g69
I3
ssg70
g2579
sg63
(lp2586
g1050
asbasbasbag56
(g72
g58
NtRp2587
(dp2588
g61
(dp2589
sg70
g2562
sg63
(lp2590
g56
(g77
g58
NtRp2591
(dp2592
g61
(dp2593
g81
g82
ssg70
g2587
sg63
(lp2594
S'HTTP_ACCEPT_CHARSET'
p2595
asbag56
(g77
g58
NtRp2596
(dp2597
g61
(dp2598
g88
g89
ssg70
g2587
sg63
(lp2599
S':'
asbag56
(g77
g58
NtRp2600
(dp2601
g61
(dp2602
sg70
g2587
sg63
(lp2603
g56
(g57
g58
NtRp2604
(dp2605
g61
(dp2606
g69
I3
ssg70
g2600
sg63
(lp2607
g1072
asbasbasbag56
(g72
g58
NtRp2608
(dp2609
g61
(dp2610
sg70
g2562
sg63
(lp2611
g56
(g77
g58
NtRp2612
(dp2613
g61
(dp2614
g81
g82
ssg70
g2608
sg63
(lp2615
S'HTTP_ACCEPT_ENCODING'
p2616
asbag56
(g77
g58
NtRp2617
(dp2618
g61
(dp2619
g88
g89
ssg70
g2608
sg63
(lp2620
S':'
asbag56
(g77
g58
NtRp2621
(dp2622
g61
(dp2623
sg70
g2608
sg63
(lp2624
g56
(g57
g58
NtRp2625
(dp2626
g61
(dp2627
g69
I3
ssg70
g2621
sg63
(lp2628
g1094
asbasbasbag56
(g72
g58
NtRp2629
(dp2630
g61
(dp2631
sg70
g2562
sg63
(lp2632
g56
(g77
g58
NtRp2633
(dp2634
g61
(dp2635
g81
g82
ssg70
g2629
sg63
(lp2636
S'HTTP_ACCEPT_LANGUAGE'
p2637
asbag56
(g77
g58
NtRp2638
(dp2639
g61
(dp2640
g88
g89
ssg70
g2629
sg63
(lp2641
S':'
asbag56
(g77
g58
NtRp2642
(dp2643
g61
(dp2644
sg70
g2629
sg63
(lp2645
g56
(g57
g58
NtRp2646
(dp2647
g61
(dp2648
g69
I3
ssg70
g2642
sg63
(lp2649
g1116
asbasbasbag56
(g72
g58
NtRp2650
(dp2651
g61
(dp2652
sg70
g2562
sg63
(lp2653
g56
(g77
g58
NtRp2654
(dp2655
g61
(dp2656
g81
g82
ssg70
g2650
sg63
(lp2657
S'HTTP_CONNECTION'
p2658
asbag56
(g77
g58
NtRp2659
(dp2660
g61
(dp2661
g88
g89
ssg70
g2650
sg63
(lp2662
S':'
asbag56
(g77
g58
NtRp2663
(dp2664
g61
(dp2665
sg70
g2650
sg63
(lp2666
g56
(g57
g58
NtRp2667
(dp2668
g61
(dp2669
g69
I3
ssg70
g2663
sg63
(lp2670
g1138
asbasbasbag56
(g72
g58
NtRp2671
(dp2672
g61
(dp2673
sg70
g2562
sg63
(lp2674
g56
(g77
g58
NtRp2675
(dp2676
g61
(dp2677
g81
g82
ssg70
g2671
sg63
(lp2678
S'HTTP_COOKIE'
p2679
asbag56
(g77
g58
NtRp2680
(dp2681
g61
(dp2682
g88
g89
ssg70
g2671
sg63
(lp2683
S':'
asbag56
(g77
g58
NtRp2684
(dp2685
g61
(dp2686
sg70
g2671
sg63
(lp2687
g56
(g57
g58
NtRp2688
(dp2689
g61
(dp2690
g69
I3
ssg70
g2684
sg63
(lp2691
g1160
asbasbasbag56
(g72
g58
NtRp2692
(dp2693
g61
(dp2694
sg70
g2562
sg63
(lp2695
g56
(g77
g58
NtRp2696
(dp2697
g61
(dp2698
g81
g82
ssg70
g2692
sg63
(lp2699
S'HTTP_HOST'
p2700
asbag56
(g77
g58
NtRp2701
(dp2702
g61
(dp2703
g88
g89
ssg70
g2692
sg63
(lp2704
S':'
asbag56
(g77
g58
NtRp2705
(dp2706
g61
(dp2707
sg70
g2692
sg63
(lp2708
g56
(g57
g58
NtRp2709
(dp2710
g61
(dp2711
g69
I3
ssg70
g2705
sg63
(lp2712
g1182
asbasbasbag56
(g72
g58
NtRp2713
(dp2714
g61
(dp2715
sg70
g2562
sg63
(lp2716
g56
(g77
g58
NtRp2717
(dp2718
g61
(dp2719
g81
g82
ssg70
g2713
sg63
(lp2720
S'HTTP_REFERER'
p2721
asbag56
(g77
g58
NtRp2722
(dp2723
g61
(dp2724
g88
g89
ssg70
g2713
sg63
(lp2725
S':'
asbag56
(g77
g58
NtRp2726
(dp2727
g61
(dp2728
sg70
g2713
sg63
(lp2729
g56
(g57
g58
NtRp2730
(dp2731
g61
(dp2732
g69
I3
ssg70
g2726
sg63
(lp2733
g1204
asbasbasbag56
(g72
g58
NtRp2734
(dp2735
g61
(dp2736
sg70
g2562
sg63
(lp2737
g56
(g77
g58
NtRp2738
(dp2739
g61
(dp2740
g81
g82
ssg70
g2734
sg63
(lp2741
S'HTTP_USER_AGENT'
p2742
asbag56
(g77
g58
NtRp2743
(dp2744
g61
(dp2745
g88
g89
ssg70
g2734
sg63
(lp2746
S':'
asbag56
(g77
g58
NtRp2747
(dp2748
g61
(dp2749
sg70
g2734
sg63
(lp2750
g56
(g57
g58
NtRp2751
(dp2752
g61
(dp2753
g69
I3
ssg70
g2747
sg63
(lp2754
g1226
asbasbasbag56
(g72
g58
NtRp2755
(dp2756
g61
(dp2757
sg70
g2562
sg63
(lp2758
g56
(g77
g58
NtRp2759
(dp2760
g61
(dp2761
g81
g82
ssg70
g2755
sg63
(lp2762
S'HTTP_WEB2PY_COMPONENT_ELEMENT'
p2763
asbag56
(g77
g58
NtRp2764
(dp2765
g61
(dp2766
g88
g89
ssg70
g2755
sg63
(lp2767
S':'
asbag56
(g77
g58
NtRp2768
(dp2769
g61
(dp2770
sg70
g2755
sg63
(lp2771
g56
(g57
g58
NtRp2772
(dp2773
g61
(dp2774
g69
I3
ssg70
g2768
sg63
(lp2775
g214
asbasbasbag56
(g72
g58
NtRp2776
(dp2777
g61
(dp2778
sg70
g2562
sg63
(lp2779
g56
(g77
g58
NtRp2780
(dp2781
g61
(dp2782
g81
g82
ssg70
g2776
sg63
(lp2783
S'HTTP_WEB2PY_COMPONENT_LOCATION'
p2784
asbag56
(g77
g58
NtRp2785
(dp2786
g61
(dp2787
g88
g89
ssg70
g2776
sg63
(lp2788
S':'
asbag56
(g77
g58
NtRp2789
(dp2790
g61
(dp2791
sg70
g2776
sg63
(lp2792
g56
(g57
g58
NtRp2793
(dp2794
g61
(dp2795
g69
I3
ssg70
g2789
sg63
(lp2796
g1269
asbasbasbag56
(g72
g58
NtRp2797
(dp2798
g61
(dp2799
sg70
g2562
sg63
(lp2800
g56
(g77
g58
NtRp2801
(dp2802
g61
(dp2803
g81
g82
ssg70
g2797
sg63
(lp2804
S'HTTP_X_INSIGHT'
p2805
asbag56
(g77
g58
NtRp2806
(dp2807
g61
(dp2808
g88
g89
ssg70
g2797
sg63
(lp2809
S':'
asbag56
(g77
g58
NtRp2810
(dp2811
g61
(dp2812
sg70
g2797
sg63
(lp2813
g56
(g57
g58
NtRp2814
(dp2815
g61
(dp2816
g69
I3
ssg70
g2810
sg63
(lp2817
g1291
asbasbasbag56
(g72
g58
NtRp2818
(dp2819
g61
(dp2820
sg70
g2562
sg63
(lp2821
g56
(g77
g58
NtRp2822
(dp2823
g61
(dp2824
g81
g82
ssg70
g2818
sg63
(lp2825
S'HTTP_X_REQUESTED_WITH'
p2826
asbag56
(g77
g58
NtRp2827
(dp2828
g61
(dp2829
g88
g89
ssg70
g2818
sg63
(lp2830
S':'
asbag56
(g77
g58
NtRp2831
(dp2832
g61
(dp2833
sg70
g2818
sg63
(lp2834
g56
(g57
g58
NtRp2835
(dp2836
g61
(dp2837
g69
I3
ssg70
g2831
sg63
(lp2838
g1313
asbasbasbag56
(g72
g58
NtRp2839
(dp2840
g61
(dp2841
sg70
g2562
sg63
(lp2842
g56
(g77
g58
NtRp2843
(dp2844
g61
(dp2845
g81
g82
ssg70
g2839
sg63
(lp2846
S'PATH_INFO'
p2847
asbag56
(g77
g58
NtRp2848
(dp2849
g61
(dp2850
g88
g89
ssg70
g2839
sg63
(lp2851
S':'
asbag56
(g77
g58
NtRp2852
(dp2853
g61
(dp2854
sg70
g2839
sg63
(lp2855
g56
(g57
g58
NtRp2856
(dp2857
g61
(dp2858
g69
I3
ssg70
g2852
sg63
(lp2859
g1356
asbasbasbag56
(g72
g58
NtRp2860
(dp2861
g61
(dp2862
sg70
g2562
sg63
(lp2863
g56
(g77
g58
NtRp2864
(dp2865
g61
(dp2866
g81
g82
ssg70
g2860
sg63
(lp2867
S'QUERY_STRING'
p2868
asbag56
(g77
g58
NtRp2869
(dp2870
g61
(dp2871
g88
g89
ssg70
g2860
sg63
(lp2872
S':'
asbag56
(g77
g58
NtRp2873
(dp2874
g61
(dp2875
sg70
g2860
sg63
(lp2876
g56
(g57
g58
NtRp2877
(dp2878
g61
(dp2879
g69
I3
ssg70
g2873
sg63
(lp2880
S''
asbasbasbag56
(g72
g58
NtRp2881
(dp2882
g61
(dp2883
sg70
g2562
sg63
(lp2884
g56
(g77
g58
NtRp2885
(dp2886
g61
(dp2887
g81
g82
ssg70
g2881
sg63
(lp2888
S'REMOTE_ADDR'
p2889
asbag56
(g77
g58
NtRp2890
(dp2891
g61
(dp2892
g88
g89
ssg70
g2881
sg63
(lp2893
S':'
asbag56
(g77
g58
NtRp2894
(dp2895
g61
(dp2896
sg70
g2881
sg63
(lp2897
g56
(g57
g58
NtRp2898
(dp2899
g61
(dp2900
g69
I3
ssg70
g2894
sg63
(lp2901
g236
asbasbasbag56
(g72
g58
NtRp2902
(dp2903
g61
(dp2904
sg70
g2562
sg63
(lp2905
g56
(g77
g58
NtRp2906
(dp2907
g61
(dp2908
g81
g82
ssg70
g2902
sg63
(lp2909
S'REMOTE_PORT'
p2910
asbag56
(g77
g58
NtRp2911
(dp2912
g61
(dp2913
g88
g89
ssg70
g2902
sg63
(lp2914
S':'
asbag56
(g77
g58
NtRp2915
(dp2916
g61
(dp2917
sg70
g2902
sg63
(lp2918
g56
(g57
g58
NtRp2919
(dp2920
g61
(dp2921
g69
I3
ssg70
g2915
sg63
(lp2922
g1420
asbasbasbag56
(g72
g58
NtRp2923
(dp2924
g61
(dp2925
sg70
g2562
sg63
(lp2926
g56
(g77
g58
NtRp2927
(dp2928
g61
(dp2929
g81
g82
ssg70
g2923
sg63
(lp2930
S'REQUEST_METHOD'
p2931
asbag56
(g77
g58
NtRp2932
(dp2933
g61
(dp2934
g88
g89
ssg70
g2923
sg63
(lp2935
S':'
asbag56
(g77
g58
NtRp2936
(dp2937
g61
(dp2938
sg70
g2923
sg63
(lp2939
g56
(g57
g58
NtRp2940
(dp2941
g61
(dp2942
g69
I3
ssg70
g2936
sg63
(lp2943
g1442
asbasbasbag56
(g72
g58
NtRp2944
(dp2945
g61
(dp2946
sg70
g2562
sg63
(lp2947
g56
(g77
g58
NtRp2948
(dp2949
g61
(dp2950
g81
g82
ssg70
g2944
sg63
(lp2951
S'SCRIPT_NAME'
p2952
asbag56
(g77
g58
NtRp2953
(dp2954
g61
(dp2955
g88
g89
ssg70
g2944
sg63
(lp2956
S':'
asbag56
(g77
g58
NtRp2957
(dp2958
g61
(dp2959
sg70
g2944
sg63
(lp2960
g56
(g57
g58
NtRp2961
(dp2962
g61
(dp2963
g69
I3
ssg70
g2957
sg63
(lp2964
S''
asbasbasbag56
(g72
g58
NtRp2965
(dp2966
g61
(dp2967
sg70
g2562
sg63
(lp2968
g56
(g77
g58
NtRp2969
(dp2970
g61
(dp2971
g81
g82
ssg70
g2965
sg63
(lp2972
S'SERVER_NAME'
p2973
asbag56
(g77
g58
NtRp2974
(dp2975
g61
(dp2976
g88
g89
ssg70
g2965
sg63
(lp2977
S':'
asbag56
(g77
g58
NtRp2978
(dp2979
g61
(dp2980
sg70
g2965
sg63
(lp2981
g56
(g57
g58
NtRp2982
(dp2983
g61
(dp2984
g69
I3
ssg70
g2978
sg63
(lp2985
g1485
asbasbasbag56
(g72
g58
NtRp2986
(dp2987
g61
(dp2988
sg70
g2562
sg63
(lp2989
g56
(g77
g58
NtRp2990
(dp2991
g61
(dp2992
g81
g82
ssg70
g2986
sg63
(lp2993
S'SERVER_PORT'
p2994
asbag56
(g77
g58
NtRp2995
(dp2996
g61
(dp2997
g88
g89
ssg70
g2986
sg63
(lp2998
S':'
asbag56
(g77
g58
NtRp2999
(dp3000
g61
(dp3001
sg70
g2986
sg63
(lp3002
g56
(g57
g58
NtRp3003
(dp3004
g61
(dp3005
g69
I3
ssg70
g2999
sg63
(lp3006
g1507
asbasbasbag56
(g72
g58
NtRp3007
(dp3008
g61
(dp3009
sg70
g2562
sg63
(lp3010
g56
(g77
g58
NtRp3011
(dp3012
g61
(dp3013
g81
g82
ssg70
g3007
sg63
(lp3014
S'SERVER_PROTOCOL'
p3015
asbag56
(g77
g58
NtRp3016
(dp3017
g61
(dp3018
g88
g89
ssg70
g3007
sg63
(lp3019
S':'
asbag56
(g77
g58
NtRp3020
(dp3021
g61
(dp3022
sg70
g3007
sg63
(lp3023
g56
(g57
g58
NtRp3024
(dp3025
g61
(dp3026
g69
I3
ssg70
g3020
sg63
(lp3027
g1529
asbasbasbag56
(g72
g58
NtRp3028
(dp3029
g61
(dp3030
sg70
g2562
sg63
(lp3031
g56
(g77
g58
NtRp3032
(dp3033
g61
(dp3034
g81
g82
ssg70
g3028
sg63
(lp3035
S'SERVER_SOFTWARE'
p3036
asbag56
(g77
g58
NtRp3037
(dp3038
g61
(dp3039
g88
g89
ssg70
g3028
sg63
(lp3040
S':'
asbag56
(g77
g58
NtRp3041
(dp3042
g61
(dp3043
sg70
g3028
sg63
(lp3044
g56
(g57
g58
NtRp3045
(dp3046
g61
(dp3047
g69
I3
ssg70
g3041
sg63
(lp3048
g1551
asbasbasbag56
(g72
g58
NtRp3049
(dp3050
g61
(dp3051
sg70
g2562
sg63
(lp3052
g56
(g77
g58
NtRp3053
(dp3054
g61
(dp3055
g81
g82
ssg70
g3049
sg63
(lp3056
S'wsgi.errors'
p3057
asbag56
(g77
g58
NtRp3058
(dp3059
g61
(dp3060
g88
g89
ssg70
g3049
sg63
(lp3061
S':'
asbag56
(g77
g58
NtRp3062
(dp3063
g61
(dp3064
sg70
g3049
sg63
(lp3065
g56
(g57
g58
NtRp3066
(dp3067
g61
(dp3068
g69
I3
ssg70
g3062
sg63
(lp3069
S"<open file '<stderr>', mode 'w' at 0x7ffcfbcc0270>"
p3070
asbasbasbag56
(g72
g58
NtRp3071
(dp3072
g61
(dp3073
sg70
g2562
sg63
(lp3074
g56
(g77
g58
NtRp3075
(dp3076
g61
(dp3077
g81
g82
ssg70
g3071
sg63
(lp3078
S'wsgi.file_wrapper'
p3079
asbag56
(g77
g58
NtRp3080
(dp3081
g61
(dp3082
g88
g89
ssg70
g3071
sg63
(lp3083
S':'
asbag56
(g77
g58
NtRp3084
(dp3085
g61
(dp3086
sg70
g3071
sg63
(lp3087
g56
(g57
g58
NtRp3088
(dp3089
g61
(dp3090
g69
I3
ssg70
g3084
sg63
(lp3091
S'<class wsgiref.util.FileWrapper at 0x228a808>'
p3092
asbasbasbag56
(g72
g58
NtRp3093
(dp3094
g61
(dp3095
sg70
g2562
sg63
(lp3096
g56
(g77
g58
NtRp3097
(dp3098
g61
(dp3099
g81
g82
ssg70
g3093
sg63
(lp3100
S'wsgi.input'
p3101
asbag56
(g77
g58
NtRp3102
(dp3103
g61
(dp3104
g88
g89
ssg70
g3093
sg63
(lp3105
S':'
asbag56
(g77
g58
NtRp3106
(dp3107
g61
(dp3108
sg70
g3093
sg63
(lp3109
g56
(g57
g58
NtRp3110
(dp3111
g61
(dp3112
g69
I3
ssg70
g3106
sg63
(lp3113
S'<cStringIO.StringO object at 0x3c5ce68>'
p3114
asbasbasbag56
(g72
g58
NtRp3115
(dp3116
g61
(dp3117
sg70
g2562
sg63
(lp3118
g56
(g77
g58
NtRp3119
(dp3120
g61
(dp3121
g81
g82
ssg70
g3115
sg63
(lp3122
S'wsgi.multiprocess'
p3123
asbag56
(g77
g58
NtRp3124
(dp3125
g61
(dp3126
g88
g89
ssg70
g3115
sg63
(lp3127
S':'
asbag56
(g77
g58
NtRp3128
(dp3129
g61
(dp3130
sg70
g3115
sg63
(lp3131
g56
(g57
g58
NtRp3132
(dp3133
g61
(dp3134
g69
I3
ssg70
g3128
sg63
(lp3135
g1006
asbasbasbag56
(g72
g58
NtRp3136
(dp3137
g61
(dp3138
sg70
g2562
sg63
(lp3139
g56
(g77
g58
NtRp3140
(dp3141
g61
(dp3142
g81
g82
ssg70
g3136
sg63
(lp3143
S'wsgi.multithread'
p3144
asbag56
(g77
g58
NtRp3145
(dp3146
g61
(dp3147
g88
g89
ssg70
g3136
sg63
(lp3148
S':'
asbag56
(g77
g58
NtRp3149
(dp3150
g61
(dp3151
sg70
g3136
sg63
(lp3152
g56
(g57
g58
NtRp3153
(dp3154
g61
(dp3155
g69
I3
ssg70
g3149
sg63
(lp3156
g99
asbasbasbag56
(g72
g58
NtRp3157
(dp3158
g61
(dp3159
sg70
g2562
sg63
(lp3160
g56
(g77
g58
NtRp3161
(dp3162
g61
(dp3163
g81
g82
ssg70
g3157
sg63
(lp3164
S'wsgi.run_once'
p3165
asbag56
(g77
g58
NtRp3166
(dp3167
g61
(dp3168
g88
g89
ssg70
g3157
sg63
(lp3169
S':'
asbag56
(g77
g58
NtRp3170
(dp3171
g61
(dp3172
sg70
g3157
sg63
(lp3173
g56
(g57
g58
NtRp3174
(dp3175
g61
(dp3176
g69
I3
ssg70
g3170
sg63
(lp3177
g1006
asbasbasbag56
(g72
g58
NtRp3178
(dp3179
g61
(dp3180
sg70
g2562
sg63
(lp3181
g56
(g77
g58
NtRp3182
(dp3183
g61
(dp3184
g81
g82
ssg70
g3178
sg63
(lp3185
S'wsgi.url_scheme'
p3186
asbag56
(g77
g58
NtRp3187
(dp3188
g61
(dp3189
g88
g89
ssg70
g3178
sg63
(lp3190
S':'
asbag56
(g77
g58
NtRp3191
(dp3192
g61
(dp3193
sg70
g3178
sg63
(lp3194
g56
(g57
g58
NtRp3195
(dp3196
g61
(dp3197
g69
I3
ssg70
g3191
sg63
(lp3198
g1833
asbasbasbag56
(g72
g58
NtRp3199
(dp3200
g61
(dp3201
sg70
g2562
sg63
(lp3202
g56
(g77
g58
NtRp3203
(dp3204
g61
(dp3205
g81
g82
ssg70
g3199
sg63
(lp3206
S'wsgi.version'
p3207
asbag56
(g77
g58
NtRp3208
(dp3209
g61
(dp3210
g88
g89
ssg70
g3199
sg63
(lp3211
S':'
asbag56
(g77
g58
NtRp3212
(dp3213
g61
(dp3214
sg70
g3199
sg63
(lp3215
g56
(g57
g58
NtRp3216
(dp3217
g61
(dp3218
g69
I3
ssg70
g3212
sg63
(lp3219
S'1'
asbasbasbasbasbasbasbasbasbasbasbasbasbsS'frames'
p3220
(lp3221
(dp3222
S'file'
p3223
S'/home/ian/web2py/gluon/restricted.py'
p3224
sS'dump'
p3225
(dp3226
S'environment'
p3227
S"{'A': <class 'gluon.html.A'>, 'Auth': <class 'gluon.tools.Auth'>, 'B': <class 'gluon.html.B'>, 'BEAUTIFY': <class 'gluon.html.BEAUTIFY'>, 'BODY': <class 'gluon.html.BODY'>, 'BR': <class 'gluon.html.BR'>, 'BUTTON': <class 'gluon.html.BUTTON'>, 'CAT': <class 'gluon.html.CAT'>, 'CENTER': <class 'gluon.html.CENTER'>, 'CLEANUP': <class 'gluon.validators.CLEANUP'>, ...}"
p3228
sS'ccode'
p3229
S'<code object <module> at 0x3bab330, file "/home/...topoi/controllers/plugin_listandedit.py", line 3>'
p3230
ssS'lnum'
p3231
I194
sS'lines'
p3232
(dp3233
I192
S'        else:'
p3234
sI193
S'            ccode = compile2(code,layer)'
p3235
sI194
S'        exec ccode in environment'
p3236
sI195
S'    except HTTP:'
p3237
sI196
S'        raise'
p3238
sI197
S'    except Exception, error:'
p3239
sI198
S'        # XXX Show exception in Wing IDE if running in debugger'
p3240
sI189
S'    try:'
p3241
sI190
S'        if type(code) == types.CodeType:'
p3242
sI191
S'            ccode = code'
p3243
ssS'call'
p3244
S"(code='# coding: utf8\\n# try something like\\ndef list(): ...m = form)\\n\\nresponse._vars=response._caller(edit)\\n', environment={'A': <class 'gluon.html.A'>, 'Auth': <class 'gluon.tools.Auth'>, 'B': <class 'gluon.html.B'>, 'BEAUTIFY': <class 'gluon.html.BEAUTIFY'>, 'BODY': <class 'gluon.html.BODY'>, 'BR': <class 'gluon.html.BR'>, 'BUTTON': <class 'gluon.html.BUTTON'>, 'CAT': <class 'gluon.html.CAT'>, 'CENTER': <class 'gluon.html.CENTER'>, 'CLEANUP': <class 'gluon.validators.CLEANUP'>, ...}, layer='/home/ian/web2py/applications/topoi/controllers/plugin_listandedit.py')"
p3245
sS'func'
p3246
S'restricted'
p3247
sa(dp3248
g3223
S'/home/ian/web2py/applications/topoi/controllers/plugin_listandedit.py'
p3249
sg3225
(dp3250
sg3231
I37
sg3232
(dp3251
I32
S'    rowid = request.args[1]'
p3252
sI33
S'    form = crud.update(db[tablename], rowid)'
p3253
sI34
S''
sI35
S'    return dict(form = form)'
p3254
sI26
S'        listset.append(i)'
p3255
sI27
S''
sI28
S'    return dict(listset = listset)'
p3256
sI29
S''
sI30
S'def edit():'
p3257
sI31
S'    tablename = request.args[0]'
p3258
ssg3244
S'()'
p3259
sg3246
S'<module>'
p3260
sa(dp3261
g3223
S'/home/ian/web2py/gluon/globals.py'
p3262
sg3225
(dp3263
S'self'
p3264
S'undefined'
p3265
sS'f'
S'<function edit>'
p3266
ssg3231
I149
sg3232
(dp3267
I144
S'        self.meta = Storage()      # used by web2py_ajax.html'
p3268
sI145
S'        self.menu = []             # used by the default view layout'
p3269
sI146
S'        self.files = []            # used by web2py_ajax.html'
p3270
sI147
S'        self.generic_patterns = [] # patterns to allow generic views'
p3271
sI148
S'        self._vars = None'
p3272
sI149
S'        self._caller = lambda f: f()'
p3273
sI150
S'        self._view_environment = None'
p3274
sI151
S'        self._custom_commit = None'
p3275
sI152
S'        self._custom_rollback = None'
p3276
sI153
S''
ssg3244
S'(f=<function edit>)'
p3277
sg3246
S'<lambda>'
p3278
sa(dp3279
g3223
S'/home/ian/web2py/applications/topoi/controllers/plugin_listandedit.py'
p3280
sg3225
(dp3281
S'global crud'
p3282
S'<gluon.tools.Crud object>'
p3283
sS'crud.update'
p3284
S'<bound method Crud.update of <gluon.tools.Crud object>>'
p3285
sS'form'
p3286
g3265
sS'tablename'
p3287
S"'notes'"
p3288
sS'rowid'
p3289
S"'1'"
p3290
sS'global db'
p3291
S"<DAL {'auth_event': <Table {'origin': <gluon.dal.../web2py/applications/topoi/databases/sql.log'}>}>"
p3292
ssg3231
I33
sg3232
(dp3293
I32
S'    rowid = request.args[1]'
p3294
sI33
S'    form = crud.update(db[tablename], rowid)'
p3295
sI34
S''
sI35
S'    return dict(form = form)'
p3296
sI26
S'        listset.append(i)'
p3297
sI27
S''
sI28
S'    return dict(listset = listset)'
p3298
sI29
S''
sI30
S'def edit():'
p3299
sI31
S'    tablename = request.args[0]'
p3300
ssg3244
S'()'
p3301
sg3246
S'edit'
p3302
sa(dp3303
g3223
S'/home/ian/web2py/gluon/tools.py'
p3304
sg3225
(dp3305
S'self'
p3306
S'<gluon.tools.Crud object>'
p3307
sS'separator'
p3308
g3265
sS'self.settings.label_separator'
p3309
S"': '"
p3310
sS'self.settings'
p3311
S"<Storage {'showid': False, 'delete_onaccept': <S...ble': True, 'create_onvalidation': <Storage {}>}>"
p3312
ssg3231
I2952
sg3232
(dp3313
I2947
S'            submit_button=self.messages.submit_button,'
p3314
sI2948
S'            delete_label=self.messages.delete_label,'
p3315
sI2949
S'            deletable=deletable,'
p3316
sI2950
S'            upload=self.settings.download_url,'
p3317
sI2951
S'            formstyle=self.settings.formstyle,'
p3318
sI2952
S'            separator=self.settings.label_separator'
p3319
sI2953
S'            )'
p3320
sI2954
S'        self.accepted = False'
p3321
sI2955
S'        self.deleted = False'
p3322
sI2956
S'        captcha = self.settings.update_captcha or self.settings.captcha'
p3323
ssg3244
S"(self=<gluon.tools.Crud object>, table=<Table {'reference': <gluon.dal.Field object at ...>, '_id': <gluon.dal.Field object at 0x3c63e50>}>, record='1', next=None, onvalidation=<Storage {}>, onaccept=<Storage {}>, ondelete=<Storage {}>, log='Record %(id)s updated', message='Record Updated', deletable=True, formname=<function <lambda>>)"
p3324
sg3246
S'update'
p3325
sa(dp3326
g3223
S'/home/ian/web2py/gluon/sqlhtml.py'
p3327
sg3225
(dp3328
S'default'
p3329
S'9'
sS'field'
p3330
S'<gluon.dal.Field object>'
p3331
sS'field.widget'
p3332
S'<bound method SELECT_OR_ADD_OPTION.widget of <ap....plugin_selectoradd.SELECT_OR_ADD_OPTION object>>'
p3333
sS'inp'
p3334
S'<gluon.html.SELECT object>'
p3335
ssg3231
I853
sg3232
(dp3336
I848
S"                if hasattr(field, 'widget') and field.widget:"
p3337
sI849
S'                    inp = field.widget(field, default, upload)'
p3338
sI850
S'                else:'
p3339
sI851
S'                    inp = self.widgets.upload.widget(field, default, upload)'
p3340
sI852
S"            elif hasattr(field, 'widget') and field.widget:"
p3341
sI853
S'                inp = field.widget(field, default)'
p3342
sI854
S"            elif field.type == 'boolean':"
p3343
sI855
S'                inp = self.widgets.boolean.widget(field, default)'
p3344
sI856
S'                if default:'
p3345
sI857
S"                    inpval = 'checked'"
p3346
ssg3244
S"(self=<gluon.sqlhtml.SQLFORM object>, table=<Table {'reference': <gluon.dal.Field object at ...>, '_id': <gluon.dal.Field object at 0x3c63e50>}>, record=<Row {'body': 'some notes here', 'reference': '1...elete_record': <function <lambda> at 0x3c64410>}>, deletable=True, linkto=None, upload='/topoi/default/download.load', fields=['id', 'label', 'user', 'author', 'work', 'reference', 'excerpt', 'body', 'tags', 'last_edited', 'project'], labels=None, col3={}, submit_button='Submit', delete_label='Check to delete:', showid=False, readonly=False, comments=True, keepopts=[], ignore_rw=False, record_id=None, formstyle='table3cols', buttons=['submit'], separator=': ', **attributes={'hidden': {'_next': None}})"
p3347
sg3246
g49
sa(dp3348
g3223
S'/home/ian/web2py/applications/topoi/modules/plugin_selectoradd.py'
p3349
sg3225
(dp3350
S'my_select_id'
p3351
S"'notes_author'"
p3352
sS'js'
p3353
g3265
ssg3231
I31
sg3232
(dp3354
I32
S'        #create a div that will load the specified controller via ajax'
p3355
sI33
S'        form_loader_div = DIV(LOAD(c=self.controller, f=self.function, args=add_args,ajax=True), _id=my_select_id+"_dialog-form", _title=self.form_title)'
p3356
sI34
S'        #generate the "add" button that will appear next the options widget and open our dialog'
p3357
sI35
S'        activator_button = A(self.button_text, _id=my_select_id+"_option_add_trigger")'
p3358
sI26
S'        #generate the standard widget for this field'
p3359
sI27
S'        select_widget = OptionsWidget.widget(field, value)'
p3360
sI28
S''
sI29
S"        #get the widget's id (need to know later on so can tell receiving controller what to update)"
p3361
sI30
S"        my_select_id = select_widget.attributes.get('_id', None)"
p3362
sI31
S'        add_args = [my_select_id]'
p3363
ssg3244
S'(self=<applications.topoi.modules.plugin_selectoradd.SELECT_OR_ADD_OPTION object>, field=<gluon.dal.Field object>, value=9)'
p3364
sg3246
S'widget'
p3365
sasS'pyver'
p3366
S'Python 2.7.2+: /usr/bin/python2.7'
p3367
sS'session'
p3368
g56
(g57
g58
NtRp3369
(dp3370
g61
(dp3371
sg63
(lp3372
g56
(g65
g58
NtRp3373
(dp3374
g61
(dp3375
g69
I5
ssg70
Nsg63
(lp3376
sbasbsS'etype'
p3377
S"<type 'exceptions.NameError'>"
p3378
sS'date'
p3379
S'Wed Nov 23 21:53:01 2011'
p3380
sS'response'
p3381
g56
(g57
g58
NtRp3382
(dp3383
g61
(dp3384
sg63
(lp3385
g56
(g65
g58
NtRp3386
(dp3387
g61
(dp3388
g69
I5
ssg70
Nsg63
(lp3389
g56
(g72
g58
NtRp3390
(dp3391
g61
(dp3392
sg70
g3386
sg63
(lp3393
g56
(g77
g58
NtRp3394
(dp3395
g61
(dp3396
g81
g82
ssg70
g3390
sg63
(lp3397
g179
asbag56
(g77
g58
NtRp3398
(dp3399
g61
(dp3400
g88
g89
ssg70
g3390
sg63
(lp3401
S':'
asbag56
(g77
g58
NtRp3402
(dp3403
g61
(dp3404
sg70
g3390
sg63
(lp3405
g56
(g57
g58
NtRp3406
(dp3407
g61
(dp3408
g69
I5
ssg70
g3402
sg63
(lp3409
S'<cStringIO.StringO object at 0x23c77a0>'
p3410
asbasbasbag56
(g72
g58
NtRp3411
(dp3412
g61
(dp3413
sg70
g3386
sg63
(lp3414
g56
(g77
g58
NtRp3415
(dp3416
g61
(dp3417
g81
g82
ssg70
g3411
sg63
(lp3418
g267
asbag56
(g77
g58
NtRp3419
(dp3420
g61
(dp3421
g88
g89
ssg70
g3411
sg63
(lp3422
S':'
asbag56
(g77
g58
NtRp3423
(dp3424
g61
(dp3425
sg70
g3411
sg63
(lp3426
g56
(g57
g58
NtRp3427
(dp3428
g61
(dp3429
g69
I5
ssg70
g3423
sg63
(lp3430
g56
(g65
g58
NtRp3431
(dp3432
g61
(dp3433
g69
I4
ssg70
Nsg63
(lp3434
g56
(g72
g58
NtRp3435
(dp3436
g61
(dp3437
sg70
g3431
sg63
(lp3438
g56
(g77
g58
NtRp3439
(dp3440
g61
(dp3441
g81
g82
ssg70
g3435
sg63
(lp3442
S'session_id_topoi'
p3443
asbag56
(g77
g58
NtRp3444
(dp3445
g61
(dp3446
g88
g89
ssg70
g3435
sg63
(lp3447
S':'
asbag56
(g77
g58
NtRp3448
(dp3449
g61
(dp3450
sg70
g3435
sg63
(lp3451
g56
(g57
g58
NtRp3452
(dp3453
g61
(dp3454
g69
I4
ssg70
g3448
sg63
(lp3455
g56
(g65
g58
NtRp3456
(dp3457
g61
(dp3458
g69
I3
ssg70
Nsg63
(lp3459
g56
(g72
g58
NtRp3460
(dp3461
g61
(dp3462
sg70
g3456
sg63
(lp3463
g56
(g77
g58
NtRp3464
(dp3465
g61
(dp3466
g81
g82
ssg70
g3460
sg63
(lp3467
g317
asbag56
(g77
g58
NtRp3468
(dp3469
g61
(dp3470
g88
g89
ssg70
g3460
sg63
(lp3471
S':'
asbag56
(g77
g58
NtRp3472
(dp3473
g61
(dp3474
sg70
g3460
sg63
(lp3475
g56
(g57
g58
NtRp3476
(dp3477
g61
(dp3478
g69
I3
ssg70
g3472
sg63
(lp3479
S''
asbasbasbag56
(g72
g58
NtRp3480
(dp3481
g61
(dp3482
sg70
g3456
sg63
(lp3483
g56
(g77
g58
NtRp3484
(dp3485
g61
(dp3486
g81
g82
ssg70
g3480
sg63
(lp3487
g338
asbag56
(g77
g58
NtRp3488
(dp3489
g61
(dp3490
g88
g89
ssg70
g3480
sg63
(lp3491
S':'
asbag56
(g77
g58
NtRp3492
(dp3493
g61
(dp3494
sg70
g3480
sg63
(lp3495
g56
(g57
g58
NtRp3496
(dp3497
g61
(dp3498
g69
I3
ssg70
g3492
sg63
(lp3499
S''
asbasbasbag56
(g72
g58
NtRp3500
(dp3501
g61
(dp3502
sg70
g3456
sg63
(lp3503
g56
(g77
g58
NtRp3504
(dp3505
g61
(dp3506
g81
g82
ssg70
g3500
sg63
(lp3507
g359
asbag56
(g77
g58
NtRp3508
(dp3509
g61
(dp3510
g88
g89
ssg70
g3500
sg63
(lp3511
S':'
asbag56
(g77
g58
NtRp3512
(dp3513
g61
(dp3514
sg70
g3500
sg63
(lp3515
g56
(g57
g58
NtRp3516
(dp3517
g61
(dp3518
g69
I3
ssg70
g3512
sg63
(lp3519
S''
asbasbasbag56
(g72
g58
NtRp3520
(dp3521
g61
(dp3522
sg70
g3456
sg63
(lp3523
g56
(g77
g58
NtRp3524
(dp3525
g61
(dp3526
g81
g82
ssg70
g3520
sg63
(lp3527
g380
asbag56
(g77
g58
NtRp3528
(dp3529
g61
(dp3530
g88
g89
ssg70
g3520
sg63
(lp3531
S':'
asbag56
(g77
g58
NtRp3532
(dp3533
g61
(dp3534
sg70
g3520
sg63
(lp3535
g56
(g57
g58
NtRp3536
(dp3537
g61
(dp3538
g69
I3
ssg70
g3532
sg63
(lp3539
S''
asbasbasbag56
(g72
g58
NtRp3540
(dp3541
g61
(dp3542
sg70
g3456
sg63
(lp3543
g56
(g77
g58
NtRp3544
(dp3545
g61
(dp3546
g81
g82
ssg70
g3540
sg63
(lp3547
g401
asbag56
(g77
g58
NtRp3548
(dp3549
g61
(dp3550
g88
g89
ssg70
g3540
sg63
(lp3551
S':'
asbag56
(g77
g58
NtRp3552
(dp3553
g61
(dp3554
sg70
g3540
sg63
(lp3555
g56
(g57
g58
NtRp3556
(dp3557
g61
(dp3558
g69
I3
ssg70
g3552
sg63
(lp3559
S''
asbasbasbag56
(g72
g58
NtRp3560
(dp3561
g61
(dp3562
sg70
g3456
sg63
(lp3563
g56
(g77
g58
NtRp3564
(dp3565
g61
(dp3566
g81
g82
ssg70
g3560
sg63
(lp3567
g422
asbag56
(g77
g58
NtRp3568
(dp3569
g61
(dp3570
g88
g89
ssg70
g3560
sg63
(lp3571
S':'
asbag56
(g77
g58
NtRp3572
(dp3573
g61
(dp3574
sg70
g3560
sg63
(lp3575
g56
(g57
g58
NtRp3576
(dp3577
g61
(dp3578
g69
I3
ssg70
g3572
sg63
(lp3579
S'/'
asbasbasbag56
(g72
g58
NtRp3580
(dp3581
g61
(dp3582
sg70
g3456
sg63
(lp3583
g56
(g77
g58
NtRp3584
(dp3585
g61
(dp3586
g81
g82
ssg70
g3580
sg63
(lp3587
g443
asbag56
(g77
g58
NtRp3588
(dp3589
g61
(dp3590
g88
g89
ssg70
g3580
sg63
(lp3591
S':'
asbag56
(g77
g58
NtRp3592
(dp3593
g61
(dp3594
sg70
g3580
sg63
(lp3595
g56
(g57
g58
NtRp3596
(dp3597
g61
(dp3598
g69
I3
ssg70
g3592
sg63
(lp3599
S''
asbasbasbag56
(g72
g58
NtRp3600
(dp3601
g61
(dp3602
sg70
g3456
sg63
(lp3603
g56
(g77
g58
NtRp3604
(dp3605
g61
(dp3606
g81
g82
ssg70
g3600
sg63
(lp3607
g464
asbag56
(g77
g58
NtRp3608
(dp3609
g61
(dp3610
g88
g89
ssg70
g3600
sg63
(lp3611
S':'
asbag56
(g77
g58
NtRp3612
(dp3613
g61
(dp3614
sg70
g3600
sg63
(lp3615
g56
(g57
g58
NtRp3616
(dp3617
g61
(dp3618
g69
I3
ssg70
g3612
sg63
(lp3619
S''
asbasbasbasbasbasbasbasbasbasbasbag56
(g72
g58
NtRp3620
(dp3621
g61
(dp3622
sg70
g3386
sg63
(lp3623
g56
(g77
g58
NtRp3624
(dp3625
g61
(dp3626
g81
g82
ssg70
g3620
sg63
(lp3627
S'files'
p3628
asbag56
(g77
g58
NtRp3629
(dp3630
g61
(dp3631
g88
g89
ssg70
g3620
sg63
(lp3632
S':'
asbag56
(g77
g58
NtRp3633
(dp3634
g61
(dp3635
sg70
g3620
sg63
(lp3636
g56
(g57
g58
NtRp3637
(dp3638
g61
(dp3639
g69
I5
ssg70
g3633
sg63
(lp3640
g56
(g65
g58
NtRp3641
(dp3642
g61
(dp3643
g69
I4
ssg70
Nsg63
(lp3644
sbasbasbasbag56
(g72
g58
NtRp3645
(dp3646
g61
(dp3647
sg70
g3386
sg63
(lp3648
g56
(g77
g58
NtRp3649
(dp3650
g61
(dp3651
g81
g82
ssg70
g3645
sg63
(lp3652
S'flash'
p3653
asbag56
(g77
g58
NtRp3654
(dp3655
g61
(dp3656
g88
g89
ssg70
g3645
sg63
(lp3657
S':'
asbag56
(g77
g58
NtRp3658
(dp3659
g61
(dp3660
sg70
g3645
sg63
(lp3661
g56
(g57
g58
NtRp3662
(dp3663
g61
(dp3664
g69
I5
ssg70
g3658
sg63
(lp3665
S''
asbasbasbag56
(g72
g58
NtRp3666
(dp3667
g61
(dp3668
sg70
g3386
sg63
(lp3669
g56
(g77
g58
NtRp3670
(dp3671
g61
(dp3672
g81
g82
ssg70
g3666
sg63
(lp3673
S'generic_patterns'
p3674
asbag56
(g77
g58
NtRp3675
(dp3676
g61
(dp3677
g88
g89
ssg70
g3666
sg63
(lp3678
S':'
asbag56
(g77
g58
NtRp3679
(dp3680
g61
(dp3681
sg70
g3666
sg63
(lp3682
g56
(g57
g58
NtRp3683
(dp3684
g61
(dp3685
g69
I5
ssg70
g3679
sg63
(lp3686
g56
(g65
g58
NtRp3687
(dp3688
g61
(dp3689
g69
I4
ssg70
Nsg63
(lp3690
g56
(g72
g58
NtRp3691
(dp3692
g61
(dp3693
sg70
g3687
sg63
(lp3694
g56
(g77
g58
NtRp3695
(dp3696
g61
(dp3697
sg70
g3691
sg63
(lp3698
g56
(g57
g58
NtRp3699
(dp3700
g61
(dp3701
g69
I4
ssg70
g3695
sg63
(lp3702
S'*'
asbasbasbasbasbasbasbag56
(g72
g58
NtRp3703
(dp3704
g61
(dp3705
sg70
g3386
sg63
(lp3706
g56
(g77
g58
NtRp3707
(dp3708
g61
(dp3709
g81
g82
ssg70
g3703
sg63
(lp3710
S'headers'
p3711
asbag56
(g77
g58
NtRp3712
(dp3713
g61
(dp3714
g88
g89
ssg70
g3703
sg63
(lp3715
S':'
asbag56
(g77
g58
NtRp3716
(dp3717
g61
(dp3718
sg70
g3703
sg63
(lp3719
g56
(g57
g58
NtRp3720
(dp3721
g61
(dp3722
g69
I5
ssg70
g3716
sg63
(lp3723
g56
(g65
g58
NtRp3724
(dp3725
g61
(dp3726
g69
I4
ssg70
Nsg63
(lp3727
g56
(g72
g58
NtRp3728
(dp3729
g61
(dp3730
sg70
g3724
sg63
(lp3731
g56
(g77
g58
NtRp3732
(dp3733
g61
(dp3734
g81
g82
ssg70
g3728
sg63
(lp3735
S'Cache-Control'
p3736
asbag56
(g77
g58
NtRp3737
(dp3738
g61
(dp3739
g88
g89
ssg70
g3728
sg63
(lp3740
S':'
asbag56
(g77
g58
NtRp3741
(dp3742
g61
(dp3743
sg70
g3728
sg63
(lp3744
g56
(g57
g58
NtRp3745
(dp3746
g61
(dp3747
g69
I4
ssg70
g3741
sg63
(lp3748
S'no-store, no-cache, must-revalidate, post-check=0, pre-check=0'
p3749
asbasbasbag56
(g72
g58
NtRp3750
(dp3751
g61
(dp3752
sg70
g3724
sg63
(lp3753
g56
(g77
g58
NtRp3754
(dp3755
g61
(dp3756
g81
g82
ssg70
g3750
sg63
(lp3757
S'Content-Type'
p3758
asbag56
(g77
g58
NtRp3759
(dp3760
g61
(dp3761
g88
g89
ssg70
g3750
sg63
(lp3762
S':'
asbag56
(g77
g58
NtRp3763
(dp3764
g61
(dp3765
sg70
g3750
sg63
(lp3766
g56
(g57
g58
NtRp3767
(dp3768
g61
(dp3769
g69
I4
ssg70
g3763
sg63
(lp3770
S'text/html; charset=utf-8'
p3771
asbasbasbag56
(g72
g58
NtRp3772
(dp3773
g61
(dp3774
sg70
g3724
sg63
(lp3775
g56
(g77
g58
NtRp3776
(dp3777
g61
(dp3778
g81
g82
ssg70
g3772
sg63
(lp3779
S'Expires'
p3780
asbag56
(g77
g58
NtRp3781
(dp3782
g61
(dp3783
g88
g89
ssg70
g3772
sg63
(lp3784
S':'
asbag56
(g77
g58
NtRp3785
(dp3786
g61
(dp3787
sg70
g3772
sg63
(lp3788
g56
(g57
g58
NtRp3789
(dp3790
g61
(dp3791
g69
I4
ssg70
g3785
sg63
(lp3792
S'Thu, 24 Nov 2011 02:53:01 GMT'
p3793
asbasbasbag56
(g72
g58
NtRp3794
(dp3795
g61
(dp3796
sg70
g3724
sg63
(lp3797
g56
(g77
g58
NtRp3798
(dp3799
g61
(dp3800
g81
g82
ssg70
g3794
sg63
(lp3801
S'Pragma'
p3802
asbag56
(g77
g58
NtRp3803
(dp3804
g61
(dp3805
g88
g89
ssg70
g3794
sg63
(lp3806
S':'
asbag56
(g77
g58
NtRp3807
(dp3808
g61
(dp3809
sg70
g3794
sg63
(lp3810
g56
(g57
g58
NtRp3811
(dp3812
g61
(dp3813
g69
I4
ssg70
g3807
sg63
(lp3814
S'no-cache'
p3815
asbasbasbag56
(g72
g58
NtRp3816
(dp3817
g61
(dp3818
sg70
g3724
sg63
(lp3819
g56
(g77
g58
NtRp3820
(dp3821
g61
(dp3822
g81
g82
ssg70
g3816
sg63
(lp3823
S'X-Powered-By'
p3824
asbag56
(g77
g58
NtRp3825
(dp3826
g61
(dp3827
g88
g89
ssg70
g3816
sg63
(lp3828
S':'
asbag56
(g77
g58
NtRp3829
(dp3830
g61
(dp3831
sg70
g3816
sg63
(lp3832
g56
(g57
g58
NtRp3833
(dp3834
g61
(dp3835
g69
I4
ssg70
g3829
sg63
(lp3836
S'web2py'
p3837
asbasbasbasbasbasbasbag56
(g72
g58
NtRp3838
(dp3839
g61
(dp3840
sg70
g3386
sg63
(lp3841
g56
(g77
g58
NtRp3842
(dp3843
g61
(dp3844
g81
g82
ssg70
g3838
sg63
(lp3845
S'menu'
p3846
asbag56
(g77
g58
NtRp3847
(dp3848
g61
(dp3849
g88
g89
ssg70
g3838
sg63
(lp3850
S':'
asbag56
(g77
g58
NtRp3851
(dp3852
g61
(dp3853
sg70
g3838
sg63
(lp3854
g56
(g57
g58
NtRp3855
(dp3856
g61
(dp3857
g69
I5
ssg70
g3851
sg63
(lp3858
g56
(g65
g58
NtRp3859
(dp3860
g61
(dp3861
g69
I4
ssg70
Nsg63
(lp3862
g56
(g72
g58
NtRp3863
(dp3864
g61
(dp3865
sg70
g3859
sg63
(lp3866
g56
(g77
g58
NtRp3867
(dp3868
g61
(dp3869
sg70
g3863
sg63
(lp3870
g56
(g57
g58
NtRp3871
(dp3872
g61
(dp3873
g69
I4
ssg70
g3867
sg63
(lp3874
g56
(g65
g58
NtRp3875
(dp3876
g61
(dp3877
g69
I3
ssg70
Nsg63
(lp3878
g56
(g72
g58
NtRp3879
(dp3880
g61
(dp3881
sg70
g3875
sg63
(lp3882
g56
(g77
g58
NtRp3883
(dp3884
g61
(dp3885
sg70
g3879
sg63
(lp3886
g56
(g57
g58
NtRp3887
(dp3888
g61
(dp3889
g69
I3
ssg70
g3883
sg63
(lp3890
cgluon.languages
lazyT_unpickle
p3891
(S't\x04\x00\x00\x00Home'
tRp3892
asbasbasbag56
(g72
g58
NtRp3893
(dp3894
g61
(dp3895
sg70
g3875
sg63
(lp3896
g56
(g77
g58
NtRp3897
(dp3898
g61
(dp3899
sg70
g3893
sg63
(lp3900
g56
(g57
g58
NtRp3901
(dp3902
g61
(dp3903
g69
I3
ssg70
g3897
sg63
(lp3904
g1006
asbasbasbag56
(g72
g58
NtRp3905
(dp3906
g61
(dp3907
sg70
g3875
sg63
(lp3908
g56
(g77
g58
NtRp3909
(dp3910
g61
(dp3911
sg70
g3905
sg63
(lp3912
g56
(g57
g58
NtRp3913
(dp3914
g61
(dp3915
g69
I3
ssg70
g3909
sg63
(lp3916
S'/topoi/default/index.load'
p3917
asbasbasbag56
(g72
g58
NtRp3918
(dp3919
g61
(dp3920
sg70
g3875
sg63
(lp3921
g56
(g77
g58
NtRp3922
(dp3923
g61
(dp3924
sg70
g3918
sg63
(lp3925
g56
(g57
g58
NtRp3926
(dp3927
g61
(dp3928
g69
I3
ssg70
g3922
sg63
(lp3929
g56
(g65
g58
NtRp3930
(dp3931
g61
(dp3932
g69
I2
ssg70
Nsg63
(lp3933
sbasbasbasbasbasbasbasbag56
(g72
g58
NtRp3934
(dp3935
g61
(dp3936
sg70
g3859
sg63
(lp3937
g56
(g77
g58
NtRp3938
(dp3939
g61
(dp3940
sg70
g3934
sg63
(lp3941
g56
(g57
g58
NtRp3942
(dp3943
g61
(dp3944
g69
I4
ssg70
g3938
sg63
(lp3945
g56
(g65
g58
NtRp3946
(dp3947
g61
(dp3948
g69
I3
ssg70
Nsg63
(lp3949
g56
(g72
g58
NtRp3950
(dp3951
g61
(dp3952
sg70
g3946
sg63
(lp3953
g56
(g77
g58
NtRp3954
(dp3955
g61
(dp3956
sg70
g3950
sg63
(lp3957
g56
(g57
g58
NtRp3958
(dp3959
g61
(dp3960
g69
I3
ssg70
g3954
sg63
(lp3961
g3891
(S's\x08\x00\x00\x00This App'
tRp3962
asbasbasbag56
(g72
g58
NtRp3963
(dp3964
g61
(dp3965
sg70
g3946
sg63
(lp3966
g56
(g77
g58
NtRp3967
(dp3968
g61
(dp3969
sg70
g3963
sg63
(lp3970
g56
(g57
g58
NtRp3971
(dp3972
g61
(dp3973
g69
I3
ssg70
g3967
sg63
(lp3974
g1006
asbasbasbag56
(g72
g58
NtRp3975
(dp3976
g61
(dp3977
sg70
g3946
sg63
(lp3978
g56
(g77
g58
NtRp3979
(dp3980
g61
(dp3981
sg70
g3975
sg63
(lp3982
g56
(g57
g58
NtRp3983
(dp3984
g61
(dp3985
g69
I3
ssg70
g3979
sg63
(lp3986
S'/admin/default/design/topoi.load'
p3987
asbasbasbag56
(g72
g58
NtRp3988
(dp3989
g61
(dp3990
sg70
g3946
sg63
(lp3991
g56
(g77
g58
NtRp3992
(dp3993
g61
(dp3994
sg70
g3988
sg63
(lp3995
g56
(g57
g58
NtRp3996
(dp3997
g61
(dp3998
g69
I3
ssg70
g3992
sg63
(lp3999
g56
(g65
g58
NtRp4000
(dp4001
g61
(dp4002
g69
I2
ssg70
Nsg63
(lp4003
g56
(g72
g58
NtRp4004
(dp4005
g61
(dp4006
sg70
g4000
sg63
(lp4007
g56
(g77
g58
NtRp4008
(dp4009
g61
(dp4010
sg70
g4004
sg63
(lp4011
g56
(g57
g58
NtRp4012
(dp4013
g61
(dp4014
g69
I2
ssg70
g4008
sg63
(lp4015
g56
(g65
g58
NtRp4016
(dp4017
g61
(dp4018
g69
I1
ssg70
Nsg63
(lp4019
g56
(g72
g58
NtRp4020
(dp4021
g61
(dp4022
sg70
g4016
sg63
(lp4023
g56
(g77
g58
NtRp4024
(dp4025
g61
(dp4026
sg70
g4020
sg63
(lp4027
g56
(g57
g58
NtRp4028
(dp4029
g61
(dp4030
g69
I1
ssg70
g4024
sg63
(lp4031
g3891
(S't\n\x00\x00\x00Controller'
tRp4032
asbasbasbag56
(g72
g58
NtRp4033
(dp4034
g61
(dp4035
sg70
g4016
sg63
(lp4036
g56
(g77
g58
NtRp4037
(dp4038
g61
(dp4039
sg70
g4033
sg63
(lp4040
g56
(g57
g58
NtRp4041
(dp4042
g61
(dp4043
g69
I1
ssg70
g4037
sg63
(lp4044
I00
asbasbasbag56
(g72
g58
NtRp4045
(dp4046
g61
(dp4047
sg70
g4016
sg63
(lp4048
g56
(g77
g58
NtRp4049
(dp4050
g61
(dp4051
sg70
g4045
sg63
(lp4052
g56
(g57
g58
NtRp4053
(dp4054
g61
(dp4055
g69
I1
ssg70
g4049
sg63
(lp4056
S'/admin/default/edit/topoi/controllers/plugin_listandedit.py'
p4057
asbasbasbasbasbasbasbag56
(g72
g58
NtRp4058
(dp4059
g61
(dp4060
sg70
g4000
sg63
(lp4061
g56
(g77
g58
NtRp4062
(dp4063
g61
(dp4064
sg70
g4058
sg63
(lp4065
g56
(g57
g58
NtRp4066
(dp4067
g61
(dp4068
g69
I2
ssg70
g4062
sg63
(lp4069
g56
(g65
g58
NtRp4070
(dp4071
g61
(dp4072
g69
I1
ssg70
Nsg63
(lp4073
g56
(g72
g58
NtRp4074
(dp4075
g61
(dp4076
sg70
g4070
sg63
(lp4077
g56
(g77
g58
NtRp4078
(dp4079
g61
(dp4080
sg70
g4074
sg63
(lp4081
g56
(g57
g58
NtRp4082
(dp4083
g61
(dp4084
g69
I1
ssg70
g4078
sg63
(lp4085
g3891
(S't\x04\x00\x00\x00View'
tRp4086
asbasbasbag56
(g72
g58
NtRp4087
(dp4088
g61
(dp4089
sg70
g4070
sg63
(lp4090
g56
(g77
g58
NtRp4091
(dp4092
g61
(dp4093
sg70
g4087
sg63
(lp4094
g56
(g57
g58
NtRp4095
(dp4096
g61
(dp4097
g69
I1
ssg70
g4091
sg63
(lp4098
I00
asbasbasbag56
(g72
g58
NtRp4099
(dp4100
g61
(dp4101
sg70
g4070
sg63
(lp4102
g56
(g77
g58
NtRp4103
(dp4104
g61
(dp4105
sg70
g4099
sg63
(lp4106
g56
(g57
g58
NtRp4107
(dp4108
g61
(dp4109
g69
I1
ssg70
g4103
sg63
(lp4110
S'/admin/default/edit/topoi/views/plugin_listandedit/edit.load'
p4111
asbasbasbasbasbasbasbag56
(g72
g58
NtRp4112
(dp4113
g61
(dp4114
sg70
g4000
sg63
(lp4115
g56
(g77
g58
NtRp4116
(dp4117
g61
(dp4118
sg70
g4112
sg63
(lp4119
g56
(g57
g58
NtRp4120
(dp4121
g61
(dp4122
g69
I2
ssg70
g4116
sg63
(lp4123
g56
(g65
g58
NtRp4124
(dp4125
g61
(dp4126
g69
I1
ssg70
Nsg63
(lp4127
g56
(g72
g58
NtRp4128
(dp4129
g61
(dp4130
sg70
g4124
sg63
(lp4131
g56
(g77
g58
NtRp4132
(dp4133
g61
(dp4134
sg70
g4128
sg63
(lp4135
g56
(g57
g58
NtRp4136
(dp4137
g61
(dp4138
g69
I1
ssg70
g4132
sg63
(lp4139
g3891
(S't\x06\x00\x00\x00Layout'
tRp4140
asbasbasbag56
(g72
g58
NtRp4141
(dp4142
g61
(dp4143
sg70
g4124
sg63
(lp4144
g56
(g77
g58
NtRp4145
(dp4146
g61
(dp4147
sg70
g4141
sg63
(lp4148
g56
(g57
g58
NtRp4149
(dp4150
g61
(dp4151
g69
I1
ssg70
g4145
sg63
(lp4152
I00
asbasbasbag56
(g72
g58
NtRp4153
(dp4154
g61
(dp4155
sg70
g4124
sg63
(lp4156
g56
(g77
g58
NtRp4157
(dp4158
g61
(dp4159
sg70
g4153
sg63
(lp4160
g56
(g57
g58
NtRp4161
(dp4162
g61
(dp4163
g69
I1
ssg70
g4157
sg63
(lp4164
S'/admin/default/edit/topoi/views/layout.html'
p4165
asbasbasbasbasbasbasbag56
(g72
g58
NtRp4166
(dp4167
g61
(dp4168
sg70
g4000
sg63
(lp4169
g56
(g77
g58
NtRp4170
(dp4171
g61
(dp4172
sg70
g4166
sg63
(lp4173
g56
(g57
g58
NtRp4174
(dp4175
g61
(dp4176
g69
I2
ssg70
g4170
sg63
(lp4177
g56
(g65
g58
NtRp4178
(dp4179
g61
(dp4180
g69
I1
ssg70
Nsg63
(lp4181
g56
(g72
g58
NtRp4182
(dp4183
g61
(dp4184
sg70
g4178
sg63
(lp4185
g56
(g77
g58
NtRp4186
(dp4187
g61
(dp4188
sg70
g4182
sg63
(lp4189
g56
(g57
g58
NtRp4190
(dp4191
g61
(dp4192
g69
I1
ssg70
g4186
sg63
(lp4193
g3891
(S't\n\x00\x00\x00Stylesheet'
tRp4194
asbasbasbag56
(g72
g58
NtRp4195
(dp4196
g61
(dp4197
sg70
g4178
sg63
(lp4198
g56
(g77
g58
NtRp4199
(dp4200
g61
(dp4201
sg70
g4195
sg63
(lp4202
g56
(g57
g58
NtRp4203
(dp4204
g61
(dp4205
g69
I1
ssg70
g4199
sg63
(lp4206
I00
asbasbasbag56
(g72
g58
NtRp4207
(dp4208
g61
(dp4209
sg70
g4178
sg63
(lp4210
g56
(g77
g58
NtRp4211
(dp4212
g61
(dp4213
sg70
g4207
sg63
(lp4214
g56
(g57
g58
NtRp4215
(dp4216
g61
(dp4217
g69
I1
ssg70
g4211
sg63
(lp4218
S'/admin/default/edit/topoi/static/base.css'
p4219
asbasbasbasbasbasbasbag56
(g72
g58
NtRp4220
(dp4221
g61
(dp4222
sg70
g4000
sg63
(lp4223
g56
(g77
g58
NtRp4224
(dp4225
g61
(dp4226
sg70
g4220
sg63
(lp4227
g56
(g57
g58
NtRp4228
(dp4229
g61
(dp4230
g69
I2
ssg70
g4224
sg63
(lp4231
g56
(g65
g58
NtRp4232
(dp4233
g61
(dp4234
g69
I1
ssg70
Nsg63
(lp4235
g56
(g72
g58
NtRp4236
(dp4237
g61
(dp4238
sg70
g4232
sg63
(lp4239
g56
(g77
g58
NtRp4240
(dp4241
g61
(dp4242
sg70
g4236
sg63
(lp4243
g56
(g57
g58
NtRp4244
(dp4245
g61
(dp4246
g69
I1
ssg70
g4240
sg63
(lp4247
g3891
(S's\x08\x00\x00\x00DB Model'
tRp4248
asbasbasbag56
(g72
g58
NtRp4249
(dp4250
g61
(dp4251
sg70
g4232
sg63
(lp4252
g56
(g77
g58
NtRp4253
(dp4254
g61
(dp4255
sg70
g4249
sg63
(lp4256
g56
(g57
g58
NtRp4257
(dp4258
g61
(dp4259
g69
I1
ssg70
g4253
sg63
(lp4260
I00
asbasbasbag56
(g72
g58
NtRp4261
(dp4262
g61
(dp4263
sg70
g4232
sg63
(lp4264
g56
(g77
g58
NtRp4265
(dp4266
g61
(dp4267
sg70
g4261
sg63
(lp4268
g56
(g57
g58
NtRp4269
(dp4270
g61
(dp4271
g69
I1
ssg70
g4265
sg63
(lp4272
S'/admin/default/edit/topoi/models/db.py'
p4273
asbasbasbasbasbasbasbag56
(g72
g58
NtRp4274
(dp4275
g61
(dp4276
sg70
g4000
sg63
(lp4277
g56
(g77
g58
NtRp4278
(dp4279
g61
(dp4280
sg70
g4274
sg63
(lp4281
g56
(g57
g58
NtRp4282
(dp4283
g61
(dp4284
g69
I2
ssg70
g4278
sg63
(lp4285
g56
(g65
g58
NtRp4286
(dp4287
g61
(dp4288
g69
I1
ssg70
Nsg63
(lp4289
g56
(g72
g58
NtRp4290
(dp4291
g61
(dp4292
sg70
g4286
sg63
(lp4293
g56
(g77
g58
NtRp4294
(dp4295
g61
(dp4296
sg70
g4290
sg63
(lp4297
g56
(g57
g58
NtRp4298
(dp4299
g61
(dp4300
g69
I1
ssg70
g4294
sg63
(lp4301
g3891
(S's\n\x00\x00\x00Menu Model'
tRp4302
asbasbasbag56
(g72
g58
NtRp4303
(dp4304
g61
(dp4305
sg70
g4286
sg63
(lp4306
g56
(g77
g58
NtRp4307
(dp4308
g61
(dp4309
sg70
g4303
sg63
(lp4310
g56
(g57
g58
NtRp4311
(dp4312
g61
(dp4313
g69
I1
ssg70
g4307
sg63
(lp4314
I00
asbasbasbag56
(g72
g58
NtRp4315
(dp4316
g61
(dp4317
sg70
g4286
sg63
(lp4318
g56
(g77
g58
NtRp4319
(dp4320
g61
(dp4321
sg70
g4315
sg63
(lp4322
g56
(g57
g58
NtRp4323
(dp4324
g61
(dp4325
g69
I1
ssg70
g4319
sg63
(lp4326
S'/admin/default/edit/topoi/models/menu.py'
p4327
asbasbasbasbasbasbasbag56
(g72
g58
NtRp4328
(dp4329
g61
(dp4330
sg70
g4000
sg63
(lp4331
g56
(g77
g58
NtRp4332
(dp4333
g61
(dp4334
sg70
g4328
sg63
(lp4335
g56
(g57
g58
NtRp4336
(dp4337
g61
(dp4338
g69
I2
ssg70
g4332
sg63
(lp4339
g56
(g65
g58
NtRp4340
(dp4341
g61
(dp4342
g69
I1
ssg70
Nsg63
(lp4343
g56
(g72
g58
NtRp4344
(dp4345
g61
(dp4346
sg70
g4340
sg63
(lp4347
g56
(g77
g58
NtRp4348
(dp4349
g61
(dp4350
sg70
g4344
sg63
(lp4351
g56
(g57
g58
NtRp4352
(dp4353
g61
(dp4354
g69
I1
ssg70
g4348
sg63
(lp4355
g3891
(S't\x08\x00\x00\x00Database'
tRp4356
asbasbasbag56
(g72
g58
NtRp4357
(dp4358
g61
(dp4359
sg70
g4340
sg63
(lp4360
g56
(g77
g58
NtRp4361
(dp4362
g61
(dp4363
sg70
g4357
sg63
(lp4364
g56
(g57
g58
NtRp4365
(dp4366
g61
(dp4367
g69
I1
ssg70
g4361
sg63
(lp4368
I00
asbasbasbag56
(g72
g58
NtRp4369
(dp4370
g61
(dp4371
sg70
g4340
sg63
(lp4372
g56
(g77
g58
NtRp4373
(dp4374
g61
(dp4375
sg70
g4369
sg63
(lp4376
g56
(g57
g58
NtRp4377
(dp4378
g61
(dp4379
g69
I1
ssg70
g4373
sg63
(lp4380
S'/topoi/appadmin/index.load'
p4381
asbasbasbasbasbasbasbag56
(g72
g58
NtRp4382
(dp4383
g61
(dp4384
sg70
g4000
sg63
(lp4385
g56
(g77
g58
NtRp4386
(dp4387
g61
(dp4388
sg70
g4382
sg63
(lp4389
g56
(g57
g58
NtRp4390
(dp4391
g61
(dp4392
g69
I2
ssg70
g4386
sg63
(lp4393
g56
(g65
g58
NtRp4394
(dp4395
g61
(dp4396
g69
I1
ssg70
Nsg63
(lp4397
g56
(g72
g58
NtRp4398
(dp4399
g61
(dp4400
sg70
g4394
sg63
(lp4401
g56
(g77
g58
NtRp4402
(dp4403
g61
(dp4404
sg70
g4398
sg63
(lp4405
g56
(g57
g58
NtRp4406
(dp4407
g61
(dp4408
g69
I1
ssg70
g4402
sg63
(lp4409
g3891
(S't\x06\x00\x00\x00Errors'
tRp4410
asbasbasbag56
(g72
g58
NtRp4411
(dp4412
g61
(dp4413
sg70
g4394
sg63
(lp4414
g56
(g77
g58
NtRp4415
(dp4416
g61
(dp4417
sg70
g4411
sg63
(lp4418
g56
(g57
g58
NtRp4419
(dp4420
g61
(dp4421
g69
I1
ssg70
g4415
sg63
(lp4422
I00
asbasbasbag56
(g72
g58
NtRp4423
(dp4424
g61
(dp4425
sg70
g4394
sg63
(lp4426
g56
(g77
g58
NtRp4427
(dp4428
g61
(dp4429
sg70
g4423
sg63
(lp4430
g56
(g57
g58
NtRp4431
(dp4432
g61
(dp4433
g69
I1
ssg70
g4427
sg63
(lp4434
S'/admin/default/errors/topoi.load'
p4435
asbasbasbasbasbasbasbag56
(g72
g58
NtRp4436
(dp4437
g61
(dp4438
sg70
g4000
sg63
(lp4439
g56
(g77
g58
NtRp4440
(dp4441
g61
(dp4442
sg70
g4436
sg63
(lp4443
g56
(g57
g58
NtRp4444
(dp4445
g61
(dp4446
g69
I2
ssg70
g4440
sg63
(lp4447
g56
(g65
g58
NtRp4448
(dp4449
g61
(dp4450
g69
I1
ssg70
Nsg63
(lp4451
g56
(g72
g58
NtRp4452
(dp4453
g61
(dp4454
sg70
g4448
sg63
(lp4455
g56
(g77
g58
NtRp4456
(dp4457
g61
(dp4458
sg70
g4452
sg63
(lp4459
g56
(g57
g58
NtRp4460
(dp4461
g61
(dp4462
g69
I1
ssg70
g4456
sg63
(lp4463
g3891
(S't\x05\x00\x00\x00About'
tRp4464
asbasbasbag56
(g72
g58
NtRp4465
(dp4466
g61
(dp4467
sg70
g4448
sg63
(lp4468
g56
(g77
g58
NtRp4469
(dp4470
g61
(dp4471
sg70
g4465
sg63
(lp4472
g56
(g57
g58
NtRp4473
(dp4474
g61
(dp4475
g69
I1
ssg70
g4469
sg63
(lp4476
I00
asbasbasbag56
(g72
g58
NtRp4477
(dp4478
g61
(dp4479
sg70
g4448
sg63
(lp4480
g56
(g77
g58
NtRp4481
(dp4482
g61
(dp4483
sg70
g4477
sg63
(lp4484
g56
(g57
g58
NtRp4485
(dp4486
g61
(dp4487
g69
I1
ssg70
g4481
sg63
(lp4488
S'/admin/default/about/topoi.load'
p4489
asbasbasbasbasbasbasbasbasbasbasbasbasbasbasbasbasbasbasbag56
(g72
g58
NtRp4490
(dp4491
g61
(dp4492
sg70
g3386
sg63
(lp4493
g56
(g77
g58
NtRp4494
(dp4495
g61
(dp4496
g81
g82
ssg70
g4490
sg63
(lp4497
S'meta'
p4498
asbag56
(g77
g58
NtRp4499
(dp4500
g61
(dp4501
g88
g89
ssg70
g4490
sg63
(lp4502
S':'
asbag56
(g77
g58
NtRp4503
(dp4504
g61
(dp4505
sg70
g4490
sg63
(lp4506
g56
(g57
g58
NtRp4507
(dp4508
g61
(dp4509
g69
I5
ssg70
g4503
sg63
(lp4510
g56
(g65
g58
NtRp4511
(dp4512
g61
(dp4513
g69
I4
ssg70
Nsg63
(lp4514
g56
(g72
g58
NtRp4515
(dp4516
g61
(dp4517
sg70
g4511
sg63
(lp4518
g56
(g77
g58
NtRp4519
(dp4520
g61
(dp4521
g81
g82
ssg70
g4515
sg63
(lp4522
S'author'
p4523
asbag56
(g77
g58
NtRp4524
(dp4525
g61
(dp4526
g88
g89
ssg70
g4515
sg63
(lp4527
S':'
asbag56
(g77
g58
NtRp4528
(dp4529
g61
(dp4530
sg70
g4515
sg63
(lp4531
g56
(g57
g58
NtRp4532
(dp4533
g61
(dp4534
g69
I4
ssg70
g4528
sg63
(lp4535
S'Ian W. Scott'
p4536
asbasbasbag56
(g72
g58
NtRp4537
(dp4538
g61
(dp4539
sg70
g4511
sg63
(lp4540
g56
(g77
g58
NtRp4541
(dp4542
g61
(dp4543
g81
g82
ssg70
g4537
sg63
(lp4544
S'copyright'
p4545
asbag56
(g77
g58
NtRp4546
(dp4547
g61
(dp4548
g88
g89
ssg70
g4537
sg63
(lp4549
S':'
asbag56
(g77
g58
NtRp4550
(dp4551
g61
(dp4552
sg70
g4537
sg63
(lp4553
g56
(g57
g58
NtRp4554
(dp4555
g61
(dp4556
g69
I4
ssg70
g4550
sg63
(lp4557
S'Copyright 2011'
p4558
asbasbasbag56
(g72
g58
NtRp4559
(dp4560
g61
(dp4561
sg70
g4511
sg63
(lp4562
g56
(g77
g58
NtRp4563
(dp4564
g61
(dp4565
g81
g82
ssg70
g4559
sg63
(lp4566
S'description'
p4567
asbag56
(g77
g58
NtRp4568
(dp4569
g61
(dp4570
g88
g89
ssg70
g4559
sg63
(lp4571
S':'
asbag56
(g77
g58
NtRp4572
(dp4573
g61
(dp4574
sg70
g4559
sg63
(lp4575
g56
(g57
g58
NtRp4576
(dp4577
g61
(dp4578
g69
I4
ssg70
g4572
sg63
(lp4579
S'A web-app for managing primary-text research in the humanities.'
p4580
asbasbasbag56
(g72
g58
NtRp4581
(dp4582
g61
(dp4583
sg70
g4511
sg63
(lp4584
g56
(g77
g58
NtRp4585
(dp4586
g61
(dp4587
g81
g82
ssg70
g4581
sg63
(lp4588
S'generator'
p4589
asbag56
(g77
g58
NtRp4590
(dp4591
g61
(dp4592
g88
g89
ssg70
g4581
sg63
(lp4593
S':'
asbag56
(g77
g58
NtRp4594
(dp4595
g61
(dp4596
sg70
g4581
sg63
(lp4597
g56
(g57
g58
NtRp4598
(dp4599
g61
(dp4600
g69
I4
ssg70
g4594
sg63
(lp4601
S'Web2py Enterprise Framework'
p4602
asbasbasbag56
(g72
g58
NtRp4603
(dp4604
g61
(dp4605
sg70
g4511
sg63
(lp4606
g56
(g77
g58
NtRp4607
(dp4608
g61
(dp4609
g81
g82
ssg70
g4603
sg63
(lp4610
S'keywords'
p4611
asbag56
(g77
g58
NtRp4612
(dp4613
g61
(dp4614
g88
g89
ssg70
g4603
sg63
(lp4615
S':'
asbag56
(g77
g58
NtRp4616
(dp4617
g61
(dp4618
sg70
g4603
sg63
(lp4619
g56
(g57
g58
NtRp4620
(dp4621
g61
(dp4622
g69
I4
ssg70
g4616
sg63
(lp4623
S'research, humanities, biblical'
p4624
asbasbasbasbasbasbasbag56
(g72
g58
NtRp4625
(dp4626
g61
(dp4627
sg70
g3386
sg63
(lp4628
g56
(g77
g58
NtRp4629
(dp4630
g61
(dp4631
g81
g82
ssg70
g4625
sg63
(lp4632
S'postprocessing'
p4633
asbag56
(g77
g58
NtRp4634
(dp4635
g61
(dp4636
g88
g89
ssg70
g4625
sg63
(lp4637
S':'
asbag56
(g77
g58
NtRp4638
(dp4639
g61
(dp4640
sg70
g4625
sg63
(lp4641
g56
(g57
g58
NtRp4642
(dp4643
g61
(dp4644
g69
I5
ssg70
g4638
sg63
(lp4645
g56
(g65
g58
NtRp4646
(dp4647
g61
(dp4648
g69
I4
ssg70
Nsg63
(lp4649
sbasbasbasbag56
(g72
g58
NtRp4650
(dp4651
g61
(dp4652
sg70
g3386
sg63
(lp4653
g56
(g77
g58
NtRp4654
(dp4655
g61
(dp4656
g81
g82
ssg70
g4650
sg63
(lp4657
S'session_filename'
p4658
asbag56
(g77
g58
NtRp4659
(dp4660
g61
(dp4661
g88
g89
ssg70
g4650
sg63
(lp4662
S':'
asbag56
(g77
g58
NtRp4663
(dp4664
g61
(dp4665
sg70
g4650
sg63
(lp4666
g56
(g57
g58
NtRp4667
(dp4668
g61
(dp4669
g69
I5
ssg70
g4663
sg63
(lp4670
S'/home/ian/web2py/applications/topoi/sessions/127.0.0.1-ad4c8726-7a36-45a8-b39d-9796df41c13b'
p4671
asbasbasbag56
(g72
g58
NtRp4672
(dp4673
g61
(dp4674
sg70
g3386
sg63
(lp4675
g56
(g77
g58
NtRp4676
(dp4677
g61
(dp4678
g81
g82
ssg70
g4672
sg63
(lp4679
S'session_id'
p4680
asbag56
(g77
g58
NtRp4681
(dp4682
g61
(dp4683
g88
g89
ssg70
g4672
sg63
(lp4684
S':'
asbag56
(g77
g58
NtRp4685
(dp4686
g61
(dp4687
sg70
g4672
sg63
(lp4688
g56
(g57
g58
NtRp4689
(dp4690
g61
(dp4691
g69
I5
ssg70
g4685
sg63
(lp4692
S'127.0.0.1-ad4c8726-7a36-45a8-b39d-9796df41c13b'
p4693
asbasbasbag56
(g72
g58
NtRp4694
(dp4695
g61
(dp4696
sg70
g3386
sg63
(lp4697
g56
(g77
g58
NtRp4698
(dp4699
g61
(dp4700
g81
g82
ssg70
g4694
sg63
(lp4701
S'session_id_name'
p4702
asbag56
(g77
g58
NtRp4703
(dp4704
g61
(dp4705
g88
g89
ssg70
g4694
sg63
(lp4706
S':'
asbag56
(g77
g58
NtRp4707
(dp4708
g61
(dp4709
sg70
g4694
sg63
(lp4710
g56
(g57
g58
NtRp4711
(dp4712
g61
(dp4713
g69
I5
ssg70
g4707
sg63
(lp4714
g3443
asbasbasbag56
(g72
g58
NtRp4715
(dp4716
g61
(dp4717
sg70
g3386
sg63
(lp4718
g56
(g77
g58
NtRp4719
(dp4720
g61
(dp4721
g81
g82
ssg70
g4715
sg63
(lp4722
S'session_new'
p4723
asbag56
(g77
g58
NtRp4724
(dp4725
g61
(dp4726
g88
g89
ssg70
g4715
sg63
(lp4727
S':'
asbag56
(g77
g58
NtRp4728
(dp4729
g61
(dp4730
sg70
g4715
sg63
(lp4731
g56
(g57
g58
NtRp4732
(dp4733
g61
(dp4734
g69
I5
ssg70
g4728
sg63
(lp4735
g99
asbasbasbag56
(g72
g58
NtRp4736
(dp4737
g61
(dp4738
sg70
g3386
sg63
(lp4739
g56
(g77
g58
NtRp4740
(dp4741
g61
(dp4742
g81
g82
ssg70
g4736
sg63
(lp4743
S'status'
p4744
asbag56
(g77
g58
NtRp4745
(dp4746
g61
(dp4747
g88
g89
ssg70
g4736
sg63
(lp4748
S':'
asbag56
(g77
g58
NtRp4749
(dp4750
g61
(dp4751
sg70
g4736
sg63
(lp4752
g56
(g57
g58
NtRp4753
(dp4754
g61
(dp4755
g69
I5
ssg70
g4749
sg63
(lp4756
S'200'
p4757
asbasbasbag56
(g72
g58
NtRp4758
(dp4759
g61
(dp4760
sg70
g3386
sg63
(lp4761
g56
(g77
g58
NtRp4762
(dp4763
g61
(dp4764
g81
g82
ssg70
g4758
sg63
(lp4765
S'subtitle'
p4766
asbag56
(g77
g58
NtRp4767
(dp4768
g61
(dp4769
g88
g89
ssg70
g4758
sg63
(lp4770
S':'
asbag56
(g77
g58
NtRp4771
(dp4772
g61
(dp4773
sg70
g4758
sg63
(lp4774
g56
(g57
g58
NtRp4775
(dp4776
g61
(dp4777
g69
I5
ssg70
g4771
sg63
(lp4778
g3891
(S's;\x00\x00\x00A tool for managing primary-text research in the humanities'
tRp4779
asbasbasbag56
(g72
g58
NtRp4780
(dp4781
g61
(dp4782
sg70
g3386
sg63
(lp4783
g56
(g77
g58
NtRp4784
(dp4785
g61
(dp4786
g81
g82
ssg70
g4780
sg63
(lp4787
S'title'
p4788
asbag56
(g77
g58
NtRp4789
(dp4790
g61
(dp4791
g88
g89
ssg70
g4780
sg63
(lp4792
S':'
asbag56
(g77
g58
NtRp4793
(dp4794
g61
(dp4795
sg70
g4780
sg63
(lp4796
g56
(g57
g58
NtRp4797
(dp4798
g61
(dp4799
g69
I5
ssg70
g4793
sg63
(lp4800
g121
asbasbasbag56
(g72
g58
NtRp4801
(dp4802
g61
(dp4803
sg70
g3386
sg63
(lp4804
g56
(g77
g58
NtRp4805
(dp4806
g61
(dp4807
g81
g82
ssg70
g4801
sg63
(lp4808
g2477
asbag56
(g77
g58
NtRp4809
(dp4810
g61
(dp4811
g88
g89
ssg70
g4801
sg63
(lp4812
S':'
asbag56
(g77
g58
NtRp4813
(dp4814
g61
(dp4815
sg70
g4801
sg63
(lp4816
g56
(g57
g58
NtRp4817
(dp4818
g61
(dp4819
g69
I5
ssg70
g4813
sg63
(lp4820
g2490
asbasbasbag56
(g72
g58
NtRp4821
(dp4822
g61
(dp4823
sg70
g3386
sg63
(lp4824
g56
(g77
g58
NtRp4825
(dp4826
g61
(dp4827
g81
g82
ssg70
g4821
sg63
(lp4828
S'view'
p4829
asbag56
(g77
g58
NtRp4830
(dp4831
g61
(dp4832
g88
g89
ssg70
g4821
sg63
(lp4833
S':'
asbag56
(g77
g58
NtRp4834
(dp4835
g61
(dp4836
sg70
g4821
sg63
(lp4837
g56
(g57
g58
NtRp4838
(dp4839
g61
(dp4840
g69
I5
ssg70
g4834
sg63
(lp4841
S'plugin_listandedit/edit.load'
p4842
asbasbasbasbasbsS'locals'
p4843
(dp4844
S'self'
p4845
S'<applications.topoi.modules.plugin_selectoradd.SELECT_OR_ADD_OPTION object>'
p4846
sS'add_args'
p4847
S"['notes_author']"
p4848
sS'value'
p4849
S'9'
sS'field'
p4850
S'<gluon.dal.Field object>'
p4851
sS'my_select_id'
p4852
S"'notes_author'"
p4853
sS'select_widget'
p4854
S'<gluon.html.SELECT object>'
p4855
sssS'traceback'
p4856
S'Traceback (most recent call last):\n  File "/home/ian/web2py/gluon/restricted.py", line 194, in restricted\n    exec ccode in environment\n  File "/home/ian/web2py/applications/topoi/controllers/plugin_listandedit.py", line 37, in <module>\n  File "/home/ian/web2py/gluon/globals.py", line 149, in <lambda>\n    self._caller = lambda f: f()\n  File "/home/ian/web2py/applications/topoi/controllers/plugin_listandedit.py", line 33, in edit\n    form = crud.update(db[tablename], rowid)\n  File "/home/ian/web2py/gluon/tools.py", line 2952, in update\n    separator=self.settings.label_separator\n  File "/home/ian/web2py/gluon/sqlhtml.py", line 853, in __init__\n    inp = field.widget(field, default)\n  File "applications/topoi/modules/plugin_selectoradd.py", line 31, in widget\n    add_args = [my_select_id]\nNameError: global name \'LOAD\' is not defined\n'
p4857
s.