(dp1
S'output'
p2
S''
sS'layer'
p3
S'/home/ian/web2py/applications/topoi/models/topoi.py'
p4
sS'code'
p5
S'# coding: utf8\nfrom plugin_selectoradd import SELECT_OR_ADD_OPTION\nfrom plugin_multiselect_widget import hmultiselect_widget, vmultiselect_widget\nimport datetime\nT = current.T\n\nadd_option = SELECT_OR_ADD_OPTION(form_title="Add new", controller="plugin_selectoradd", function="add", button_text = "Add New", dialog_width=500)\n\ndb.define_table(\'locations\',\n    Field(\'location\', \'string\'),\n    format=\'%(location)s\')\n\ndb.define_table(\'authors\', \n    Field(\'name\', \'string\', default=\'anonymous\'),\n    Field(\'location\', db.locations),\n    Field(\'lived\', \'string\'), \n    format=\'%(name)s\')\ndb.authors.location.widget = add_option.widget \n        \ndb.define_table(\'works\',\n    Field(\'title\', \'string\'),\n    Field(\'author\', db.authors),\n    Field(\'date_earliest\'),\n    Field(\'date_latest\'),\n    Field(\'date_likely\'),\n    Field(\'genre\'),\n    Field(\'source\'),\n    Field(\'comments\'),\n    format=\'%(title)s\')\n\ndb.define_table(\'projects\',\n    Field(\'projectname\', \'string\'),\n    Field(\'owner\', db.auth_user, default=auth.user_id),\n    Field(\'description\', \'text\'),\n    format=\'%(projectname)s\')\n\ndb.define_table(\'tags\',\n    Field(\'tagname\', \'string\'),\n    Field(\'creator\', db.auth_user, default=auth.user_id),\n    Field(\'project\', db.projects),\n    format=\'%(tagname)s\')\n    \ndb.define_table(\'notes\',\n    Field(\'label\', \'string\'),\n    Field(\'user\', db.auth_user, default=auth.user_id),\n    Field(\'author\', db.authors),\n    Field(\'work\', db.works),\n    Field(\'reference\'),\n    Field(\'excerpt\'),\n    Field(\'body\', \'text\'),\n    Field(\'tags\', \'list:reference db.tags\'),\n    Field(\'last_edited\', \'datetime\', default=datetime.datetime.utcnow()),\n    Field(\'project\', db.projects),\n    format=\'%(label)s\')\n#Initialize the add-or-select widget\ndb.notes.author.widget = add_option.widget\ndb.notes.work.widget = add_option.widget\ndb.notes.tags.requires = IS_IN_DB(db, \'tags.id\', db.tags._format, multiple = True)\ndb.notes.tags.widget = hmultiselect_widget\ndb.notes.project.widget = add_option.widget\n'
p6
sS'snapshot'
p7
(dp8
S'exception'
p9
(dp10
S'__hash__'
p11
S"<method-wrapper '__hash__' of exceptions.NameError object>"
p12
sS'__setattr__'
p13
S"<method-wrapper '__setattr__' of exceptions.NameError object>"
p14
sS'__reduce_ex__'
p15
S'<built-in method __reduce_ex__ of exceptions.NameError object>'
p16
sS'__getslice__'
p17
S"<method-wrapper '__getslice__' of exceptions.NameError object>"
p18
sS'__getitem__'
p19
S"<method-wrapper '__getitem__' of exceptions.NameError object>"
p20
sS'__setstate__'
p21
S'<built-in method __setstate__ of exceptions.NameError object>'
p22
sS'args'
p23
S'("name \'current\' is not defined",)'
p24
sS'__reduce__'
p25
S'<built-in method __reduce__ of exceptions.NameError object>'
p26
sS'__str__'
p27
S"<method-wrapper '__str__' of exceptions.NameError object>"
p28
sS'__format__'
p29
S'<built-in method __format__ of exceptions.NameError object>'
p30
sS'__getattribute__'
p31
S"<method-wrapper '__getattribute__' of exceptions.NameError object>"
p32
sS'__class__'
p33
S"<type 'exceptions.NameError'>"
p34
sS'__unicode__'
p35
S'<built-in method __unicode__ of exceptions.NameError object>'
p36
sS'__delattr__'
p37
S"<method-wrapper '__delattr__' of exceptions.NameError object>"
p38
sS'__subclasshook__'
p39
S'<built-in method __subclasshook__ of type object>'
p40
sS'__repr__'
p41
S"<method-wrapper '__repr__' of exceptions.NameError object>"
p42
sS'__dict__'
p43
S'{}'
p44
sS'__sizeof__'
p45
S'<built-in method __sizeof__ of exceptions.NameError object>'
p46
sS'__doc__'
p47
S"'Name not found globally.'"
p48
sS'__init__'
p49
S"<method-wrapper '__init__' of exceptions.NameError object>"
p50
sS'__new__'
p51
S'<built-in method __new__ of type object>'
p52
ssS'evalue'
p53
S"name 'current' is not defined"
p54
sS'request'
p55
ccopy_reg
_reconstructor
p56
(cgluon.html
BEAUTIFY
p57
c__builtin__
object
p58
NtRp59
(dp60
S'attributes'
p61
(dp62
sS'components'
p63
(lp64
g56
(cgluon.html
TABLE
p65
g58
NtRp66
(dp67
g61
(dp68
S'level'
p69
I5
ssS'parent'
p70
Nsg63
(lp71
g56
(cgluon.html
TR
p72
g58
NtRp73
(dp74
g61
(dp75
sg70
g66
sg63
(lp76
g56
(cgluon.html
TD
p77
g58
NtRp78
(dp79
g61
(dp80
S'_style'
p81
S'font-weight:bold;'
p82
ssg70
g73
sg63
(lp83
S'ajax'
p84
asbag56
(g77
g58
NtRp85
(dp86
g61
(dp87
S'_valign'
p88
S'top'
p89
ssg70
g73
sg63
(lp90
S':'
asbag56
(g77
g58
NtRp91
(dp92
g61
(dp93
sg70
g73
sg63
(lp94
g56
(g57
g58
NtRp95
(dp96
g61
(dp97
g69
I5
ssg70
g91
sg63
(lp98
S'False'
p99
asbasbasbag56
(g72
g58
NtRp100
(dp101
g61
(dp102
sg70
g66
sg63
(lp103
g56
(g77
g58
NtRp104
(dp105
g61
(dp106
g81
g82
ssg70
g100
sg63
(lp107
S'application'
p108
asbag56
(g77
g58
NtRp109
(dp110
g61
(dp111
g88
g89
ssg70
g100
sg63
(lp112
S':'
asbag56
(g77
g58
NtRp113
(dp114
g61
(dp115
sg70
g100
sg63
(lp116
g56
(g57
g58
NtRp117
(dp118
g61
(dp119
g69
I5
ssg70
g113
sg63
(lp120
S'topoi'
p121
asbasbasbag56
(g72
g58
NtRp122
(dp123
g61
(dp124
sg70
g66
sg63
(lp125
g56
(g77
g58
NtRp126
(dp127
g61
(dp128
g81
g82
ssg70
g122
sg63
(lp129
g23
asbag56
(g77
g58
NtRp130
(dp131
g61
(dp132
g88
g89
ssg70
g122
sg63
(lp133
S':'
asbag56
(g77
g58
NtRp134
(dp135
g61
(dp136
sg70
g122
sg63
(lp137
g56
(g57
g58
NtRp138
(dp139
g61
(dp140
g69
I5
ssg70
g134
sg63
(lp141
g56
(g65
g58
NtRp142
(dp143
g61
(dp144
g69
I4
ssg70
Nsg63
(lp145
g56
(g72
g58
NtRp146
(dp147
g61
(dp148
sg70
g142
sg63
(lp149
g56
(g77
g58
NtRp150
(dp151
g61
(dp152
sg70
g146
sg63
(lp153
g56
(g57
g58
NtRp154
(dp155
g61
(dp156
g69
I4
ssg70
g150
sg63
(lp157
S'note'
p158
asbasbasbag56
(g72
g58
NtRp159
(dp160
g61
(dp161
sg70
g142
sg63
(lp162
g56
(g77
g58
NtRp163
(dp164
g61
(dp165
sg70
g159
sg63
(lp166
g56
(g57
g58
NtRp167
(dp168
g61
(dp169
g69
I4
ssg70
g163
sg63
(lp170
S'1'
asbasbasbasbasbasbasbag56
(g72
g58
NtRp171
(dp172
g61
(dp173
sg70
g66
sg63
(lp174
g56
(g77
g58
NtRp175
(dp176
g61
(dp177
g81
g82
ssg70
g171
sg63
(lp178
S'body'
p179
asbag56
(g77
g58
NtRp180
(dp181
g61
(dp182
g88
g89
ssg70
g171
sg63
(lp183
S':'
asbag56
(g77
g58
NtRp184
(dp185
g61
(dp186
sg70
g171
sg63
(lp187
g56
(g57
g58
NtRp188
(dp189
g61
(dp190
g69
I5
ssg70
g184
sg63
(lp191
S'<cStringIO.StringO object at 0x304c0d8>'
p192
asbasbasbag56
(g72
g58
NtRp193
(dp194
g61
(dp195
sg70
g66
sg63
(lp196
g56
(g77
g58
NtRp197
(dp198
g61
(dp199
g81
g82
ssg70
g193
sg63
(lp200
S'client'
p201
asbag56
(g77
g58
NtRp202
(dp203
g61
(dp204
g88
g89
ssg70
g193
sg63
(lp205
S':'
asbag56
(g77
g58
NtRp206
(dp207
g61
(dp208
sg70
g193
sg63
(lp209
g56
(g57
g58
NtRp210
(dp211
g61
(dp212
g69
I5
ssg70
g206
sg63
(lp213
S'127.0.0.1'
p214
asbasbasbag56
(g72
g58
NtRp215
(dp216
g61
(dp217
sg70
g66
sg63
(lp218
g56
(g77
g58
NtRp219
(dp220
g61
(dp221
g81
g82
ssg70
g215
sg63
(lp222
S'controller'
p223
asbag56
(g77
g58
NtRp224
(dp225
g61
(dp226
g88
g89
ssg70
g215
sg63
(lp227
S':'
asbag56
(g77
g58
NtRp228
(dp229
g61
(dp230
sg70
g215
sg63
(lp231
g56
(g57
g58
NtRp232
(dp233
g61
(dp234
g69
I5
ssg70
g228
sg63
(lp235
S'plugin_listandedit'
p236
asbasbasbag56
(g72
g58
NtRp237
(dp238
g61
(dp239
sg70
g66
sg63
(lp240
g56
(g77
g58
NtRp241
(dp242
g61
(dp243
g81
g82
ssg70
g237
sg63
(lp244
S'cookies'
p245
asbag56
(g77
g58
NtRp246
(dp247
g61
(dp248
g88
g89
ssg70
g237
sg63
(lp249
S':'
asbag56
(g77
g58
NtRp250
(dp251
g61
(dp252
sg70
g237
sg63
(lp253
g56
(g57
g58
NtRp254
(dp255
g61
(dp256
g69
I5
ssg70
g250
sg63
(lp257
g56
(g65
g58
NtRp258
(dp259
g61
(dp260
g69
I4
ssg70
Nsg63
(lp261
g56
(g72
g58
NtRp262
(dp263
g61
(dp264
sg70
g258
sg63
(lp265
g56
(g77
g58
NtRp266
(dp267
g61
(dp268
g81
g82
ssg70
g262
sg63
(lp269
S'session_id_admin'
p270
asbag56
(g77
g58
NtRp271
(dp272
g61
(dp273
g88
g89
ssg70
g262
sg63
(lp274
S':'
asbag56
(g77
g58
NtRp275
(dp276
g61
(dp277
sg70
g262
sg63
(lp278
g56
(g57
g58
NtRp279
(dp280
g61
(dp281
g69
I4
ssg70
g275
sg63
(lp282
g56
(g65
g58
NtRp283
(dp284
g61
(dp285
g69
I3
ssg70
Nsg63
(lp286
g56
(g72
g58
NtRp287
(dp288
g61
(dp289
sg70
g283
sg63
(lp290
g56
(g77
g58
NtRp291
(dp292
g61
(dp293
g81
g82
ssg70
g287
sg63
(lp294
S'comment'
p295
asbag56
(g77
g58
NtRp296
(dp297
g61
(dp298
g88
g89
ssg70
g287
sg63
(lp299
S':'
asbag56
(g77
g58
NtRp300
(dp301
g61
(dp302
sg70
g287
sg63
(lp303
g56
(g57
g58
NtRp304
(dp305
g61
(dp306
g69
I3
ssg70
g300
sg63
(lp307
S''
asbasbasbag56
(g72
g58
NtRp308
(dp309
g61
(dp310
sg70
g283
sg63
(lp311
g56
(g77
g58
NtRp312
(dp313
g61
(dp314
g81
g82
ssg70
g308
sg63
(lp315
S'domain'
p316
asbag56
(g77
g58
NtRp317
(dp318
g61
(dp319
g88
g89
ssg70
g308
sg63
(lp320
S':'
asbag56
(g77
g58
NtRp321
(dp322
g61
(dp323
sg70
g308
sg63
(lp324
g56
(g57
g58
NtRp325
(dp326
g61
(dp327
g69
I3
ssg70
g321
sg63
(lp328
S''
asbasbasbag56
(g72
g58
NtRp329
(dp330
g61
(dp331
sg70
g283
sg63
(lp332
g56
(g77
g58
NtRp333
(dp334
g61
(dp335
g81
g82
ssg70
g329
sg63
(lp336
S'expires'
p337
asbag56
(g77
g58
NtRp338
(dp339
g61
(dp340
g88
g89
ssg70
g329
sg63
(lp341
S':'
asbag56
(g77
g58
NtRp342
(dp343
g61
(dp344
sg70
g329
sg63
(lp345
g56
(g57
g58
NtRp346
(dp347
g61
(dp348
g69
I3
ssg70
g342
sg63
(lp349
S''
asbasbasbag56
(g72
g58
NtRp350
(dp351
g61
(dp352
sg70
g283
sg63
(lp353
g56
(g77
g58
NtRp354
(dp355
g61
(dp356
g81
g82
ssg70
g350
sg63
(lp357
S'httponly'
p358
asbag56
(g77
g58
NtRp359
(dp360
g61
(dp361
g88
g89
ssg70
g350
sg63
(lp362
S':'
asbag56
(g77
g58
NtRp363
(dp364
g61
(dp365
sg70
g350
sg63
(lp366
g56
(g57
g58
NtRp367
(dp368
g61
(dp369
g69
I3
ssg70
g363
sg63
(lp370
S''
asbasbasbag56
(g72
g58
NtRp371
(dp372
g61
(dp373
sg70
g283
sg63
(lp374
g56
(g77
g58
NtRp375
(dp376
g61
(dp377
g81
g82
ssg70
g371
sg63
(lp378
S'max-age'
p379
asbag56
(g77
g58
NtRp380
(dp381
g61
(dp382
g88
g89
ssg70
g371
sg63
(lp383
S':'
asbag56
(g77
g58
NtRp384
(dp385
g61
(dp386
sg70
g371
sg63
(lp387
g56
(g57
g58
NtRp388
(dp389
g61
(dp390
g69
I3
ssg70
g384
sg63
(lp391
S''
asbasbasbag56
(g72
g58
NtRp392
(dp393
g61
(dp394
sg70
g283
sg63
(lp395
g56
(g77
g58
NtRp396
(dp397
g61
(dp398
g81
g82
ssg70
g392
sg63
(lp399
S'path'
p400
asbag56
(g77
g58
NtRp401
(dp402
g61
(dp403
g88
g89
ssg70
g392
sg63
(lp404
S':'
asbag56
(g77
g58
NtRp405
(dp406
g61
(dp407
sg70
g392
sg63
(lp408
g56
(g57
g58
NtRp409
(dp410
g61
(dp411
g69
I3
ssg70
g405
sg63
(lp412
S''
asbasbasbag56
(g72
g58
NtRp413
(dp414
g61
(dp415
sg70
g283
sg63
(lp416
g56
(g77
g58
NtRp417
(dp418
g61
(dp419
g81
g82
ssg70
g413
sg63
(lp420
S'secure'
p421
asbag56
(g77
g58
NtRp422
(dp423
g61
(dp424
g88
g89
ssg70
g413
sg63
(lp425
S':'
asbag56
(g77
g58
NtRp426
(dp427
g61
(dp428
sg70
g413
sg63
(lp429
g56
(g57
g58
NtRp430
(dp431
g61
(dp432
g69
I3
ssg70
g426
sg63
(lp433
S''
asbasbasbag56
(g72
g58
NtRp434
(dp435
g61
(dp436
sg70
g283
sg63
(lp437
g56
(g77
g58
NtRp438
(dp439
g61
(dp440
g81
g82
ssg70
g434
sg63
(lp441
S'version'
p442
asbag56
(g77
g58
NtRp443
(dp444
g61
(dp445
g88
g89
ssg70
g434
sg63
(lp446
S':'
asbag56
(g77
g58
NtRp447
(dp448
g61
(dp449
sg70
g434
sg63
(lp450
g56
(g57
g58
NtRp451
(dp452
g61
(dp453
g69
I3
ssg70
g447
sg63
(lp454
S''
asbasbasbasbasbasbasbag56
(g72
g58
NtRp455
(dp456
g61
(dp457
sg70
g258
sg63
(lp458
g56
(g77
g58
NtRp459
(dp460
g61
(dp461
g81
g82
ssg70
g455
sg63
(lp462
S'session_id_topoi'
p463
asbag56
(g77
g58
NtRp464
(dp465
g61
(dp466
g88
g89
ssg70
g455
sg63
(lp467
S':'
asbag56
(g77
g58
NtRp468
(dp469
g61
(dp470
sg70
g455
sg63
(lp471
g56
(g57
g58
NtRp472
(dp473
g61
(dp474
g69
I4
ssg70
g468
sg63
(lp475
g56
(g65
g58
NtRp476
(dp477
g61
(dp478
g69
I3
ssg70
Nsg63
(lp479
g56
(g72
g58
NtRp480
(dp481
g61
(dp482
sg70
g476
sg63
(lp483
g56
(g77
g58
NtRp484
(dp485
g61
(dp486
g81
g82
ssg70
g480
sg63
(lp487
g295
asbag56
(g77
g58
NtRp488
(dp489
g61
(dp490
g88
g89
ssg70
g480
sg63
(lp491
S':'
asbag56
(g77
g58
NtRp492
(dp493
g61
(dp494
sg70
g480
sg63
(lp495
g56
(g57
g58
NtRp496
(dp497
g61
(dp498
g69
I3
ssg70
g492
sg63
(lp499
S''
asbasbasbag56
(g72
g58
NtRp500
(dp501
g61
(dp502
sg70
g476
sg63
(lp503
g56
(g77
g58
NtRp504
(dp505
g61
(dp506
g81
g82
ssg70
g500
sg63
(lp507
g316
asbag56
(g77
g58
NtRp508
(dp509
g61
(dp510
g88
g89
ssg70
g500
sg63
(lp511
S':'
asbag56
(g77
g58
NtRp512
(dp513
g61
(dp514
sg70
g500
sg63
(lp515
g56
(g57
g58
NtRp516
(dp517
g61
(dp518
g69
I3
ssg70
g512
sg63
(lp519
S''
asbasbasbag56
(g72
g58
NtRp520
(dp521
g61
(dp522
sg70
g476
sg63
(lp523
g56
(g77
g58
NtRp524
(dp525
g61
(dp526
g81
g82
ssg70
g520
sg63
(lp527
g337
asbag56
(g77
g58
NtRp528
(dp529
g61
(dp530
g88
g89
ssg70
g520
sg63
(lp531
S':'
asbag56
(g77
g58
NtRp532
(dp533
g61
(dp534
sg70
g520
sg63
(lp535
g56
(g57
g58
NtRp536
(dp537
g61
(dp538
g69
I3
ssg70
g532
sg63
(lp539
S''
asbasbasbag56
(g72
g58
NtRp540
(dp541
g61
(dp542
sg70
g476
sg63
(lp543
g56
(g77
g58
NtRp544
(dp545
g61
(dp546
g81
g82
ssg70
g540
sg63
(lp547
g358
asbag56
(g77
g58
NtRp548
(dp549
g61
(dp550
g88
g89
ssg70
g540
sg63
(lp551
S':'
asbag56
(g77
g58
NtRp552
(dp553
g61
(dp554
sg70
g540
sg63
(lp555
g56
(g57
g58
NtRp556
(dp557
g61
(dp558
g69
I3
ssg70
g552
sg63
(lp559
S''
asbasbasbag56
(g72
g58
NtRp560
(dp561
g61
(dp562
sg70
g476
sg63
(lp563
g56
(g77
g58
NtRp564
(dp565
g61
(dp566
g81
g82
ssg70
g560
sg63
(lp567
g379
asbag56
(g77
g58
NtRp568
(dp569
g61
(dp570
g88
g89
ssg70
g560
sg63
(lp571
S':'
asbag56
(g77
g58
NtRp572
(dp573
g61
(dp574
sg70
g560
sg63
(lp575
g56
(g57
g58
NtRp576
(dp577
g61
(dp578
g69
I3
ssg70
g572
sg63
(lp579
S''
asbasbasbag56
(g72
g58
NtRp580
(dp581
g61
(dp582
sg70
g476
sg63
(lp583
g56
(g77
g58
NtRp584
(dp585
g61
(dp586
g81
g82
ssg70
g580
sg63
(lp587
g400
asbag56
(g77
g58
NtRp588
(dp589
g61
(dp590
g88
g89
ssg70
g580
sg63
(lp591
S':'
asbag56
(g77
g58
NtRp592
(dp593
g61
(dp594
sg70
g580
sg63
(lp595
g56
(g57
g58
NtRp596
(dp597
g61
(dp598
g69
I3
ssg70
g592
sg63
(lp599
S''
asbasbasbag56
(g72
g58
NtRp600
(dp601
g61
(dp602
sg70
g476
sg63
(lp603
g56
(g77
g58
NtRp604
(dp605
g61
(dp606
g81
g82
ssg70
g600
sg63
(lp607
g421
asbag56
(g77
g58
NtRp608
(dp609
g61
(dp610
g88
g89
ssg70
g600
sg63
(lp611
S':'
asbag56
(g77
g58
NtRp612
(dp613
g61
(dp614
sg70
g600
sg63
(lp615
g56
(g57
g58
NtRp616
(dp617
g61
(dp618
g69
I3
ssg70
g612
sg63
(lp619
S''
asbasbasbag56
(g72
g58
NtRp620
(dp621
g61
(dp622
sg70
g476
sg63
(lp623
g56
(g77
g58
NtRp624
(dp625
g61
(dp626
g81
g82
ssg70
g620
sg63
(lp627
g442
asbag56
(g77
g58
NtRp628
(dp629
g61
(dp630
g88
g89
ssg70
g620
sg63
(lp631
S':'
asbag56
(g77
g58
NtRp632
(dp633
g61
(dp634
sg70
g620
sg63
(lp635
g56
(g57
g58
NtRp636
(dp637
g61
(dp638
g69
I3
ssg70
g632
sg63
(lp639
S''
asbasbasbasbasbasbasbag56
(g72
g58
NtRp640
(dp641
g61
(dp642
sg70
g258
sg63
(lp643
g56
(g77
g58
NtRp644
(dp645
g61
(dp646
g81
g82
ssg70
g640
sg63
(lp647
S'session_id_welcome'
p648
asbag56
(g77
g58
NtRp649
(dp650
g61
(dp651
g88
g89
ssg70
g640
sg63
(lp652
S':'
asbag56
(g77
g58
NtRp653
(dp654
g61
(dp655
sg70
g640
sg63
(lp656
g56
(g57
g58
NtRp657
(dp658
g61
(dp659
g69
I4
ssg70
g653
sg63
(lp660
g56
(g65
g58
NtRp661
(dp662
g61
(dp663
g69
I3
ssg70
Nsg63
(lp664
g56
(g72
g58
NtRp665
(dp666
g61
(dp667
sg70
g661
sg63
(lp668
g56
(g77
g58
NtRp669
(dp670
g61
(dp671
g81
g82
ssg70
g665
sg63
(lp672
g295
asbag56
(g77
g58
NtRp673
(dp674
g61
(dp675
g88
g89
ssg70
g665
sg63
(lp676
S':'
asbag56
(g77
g58
NtRp677
(dp678
g61
(dp679
sg70
g665
sg63
(lp680
g56
(g57
g58
NtRp681
(dp682
g61
(dp683
g69
I3
ssg70
g677
sg63
(lp684
S''
asbasbasbag56
(g72
g58
NtRp685
(dp686
g61
(dp687
sg70
g661
sg63
(lp688
g56
(g77
g58
NtRp689
(dp690
g61
(dp691
g81
g82
ssg70
g685
sg63
(lp692
g316
asbag56
(g77
g58
NtRp693
(dp694
g61
(dp695
g88
g89
ssg70
g685
sg63
(lp696
S':'
asbag56
(g77
g58
NtRp697
(dp698
g61
(dp699
sg70
g685
sg63
(lp700
g56
(g57
g58
NtRp701
(dp702
g61
(dp703
g69
I3
ssg70
g697
sg63
(lp704
S''
asbasbasbag56
(g72
g58
NtRp705
(dp706
g61
(dp707
sg70
g661
sg63
(lp708
g56
(g77
g58
NtRp709
(dp710
g61
(dp711
g81
g82
ssg70
g705
sg63
(lp712
g337
asbag56
(g77
g58
NtRp713
(dp714
g61
(dp715
g88
g89
ssg70
g705
sg63
(lp716
S':'
asbag56
(g77
g58
NtRp717
(dp718
g61
(dp719
sg70
g705
sg63
(lp720
g56
(g57
g58
NtRp721
(dp722
g61
(dp723
g69
I3
ssg70
g717
sg63
(lp724
S''
asbasbasbag56
(g72
g58
NtRp725
(dp726
g61
(dp727
sg70
g661
sg63
(lp728
g56
(g77
g58
NtRp729
(dp730
g61
(dp731
g81
g82
ssg70
g725
sg63
(lp732
g358
asbag56
(g77
g58
NtRp733
(dp734
g61
(dp735
g88
g89
ssg70
g725
sg63
(lp736
S':'
asbag56
(g77
g58
NtRp737
(dp738
g61
(dp739
sg70
g725
sg63
(lp740
g56
(g57
g58
NtRp741
(dp742
g61
(dp743
g69
I3
ssg70
g737
sg63
(lp744
S''
asbasbasbag56
(g72
g58
NtRp745
(dp746
g61
(dp747
sg70
g661
sg63
(lp748
g56
(g77
g58
NtRp749
(dp750
g61
(dp751
g81
g82
ssg70
g745
sg63
(lp752
g379
asbag56
(g77
g58
NtRp753
(dp754
g61
(dp755
g88
g89
ssg70
g745
sg63
(lp756
S':'
asbag56
(g77
g58
NtRp757
(dp758
g61
(dp759
sg70
g745
sg63
(lp760
g56
(g57
g58
NtRp761
(dp762
g61
(dp763
g69
I3
ssg70
g757
sg63
(lp764
S''
asbasbasbag56
(g72
g58
NtRp765
(dp766
g61
(dp767
sg70
g661
sg63
(lp768
g56
(g77
g58
NtRp769
(dp770
g61
(dp771
g81
g82
ssg70
g765
sg63
(lp772
g400
asbag56
(g77
g58
NtRp773
(dp774
g61
(dp775
g88
g89
ssg70
g765
sg63
(lp776
S':'
asbag56
(g77
g58
NtRp777
(dp778
g61
(dp779
sg70
g765
sg63
(lp780
g56
(g57
g58
NtRp781
(dp782
g61
(dp783
g69
I3
ssg70
g777
sg63
(lp784
S''
asbasbasbag56
(g72
g58
NtRp785
(dp786
g61
(dp787
sg70
g661
sg63
(lp788
g56
(g77
g58
NtRp789
(dp790
g61
(dp791
g81
g82
ssg70
g785
sg63
(lp792
g421
asbag56
(g77
g58
NtRp793
(dp794
g61
(dp795
g88
g89
ssg70
g785
sg63
(lp796
S':'
asbag56
(g77
g58
NtRp797
(dp798
g61
(dp799
sg70
g785
sg63
(lp800
g56
(g57
g58
NtRp801
(dp802
g61
(dp803
g69
I3
ssg70
g797
sg63
(lp804
S''
asbasbasbag56
(g72
g58
NtRp805
(dp806
g61
(dp807
sg70
g661
sg63
(lp808
g56
(g77
g58
NtRp809
(dp810
g61
(dp811
g81
g82
ssg70
g805
sg63
(lp812
g442
asbag56
(g77
g58
NtRp813
(dp814
g61
(dp815
g88
g89
ssg70
g805
sg63
(lp816
S':'
asbag56
(g77
g58
NtRp817
(dp818
g61
(dp819
sg70
g805
sg63
(lp820
g56
(g57
g58
NtRp821
(dp822
g61
(dp823
g69
I3
ssg70
g817
sg63
(lp824
S''
asbasbasbasbasbasbasbasbasbasbasbag56
(g72
g58
NtRp825
(dp826
g61
(dp827
sg70
g66
sg63
(lp828
g56
(g77
g58
NtRp829
(dp830
g61
(dp831
g81
g82
ssg70
g825
sg63
(lp832
S'env'
p833
asbag56
(g77
g58
NtRp834
(dp835
g61
(dp836
g88
g89
ssg70
g825
sg63
(lp837
S':'
asbag56
(g77
g58
NtRp838
(dp839
g61
(dp840
sg70
g825
sg63
(lp841
g56
(g57
g58
NtRp842
(dp843
g61
(dp844
g69
I5
ssg70
g838
sg63
(lp845
g56
(g65
g58
NtRp846
(dp847
g61
(dp848
g69
I4
ssg70
Nsg63
(lp849
g56
(g72
g58
NtRp850
(dp851
g61
(dp852
sg70
g846
sg63
(lp853
g56
(g77
g58
NtRp854
(dp855
g61
(dp856
g81
g82
ssg70
g850
sg63
(lp857
S'app_folders'
p858
asbag56
(g77
g58
NtRp859
(dp860
g61
(dp861
g88
g89
ssg70
g850
sg63
(lp862
S':'
asbag56
(g77
g58
NtRp863
(dp864
g61
(dp865
sg70
g850
sg63
(lp866
g56
(g57
g58
NtRp867
(dp868
g61
(dp869
g69
I4
ssg70
g863
sg63
(lp870
S"set(['/home/ian/web2py/applications/topoi/', '/home/ian/web2py/applications/welcome/', '/home/ian/web2py/applications/admin/'])"
p871
asbasbasbag56
(g72
g58
NtRp872
(dp873
g61
(dp874
sg70
g846
sg63
(lp875
g56
(g77
g58
NtRp876
(dp877
g61
(dp878
g81
g82
ssg70
g872
sg63
(lp879
S'applications_parent'
p880
asbag56
(g77
g58
NtRp881
(dp882
g61
(dp883
g88
g89
ssg70
g872
sg63
(lp884
S':'
asbag56
(g77
g58
NtRp885
(dp886
g61
(dp887
sg70
g872
sg63
(lp888
g56
(g57
g58
NtRp889
(dp890
g61
(dp891
g69
I4
ssg70
g885
sg63
(lp892
S'/home/ian/web2py'
p893
asbasbasbag56
(g72
g58
NtRp894
(dp895
g61
(dp896
sg70
g846
sg63
(lp897
g56
(g77
g58
NtRp898
(dp899
g61
(dp900
g81
g82
ssg70
g894
sg63
(lp901
S'cmd_args'
p902
asbag56
(g77
g58
NtRp903
(dp904
g61
(dp905
g88
g89
ssg70
g894
sg63
(lp906
S':'
asbag56
(g77
g58
NtRp907
(dp908
g61
(dp909
sg70
g894
sg63
(lp910
g56
(g57
g58
NtRp911
(dp912
g61
(dp913
g69
I4
ssg70
g907
sg63
(lp914
g56
(g65
g58
NtRp915
(dp916
g61
(dp917
g69
I3
ssg70
Nsg63
(lp918
sbasbasbasbag56
(g72
g58
NtRp919
(dp920
g61
(dp921
sg70
g846
sg63
(lp922
g56
(g77
g58
NtRp923
(dp924
g61
(dp925
g81
g82
ssg70
g919
sg63
(lp926
S'cmd_options'
p927
asbag56
(g77
g58
NtRp928
(dp929
g61
(dp930
g88
g89
ssg70
g919
sg63
(lp931
S':'
asbag56
(g77
g58
NtRp932
(dp933
g61
(dp934
sg70
g919
sg63
(lp935
g56
(g57
g58
NtRp936
(dp937
g61
(dp938
g69
I4
ssg70
g932
sg63
(lp939
S"<Values at 0x23c17e8: {'verbose': False, 'ip': '127.0.0.1', 'shutdown_timeout': 5, 'taskbar': False, 'nocron': False, 'pid_filename': 'httpserver.pid', 'maxthreads': None, 'softcron': False, 'server_name': 'Ariel-ubuntu', 'bpython': False, 'nogui': False, 'port': 8000, 'extcron': False, 'debuglevel': 30, 'test': None, 'folder': '/home/ian/web2py', 'config': '', 'import_models': False, 'winservice': '', 'shell': None, 'run': '', 'log_filename': 'httpserver.log', 'args': [''], 'ssl_ca_certificate': None, 'scheduler': None, 'profiler_filename': None, 'ssl_private_key': '', 'password': '<ask>', 'request_queue_size': 5, 'ssl_certificate': '', 'cronjob': False, 'plain': False, 'quiet': False, 'interfaces': None, 'minthreads': None, 'timeout': 10, 'numthreads': None, 'nobanner': False}>"
p940
asbasbasbag56
(g72
g58
NtRp941
(dp942
g61
(dp943
sg70
g846
sg63
(lp944
g56
(g77
g58
NtRp945
(dp946
g61
(dp947
g81
g82
ssg70
g941
sg63
(lp948
S'db_sessions'
p949
asbag56
(g77
g58
NtRp950
(dp951
g61
(dp952
g88
g89
ssg70
g941
sg63
(lp953
S':'
asbag56
(g77
g58
NtRp954
(dp955
g61
(dp956
sg70
g941
sg63
(lp957
g56
(g57
g58
NtRp958
(dp959
g61
(dp960
g69
I4
ssg70
g954
sg63
(lp961
S'set([])'
p962
asbasbasbag56
(g72
g58
NtRp963
(dp964
g61
(dp965
sg70
g846
sg63
(lp966
g56
(g77
g58
NtRp967
(dp968
g61
(dp969
g81
g82
ssg70
g963
sg63
(lp970
S'debugging'
p971
asbag56
(g77
g58
NtRp972
(dp973
g61
(dp974
g88
g89
ssg70
g963
sg63
(lp975
S':'
asbag56
(g77
g58
NtRp976
(dp977
g61
(dp978
sg70
g963
sg63
(lp979
g56
(g57
g58
NtRp980
(dp981
g61
(dp982
g69
I4
ssg70
g976
sg63
(lp983
g99
asbasbasbag56
(g72
g58
NtRp984
(dp985
g61
(dp986
sg70
g846
sg63
(lp987
g56
(g77
g58
NtRp988
(dp989
g61
(dp990
g81
g82
ssg70
g984
sg63
(lp991
S'gluon_parent'
p992
asbag56
(g77
g58
NtRp993
(dp994
g61
(dp995
g88
g89
ssg70
g984
sg63
(lp996
S':'
asbag56
(g77
g58
NtRp997
(dp998
g61
(dp999
sg70
g984
sg63
(lp1000
g56
(g57
g58
NtRp1001
(dp1002
g61
(dp1003
g69
I4
ssg70
g997
sg63
(lp1004
S'/home/ian/web2py'
p1005
asbasbasbag56
(g72
g58
NtRp1006
(dp1007
g61
(dp1008
sg70
g846
sg63
(lp1009
g56
(g77
g58
NtRp1010
(dp1011
g61
(dp1012
g81
g82
ssg70
g1006
sg63
(lp1013
S'http_accept'
p1014
asbag56
(g77
g58
NtRp1015
(dp1016
g61
(dp1017
g88
g89
ssg70
g1006
sg63
(lp1018
S':'
asbag56
(g77
g58
NtRp1019
(dp1020
g61
(dp1021
sg70
g1006
sg63
(lp1022
g56
(g57
g58
NtRp1023
(dp1024
g61
(dp1025
g69
I4
ssg70
g1019
sg63
(lp1026
S'text/html,application/xhtml+xml,application/xml;q=0.9,*/*;q=0.8'
p1027
asbasbasbag56
(g72
g58
NtRp1028
(dp1029
g61
(dp1030
sg70
g846
sg63
(lp1031
g56
(g77
g58
NtRp1032
(dp1033
g61
(dp1034
g81
g82
ssg70
g1028
sg63
(lp1035
S'http_accept_charset'
p1036
asbag56
(g77
g58
NtRp1037
(dp1038
g61
(dp1039
g88
g89
ssg70
g1028
sg63
(lp1040
S':'
asbag56
(g77
g58
NtRp1041
(dp1042
g61
(dp1043
sg70
g1028
sg63
(lp1044
g56
(g57
g58
NtRp1045
(dp1046
g61
(dp1047
g69
I4
ssg70
g1041
sg63
(lp1048
S'ISO-8859-1,utf-8;q=0.7,*;q=0.7'
p1049
asbasbasbag56
(g72
g58
NtRp1050
(dp1051
g61
(dp1052
sg70
g846
sg63
(lp1053
g56
(g77
g58
NtRp1054
(dp1055
g61
(dp1056
g81
g82
ssg70
g1050
sg63
(lp1057
S'http_accept_encoding'
p1058
asbag56
(g77
g58
NtRp1059
(dp1060
g61
(dp1061
g88
g89
ssg70
g1050
sg63
(lp1062
S':'
asbag56
(g77
g58
NtRp1063
(dp1064
g61
(dp1065
sg70
g1050
sg63
(lp1066
g56
(g57
g58
NtRp1067
(dp1068
g61
(dp1069
g69
I4
ssg70
g1063
sg63
(lp1070
S'gzip, deflate'
p1071
asbasbasbag56
(g72
g58
NtRp1072
(dp1073
g61
(dp1074
sg70
g846
sg63
(lp1075
g56
(g77
g58
NtRp1076
(dp1077
g61
(dp1078
g81
g82
ssg70
g1072
sg63
(lp1079
S'http_accept_language'
p1080
asbag56
(g77
g58
NtRp1081
(dp1082
g61
(dp1083
g88
g89
ssg70
g1072
sg63
(lp1084
S':'
asbag56
(g77
g58
NtRp1085
(dp1086
g61
(dp1087
sg70
g1072
sg63
(lp1088
g56
(g57
g58
NtRp1089
(dp1090
g61
(dp1091
g69
I4
ssg70
g1085
sg63
(lp1092
S'en-us,en;q=0.5'
p1093
asbasbasbag56
(g72
g58
NtRp1094
(dp1095
g61
(dp1096
sg70
g846
sg63
(lp1097
g56
(g77
g58
NtRp1098
(dp1099
g61
(dp1100
g81
g82
ssg70
g1094
sg63
(lp1101
S'http_cache_control'
p1102
asbag56
(g77
g58
NtRp1103
(dp1104
g61
(dp1105
g88
g89
ssg70
g1094
sg63
(lp1106
S':'
asbag56
(g77
g58
NtRp1107
(dp1108
g61
(dp1109
sg70
g1094
sg63
(lp1110
g56
(g57
g58
NtRp1111
(dp1112
g61
(dp1113
g69
I4
ssg70
g1107
sg63
(lp1114
S'max-age=0'
p1115
asbasbasbag56
(g72
g58
NtRp1116
(dp1117
g61
(dp1118
sg70
g846
sg63
(lp1119
g56
(g77
g58
NtRp1120
(dp1121
g61
(dp1122
g81
g82
ssg70
g1116
sg63
(lp1123
S'http_connection'
p1124
asbag56
(g77
g58
NtRp1125
(dp1126
g61
(dp1127
g88
g89
ssg70
g1116
sg63
(lp1128
S':'
asbag56
(g77
g58
NtRp1129
(dp1130
g61
(dp1131
sg70
g1116
sg63
(lp1132
g56
(g57
g58
NtRp1133
(dp1134
g61
(dp1135
g69
I4
ssg70
g1129
sg63
(lp1136
S'keep-alive'
p1137
asbasbasbag56
(g72
g58
NtRp1138
(dp1139
g61
(dp1140
sg70
g846
sg63
(lp1141
g56
(g77
g58
NtRp1142
(dp1143
g61
(dp1144
g81
g82
ssg70
g1138
sg63
(lp1145
S'http_cookie'
p1146
asbag56
(g77
g58
NtRp1147
(dp1148
g61
(dp1149
g88
g89
ssg70
g1138
sg63
(lp1150
S':'
asbag56
(g77
g58
NtRp1151
(dp1152
g61
(dp1153
sg70
g1138
sg63
(lp1154
g56
(g57
g58
NtRp1155
(dp1156
g61
(dp1157
g69
I4
ssg70
g1151
sg63
(lp1158
S'__utma_a2a=9789918665.1351576430.1320019504.1320019504.1320019504.1; session_id_welcome=127.0.0.1-a77aa2e1-9ae0-4876-b1d9-0b9571817b36; session_id_topoi=127.0.0.1-2f28f4fc-35e5-4bf2-b8f8-40a9869bdbd4; session_id_admin=127.0.0.1-7f2e3fc8-1364-4dfb-b356-76e4726e60da'
p1159
asbasbasbag56
(g72
g58
NtRp1160
(dp1161
g61
(dp1162
sg70
g846
sg63
(lp1163
g56
(g77
g58
NtRp1164
(dp1165
g61
(dp1166
g81
g82
ssg70
g1160
sg63
(lp1167
S'http_host'
p1168
asbag56
(g77
g58
NtRp1169
(dp1170
g61
(dp1171
g88
g89
ssg70
g1160
sg63
(lp1172
S':'
asbag56
(g77
g58
NtRp1173
(dp1174
g61
(dp1175
sg70
g1160
sg63
(lp1176
g56
(g57
g58
NtRp1177
(dp1178
g61
(dp1179
g69
I4
ssg70
g1173
sg63
(lp1180
S'127.0.0.1:8000'
p1181
asbasbasbag56
(g72
g58
NtRp1182
(dp1183
g61
(dp1184
sg70
g846
sg63
(lp1185
g56
(g77
g58
NtRp1186
(dp1187
g61
(dp1188
g81
g82
ssg70
g1182
sg63
(lp1189
S'http_referer'
p1190
asbag56
(g77
g58
NtRp1191
(dp1192
g61
(dp1193
g88
g89
ssg70
g1182
sg63
(lp1194
S':'
asbag56
(g77
g58
NtRp1195
(dp1196
g61
(dp1197
sg70
g1182
sg63
(lp1198
g56
(g57
g58
NtRp1199
(dp1200
g61
(dp1201
g69
I4
ssg70
g1195
sg63
(lp1202
S'http://127.0.0.1:8000/topoi'
p1203
asbasbasbag56
(g72
g58
NtRp1204
(dp1205
g61
(dp1206
sg70
g846
sg63
(lp1207
g56
(g77
g58
NtRp1208
(dp1209
g61
(dp1210
g81
g82
ssg70
g1204
sg63
(lp1211
S'http_user_agent'
p1212
asbag56
(g77
g58
NtRp1213
(dp1214
g61
(dp1215
g88
g89
ssg70
g1204
sg63
(lp1216
S':'
asbag56
(g77
g58
NtRp1217
(dp1218
g61
(dp1219
sg70
g1204
sg63
(lp1220
g56
(g57
g58
NtRp1221
(dp1222
g61
(dp1223
g69
I4
ssg70
g1217
sg63
(lp1224
S'Mozilla/5.0 (Ubuntu; X11; Linux x86_64; rv:8.0) Gecko/20100101 Firefox/8.0 FirePHP/0.6'
p1225
asbasbasbag56
(g72
g58
NtRp1226
(dp1227
g61
(dp1228
sg70
g846
sg63
(lp1229
g56
(g77
g58
NtRp1230
(dp1231
g61
(dp1232
g81
g82
ssg70
g1226
sg63
(lp1233
S'http_x_insight'
p1234
asbag56
(g77
g58
NtRp1235
(dp1236
g61
(dp1237
g88
g89
ssg70
g1226
sg63
(lp1238
S':'
asbag56
(g77
g58
NtRp1239
(dp1240
g61
(dp1241
sg70
g1226
sg63
(lp1242
g56
(g57
g58
NtRp1243
(dp1244
g61
(dp1245
g69
I4
ssg70
g1239
sg63
(lp1246
S'activate'
p1247
asbasbasbag56
(g72
g58
NtRp1248
(dp1249
g61
(dp1250
sg70
g846
sg63
(lp1251
g56
(g77
g58
NtRp1252
(dp1253
g61
(dp1254
g81
g82
ssg70
g1248
sg63
(lp1255
S'is_jython'
p1256
asbag56
(g77
g58
NtRp1257
(dp1258
g61
(dp1259
g88
g89
ssg70
g1248
sg63
(lp1260
S':'
asbag56
(g77
g58
NtRp1261
(dp1262
g61
(dp1263
sg70
g1248
sg63
(lp1264
g56
(g57
g58
NtRp1265
(dp1266
g61
(dp1267
g69
I4
ssg70
g1261
sg63
(lp1268
g99
asbasbasbag56
(g72
g58
NtRp1269
(dp1270
g61
(dp1271
sg70
g846
sg63
(lp1272
g56
(g77
g58
NtRp1273
(dp1274
g61
(dp1275
g81
g82
ssg70
g1269
sg63
(lp1276
S'path_info'
p1277
asbag56
(g77
g58
NtRp1278
(dp1279
g61
(dp1280
g88
g89
ssg70
g1269
sg63
(lp1281
S':'
asbag56
(g77
g58
NtRp1282
(dp1283
g61
(dp1284
sg70
g1269
sg63
(lp1285
g56
(g57
g58
NtRp1286
(dp1287
g61
(dp1288
g69
I4
ssg70
g1282
sg63
(lp1289
S'/topoi/plugin_listandedit/list/note/1'
p1290
asbasbasbag56
(g72
g58
NtRp1291
(dp1292
g61
(dp1293
sg70
g846
sg63
(lp1294
g56
(g77
g58
NtRp1295
(dp1296
g61
(dp1297
g81
g82
ssg70
g1291
sg63
(lp1298
S'query_string'
p1299
asbag56
(g77
g58
NtRp1300
(dp1301
g61
(dp1302
g88
g89
ssg70
g1291
sg63
(lp1303
S':'
asbag56
(g77
g58
NtRp1304
(dp1305
g61
(dp1306
sg70
g1291
sg63
(lp1307
g56
(g57
g58
NtRp1308
(dp1309
g61
(dp1310
g69
I4
ssg70
g1304
sg63
(lp1311
S''
asbasbasbag56
(g72
g58
NtRp1312
(dp1313
g61
(dp1314
sg70
g846
sg63
(lp1315
g56
(g77
g58
NtRp1316
(dp1317
g61
(dp1318
g81
g82
ssg70
g1312
sg63
(lp1319
S'remote_addr'
p1320
asbag56
(g77
g58
NtRp1321
(dp1322
g61
(dp1323
g88
g89
ssg70
g1312
sg63
(lp1324
S':'
asbag56
(g77
g58
NtRp1325
(dp1326
g61
(dp1327
sg70
g1312
sg63
(lp1328
g56
(g57
g58
NtRp1329
(dp1330
g61
(dp1331
g69
I4
ssg70
g1325
sg63
(lp1332
g214
asbasbasbag56
(g72
g58
NtRp1333
(dp1334
g61
(dp1335
sg70
g846
sg63
(lp1336
g56
(g77
g58
NtRp1337
(dp1338
g61
(dp1339
g81
g82
ssg70
g1333
sg63
(lp1340
S'remote_port'
p1341
asbag56
(g77
g58
NtRp1342
(dp1343
g61
(dp1344
g88
g89
ssg70
g1333
sg63
(lp1345
S':'
asbag56
(g77
g58
NtRp1346
(dp1347
g61
(dp1348
sg70
g1333
sg63
(lp1349
g56
(g57
g58
NtRp1350
(dp1351
g61
(dp1352
g69
I4
ssg70
g1346
sg63
(lp1353
S'53978'
p1354
asbasbasbag56
(g72
g58
NtRp1355
(dp1356
g61
(dp1357
sg70
g846
sg63
(lp1358
g56
(g77
g58
NtRp1359
(dp1360
g61
(dp1361
g81
g82
ssg70
g1355
sg63
(lp1362
S'request_method'
p1363
asbag56
(g77
g58
NtRp1364
(dp1365
g61
(dp1366
g88
g89
ssg70
g1355
sg63
(lp1367
S':'
asbag56
(g77
g58
NtRp1368
(dp1369
g61
(dp1370
sg70
g1355
sg63
(lp1371
g56
(g57
g58
NtRp1372
(dp1373
g61
(dp1374
g69
I4
ssg70
g1368
sg63
(lp1375
S'GET'
p1376
asbasbasbag56
(g72
g58
NtRp1377
(dp1378
g61
(dp1379
sg70
g846
sg63
(lp1380
g56
(g77
g58
NtRp1381
(dp1382
g61
(dp1383
g81
g82
ssg70
g1377
sg63
(lp1384
S'script_name'
p1385
asbag56
(g77
g58
NtRp1386
(dp1387
g61
(dp1388
g88
g89
ssg70
g1377
sg63
(lp1389
S':'
asbag56
(g77
g58
NtRp1390
(dp1391
g61
(dp1392
sg70
g1377
sg63
(lp1393
g56
(g57
g58
NtRp1394
(dp1395
g61
(dp1396
g69
I4
ssg70
g1390
sg63
(lp1397
S''
asbasbasbag56
(g72
g58
NtRp1398
(dp1399
g61
(dp1400
sg70
g846
sg63
(lp1401
g56
(g77
g58
NtRp1402
(dp1403
g61
(dp1404
g81
g82
ssg70
g1398
sg63
(lp1405
S'server_name'
p1406
asbag56
(g77
g58
NtRp1407
(dp1408
g61
(dp1409
g88
g89
ssg70
g1398
sg63
(lp1410
S':'
asbag56
(g77
g58
NtRp1411
(dp1412
g61
(dp1413
sg70
g1398
sg63
(lp1414
g56
(g57
g58
NtRp1415
(dp1416
g61
(dp1417
g69
I4
ssg70
g1411
sg63
(lp1418
S'Ariel-ubuntu'
p1419
asbasbasbag56
(g72
g58
NtRp1420
(dp1421
g61
(dp1422
sg70
g846
sg63
(lp1423
g56
(g77
g58
NtRp1424
(dp1425
g61
(dp1426
g81
g82
ssg70
g1420
sg63
(lp1427
S'server_port'
p1428
asbag56
(g77
g58
NtRp1429
(dp1430
g61
(dp1431
g88
g89
ssg70
g1420
sg63
(lp1432
S':'
asbag56
(g77
g58
NtRp1433
(dp1434
g61
(dp1435
sg70
g1420
sg63
(lp1436
g56
(g57
g58
NtRp1437
(dp1438
g61
(dp1439
g69
I4
ssg70
g1433
sg63
(lp1440
S'8000'
p1441
asbasbasbag56
(g72
g58
NtRp1442
(dp1443
g61
(dp1444
sg70
g846
sg63
(lp1445
g56
(g77
g58
NtRp1446
(dp1447
g61
(dp1448
g81
g82
ssg70
g1442
sg63
(lp1449
S'server_protocol'
p1450
asbag56
(g77
g58
NtRp1451
(dp1452
g61
(dp1453
g88
g89
ssg70
g1442
sg63
(lp1454
S':'
asbag56
(g77
g58
NtRp1455
(dp1456
g61
(dp1457
sg70
g1442
sg63
(lp1458
g56
(g57
g58
NtRp1459
(dp1460
g61
(dp1461
g69
I4
ssg70
g1455
sg63
(lp1462
S'HTTP/1.1'
p1463
asbasbasbag56
(g72
g58
NtRp1464
(dp1465
g61
(dp1466
sg70
g846
sg63
(lp1467
g56
(g77
g58
NtRp1468
(dp1469
g61
(dp1470
g81
g82
ssg70
g1464
sg63
(lp1471
S'server_software'
p1472
asbag56
(g77
g58
NtRp1473
(dp1474
g61
(dp1475
g88
g89
ssg70
g1464
sg63
(lp1476
S':'
asbag56
(g77
g58
NtRp1477
(dp1478
g61
(dp1479
sg70
g1464
sg63
(lp1480
g56
(g57
g58
NtRp1481
(dp1482
g61
(dp1483
g69
I4
ssg70
g1477
sg63
(lp1484
S'Rocket 1.2.4'
p1485
asbasbasbag56
(g72
g58
NtRp1486
(dp1487
g61
(dp1488
sg70
g846
sg63
(lp1489
g56
(g77
g58
NtRp1490
(dp1491
g61
(dp1492
g81
g82
ssg70
g1486
sg63
(lp1493
S'web2py_crontype'
p1494
asbag56
(g77
g58
NtRp1495
(dp1496
g61
(dp1497
g88
g89
ssg70
g1486
sg63
(lp1498
S':'
asbag56
(g77
g58
NtRp1499
(dp1500
g61
(dp1501
sg70
g1486
sg63
(lp1502
g56
(g57
g58
NtRp1503
(dp1504
g61
(dp1505
g69
I4
ssg70
g1499
sg63
(lp1506
S'hard'
p1507
asbasbasbag56
(g72
g58
NtRp1508
(dp1509
g61
(dp1510
sg70
g846
sg63
(lp1511
g56
(g77
g58
NtRp1512
(dp1513
g61
(dp1514
g81
g82
ssg70
g1508
sg63
(lp1515
S'web2py_path'
p1516
asbag56
(g77
g58
NtRp1517
(dp1518
g61
(dp1519
g88
g89
ssg70
g1508
sg63
(lp1520
S':'
asbag56
(g77
g58
NtRp1521
(dp1522
g61
(dp1523
sg70
g1508
sg63
(lp1524
g56
(g57
g58
NtRp1525
(dp1526
g61
(dp1527
g69
I4
ssg70
g1521
sg63
(lp1528
g893
asbasbasbag56
(g72
g58
NtRp1529
(dp1530
g61
(dp1531
sg70
g846
sg63
(lp1532
g56
(g77
g58
NtRp1533
(dp1534
g61
(dp1535
g81
g82
ssg70
g1529
sg63
(lp1536
S'web2py_version'
p1537
asbag56
(g77
g58
NtRp1538
(dp1539
g61
(dp1540
g88
g89
ssg70
g1529
sg63
(lp1541
S':'
asbag56
(g77
g58
NtRp1542
(dp1543
g61
(dp1544
sg70
g1529
sg63
(lp1545
g56
(g57
g58
NtRp1546
(dp1547
g61
(dp1548
g69
I4
ssg70
g1542
sg63
(lp1549
g56
(g65
g58
NtRp1550
(dp1551
g61
(dp1552
g69
I3
ssg70
Nsg63
(lp1553
g56
(g72
g58
NtRp1554
(dp1555
g61
(dp1556
sg70
g1550
sg63
(lp1557
g56
(g77
g58
NtRp1558
(dp1559
g61
(dp1560
sg70
g1554
sg63
(lp1561
g56
(g57
g58
NtRp1562
(dp1563
g61
(dp1564
g69
I3
ssg70
g1558
sg63
(lp1565
S'1'
asbasbasbag56
(g72
g58
NtRp1566
(dp1567
g61
(dp1568
sg70
g1550
sg63
(lp1569
g56
(g77
g58
NtRp1570
(dp1571
g61
(dp1572
sg70
g1566
sg63
(lp1573
g56
(g57
g58
NtRp1574
(dp1575
g61
(dp1576
g69
I3
ssg70
g1570
sg63
(lp1577
S'99'
p1578
asbasbasbag56
(g72
g58
NtRp1579
(dp1580
g61
(dp1581
sg70
g1550
sg63
(lp1582
g56
(g77
g58
NtRp1583
(dp1584
g61
(dp1585
sg70
g1579
sg63
(lp1586
g56
(g57
g58
NtRp1587
(dp1588
g61
(dp1589
g69
I3
ssg70
g1583
sg63
(lp1590
S'2'
asbasbasbag56
(g72
g58
NtRp1591
(dp1592
g61
(dp1593
sg70
g1550
sg63
(lp1594
g56
(g77
g58
NtRp1595
(dp1596
g61
(dp1597
sg70
g1591
sg63
(lp1598
g56
(g57
g58
NtRp1599
(dp1600
g61
(dp1601
g69
I3
ssg70
g1595
sg63
(lp1602
S'datetime.datetime(2011, 9, 26, 6, 55, 33)'
p1603
asbasbasbag56
(g72
g58
NtRp1604
(dp1605
g61
(dp1606
sg70
g1550
sg63
(lp1607
g56
(g77
g58
NtRp1608
(dp1609
g61
(dp1610
sg70
g1604
sg63
(lp1611
g56
(g57
g58
NtRp1612
(dp1613
g61
(dp1614
g69
I3
ssg70
g1608
sg63
(lp1615
S'stable'
p1616
asbasbasbasbasbasbasbag56
(g72
g58
NtRp1617
(dp1618
g61
(dp1619
sg70
g846
sg63
(lp1620
g56
(g77
g58
NtRp1621
(dp1622
g61
(dp1623
g81
g82
ssg70
g1617
sg63
(lp1624
S'wsgi_errors'
p1625
asbag56
(g77
g58
NtRp1626
(dp1627
g61
(dp1628
g88
g89
ssg70
g1617
sg63
(lp1629
S':'
asbag56
(g77
g58
NtRp1630
(dp1631
g61
(dp1632
sg70
g1617
sg63
(lp1633
g56
(g57
g58
NtRp1634
(dp1635
g61
(dp1636
g69
I4
ssg70
g1630
sg63
(lp1637
S"<open file '<stderr>', mode 'w' at 0x7ffcfbcc0270>"
p1638
asbasbasbag56
(g72
g58
NtRp1639
(dp1640
g61
(dp1641
sg70
g846
sg63
(lp1642
g56
(g77
g58
NtRp1643
(dp1644
g61
(dp1645
g81
g82
ssg70
g1639
sg63
(lp1646
S'wsgi_file_wrapper'
p1647
asbag56
(g77
g58
NtRp1648
(dp1649
g61
(dp1650
g88
g89
ssg70
g1639
sg63
(lp1651
S':'
asbag56
(g77
g58
NtRp1652
(dp1653
g61
(dp1654
sg70
g1639
sg63
(lp1655
g56
(g57
g58
NtRp1656
(dp1657
g61
(dp1658
g69
I4
ssg70
g1652
sg63
(lp1659
S'<class wsgiref.util.FileWrapper at 0x228a808>'
p1660
asbasbasbag56
(g72
g58
NtRp1661
(dp1662
g61
(dp1663
sg70
g846
sg63
(lp1664
g56
(g77
g58
NtRp1665
(dp1666
g61
(dp1667
g81
g82
ssg70
g1661
sg63
(lp1668
S'wsgi_input'
p1669
asbag56
(g77
g58
NtRp1670
(dp1671
g61
(dp1672
g88
g89
ssg70
g1661
sg63
(lp1673
S':'
asbag56
(g77
g58
NtRp1674
(dp1675
g61
(dp1676
sg70
g1661
sg63
(lp1677
g56
(g57
g58
NtRp1678
(dp1679
g61
(dp1680
g69
I4
ssg70
g1674
sg63
(lp1681
S'<socket._fileobject object at 0x29572d0>'
p1682
asbasbasbag56
(g72
g58
NtRp1683
(dp1684
g61
(dp1685
sg70
g846
sg63
(lp1686
g56
(g77
g58
NtRp1687
(dp1688
g61
(dp1689
g81
g82
ssg70
g1683
sg63
(lp1690
S'wsgi_multiprocess'
p1691
asbag56
(g77
g58
NtRp1692
(dp1693
g61
(dp1694
g88
g89
ssg70
g1683
sg63
(lp1695
S':'
asbag56
(g77
g58
NtRp1696
(dp1697
g61
(dp1698
sg70
g1683
sg63
(lp1699
g56
(g57
g58
NtRp1700
(dp1701
g61
(dp1702
g69
I4
ssg70
g1696
sg63
(lp1703
g99
asbasbasbag56
(g72
g58
NtRp1704
(dp1705
g61
(dp1706
sg70
g846
sg63
(lp1707
g56
(g77
g58
NtRp1708
(dp1709
g61
(dp1710
g81
g82
ssg70
g1704
sg63
(lp1711
S'wsgi_multithread'
p1712
asbag56
(g77
g58
NtRp1713
(dp1714
g61
(dp1715
g88
g89
ssg70
g1704
sg63
(lp1716
S':'
asbag56
(g77
g58
NtRp1717
(dp1718
g61
(dp1719
sg70
g1704
sg63
(lp1720
g56
(g57
g58
NtRp1721
(dp1722
g61
(dp1723
g69
I4
ssg70
g1717
sg63
(lp1724
S'True'
p1725
asbasbasbag56
(g72
g58
NtRp1726
(dp1727
g61
(dp1728
sg70
g846
sg63
(lp1729
g56
(g77
g58
NtRp1730
(dp1731
g61
(dp1732
g81
g82
ssg70
g1726
sg63
(lp1733
S'wsgi_run_once'
p1734
asbag56
(g77
g58
NtRp1735
(dp1736
g61
(dp1737
g88
g89
ssg70
g1726
sg63
(lp1738
S':'
asbag56
(g77
g58
NtRp1739
(dp1740
g61
(dp1741
sg70
g1726
sg63
(lp1742
g56
(g57
g58
NtRp1743
(dp1744
g61
(dp1745
g69
I4
ssg70
g1739
sg63
(lp1746
g99
asbasbasbag56
(g72
g58
NtRp1747
(dp1748
g61
(dp1749
sg70
g846
sg63
(lp1750
g56
(g77
g58
NtRp1751
(dp1752
g61
(dp1753
g81
g82
ssg70
g1747
sg63
(lp1754
S'wsgi_url_scheme'
p1755
asbag56
(g77
g58
NtRp1756
(dp1757
g61
(dp1758
g88
g89
ssg70
g1747
sg63
(lp1759
S':'
asbag56
(g77
g58
NtRp1760
(dp1761
g61
(dp1762
sg70
g1747
sg63
(lp1763
g56
(g57
g58
NtRp1764
(dp1765
g61
(dp1766
g69
I4
ssg70
g1760
sg63
(lp1767
S'http'
p1768
asbasbasbag56
(g72
g58
NtRp1769
(dp1770
g61
(dp1771
sg70
g846
sg63
(lp1772
g56
(g77
g58
NtRp1773
(dp1774
g61
(dp1775
g81
g82
ssg70
g1769
sg63
(lp1776
S'wsgi_version'
p1777
asbag56
(g77
g58
NtRp1778
(dp1779
g61
(dp1780
g88
g89
ssg70
g1769
sg63
(lp1781
S':'
asbag56
(g77
g58
NtRp1782
(dp1783
g61
(dp1784
sg70
g1769
sg63
(lp1785
g56
(g57
g58
NtRp1786
(dp1787
g61
(dp1788
g69
I4
ssg70
g1782
sg63
(lp1789
g56
(g65
g58
NtRp1790
(dp1791
g61
(dp1792
g69
I3
ssg70
Nsg63
(lp1793
g56
(g72
g58
NtRp1794
(dp1795
g61
(dp1796
sg70
g1790
sg63
(lp1797
g56
(g77
g58
NtRp1798
(dp1799
g61
(dp1800
sg70
g1794
sg63
(lp1801
g56
(g57
g58
NtRp1802
(dp1803
g61
(dp1804
g69
I3
ssg70
g1798
sg63
(lp1805
S'1'
asbasbasbag56
(g72
g58
NtRp1806
(dp1807
g61
(dp1808
sg70
g1790
sg63
(lp1809
g56
(g77
g58
NtRp1810
(dp1811
g61
(dp1812
sg70
g1806
sg63
(lp1813
g56
(g57
g58
NtRp1814
(dp1815
g61
(dp1816
g69
I3
ssg70
g1810
sg63
(lp1817
S'0'
asbasbasbasbasbasbasbasbasbasbasbag56
(g72
g58
NtRp1818
(dp1819
g61
(dp1820
sg70
g66
sg63
(lp1821
g56
(g77
g58
NtRp1822
(dp1823
g61
(dp1824
g81
g82
ssg70
g1818
sg63
(lp1825
S'extension'
p1826
asbag56
(g77
g58
NtRp1827
(dp1828
g61
(dp1829
g88
g89
ssg70
g1818
sg63
(lp1830
S':'
asbag56
(g77
g58
NtRp1831
(dp1832
g61
(dp1833
sg70
g1818
sg63
(lp1834
g56
(g57
g58
NtRp1835
(dp1836
g61
(dp1837
g69
I5
ssg70
g1831
sg63
(lp1838
S'html'
p1839
asbasbasbag56
(g72
g58
NtRp1840
(dp1841
g61
(dp1842
sg70
g66
sg63
(lp1843
g56
(g77
g58
NtRp1844
(dp1845
g61
(dp1846
g81
g82
ssg70
g1840
sg63
(lp1847
S'folder'
p1848
asbag56
(g77
g58
NtRp1849
(dp1850
g61
(dp1851
g88
g89
ssg70
g1840
sg63
(lp1852
S':'
asbag56
(g77
g58
NtRp1853
(dp1854
g61
(dp1855
sg70
g1840
sg63
(lp1856
g56
(g57
g58
NtRp1857
(dp1858
g61
(dp1859
g69
I5
ssg70
g1853
sg63
(lp1860
S'/home/ian/web2py/applications/topoi/'
p1861
asbasbasbag56
(g72
g58
NtRp1862
(dp1863
g61
(dp1864
sg70
g66
sg63
(lp1865
g56
(g77
g58
NtRp1866
(dp1867
g61
(dp1868
g81
g82
ssg70
g1862
sg63
(lp1869
S'function'
p1870
asbag56
(g77
g58
NtRp1871
(dp1872
g61
(dp1873
g88
g89
ssg70
g1862
sg63
(lp1874
S':'
asbag56
(g77
g58
NtRp1875
(dp1876
g61
(dp1877
sg70
g1862
sg63
(lp1878
g56
(g57
g58
NtRp1879
(dp1880
g61
(dp1881
g69
I5
ssg70
g1875
sg63
(lp1882
S'list'
p1883
asbasbasbag56
(g72
g58
NtRp1884
(dp1885
g61
(dp1886
sg70
g66
sg63
(lp1887
g56
(g77
g58
NtRp1888
(dp1889
g61
(dp1890
g81
g82
ssg70
g1884
sg63
(lp1891
S'get_vars'
p1892
asbag56
(g77
g58
NtRp1893
(dp1894
g61
(dp1895
g88
g89
ssg70
g1884
sg63
(lp1896
S':'
asbag56
(g77
g58
NtRp1897
(dp1898
g61
(dp1899
sg70
g1884
sg63
(lp1900
g56
(g57
g58
NtRp1901
(dp1902
g61
(dp1903
g69
I5
ssg70
g1897
sg63
(lp1904
g56
(g65
g58
NtRp1905
(dp1906
g61
(dp1907
g69
I4
ssg70
Nsg63
(lp1908
sbasbasbasbag56
(g72
g58
NtRp1909
(dp1910
g61
(dp1911
sg70
g66
sg63
(lp1912
g56
(g77
g58
NtRp1913
(dp1914
g61
(dp1915
g81
g82
ssg70
g1909
sg63
(lp1916
S'global_settings'
p1917
asbag56
(g77
g58
NtRp1918
(dp1919
g61
(dp1920
g88
g89
ssg70
g1909
sg63
(lp1921
S':'
asbag56
(g77
g58
NtRp1922
(dp1923
g61
(dp1924
sg70
g1909
sg63
(lp1925
g56
(g57
g58
NtRp1926
(dp1927
g61
(dp1928
g69
I5
ssg70
g1922
sg63
(lp1929
g56
(g65
g58
NtRp1930
(dp1931
g61
(dp1932
g69
I4
ssg70
Nsg63
(lp1933
g56
(g72
g58
NtRp1934
(dp1935
g61
(dp1936
sg70
g1930
sg63
(lp1937
g56
(g77
g58
NtRp1938
(dp1939
g61
(dp1940
g81
g82
ssg70
g1934
sg63
(lp1941
g858
asbag56
(g77
g58
NtRp1942
(dp1943
g61
(dp1944
g88
g89
ssg70
g1934
sg63
(lp1945
S':'
asbag56
(g77
g58
NtRp1946
(dp1947
g61
(dp1948
sg70
g1934
sg63
(lp1949
g56
(g57
g58
NtRp1950
(dp1951
g61
(dp1952
g69
I4
ssg70
g1946
sg63
(lp1953
S"set(['/home/ian/web2py/applications/topoi/', '/home/ian/web2py/applications/welcome/', '/home/ian/web2py/applications/admin/'])"
p1954
asbasbasbag56
(g72
g58
NtRp1955
(dp1956
g61
(dp1957
sg70
g1930
sg63
(lp1958
g56
(g77
g58
NtRp1959
(dp1960
g61
(dp1961
g81
g82
ssg70
g1955
sg63
(lp1962
g880
asbag56
(g77
g58
NtRp1963
(dp1964
g61
(dp1965
g88
g89
ssg70
g1955
sg63
(lp1966
S':'
asbag56
(g77
g58
NtRp1967
(dp1968
g61
(dp1969
sg70
g1955
sg63
(lp1970
g56
(g57
g58
NtRp1971
(dp1972
g61
(dp1973
g69
I4
ssg70
g1967
sg63
(lp1974
g893
asbasbasbag56
(g72
g58
NtRp1975
(dp1976
g61
(dp1977
sg70
g1930
sg63
(lp1978
g56
(g77
g58
NtRp1979
(dp1980
g61
(dp1981
g81
g82
ssg70
g1975
sg63
(lp1982
g902
asbag56
(g77
g58
NtRp1983
(dp1984
g61
(dp1985
g88
g89
ssg70
g1975
sg63
(lp1986
S':'
asbag56
(g77
g58
NtRp1987
(dp1988
g61
(dp1989
sg70
g1975
sg63
(lp1990
g56
(g57
g58
NtRp1991
(dp1992
g61
(dp1993
g69
I4
ssg70
g1987
sg63
(lp1994
g56
(g65
g58
NtRp1995
(dp1996
g61
(dp1997
g69
I3
ssg70
Nsg63
(lp1998
sbasbasbasbag56
(g72
g58
NtRp1999
(dp2000
g61
(dp2001
sg70
g1930
sg63
(lp2002
g56
(g77
g58
NtRp2003
(dp2004
g61
(dp2005
g81
g82
ssg70
g1999
sg63
(lp2006
g927
asbag56
(g77
g58
NtRp2007
(dp2008
g61
(dp2009
g88
g89
ssg70
g1999
sg63
(lp2010
S':'
asbag56
(g77
g58
NtRp2011
(dp2012
g61
(dp2013
sg70
g1999
sg63
(lp2014
g56
(g57
g58
NtRp2015
(dp2016
g61
(dp2017
g69
I4
ssg70
g2011
sg63
(lp2018
S"<Values at 0x23c17e8: {'verbose': False, 'ip': '127.0.0.1', 'shutdown_timeout': 5, 'taskbar': False, 'nocron': False, 'pid_filename': 'httpserver.pid', 'maxthreads': None, 'softcron': False, 'server_name': 'Ariel-ubuntu', 'bpython': False, 'nogui': False, 'port': 8000, 'extcron': False, 'debuglevel': 30, 'test': None, 'folder': '/home/ian/web2py', 'config': '', 'import_models': False, 'winservice': '', 'shell': None, 'run': '', 'log_filename': 'httpserver.log', 'args': [''], 'ssl_ca_certificate': None, 'scheduler': None, 'profiler_filename': None, 'ssl_private_key': '', 'password': '<ask>', 'request_queue_size': 5, 'ssl_certificate': '', 'cronjob': False, 'plain': False, 'quiet': False, 'interfaces': None, 'minthreads': None, 'timeout': 10, 'numthreads': None, 'nobanner': False}>"
p2019
asbasbasbag56
(g72
g58
NtRp2020
(dp2021
g61
(dp2022
sg70
g1930
sg63
(lp2023
g56
(g77
g58
NtRp2024
(dp2025
g61
(dp2026
g81
g82
ssg70
g2020
sg63
(lp2027
g949
asbag56
(g77
g58
NtRp2028
(dp2029
g61
(dp2030
g88
g89
ssg70
g2020
sg63
(lp2031
S':'
asbag56
(g77
g58
NtRp2032
(dp2033
g61
(dp2034
sg70
g2020
sg63
(lp2035
g56
(g57
g58
NtRp2036
(dp2037
g61
(dp2038
g69
I4
ssg70
g2032
sg63
(lp2039
S'set([])'
p2040
asbasbasbag56
(g72
g58
NtRp2041
(dp2042
g61
(dp2043
sg70
g1930
sg63
(lp2044
g56
(g77
g58
NtRp2045
(dp2046
g61
(dp2047
g81
g82
ssg70
g2041
sg63
(lp2048
g971
asbag56
(g77
g58
NtRp2049
(dp2050
g61
(dp2051
g88
g89
ssg70
g2041
sg63
(lp2052
S':'
asbag56
(g77
g58
NtRp2053
(dp2054
g61
(dp2055
sg70
g2041
sg63
(lp2056
g56
(g57
g58
NtRp2057
(dp2058
g61
(dp2059
g69
I4
ssg70
g2053
sg63
(lp2060
g99
asbasbasbag56
(g72
g58
NtRp2061
(dp2062
g61
(dp2063
sg70
g1930
sg63
(lp2064
g56
(g77
g58
NtRp2065
(dp2066
g61
(dp2067
g81
g82
ssg70
g2061
sg63
(lp2068
g992
asbag56
(g77
g58
NtRp2069
(dp2070
g61
(dp2071
g88
g89
ssg70
g2061
sg63
(lp2072
S':'
asbag56
(g77
g58
NtRp2073
(dp2074
g61
(dp2075
sg70
g2061
sg63
(lp2076
g56
(g57
g58
NtRp2077
(dp2078
g61
(dp2079
g69
I4
ssg70
g2073
sg63
(lp2080
g1005
asbasbasbag56
(g72
g58
NtRp2081
(dp2082
g61
(dp2083
sg70
g1930
sg63
(lp2084
g56
(g77
g58
NtRp2085
(dp2086
g61
(dp2087
g81
g82
ssg70
g2081
sg63
(lp2088
g1256
asbag56
(g77
g58
NtRp2089
(dp2090
g61
(dp2091
g88
g89
ssg70
g2081
sg63
(lp2092
S':'
asbag56
(g77
g58
NtRp2093
(dp2094
g61
(dp2095
sg70
g2081
sg63
(lp2096
g56
(g57
g58
NtRp2097
(dp2098
g61
(dp2099
g69
I4
ssg70
g2093
sg63
(lp2100
g99
asbasbasbag56
(g72
g58
NtRp2101
(dp2102
g61
(dp2103
sg70
g1930
sg63
(lp2104
g56
(g77
g58
NtRp2105
(dp2106
g61
(dp2107
g81
g82
ssg70
g2101
sg63
(lp2108
g1494
asbag56
(g77
g58
NtRp2109
(dp2110
g61
(dp2111
g88
g89
ssg70
g2101
sg63
(lp2112
S':'
asbag56
(g77
g58
NtRp2113
(dp2114
g61
(dp2115
sg70
g2101
sg63
(lp2116
g56
(g57
g58
NtRp2117
(dp2118
g61
(dp2119
g69
I4
ssg70
g2113
sg63
(lp2120
g1507
asbasbasbag56
(g72
g58
NtRp2121
(dp2122
g61
(dp2123
sg70
g1930
sg63
(lp2124
g56
(g77
g58
NtRp2125
(dp2126
g61
(dp2127
g81
g82
ssg70
g2121
sg63
(lp2128
g1537
asbag56
(g77
g58
NtRp2129
(dp2130
g61
(dp2131
g88
g89
ssg70
g2121
sg63
(lp2132
S':'
asbag56
(g77
g58
NtRp2133
(dp2134
g61
(dp2135
sg70
g2121
sg63
(lp2136
g56
(g57
g58
NtRp2137
(dp2138
g61
(dp2139
g69
I4
ssg70
g2133
sg63
(lp2140
g56
(g65
g58
NtRp2141
(dp2142
g61
(dp2143
g69
I3
ssg70
Nsg63
(lp2144
g56
(g72
g58
NtRp2145
(dp2146
g61
(dp2147
sg70
g2141
sg63
(lp2148
g56
(g77
g58
NtRp2149
(dp2150
g61
(dp2151
sg70
g2145
sg63
(lp2152
g56
(g57
g58
NtRp2153
(dp2154
g61
(dp2155
g69
I3
ssg70
g2149
sg63
(lp2156
S'1'
asbasbasbag56
(g72
g58
NtRp2157
(dp2158
g61
(dp2159
sg70
g2141
sg63
(lp2160
g56
(g77
g58
NtRp2161
(dp2162
g61
(dp2163
sg70
g2157
sg63
(lp2164
g56
(g57
g58
NtRp2165
(dp2166
g61
(dp2167
g69
I3
ssg70
g2161
sg63
(lp2168
S'99'
p2169
asbasbasbag56
(g72
g58
NtRp2170
(dp2171
g61
(dp2172
sg70
g2141
sg63
(lp2173
g56
(g77
g58
NtRp2174
(dp2175
g61
(dp2176
sg70
g2170
sg63
(lp2177
g56
(g57
g58
NtRp2178
(dp2179
g61
(dp2180
g69
I3
ssg70
g2174
sg63
(lp2181
S'2'
asbasbasbag56
(g72
g58
NtRp2182
(dp2183
g61
(dp2184
sg70
g2141
sg63
(lp2185
g56
(g77
g58
NtRp2186
(dp2187
g61
(dp2188
sg70
g2182
sg63
(lp2189
g56
(g57
g58
NtRp2190
(dp2191
g61
(dp2192
g69
I3
ssg70
g2186
sg63
(lp2193
S'datetime.datetime(2011, 9, 26, 6, 55, 33)'
p2194
asbasbasbag56
(g72
g58
NtRp2195
(dp2196
g61
(dp2197
sg70
g2141
sg63
(lp2198
g56
(g77
g58
NtRp2199
(dp2200
g61
(dp2201
sg70
g2195
sg63
(lp2202
g56
(g57
g58
NtRp2203
(dp2204
g61
(dp2205
g69
I3
ssg70
g2199
sg63
(lp2206
g1616
asbasbasbasbasbasbasbasbasbasbasbag56
(g72
g58
NtRp2207
(dp2208
g61
(dp2209
sg70
g66
sg63
(lp2210
g56
(g77
g58
NtRp2211
(dp2212
g61
(dp2213
g81
g82
ssg70
g2207
sg63
(lp2214
S'is_https'
p2215
asbag56
(g77
g58
NtRp2216
(dp2217
g61
(dp2218
g88
g89
ssg70
g2207
sg63
(lp2219
S':'
asbag56
(g77
g58
NtRp2220
(dp2221
g61
(dp2222
sg70
g2207
sg63
(lp2223
g56
(g57
g58
NtRp2224
(dp2225
g61
(dp2226
g69
I5
ssg70
g2220
sg63
(lp2227
g99
asbasbasbag56
(g72
g58
NtRp2228
(dp2229
g61
(dp2230
sg70
g66
sg63
(lp2231
g56
(g77
g58
NtRp2232
(dp2233
g61
(dp2234
g81
g82
ssg70
g2228
sg63
(lp2235
S'is_local'
p2236
asbag56
(g77
g58
NtRp2237
(dp2238
g61
(dp2239
g88
g89
ssg70
g2228
sg63
(lp2240
S':'
asbag56
(g77
g58
NtRp2241
(dp2242
g61
(dp2243
sg70
g2228
sg63
(lp2244
g56
(g57
g58
NtRp2245
(dp2246
g61
(dp2247
g69
I5
ssg70
g2241
sg63
(lp2248
g1725
asbasbasbag56
(g72
g58
NtRp2249
(dp2250
g61
(dp2251
sg70
g66
sg63
(lp2252
g56
(g77
g58
NtRp2253
(dp2254
g61
(dp2255
g81
g82
ssg70
g2249
sg63
(lp2256
S'is_restful'
p2257
asbag56
(g77
g58
NtRp2258
(dp2259
g61
(dp2260
g88
g89
ssg70
g2249
sg63
(lp2261
S':'
asbag56
(g77
g58
NtRp2262
(dp2263
g61
(dp2264
sg70
g2249
sg63
(lp2265
g56
(g57
g58
NtRp2266
(dp2267
g61
(dp2268
g69
I5
ssg70
g2262
sg63
(lp2269
g99
asbasbasbag56
(g72
g58
NtRp2270
(dp2271
g61
(dp2272
sg70
g66
sg63
(lp2273
g56
(g77
g58
NtRp2274
(dp2275
g61
(dp2276
g81
g82
ssg70
g2270
sg63
(lp2277
S'now'
p2278
asbag56
(g77
g58
NtRp2279
(dp2280
g61
(dp2281
g88
g89
ssg70
g2270
sg63
(lp2282
S':'
asbag56
(g77
g58
NtRp2283
(dp2284
g61
(dp2285
sg70
g2270
sg63
(lp2286
g56
(g57
g58
NtRp2287
(dp2288
g61
(dp2289
g69
I5
ssg70
g2283
sg63
(lp2290
S'datetime.datetime(2011, 11, 23, 21, 30, 58, 623971)'
p2291
asbasbasbag56
(g72
g58
NtRp2292
(dp2293
g61
(dp2294
sg70
g66
sg63
(lp2295
g56
(g77
g58
NtRp2296
(dp2297
g61
(dp2298
g81
g82
ssg70
g2292
sg63
(lp2299
S'post_vars'
p2300
asbag56
(g77
g58
NtRp2301
(dp2302
g61
(dp2303
g88
g89
ssg70
g2292
sg63
(lp2304
S':'
asbag56
(g77
g58
NtRp2305
(dp2306
g61
(dp2307
sg70
g2292
sg63
(lp2308
g56
(g57
g58
NtRp2309
(dp2310
g61
(dp2311
g69
I5
ssg70
g2305
sg63
(lp2312
g56
(g65
g58
NtRp2313
(dp2314
g61
(dp2315
g69
I4
ssg70
Nsg63
(lp2316
sbasbasbasbag56
(g72
g58
NtRp2317
(dp2318
g61
(dp2319
sg70
g66
sg63
(lp2320
g56
(g77
g58
NtRp2321
(dp2322
g61
(dp2323
g81
g82
ssg70
g2317
sg63
(lp2324
S'raw_args'
p2325
asbag56
(g77
g58
NtRp2326
(dp2327
g61
(dp2328
g88
g89
ssg70
g2317
sg63
(lp2329
S':'
asbag56
(g77
g58
NtRp2330
(dp2331
g61
(dp2332
sg70
g2317
sg63
(lp2333
g56
(g57
g58
NtRp2334
(dp2335
g61
(dp2336
g69
I5
ssg70
g2330
sg63
(lp2337
S'note/1'
p2338
asbasbasbag56
(g72
g58
NtRp2339
(dp2340
g61
(dp2341
sg70
g66
sg63
(lp2342
g56
(g77
g58
NtRp2343
(dp2344
g61
(dp2345
g81
g82
ssg70
g2339
sg63
(lp2346
S'url'
p2347
asbag56
(g77
g58
NtRp2348
(dp2349
g61
(dp2350
g88
g89
ssg70
g2339
sg63
(lp2351
S':'
asbag56
(g77
g58
NtRp2352
(dp2353
g61
(dp2354
sg70
g2339
sg63
(lp2355
g56
(g57
g58
NtRp2356
(dp2357
g61
(dp2358
g69
I5
ssg70
g2352
sg63
(lp2359
S'/topoi/plugin_listandedit/list/note/1'
p2360
asbasbasbag56
(g72
g58
NtRp2361
(dp2362
g61
(dp2363
sg70
g66
sg63
(lp2364
g56
(g77
g58
NtRp2365
(dp2366
g61
(dp2367
g81
g82
ssg70
g2361
sg63
(lp2368
S'utcnow'
p2369
asbag56
(g77
g58
NtRp2370
(dp2371
g61
(dp2372
g88
g89
ssg70
g2361
sg63
(lp2373
S':'
asbag56
(g77
g58
NtRp2374
(dp2375
g61
(dp2376
sg70
g2361
sg63
(lp2377
g56
(g57
g58
NtRp2378
(dp2379
g61
(dp2380
g69
I5
ssg70
g2374
sg63
(lp2381
S'datetime.datetime(2011, 11, 24, 2, 30, 58, 624017)'
p2382
asbasbasbag56
(g72
g58
NtRp2383
(dp2384
g61
(dp2385
sg70
g66
sg63
(lp2386
g56
(g77
g58
NtRp2387
(dp2388
g61
(dp2389
g81
g82
ssg70
g2383
sg63
(lp2390
S'uuid'
p2391
asbag56
(g77
g58
NtRp2392
(dp2393
g61
(dp2394
g88
g89
ssg70
g2383
sg63
(lp2395
S':'
asbag56
(g77
g58
NtRp2396
(dp2397
g61
(dp2398
sg70
g2383
sg63
(lp2399
g56
(g57
g58
NtRp2400
(dp2401
g61
(dp2402
g69
I5
ssg70
g2396
sg63
(lp2403
S'topoi/127.0.0.1.2011-11-23.21-30-58.ae59f47a-aa60-4230-9a42-684650488033'
p2404
asbasbasbag56
(g72
g58
NtRp2405
(dp2406
g61
(dp2407
sg70
g66
sg63
(lp2408
g56
(g77
g58
NtRp2409
(dp2410
g61
(dp2411
g81
g82
ssg70
g2405
sg63
(lp2412
S'vars'
p2413
asbag56
(g77
g58
NtRp2414
(dp2415
g61
(dp2416
g88
g89
ssg70
g2405
sg63
(lp2417
S':'
asbag56
(g77
g58
NtRp2418
(dp2419
g61
(dp2420
sg70
g2405
sg63
(lp2421
g56
(g57
g58
NtRp2422
(dp2423
g61
(dp2424
g69
I5
ssg70
g2418
sg63
(lp2425
g56
(g65
g58
NtRp2426
(dp2427
g61
(dp2428
g69
I4
ssg70
Nsg63
(lp2429
sbasbasbasbag56
(g72
g58
NtRp2430
(dp2431
g61
(dp2432
sg70
g66
sg63
(lp2433
g56
(g77
g58
NtRp2434
(dp2435
g61
(dp2436
g81
g82
ssg70
g2430
sg63
(lp2437
S'wsgi'
p2438
asbag56
(g77
g58
NtRp2439
(dp2440
g61
(dp2441
g88
g89
ssg70
g2430
sg63
(lp2442
S':'
asbag56
(g77
g58
NtRp2443
(dp2444
g61
(dp2445
sg70
g2430
sg63
(lp2446
g56
(g57
g58
NtRp2447
(dp2448
g61
(dp2449
g69
I5
ssg70
g2443
sg63
(lp2450
g56
(g65
g58
NtRp2451
(dp2452
g61
(dp2453
g69
I4
ssg70
Nsg63
(lp2454
g56
(g72
g58
NtRp2455
(dp2456
g61
(dp2457
sg70
g2451
sg63
(lp2458
g56
(g77
g58
NtRp2459
(dp2460
g61
(dp2461
g81
g82
ssg70
g2455
sg63
(lp2462
S'environ'
p2463
asbag56
(g77
g58
NtRp2464
(dp2465
g61
(dp2466
g88
g89
ssg70
g2455
sg63
(lp2467
S':'
asbag56
(g77
g58
NtRp2468
(dp2469
g61
(dp2470
sg70
g2455
sg63
(lp2471
g56
(g57
g58
NtRp2472
(dp2473
g61
(dp2474
g69
I4
ssg70
g2468
sg63
(lp2475
g56
(g65
g58
NtRp2476
(dp2477
g61
(dp2478
g69
I3
ssg70
Nsg63
(lp2479
g56
(g72
g58
NtRp2480
(dp2481
g61
(dp2482
sg70
g2476
sg63
(lp2483
g56
(g77
g58
NtRp2484
(dp2485
g61
(dp2486
g81
g82
ssg70
g2480
sg63
(lp2487
S'HTTP_ACCEPT'
p2488
asbag56
(g77
g58
NtRp2489
(dp2490
g61
(dp2491
g88
g89
ssg70
g2480
sg63
(lp2492
S':'
asbag56
(g77
g58
NtRp2493
(dp2494
g61
(dp2495
sg70
g2480
sg63
(lp2496
g56
(g57
g58
NtRp2497
(dp2498
g61
(dp2499
g69
I3
ssg70
g2493
sg63
(lp2500
g1027
asbasbasbag56
(g72
g58
NtRp2501
(dp2502
g61
(dp2503
sg70
g2476
sg63
(lp2504
g56
(g77
g58
NtRp2505
(dp2506
g61
(dp2507
g81
g82
ssg70
g2501
sg63
(lp2508
S'HTTP_ACCEPT_CHARSET'
p2509
asbag56
(g77
g58
NtRp2510
(dp2511
g61
(dp2512
g88
g89
ssg70
g2501
sg63
(lp2513
S':'
asbag56
(g77
g58
NtRp2514
(dp2515
g61
(dp2516
sg70
g2501
sg63
(lp2517
g56
(g57
g58
NtRp2518
(dp2519
g61
(dp2520
g69
I3
ssg70
g2514
sg63
(lp2521
g1049
asbasbasbag56
(g72
g58
NtRp2522
(dp2523
g61
(dp2524
sg70
g2476
sg63
(lp2525
g56
(g77
g58
NtRp2526
(dp2527
g61
(dp2528
g81
g82
ssg70
g2522
sg63
(lp2529
S'HTTP_ACCEPT_ENCODING'
p2530
asbag56
(g77
g58
NtRp2531
(dp2532
g61
(dp2533
g88
g89
ssg70
g2522
sg63
(lp2534
S':'
asbag56
(g77
g58
NtRp2535
(dp2536
g61
(dp2537
sg70
g2522
sg63
(lp2538
g56
(g57
g58
NtRp2539
(dp2540
g61
(dp2541
g69
I3
ssg70
g2535
sg63
(lp2542
g1071
asbasbasbag56
(g72
g58
NtRp2543
(dp2544
g61
(dp2545
sg70
g2476
sg63
(lp2546
g56
(g77
g58
NtRp2547
(dp2548
g61
(dp2549
g81
g82
ssg70
g2543
sg63
(lp2550
S'HTTP_ACCEPT_LANGUAGE'
p2551
asbag56
(g77
g58
NtRp2552
(dp2553
g61
(dp2554
g88
g89
ssg70
g2543
sg63
(lp2555
S':'
asbag56
(g77
g58
NtRp2556
(dp2557
g61
(dp2558
sg70
g2543
sg63
(lp2559
g56
(g57
g58
NtRp2560
(dp2561
g61
(dp2562
g69
I3
ssg70
g2556
sg63
(lp2563
g1093
asbasbasbag56
(g72
g58
NtRp2564
(dp2565
g61
(dp2566
sg70
g2476
sg63
(lp2567
g56
(g77
g58
NtRp2568
(dp2569
g61
(dp2570
g81
g82
ssg70
g2564
sg63
(lp2571
S'HTTP_CACHE_CONTROL'
p2572
asbag56
(g77
g58
NtRp2573
(dp2574
g61
(dp2575
g88
g89
ssg70
g2564
sg63
(lp2576
S':'
asbag56
(g77
g58
NtRp2577
(dp2578
g61
(dp2579
sg70
g2564
sg63
(lp2580
g56
(g57
g58
NtRp2581
(dp2582
g61
(dp2583
g69
I3
ssg70
g2577
sg63
(lp2584
g1115
asbasbasbag56
(g72
g58
NtRp2585
(dp2586
g61
(dp2587
sg70
g2476
sg63
(lp2588
g56
(g77
g58
NtRp2589
(dp2590
g61
(dp2591
g81
g82
ssg70
g2585
sg63
(lp2592
S'HTTP_CONNECTION'
p2593
asbag56
(g77
g58
NtRp2594
(dp2595
g61
(dp2596
g88
g89
ssg70
g2585
sg63
(lp2597
S':'
asbag56
(g77
g58
NtRp2598
(dp2599
g61
(dp2600
sg70
g2585
sg63
(lp2601
g56
(g57
g58
NtRp2602
(dp2603
g61
(dp2604
g69
I3
ssg70
g2598
sg63
(lp2605
g1137
asbasbasbag56
(g72
g58
NtRp2606
(dp2607
g61
(dp2608
sg70
g2476
sg63
(lp2609
g56
(g77
g58
NtRp2610
(dp2611
g61
(dp2612
g81
g82
ssg70
g2606
sg63
(lp2613
S'HTTP_COOKIE'
p2614
asbag56
(g77
g58
NtRp2615
(dp2616
g61
(dp2617
g88
g89
ssg70
g2606
sg63
(lp2618
S':'
asbag56
(g77
g58
NtRp2619
(dp2620
g61
(dp2621
sg70
g2606
sg63
(lp2622
g56
(g57
g58
NtRp2623
(dp2624
g61
(dp2625
g69
I3
ssg70
g2619
sg63
(lp2626
g1159
asbasbasbag56
(g72
g58
NtRp2627
(dp2628
g61
(dp2629
sg70
g2476
sg63
(lp2630
g56
(g77
g58
NtRp2631
(dp2632
g61
(dp2633
g81
g82
ssg70
g2627
sg63
(lp2634
S'HTTP_HOST'
p2635
asbag56
(g77
g58
NtRp2636
(dp2637
g61
(dp2638
g88
g89
ssg70
g2627
sg63
(lp2639
S':'
asbag56
(g77
g58
NtRp2640
(dp2641
g61
(dp2642
sg70
g2627
sg63
(lp2643
g56
(g57
g58
NtRp2644
(dp2645
g61
(dp2646
g69
I3
ssg70
g2640
sg63
(lp2647
g1181
asbasbasbag56
(g72
g58
NtRp2648
(dp2649
g61
(dp2650
sg70
g2476
sg63
(lp2651
g56
(g77
g58
NtRp2652
(dp2653
g61
(dp2654
g81
g82
ssg70
g2648
sg63
(lp2655
S'HTTP_REFERER'
p2656
asbag56
(g77
g58
NtRp2657
(dp2658
g61
(dp2659
g88
g89
ssg70
g2648
sg63
(lp2660
S':'
asbag56
(g77
g58
NtRp2661
(dp2662
g61
(dp2663
sg70
g2648
sg63
(lp2664
g56
(g57
g58
NtRp2665
(dp2666
g61
(dp2667
g69
I3
ssg70
g2661
sg63
(lp2668
g1203
asbasbasbag56
(g72
g58
NtRp2669
(dp2670
g61
(dp2671
sg70
g2476
sg63
(lp2672
g56
(g77
g58
NtRp2673
(dp2674
g61
(dp2675
g81
g82
ssg70
g2669
sg63
(lp2676
S'HTTP_USER_AGENT'
p2677
asbag56
(g77
g58
NtRp2678
(dp2679
g61
(dp2680
g88
g89
ssg70
g2669
sg63
(lp2681
S':'
asbag56
(g77
g58
NtRp2682
(dp2683
g61
(dp2684
sg70
g2669
sg63
(lp2685
g56
(g57
g58
NtRp2686
(dp2687
g61
(dp2688
g69
I3
ssg70
g2682
sg63
(lp2689
g1225
asbasbasbag56
(g72
g58
NtRp2690
(dp2691
g61
(dp2692
sg70
g2476
sg63
(lp2693
g56
(g77
g58
NtRp2694
(dp2695
g61
(dp2696
g81
g82
ssg70
g2690
sg63
(lp2697
S'HTTP_X_INSIGHT'
p2698
asbag56
(g77
g58
NtRp2699
(dp2700
g61
(dp2701
g88
g89
ssg70
g2690
sg63
(lp2702
S':'
asbag56
(g77
g58
NtRp2703
(dp2704
g61
(dp2705
sg70
g2690
sg63
(lp2706
g56
(g57
g58
NtRp2707
(dp2708
g61
(dp2709
g69
I3
ssg70
g2703
sg63
(lp2710
g1247
asbasbasbag56
(g72
g58
NtRp2711
(dp2712
g61
(dp2713
sg70
g2476
sg63
(lp2714
g56
(g77
g58
NtRp2715
(dp2716
g61
(dp2717
g81
g82
ssg70
g2711
sg63
(lp2718
S'PATH_INFO'
p2719
asbag56
(g77
g58
NtRp2720
(dp2721
g61
(dp2722
g88
g89
ssg70
g2711
sg63
(lp2723
S':'
asbag56
(g77
g58
NtRp2724
(dp2725
g61
(dp2726
sg70
g2711
sg63
(lp2727
g56
(g57
g58
NtRp2728
(dp2729
g61
(dp2730
g69
I3
ssg70
g2724
sg63
(lp2731
g1290
asbasbasbag56
(g72
g58
NtRp2732
(dp2733
g61
(dp2734
sg70
g2476
sg63
(lp2735
g56
(g77
g58
NtRp2736
(dp2737
g61
(dp2738
g81
g82
ssg70
g2732
sg63
(lp2739
S'QUERY_STRING'
p2740
asbag56
(g77
g58
NtRp2741
(dp2742
g61
(dp2743
g88
g89
ssg70
g2732
sg63
(lp2744
S':'
asbag56
(g77
g58
NtRp2745
(dp2746
g61
(dp2747
sg70
g2732
sg63
(lp2748
g56
(g57
g58
NtRp2749
(dp2750
g61
(dp2751
g69
I3
ssg70
g2745
sg63
(lp2752
S''
asbasbasbag56
(g72
g58
NtRp2753
(dp2754
g61
(dp2755
sg70
g2476
sg63
(lp2756
g56
(g77
g58
NtRp2757
(dp2758
g61
(dp2759
g81
g82
ssg70
g2753
sg63
(lp2760
S'REMOTE_ADDR'
p2761
asbag56
(g77
g58
NtRp2762
(dp2763
g61
(dp2764
g88
g89
ssg70
g2753
sg63
(lp2765
S':'
asbag56
(g77
g58
NtRp2766
(dp2767
g61
(dp2768
sg70
g2753
sg63
(lp2769
g56
(g57
g58
NtRp2770
(dp2771
g61
(dp2772
g69
I3
ssg70
g2766
sg63
(lp2773
g214
asbasbasbag56
(g72
g58
NtRp2774
(dp2775
g61
(dp2776
sg70
g2476
sg63
(lp2777
g56
(g77
g58
NtRp2778
(dp2779
g61
(dp2780
g81
g82
ssg70
g2774
sg63
(lp2781
S'REMOTE_PORT'
p2782
asbag56
(g77
g58
NtRp2783
(dp2784
g61
(dp2785
g88
g89
ssg70
g2774
sg63
(lp2786
S':'
asbag56
(g77
g58
NtRp2787
(dp2788
g61
(dp2789
sg70
g2774
sg63
(lp2790
g56
(g57
g58
NtRp2791
(dp2792
g61
(dp2793
g69
I3
ssg70
g2787
sg63
(lp2794
g1354
asbasbasbag56
(g72
g58
NtRp2795
(dp2796
g61
(dp2797
sg70
g2476
sg63
(lp2798
g56
(g77
g58
NtRp2799
(dp2800
g61
(dp2801
g81
g82
ssg70
g2795
sg63
(lp2802
S'REQUEST_METHOD'
p2803
asbag56
(g77
g58
NtRp2804
(dp2805
g61
(dp2806
g88
g89
ssg70
g2795
sg63
(lp2807
S':'
asbag56
(g77
g58
NtRp2808
(dp2809
g61
(dp2810
sg70
g2795
sg63
(lp2811
g56
(g57
g58
NtRp2812
(dp2813
g61
(dp2814
g69
I3
ssg70
g2808
sg63
(lp2815
g1376
asbasbasbag56
(g72
g58
NtRp2816
(dp2817
g61
(dp2818
sg70
g2476
sg63
(lp2819
g56
(g77
g58
NtRp2820
(dp2821
g61
(dp2822
g81
g82
ssg70
g2816
sg63
(lp2823
S'SCRIPT_NAME'
p2824
asbag56
(g77
g58
NtRp2825
(dp2826
g61
(dp2827
g88
g89
ssg70
g2816
sg63
(lp2828
S':'
asbag56
(g77
g58
NtRp2829
(dp2830
g61
(dp2831
sg70
g2816
sg63
(lp2832
g56
(g57
g58
NtRp2833
(dp2834
g61
(dp2835
g69
I3
ssg70
g2829
sg63
(lp2836
S''
asbasbasbag56
(g72
g58
NtRp2837
(dp2838
g61
(dp2839
sg70
g2476
sg63
(lp2840
g56
(g77
g58
NtRp2841
(dp2842
g61
(dp2843
g81
g82
ssg70
g2837
sg63
(lp2844
S'SERVER_NAME'
p2845
asbag56
(g77
g58
NtRp2846
(dp2847
g61
(dp2848
g88
g89
ssg70
g2837
sg63
(lp2849
S':'
asbag56
(g77
g58
NtRp2850
(dp2851
g61
(dp2852
sg70
g2837
sg63
(lp2853
g56
(g57
g58
NtRp2854
(dp2855
g61
(dp2856
g69
I3
ssg70
g2850
sg63
(lp2857
g1419
asbasbasbag56
(g72
g58
NtRp2858
(dp2859
g61
(dp2860
sg70
g2476
sg63
(lp2861
g56
(g77
g58
NtRp2862
(dp2863
g61
(dp2864
g81
g82
ssg70
g2858
sg63
(lp2865
S'SERVER_PORT'
p2866
asbag56
(g77
g58
NtRp2867
(dp2868
g61
(dp2869
g88
g89
ssg70
g2858
sg63
(lp2870
S':'
asbag56
(g77
g58
NtRp2871
(dp2872
g61
(dp2873
sg70
g2858
sg63
(lp2874
g56
(g57
g58
NtRp2875
(dp2876
g61
(dp2877
g69
I3
ssg70
g2871
sg63
(lp2878
g1441
asbasbasbag56
(g72
g58
NtRp2879
(dp2880
g61
(dp2881
sg70
g2476
sg63
(lp2882
g56
(g77
g58
NtRp2883
(dp2884
g61
(dp2885
g81
g82
ssg70
g2879
sg63
(lp2886
S'SERVER_PROTOCOL'
p2887
asbag56
(g77
g58
NtRp2888
(dp2889
g61
(dp2890
g88
g89
ssg70
g2879
sg63
(lp2891
S':'
asbag56
(g77
g58
NtRp2892
(dp2893
g61
(dp2894
sg70
g2879
sg63
(lp2895
g56
(g57
g58
NtRp2896
(dp2897
g61
(dp2898
g69
I3
ssg70
g2892
sg63
(lp2899
g1463
asbasbasbag56
(g72
g58
NtRp2900
(dp2901
g61
(dp2902
sg70
g2476
sg63
(lp2903
g56
(g77
g58
NtRp2904
(dp2905
g61
(dp2906
g81
g82
ssg70
g2900
sg63
(lp2907
S'SERVER_SOFTWARE'
p2908
asbag56
(g77
g58
NtRp2909
(dp2910
g61
(dp2911
g88
g89
ssg70
g2900
sg63
(lp2912
S':'
asbag56
(g77
g58
NtRp2913
(dp2914
g61
(dp2915
sg70
g2900
sg63
(lp2916
g56
(g57
g58
NtRp2917
(dp2918
g61
(dp2919
g69
I3
ssg70
g2913
sg63
(lp2920
g1485
asbasbasbag56
(g72
g58
NtRp2921
(dp2922
g61
(dp2923
sg70
g2476
sg63
(lp2924
g56
(g77
g58
NtRp2925
(dp2926
g61
(dp2927
g81
g82
ssg70
g2921
sg63
(lp2928
S'wsgi.errors'
p2929
asbag56
(g77
g58
NtRp2930
(dp2931
g61
(dp2932
g88
g89
ssg70
g2921
sg63
(lp2933
S':'
asbag56
(g77
g58
NtRp2934
(dp2935
g61
(dp2936
sg70
g2921
sg63
(lp2937
g56
(g57
g58
NtRp2938
(dp2939
g61
(dp2940
g69
I3
ssg70
g2934
sg63
(lp2941
S"<open file '<stderr>', mode 'w' at 0x7ffcfbcc0270>"
p2942
asbasbasbag56
(g72
g58
NtRp2943
(dp2944
g61
(dp2945
sg70
g2476
sg63
(lp2946
g56
(g77
g58
NtRp2947
(dp2948
g61
(dp2949
g81
g82
ssg70
g2943
sg63
(lp2950
S'wsgi.file_wrapper'
p2951
asbag56
(g77
g58
NtRp2952
(dp2953
g61
(dp2954
g88
g89
ssg70
g2943
sg63
(lp2955
S':'
asbag56
(g77
g58
NtRp2956
(dp2957
g61
(dp2958
sg70
g2943
sg63
(lp2959
g56
(g57
g58
NtRp2960
(dp2961
g61
(dp2962
g69
I3
ssg70
g2956
sg63
(lp2963
S'<class wsgiref.util.FileWrapper at 0x228a808>'
p2964
asbasbasbag56
(g72
g58
NtRp2965
(dp2966
g61
(dp2967
sg70
g2476
sg63
(lp2968
g56
(g77
g58
NtRp2969
(dp2970
g61
(dp2971
g81
g82
ssg70
g2965
sg63
(lp2972
S'wsgi.input'
p2973
asbag56
(g77
g58
NtRp2974
(dp2975
g61
(dp2976
g88
g89
ssg70
g2965
sg63
(lp2977
S':'
asbag56
(g77
g58
NtRp2978
(dp2979
g61
(dp2980
sg70
g2965
sg63
(lp2981
g56
(g57
g58
NtRp2982
(dp2983
g61
(dp2984
g69
I3
ssg70
g2978
sg63
(lp2985
S'<cStringIO.StringO object at 0x304c0d8>'
p2986
asbasbasbag56
(g72
g58
NtRp2987
(dp2988
g61
(dp2989
sg70
g2476
sg63
(lp2990
g56
(g77
g58
NtRp2991
(dp2992
g61
(dp2993
g81
g82
ssg70
g2987
sg63
(lp2994
S'wsgi.multiprocess'
p2995
asbag56
(g77
g58
NtRp2996
(dp2997
g61
(dp2998
g88
g89
ssg70
g2987
sg63
(lp2999
S':'
asbag56
(g77
g58
NtRp3000
(dp3001
g61
(dp3002
sg70
g2987
sg63
(lp3003
g56
(g57
g58
NtRp3004
(dp3005
g61
(dp3006
g69
I3
ssg70
g3000
sg63
(lp3007
g99
asbasbasbag56
(g72
g58
NtRp3008
(dp3009
g61
(dp3010
sg70
g2476
sg63
(lp3011
g56
(g77
g58
NtRp3012
(dp3013
g61
(dp3014
g81
g82
ssg70
g3008
sg63
(lp3015
S'wsgi.multithread'
p3016
asbag56
(g77
g58
NtRp3017
(dp3018
g61
(dp3019
g88
g89
ssg70
g3008
sg63
(lp3020
S':'
asbag56
(g77
g58
NtRp3021
(dp3022
g61
(dp3023
sg70
g3008
sg63
(lp3024
g56
(g57
g58
NtRp3025
(dp3026
g61
(dp3027
g69
I3
ssg70
g3021
sg63
(lp3028
g1725
asbasbasbag56
(g72
g58
NtRp3029
(dp3030
g61
(dp3031
sg70
g2476
sg63
(lp3032
g56
(g77
g58
NtRp3033
(dp3034
g61
(dp3035
g81
g82
ssg70
g3029
sg63
(lp3036
S'wsgi.run_once'
p3037
asbag56
(g77
g58
NtRp3038
(dp3039
g61
(dp3040
g88
g89
ssg70
g3029
sg63
(lp3041
S':'
asbag56
(g77
g58
NtRp3042
(dp3043
g61
(dp3044
sg70
g3029
sg63
(lp3045
g56
(g57
g58
NtRp3046
(dp3047
g61
(dp3048
g69
I3
ssg70
g3042
sg63
(lp3049
g99
asbasbasbag56
(g72
g58
NtRp3050
(dp3051
g61
(dp3052
sg70
g2476
sg63
(lp3053
g56
(g77
g58
NtRp3054
(dp3055
g61
(dp3056
g81
g82
ssg70
g3050
sg63
(lp3057
S'wsgi.url_scheme'
p3058
asbag56
(g77
g58
NtRp3059
(dp3060
g61
(dp3061
g88
g89
ssg70
g3050
sg63
(lp3062
S':'
asbag56
(g77
g58
NtRp3063
(dp3064
g61
(dp3065
sg70
g3050
sg63
(lp3066
g56
(g57
g58
NtRp3067
(dp3068
g61
(dp3069
g69
I3
ssg70
g3063
sg63
(lp3070
g1768
asbasbasbag56
(g72
g58
NtRp3071
(dp3072
g61
(dp3073
sg70
g2476
sg63
(lp3074
g56
(g77
g58
NtRp3075
(dp3076
g61
(dp3077
g81
g82
ssg70
g3071
sg63
(lp3078
S'wsgi.version'
p3079
asbag56
(g77
g58
NtRp3080
(dp3081
g61
(dp3082
g88
g89
ssg70
g3071
sg63
(lp3083
S':'
asbag56
(g77
g58
NtRp3084
(dp3085
g61
(dp3086
sg70
g3071
sg63
(lp3087
g56
(g57
g58
NtRp3088
(dp3089
g61
(dp3090
g69
I3
ssg70
g3084
sg63
(lp3091
S'1'
asbasbasbasbasbasbasbasbasbasbasbasbasbsS'frames'
p3092
(lp3093
(dp3094
S'file'
p3095
S'/home/ian/web2py/gluon/restricted.py'
p3096
sS'dump'
p3097
(dp3098
S'environment'
p3099
S"{'A': <class 'gluon.html.A'>, 'Auth': <class 'gluon.tools.Auth'>, 'B': <class 'gluon.html.B'>, 'BEAUTIFY': <class 'gluon.html.BEAUTIFY'>, 'BODY': <class 'gluon.html.BODY'>, 'BR': <class 'gluon.html.BR'>, 'BUTTON': <class 'gluon.html.BUTTON'>, 'CAT': <class 'gluon.html.CAT'>, 'CENTER': <class 'gluon.html.CENTER'>, 'CLEANUP': <class 'gluon.validators.CLEANUP'>, ...}"
p3100
sS'ccode'
p3101
S'<code object <module> at 0x7ffcec0b4db0, file "/...b2py/applications/topoi/models/topoi.py", line 2>'
p3102
ssS'lnum'
p3103
I194
sS'lines'
p3104
(dp3105
I192
S'        else:'
p3106
sI193
S'            ccode = compile2(code,layer)'
p3107
sI194
S'        exec ccode in environment'
p3108
sI195
S'    except HTTP:'
p3109
sI196
S'        raise'
p3110
sI197
S'    except Exception, error:'
p3111
sI198
S'        # XXX Show exception in Wing IDE if running in debugger'
p3112
sI189
S'    try:'
p3113
sI190
S'        if type(code) == types.CodeType:'
p3114
sI191
S'            ccode = code'
p3115
ssS'call'
p3116
S"(code='# coding: utf8\\nfrom plugin_selectoradd import SE...dget\\ndb.notes.project.widget = add_option.widget\\n', environment={'A': <class 'gluon.html.A'>, 'Auth': <class 'gluon.tools.Auth'>, 'B': <class 'gluon.html.B'>, 'BEAUTIFY': <class 'gluon.html.BEAUTIFY'>, 'BODY': <class 'gluon.html.BODY'>, 'BR': <class 'gluon.html.BR'>, 'BUTTON': <class 'gluon.html.BUTTON'>, 'CAT': <class 'gluon.html.CAT'>, 'CENTER': <class 'gluon.html.CENTER'>, 'CLEANUP': <class 'gluon.validators.CLEANUP'>, ...}, layer='/home/ian/web2py/applications/topoi/models/topoi.py')"
p3117
sS'func'
p3118
S'restricted'
p3119
sa(dp3120
g3095
S'/home/ian/web2py/applications/topoi/models/topoi.py'
p3121
sg3097
(dp3122
S'current'
p3123
S'undefined'
p3124
sS'T'
S'<gluon.languages.translator object>'
p3125
ssg3103
I5
sg3104
(dp3126
I2
S'from plugin_selectoradd import SELECT_OR_ADD_OPTION'
p3127
sI3
S'from plugin_multiselect_widget import hmultiselect_widget, vmultiselect_widget'
p3128
sI4
S'import datetime'
p3129
sI5
S'T = current.T'
p3130
sI6
S''
sI7
S'add_option = SELECT_OR_ADD_OPTION(form_title="Add new", controller="plugin_selectoradd", function="add", button_text = "Add New", dialog_width=500)'
p3131
sI8
S''
sI9
S"db.define_table('locations',"
p3132
sI10
S"    Field('location', 'string'),"
p3133
sI11
S"    format='%(location)s')"
p3134
ssg3116
S'()'
p3135
sg3118
S'<module>'
p3136
sasS'pyver'
p3137
S'Python 2.7.2+: /usr/bin/python2.7'
p3138
sS'session'
p3139
g56
(g57
g58
NtRp3140
(dp3141
g61
(dp3142
sg63
(lp3143
g56
(g65
g58
NtRp3144
(dp3145
g61
(dp3146
g69
I5
ssg70
Nsg63
(lp3147
sbasbsS'etype'
p3148
S"<type 'exceptions.NameError'>"
p3149
sS'date'
p3150
S'Wed Nov 23 21:30:58 2011'
p3151
sS'response'
p3152
g56
(g57
g58
NtRp3153
(dp3154
g61
(dp3155
sg63
(lp3156
g56
(g65
g58
NtRp3157
(dp3158
g61
(dp3159
g69
I5
ssg70
Nsg63
(lp3160
g56
(g72
g58
NtRp3161
(dp3162
g61
(dp3163
sg70
g3157
sg63
(lp3164
g56
(g77
g58
NtRp3165
(dp3166
g61
(dp3167
g81
g82
ssg70
g3161
sg63
(lp3168
g179
asbag56
(g77
g58
NtRp3169
(dp3170
g61
(dp3171
g88
g89
ssg70
g3161
sg63
(lp3172
S':'
asbag56
(g77
g58
NtRp3173
(dp3174
g61
(dp3175
sg70
g3161
sg63
(lp3176
g56
(g57
g58
NtRp3177
(dp3178
g61
(dp3179
g69
I5
ssg70
g3173
sg63
(lp3180
S'<cStringIO.StringO object at 0x29581b8>'
p3181
asbasbasbag56
(g72
g58
NtRp3182
(dp3183
g61
(dp3184
sg70
g3157
sg63
(lp3185
g56
(g77
g58
NtRp3186
(dp3187
g61
(dp3188
g81
g82
ssg70
g3182
sg63
(lp3189
g245
asbag56
(g77
g58
NtRp3190
(dp3191
g61
(dp3192
g88
g89
ssg70
g3182
sg63
(lp3193
S':'
asbag56
(g77
g58
NtRp3194
(dp3195
g61
(dp3196
sg70
g3182
sg63
(lp3197
g56
(g57
g58
NtRp3198
(dp3199
g61
(dp3200
g69
I5
ssg70
g3194
sg63
(lp3201
g56
(g65
g58
NtRp3202
(dp3203
g61
(dp3204
g69
I4
ssg70
Nsg63
(lp3205
g56
(g72
g58
NtRp3206
(dp3207
g61
(dp3208
sg70
g3202
sg63
(lp3209
g56
(g77
g58
NtRp3210
(dp3211
g61
(dp3212
g81
g82
ssg70
g3206
sg63
(lp3213
S'session_id_topoi'
p3214
asbag56
(g77
g58
NtRp3215
(dp3216
g61
(dp3217
g88
g89
ssg70
g3206
sg63
(lp3218
S':'
asbag56
(g77
g58
NtRp3219
(dp3220
g61
(dp3221
sg70
g3206
sg63
(lp3222
g56
(g57
g58
NtRp3223
(dp3224
g61
(dp3225
g69
I4
ssg70
g3219
sg63
(lp3226
g56
(g65
g58
NtRp3227
(dp3228
g61
(dp3229
g69
I3
ssg70
Nsg63
(lp3230
g56
(g72
g58
NtRp3231
(dp3232
g61
(dp3233
sg70
g3227
sg63
(lp3234
g56
(g77
g58
NtRp3235
(dp3236
g61
(dp3237
g81
g82
ssg70
g3231
sg63
(lp3238
g295
asbag56
(g77
g58
NtRp3239
(dp3240
g61
(dp3241
g88
g89
ssg70
g3231
sg63
(lp3242
S':'
asbag56
(g77
g58
NtRp3243
(dp3244
g61
(dp3245
sg70
g3231
sg63
(lp3246
g56
(g57
g58
NtRp3247
(dp3248
g61
(dp3249
g69
I3
ssg70
g3243
sg63
(lp3250
S''
asbasbasbag56
(g72
g58
NtRp3251
(dp3252
g61
(dp3253
sg70
g3227
sg63
(lp3254
g56
(g77
g58
NtRp3255
(dp3256
g61
(dp3257
g81
g82
ssg70
g3251
sg63
(lp3258
g316
asbag56
(g77
g58
NtRp3259
(dp3260
g61
(dp3261
g88
g89
ssg70
g3251
sg63
(lp3262
S':'
asbag56
(g77
g58
NtRp3263
(dp3264
g61
(dp3265
sg70
g3251
sg63
(lp3266
g56
(g57
g58
NtRp3267
(dp3268
g61
(dp3269
g69
I3
ssg70
g3263
sg63
(lp3270
S''
asbasbasbag56
(g72
g58
NtRp3271
(dp3272
g61
(dp3273
sg70
g3227
sg63
(lp3274
g56
(g77
g58
NtRp3275
(dp3276
g61
(dp3277
g81
g82
ssg70
g3271
sg63
(lp3278
g337
asbag56
(g77
g58
NtRp3279
(dp3280
g61
(dp3281
g88
g89
ssg70
g3271
sg63
(lp3282
S':'
asbag56
(g77
g58
NtRp3283
(dp3284
g61
(dp3285
sg70
g3271
sg63
(lp3286
g56
(g57
g58
NtRp3287
(dp3288
g61
(dp3289
g69
I3
ssg70
g3283
sg63
(lp3290
S''
asbasbasbag56
(g72
g58
NtRp3291
(dp3292
g61
(dp3293
sg70
g3227
sg63
(lp3294
g56
(g77
g58
NtRp3295
(dp3296
g61
(dp3297
g81
g82
ssg70
g3291
sg63
(lp3298
g358
asbag56
(g77
g58
NtRp3299
(dp3300
g61
(dp3301
g88
g89
ssg70
g3291
sg63
(lp3302
S':'
asbag56
(g77
g58
NtRp3303
(dp3304
g61
(dp3305
sg70
g3291
sg63
(lp3306
g56
(g57
g58
NtRp3307
(dp3308
g61
(dp3309
g69
I3
ssg70
g3303
sg63
(lp3310
S''
asbasbasbag56
(g72
g58
NtRp3311
(dp3312
g61
(dp3313
sg70
g3227
sg63
(lp3314
g56
(g77
g58
NtRp3315
(dp3316
g61
(dp3317
g81
g82
ssg70
g3311
sg63
(lp3318
g379
asbag56
(g77
g58
NtRp3319
(dp3320
g61
(dp3321
g88
g89
ssg70
g3311
sg63
(lp3322
S':'
asbag56
(g77
g58
NtRp3323
(dp3324
g61
(dp3325
sg70
g3311
sg63
(lp3326
g56
(g57
g58
NtRp3327
(dp3328
g61
(dp3329
g69
I3
ssg70
g3323
sg63
(lp3330
S''
asbasbasbag56
(g72
g58
NtRp3331
(dp3332
g61
(dp3333
sg70
g3227
sg63
(lp3334
g56
(g77
g58
NtRp3335
(dp3336
g61
(dp3337
g81
g82
ssg70
g3331
sg63
(lp3338
g400
asbag56
(g77
g58
NtRp3339
(dp3340
g61
(dp3341
g88
g89
ssg70
g3331
sg63
(lp3342
S':'
asbag56
(g77
g58
NtRp3343
(dp3344
g61
(dp3345
sg70
g3331
sg63
(lp3346
g56
(g57
g58
NtRp3347
(dp3348
g61
(dp3349
g69
I3
ssg70
g3343
sg63
(lp3350
S'/'
asbasbasbag56
(g72
g58
NtRp3351
(dp3352
g61
(dp3353
sg70
g3227
sg63
(lp3354
g56
(g77
g58
NtRp3355
(dp3356
g61
(dp3357
g81
g82
ssg70
g3351
sg63
(lp3358
g421
asbag56
(g77
g58
NtRp3359
(dp3360
g61
(dp3361
g88
g89
ssg70
g3351
sg63
(lp3362
S':'
asbag56
(g77
g58
NtRp3363
(dp3364
g61
(dp3365
sg70
g3351
sg63
(lp3366
g56
(g57
g58
NtRp3367
(dp3368
g61
(dp3369
g69
I3
ssg70
g3363
sg63
(lp3370
S''
asbasbasbag56
(g72
g58
NtRp3371
(dp3372
g61
(dp3373
sg70
g3227
sg63
(lp3374
g56
(g77
g58
NtRp3375
(dp3376
g61
(dp3377
g81
g82
ssg70
g3371
sg63
(lp3378
g442
asbag56
(g77
g58
NtRp3379
(dp3380
g61
(dp3381
g88
g89
ssg70
g3371
sg63
(lp3382
S':'
asbag56
(g77
g58
NtRp3383
(dp3384
g61
(dp3385
sg70
g3371
sg63
(lp3386
g56
(g57
g58
NtRp3387
(dp3388
g61
(dp3389
g69
I3
ssg70
g3383
sg63
(lp3390
S''
asbasbasbasbasbasbasbasbasbasbasbag56
(g72
g58
NtRp3391
(dp3392
g61
(dp3393
sg70
g3157
sg63
(lp3394
g56
(g77
g58
NtRp3395
(dp3396
g61
(dp3397
g81
g82
ssg70
g3391
sg63
(lp3398
S'files'
p3399
asbag56
(g77
g58
NtRp3400
(dp3401
g61
(dp3402
g88
g89
ssg70
g3391
sg63
(lp3403
S':'
asbag56
(g77
g58
NtRp3404
(dp3405
g61
(dp3406
sg70
g3391
sg63
(lp3407
g56
(g57
g58
NtRp3408
(dp3409
g61
(dp3410
g69
I5
ssg70
g3404
sg63
(lp3411
g56
(g65
g58
NtRp3412
(dp3413
g61
(dp3414
g69
I4
ssg70
Nsg63
(lp3415
sbasbasbasbag56
(g72
g58
NtRp3416
(dp3417
g61
(dp3418
sg70
g3157
sg63
(lp3419
g56
(g77
g58
NtRp3420
(dp3421
g61
(dp3422
g81
g82
ssg70
g3416
sg63
(lp3423
S'flash'
p3424
asbag56
(g77
g58
NtRp3425
(dp3426
g61
(dp3427
g88
g89
ssg70
g3416
sg63
(lp3428
S':'
asbag56
(g77
g58
NtRp3429
(dp3430
g61
(dp3431
sg70
g3416
sg63
(lp3432
g56
(g57
g58
NtRp3433
(dp3434
g61
(dp3435
g69
I5
ssg70
g3429
sg63
(lp3436
S''
asbasbasbag56
(g72
g58
NtRp3437
(dp3438
g61
(dp3439
sg70
g3157
sg63
(lp3440
g56
(g77
g58
NtRp3441
(dp3442
g61
(dp3443
g81
g82
ssg70
g3437
sg63
(lp3444
S'generic_patterns'
p3445
asbag56
(g77
g58
NtRp3446
(dp3447
g61
(dp3448
g88
g89
ssg70
g3437
sg63
(lp3449
S':'
asbag56
(g77
g58
NtRp3450
(dp3451
g61
(dp3452
sg70
g3437
sg63
(lp3453
g56
(g57
g58
NtRp3454
(dp3455
g61
(dp3456
g69
I5
ssg70
g3450
sg63
(lp3457
g56
(g65
g58
NtRp3458
(dp3459
g61
(dp3460
g69
I4
ssg70
Nsg63
(lp3461
g56
(g72
g58
NtRp3462
(dp3463
g61
(dp3464
sg70
g3458
sg63
(lp3465
g56
(g77
g58
NtRp3466
(dp3467
g61
(dp3468
sg70
g3462
sg63
(lp3469
g56
(g57
g58
NtRp3470
(dp3471
g61
(dp3472
g69
I4
ssg70
g3466
sg63
(lp3473
S'*'
asbasbasbasbasbasbasbag56
(g72
g58
NtRp3474
(dp3475
g61
(dp3476
sg70
g3157
sg63
(lp3477
g56
(g77
g58
NtRp3478
(dp3479
g61
(dp3480
g81
g82
ssg70
g3474
sg63
(lp3481
S'headers'
p3482
asbag56
(g77
g58
NtRp3483
(dp3484
g61
(dp3485
g88
g89
ssg70
g3474
sg63
(lp3486
S':'
asbag56
(g77
g58
NtRp3487
(dp3488
g61
(dp3489
sg70
g3474
sg63
(lp3490
g56
(g57
g58
NtRp3491
(dp3492
g61
(dp3493
g69
I5
ssg70
g3487
sg63
(lp3494
g56
(g65
g58
NtRp3495
(dp3496
g61
(dp3497
g69
I4
ssg70
Nsg63
(lp3498
g56
(g72
g58
NtRp3499
(dp3500
g61
(dp3501
sg70
g3495
sg63
(lp3502
g56
(g77
g58
NtRp3503
(dp3504
g61
(dp3505
g81
g82
ssg70
g3499
sg63
(lp3506
S'Cache-Control'
p3507
asbag56
(g77
g58
NtRp3508
(dp3509
g61
(dp3510
g88
g89
ssg70
g3499
sg63
(lp3511
S':'
asbag56
(g77
g58
NtRp3512
(dp3513
g61
(dp3514
sg70
g3499
sg63
(lp3515
g56
(g57
g58
NtRp3516
(dp3517
g61
(dp3518
g69
I4
ssg70
g3512
sg63
(lp3519
S'no-store, no-cache, must-revalidate, post-check=0, pre-check=0'
p3520
asbasbasbag56
(g72
g58
NtRp3521
(dp3522
g61
(dp3523
sg70
g3495
sg63
(lp3524
g56
(g77
g58
NtRp3525
(dp3526
g61
(dp3527
g81
g82
ssg70
g3521
sg63
(lp3528
S'Content-Type'
p3529
asbag56
(g77
g58
NtRp3530
(dp3531
g61
(dp3532
g88
g89
ssg70
g3521
sg63
(lp3533
S':'
asbag56
(g77
g58
NtRp3534
(dp3535
g61
(dp3536
sg70
g3521
sg63
(lp3537
g56
(g57
g58
NtRp3538
(dp3539
g61
(dp3540
g69
I4
ssg70
g3534
sg63
(lp3541
S'text/html; charset=utf-8'
p3542
asbasbasbag56
(g72
g58
NtRp3543
(dp3544
g61
(dp3545
sg70
g3495
sg63
(lp3546
g56
(g77
g58
NtRp3547
(dp3548
g61
(dp3549
g81
g82
ssg70
g3543
sg63
(lp3550
S'Expires'
p3551
asbag56
(g77
g58
NtRp3552
(dp3553
g61
(dp3554
g88
g89
ssg70
g3543
sg63
(lp3555
S':'
asbag56
(g77
g58
NtRp3556
(dp3557
g61
(dp3558
sg70
g3543
sg63
(lp3559
g56
(g57
g58
NtRp3560
(dp3561
g61
(dp3562
g69
I4
ssg70
g3556
sg63
(lp3563
S'Thu, 24 Nov 2011 02:30:58 GMT'
p3564
asbasbasbag56
(g72
g58
NtRp3565
(dp3566
g61
(dp3567
sg70
g3495
sg63
(lp3568
g56
(g77
g58
NtRp3569
(dp3570
g61
(dp3571
g81
g82
ssg70
g3565
sg63
(lp3572
S'Pragma'
p3573
asbag56
(g77
g58
NtRp3574
(dp3575
g61
(dp3576
g88
g89
ssg70
g3565
sg63
(lp3577
S':'
asbag56
(g77
g58
NtRp3578
(dp3579
g61
(dp3580
sg70
g3565
sg63
(lp3581
g56
(g57
g58
NtRp3582
(dp3583
g61
(dp3584
g69
I4
ssg70
g3578
sg63
(lp3585
S'no-cache'
p3586
asbasbasbag56
(g72
g58
NtRp3587
(dp3588
g61
(dp3589
sg70
g3495
sg63
(lp3590
g56
(g77
g58
NtRp3591
(dp3592
g61
(dp3593
g81
g82
ssg70
g3587
sg63
(lp3594
S'X-Powered-By'
p3595
asbag56
(g77
g58
NtRp3596
(dp3597
g61
(dp3598
g88
g89
ssg70
g3587
sg63
(lp3599
S':'
asbag56
(g77
g58
NtRp3600
(dp3601
g61
(dp3602
sg70
g3587
sg63
(lp3603
g56
(g57
g58
NtRp3604
(dp3605
g61
(dp3606
g69
I4
ssg70
g3600
sg63
(lp3607
S'web2py'
p3608
asbasbasbasbasbasbasbag56
(g72
g58
NtRp3609
(dp3610
g61
(dp3611
sg70
g3157
sg63
(lp3612
g56
(g77
g58
NtRp3613
(dp3614
g61
(dp3615
g81
g82
ssg70
g3609
sg63
(lp3616
S'menu'
p3617
asbag56
(g77
g58
NtRp3618
(dp3619
g61
(dp3620
g88
g89
ssg70
g3609
sg63
(lp3621
S':'
asbag56
(g77
g58
NtRp3622
(dp3623
g61
(dp3624
sg70
g3609
sg63
(lp3625
g56
(g57
g58
NtRp3626
(dp3627
g61
(dp3628
g69
I5
ssg70
g3622
sg63
(lp3629
g56
(g65
g58
NtRp3630
(dp3631
g61
(dp3632
g69
I4
ssg70
Nsg63
(lp3633
g56
(g72
g58
NtRp3634
(dp3635
g61
(dp3636
sg70
g3630
sg63
(lp3637
g56
(g77
g58
NtRp3638
(dp3639
g61
(dp3640
sg70
g3634
sg63
(lp3641
g56
(g57
g58
NtRp3642
(dp3643
g61
(dp3644
g69
I4
ssg70
g3638
sg63
(lp3645
g56
(g65
g58
NtRp3646
(dp3647
g61
(dp3648
g69
I3
ssg70
Nsg63
(lp3649
g56
(g72
g58
NtRp3650
(dp3651
g61
(dp3652
sg70
g3646
sg63
(lp3653
g56
(g77
g58
NtRp3654
(dp3655
g61
(dp3656
sg70
g3650
sg63
(lp3657
g56
(g57
g58
NtRp3658
(dp3659
g61
(dp3660
g69
I3
ssg70
g3654
sg63
(lp3661
cgluon.languages
lazyT_unpickle
p3662
(S't\x04\x00\x00\x00Home'
tRp3663
asbasbasbag56
(g72
g58
NtRp3664
(dp3665
g61
(dp3666
sg70
g3646
sg63
(lp3667
g56
(g77
g58
NtRp3668
(dp3669
g61
(dp3670
sg70
g3664
sg63
(lp3671
g56
(g57
g58
NtRp3672
(dp3673
g61
(dp3674
g69
I3
ssg70
g3668
sg63
(lp3675
g99
asbasbasbag56
(g72
g58
NtRp3676
(dp3677
g61
(dp3678
sg70
g3646
sg63
(lp3679
g56
(g77
g58
NtRp3680
(dp3681
g61
(dp3682
sg70
g3676
sg63
(lp3683
g56
(g57
g58
NtRp3684
(dp3685
g61
(dp3686
g69
I3
ssg70
g3680
sg63
(lp3687
S'/topoi/default/index'
p3688
asbasbasbag56
(g72
g58
NtRp3689
(dp3690
g61
(dp3691
sg70
g3646
sg63
(lp3692
g56
(g77
g58
NtRp3693
(dp3694
g61
(dp3695
sg70
g3689
sg63
(lp3696
g56
(g57
g58
NtRp3697
(dp3698
g61
(dp3699
g69
I3
ssg70
g3693
sg63
(lp3700
g56
(g65
g58
NtRp3701
(dp3702
g61
(dp3703
g69
I2
ssg70
Nsg63
(lp3704
sbasbasbasbasbasbasbasbag56
(g72
g58
NtRp3705
(dp3706
g61
(dp3707
sg70
g3630
sg63
(lp3708
g56
(g77
g58
NtRp3709
(dp3710
g61
(dp3711
sg70
g3705
sg63
(lp3712
g56
(g57
g58
NtRp3713
(dp3714
g61
(dp3715
g69
I4
ssg70
g3709
sg63
(lp3716
g56
(g65
g58
NtRp3717
(dp3718
g61
(dp3719
g69
I3
ssg70
Nsg63
(lp3720
g56
(g72
g58
NtRp3721
(dp3722
g61
(dp3723
sg70
g3717
sg63
(lp3724
g56
(g77
g58
NtRp3725
(dp3726
g61
(dp3727
sg70
g3721
sg63
(lp3728
g56
(g57
g58
NtRp3729
(dp3730
g61
(dp3731
g69
I3
ssg70
g3725
sg63
(lp3732
g3662
(S's\x08\x00\x00\x00This App'
tRp3733
asbasbasbag56
(g72
g58
NtRp3734
(dp3735
g61
(dp3736
sg70
g3717
sg63
(lp3737
g56
(g77
g58
NtRp3738
(dp3739
g61
(dp3740
sg70
g3734
sg63
(lp3741
g56
(g57
g58
NtRp3742
(dp3743
g61
(dp3744
g69
I3
ssg70
g3738
sg63
(lp3745
g99
asbasbasbag56
(g72
g58
NtRp3746
(dp3747
g61
(dp3748
sg70
g3717
sg63
(lp3749
g56
(g77
g58
NtRp3750
(dp3751
g61
(dp3752
sg70
g3746
sg63
(lp3753
g56
(g57
g58
NtRp3754
(dp3755
g61
(dp3756
g69
I3
ssg70
g3750
sg63
(lp3757
S'/admin/default/design/topoi'
p3758
asbasbasbag56
(g72
g58
NtRp3759
(dp3760
g61
(dp3761
sg70
g3717
sg63
(lp3762
g56
(g77
g58
NtRp3763
(dp3764
g61
(dp3765
sg70
g3759
sg63
(lp3766
g56
(g57
g58
NtRp3767
(dp3768
g61
(dp3769
g69
I3
ssg70
g3763
sg63
(lp3770
g56
(g65
g58
NtRp3771
(dp3772
g61
(dp3773
g69
I2
ssg70
Nsg63
(lp3774
g56
(g72
g58
NtRp3775
(dp3776
g61
(dp3777
sg70
g3771
sg63
(lp3778
g56
(g77
g58
NtRp3779
(dp3780
g61
(dp3781
sg70
g3775
sg63
(lp3782
g56
(g57
g58
NtRp3783
(dp3784
g61
(dp3785
g69
I2
ssg70
g3779
sg63
(lp3786
g56
(g65
g58
NtRp3787
(dp3788
g61
(dp3789
g69
I1
ssg70
Nsg63
(lp3790
g56
(g72
g58
NtRp3791
(dp3792
g61
(dp3793
sg70
g3787
sg63
(lp3794
g56
(g77
g58
NtRp3795
(dp3796
g61
(dp3797
sg70
g3791
sg63
(lp3798
g56
(g57
g58
NtRp3799
(dp3800
g61
(dp3801
g69
I1
ssg70
g3795
sg63
(lp3802
g3662
(S't\n\x00\x00\x00Controller'
tRp3803
asbasbasbag56
(g72
g58
NtRp3804
(dp3805
g61
(dp3806
sg70
g3787
sg63
(lp3807
g56
(g77
g58
NtRp3808
(dp3809
g61
(dp3810
sg70
g3804
sg63
(lp3811
g56
(g57
g58
NtRp3812
(dp3813
g61
(dp3814
g69
I1
ssg70
g3808
sg63
(lp3815
I00
asbasbasbag56
(g72
g58
NtRp3816
(dp3817
g61
(dp3818
sg70
g3787
sg63
(lp3819
g56
(g77
g58
NtRp3820
(dp3821
g61
(dp3822
sg70
g3816
sg63
(lp3823
g56
(g57
g58
NtRp3824
(dp3825
g61
(dp3826
g69
I1
ssg70
g3820
sg63
(lp3827
S'/admin/default/edit/topoi/controllers/plugin_listandedit.py'
p3828
asbasbasbasbasbasbasbag56
(g72
g58
NtRp3829
(dp3830
g61
(dp3831
sg70
g3771
sg63
(lp3832
g56
(g77
g58
NtRp3833
(dp3834
g61
(dp3835
sg70
g3829
sg63
(lp3836
g56
(g57
g58
NtRp3837
(dp3838
g61
(dp3839
g69
I2
ssg70
g3833
sg63
(lp3840
g56
(g65
g58
NtRp3841
(dp3842
g61
(dp3843
g69
I1
ssg70
Nsg63
(lp3844
g56
(g72
g58
NtRp3845
(dp3846
g61
(dp3847
sg70
g3841
sg63
(lp3848
g56
(g77
g58
NtRp3849
(dp3850
g61
(dp3851
sg70
g3845
sg63
(lp3852
g56
(g57
g58
NtRp3853
(dp3854
g61
(dp3855
g69
I1
ssg70
g3849
sg63
(lp3856
g3662
(S't\x04\x00\x00\x00View'
tRp3857
asbasbasbag56
(g72
g58
NtRp3858
(dp3859
g61
(dp3860
sg70
g3841
sg63
(lp3861
g56
(g77
g58
NtRp3862
(dp3863
g61
(dp3864
sg70
g3858
sg63
(lp3865
g56
(g57
g58
NtRp3866
(dp3867
g61
(dp3868
g69
I1
ssg70
g3862
sg63
(lp3869
I00
asbasbasbag56
(g72
g58
NtRp3870
(dp3871
g61
(dp3872
sg70
g3841
sg63
(lp3873
g56
(g77
g58
NtRp3874
(dp3875
g61
(dp3876
sg70
g3870
sg63
(lp3877
g56
(g57
g58
NtRp3878
(dp3879
g61
(dp3880
g69
I1
ssg70
g3874
sg63
(lp3881
S'/admin/default/edit/topoi/views/plugin_listandedit/list.html'
p3882
asbasbasbasbasbasbasbag56
(g72
g58
NtRp3883
(dp3884
g61
(dp3885
sg70
g3771
sg63
(lp3886
g56
(g77
g58
NtRp3887
(dp3888
g61
(dp3889
sg70
g3883
sg63
(lp3890
g56
(g57
g58
NtRp3891
(dp3892
g61
(dp3893
g69
I2
ssg70
g3887
sg63
(lp3894
g56
(g65
g58
NtRp3895
(dp3896
g61
(dp3897
g69
I1
ssg70
Nsg63
(lp3898
g56
(g72
g58
NtRp3899
(dp3900
g61
(dp3901
sg70
g3895
sg63
(lp3902
g56
(g77
g58
NtRp3903
(dp3904
g61
(dp3905
sg70
g3899
sg63
(lp3906
g56
(g57
g58
NtRp3907
(dp3908
g61
(dp3909
g69
I1
ssg70
g3903
sg63
(lp3910
g3662
(S't\x06\x00\x00\x00Layout'
tRp3911
asbasbasbag56
(g72
g58
NtRp3912
(dp3913
g61
(dp3914
sg70
g3895
sg63
(lp3915
g56
(g77
g58
NtRp3916
(dp3917
g61
(dp3918
sg70
g3912
sg63
(lp3919
g56
(g57
g58
NtRp3920
(dp3921
g61
(dp3922
g69
I1
ssg70
g3916
sg63
(lp3923
I00
asbasbasbag56
(g72
g58
NtRp3924
(dp3925
g61
(dp3926
sg70
g3895
sg63
(lp3927
g56
(g77
g58
NtRp3928
(dp3929
g61
(dp3930
sg70
g3924
sg63
(lp3931
g56
(g57
g58
NtRp3932
(dp3933
g61
(dp3934
g69
I1
ssg70
g3928
sg63
(lp3935
S'/admin/default/edit/topoi/views/layout.html'
p3936
asbasbasbasbasbasbasbag56
(g72
g58
NtRp3937
(dp3938
g61
(dp3939
sg70
g3771
sg63
(lp3940
g56
(g77
g58
NtRp3941
(dp3942
g61
(dp3943
sg70
g3937
sg63
(lp3944
g56
(g57
g58
NtRp3945
(dp3946
g61
(dp3947
g69
I2
ssg70
g3941
sg63
(lp3948
g56
(g65
g58
NtRp3949
(dp3950
g61
(dp3951
g69
I1
ssg70
Nsg63
(lp3952
g56
(g72
g58
NtRp3953
(dp3954
g61
(dp3955
sg70
g3949
sg63
(lp3956
g56
(g77
g58
NtRp3957
(dp3958
g61
(dp3959
sg70
g3953
sg63
(lp3960
g56
(g57
g58
NtRp3961
(dp3962
g61
(dp3963
g69
I1
ssg70
g3957
sg63
(lp3964
g3662
(S't\n\x00\x00\x00Stylesheet'
tRp3965
asbasbasbag56
(g72
g58
NtRp3966
(dp3967
g61
(dp3968
sg70
g3949
sg63
(lp3969
g56
(g77
g58
NtRp3970
(dp3971
g61
(dp3972
sg70
g3966
sg63
(lp3973
g56
(g57
g58
NtRp3974
(dp3975
g61
(dp3976
g69
I1
ssg70
g3970
sg63
(lp3977
I00
asbasbasbag56
(g72
g58
NtRp3978
(dp3979
g61
(dp3980
sg70
g3949
sg63
(lp3981
g56
(g77
g58
NtRp3982
(dp3983
g61
(dp3984
sg70
g3978
sg63
(lp3985
g56
(g57
g58
NtRp3986
(dp3987
g61
(dp3988
g69
I1
ssg70
g3982
sg63
(lp3989
S'/admin/default/edit/topoi/static/base.css'
p3990
asbasbasbasbasbasbasbag56
(g72
g58
NtRp3991
(dp3992
g61
(dp3993
sg70
g3771
sg63
(lp3994
g56
(g77
g58
NtRp3995
(dp3996
g61
(dp3997
sg70
g3991
sg63
(lp3998
g56
(g57
g58
NtRp3999
(dp4000
g61
(dp4001
g69
I2
ssg70
g3995
sg63
(lp4002
g56
(g65
g58
NtRp4003
(dp4004
g61
(dp4005
g69
I1
ssg70
Nsg63
(lp4006
g56
(g72
g58
NtRp4007
(dp4008
g61
(dp4009
sg70
g4003
sg63
(lp4010
g56
(g77
g58
NtRp4011
(dp4012
g61
(dp4013
sg70
g4007
sg63
(lp4014
g56
(g57
g58
NtRp4015
(dp4016
g61
(dp4017
g69
I1
ssg70
g4011
sg63
(lp4018
g3662
(S's\x08\x00\x00\x00DB Model'
tRp4019
asbasbasbag56
(g72
g58
NtRp4020
(dp4021
g61
(dp4022
sg70
g4003
sg63
(lp4023
g56
(g77
g58
NtRp4024
(dp4025
g61
(dp4026
sg70
g4020
sg63
(lp4027
g56
(g57
g58
NtRp4028
(dp4029
g61
(dp4030
g69
I1
ssg70
g4024
sg63
(lp4031
I00
asbasbasbag56
(g72
g58
NtRp4032
(dp4033
g61
(dp4034
sg70
g4003
sg63
(lp4035
g56
(g77
g58
NtRp4036
(dp4037
g61
(dp4038
sg70
g4032
sg63
(lp4039
g56
(g57
g58
NtRp4040
(dp4041
g61
(dp4042
g69
I1
ssg70
g4036
sg63
(lp4043
S'/admin/default/edit/topoi/models/db.py'
p4044
asbasbasbasbasbasbasbag56
(g72
g58
NtRp4045
(dp4046
g61
(dp4047
sg70
g3771
sg63
(lp4048
g56
(g77
g58
NtRp4049
(dp4050
g61
(dp4051
sg70
g4045
sg63
(lp4052
g56
(g57
g58
NtRp4053
(dp4054
g61
(dp4055
g69
I2
ssg70
g4049
sg63
(lp4056
g56
(g65
g58
NtRp4057
(dp4058
g61
(dp4059
g69
I1
ssg70
Nsg63
(lp4060
g56
(g72
g58
NtRp4061
(dp4062
g61
(dp4063
sg70
g4057
sg63
(lp4064
g56
(g77
g58
NtRp4065
(dp4066
g61
(dp4067
sg70
g4061
sg63
(lp4068
g56
(g57
g58
NtRp4069
(dp4070
g61
(dp4071
g69
I1
ssg70
g4065
sg63
(lp4072
g3662
(S's\n\x00\x00\x00Menu Model'
tRp4073
asbasbasbag56
(g72
g58
NtRp4074
(dp4075
g61
(dp4076
sg70
g4057
sg63
(lp4077
g56
(g77
g58
NtRp4078
(dp4079
g61
(dp4080
sg70
g4074
sg63
(lp4081
g56
(g57
g58
NtRp4082
(dp4083
g61
(dp4084
g69
I1
ssg70
g4078
sg63
(lp4085
I00
asbasbasbag56
(g72
g58
NtRp4086
(dp4087
g61
(dp4088
sg70
g4057
sg63
(lp4089
g56
(g77
g58
NtRp4090
(dp4091
g61
(dp4092
sg70
g4086
sg63
(lp4093
g56
(g57
g58
NtRp4094
(dp4095
g61
(dp4096
g69
I1
ssg70
g4090
sg63
(lp4097
S'/admin/default/edit/topoi/models/menu.py'
p4098
asbasbasbasbasbasbasbag56
(g72
g58
NtRp4099
(dp4100
g61
(dp4101
sg70
g3771
sg63
(lp4102
g56
(g77
g58
NtRp4103
(dp4104
g61
(dp4105
sg70
g4099
sg63
(lp4106
g56
(g57
g58
NtRp4107
(dp4108
g61
(dp4109
g69
I2
ssg70
g4103
sg63
(lp4110
g56
(g65
g58
NtRp4111
(dp4112
g61
(dp4113
g69
I1
ssg70
Nsg63
(lp4114
g56
(g72
g58
NtRp4115
(dp4116
g61
(dp4117
sg70
g4111
sg63
(lp4118
g56
(g77
g58
NtRp4119
(dp4120
g61
(dp4121
sg70
g4115
sg63
(lp4122
g56
(g57
g58
NtRp4123
(dp4124
g61
(dp4125
g69
I1
ssg70
g4119
sg63
(lp4126
g3662
(S't\x08\x00\x00\x00Database'
tRp4127
asbasbasbag56
(g72
g58
NtRp4128
(dp4129
g61
(dp4130
sg70
g4111
sg63
(lp4131
g56
(g77
g58
NtRp4132
(dp4133
g61
(dp4134
sg70
g4128
sg63
(lp4135
g56
(g57
g58
NtRp4136
(dp4137
g61
(dp4138
g69
I1
ssg70
g4132
sg63
(lp4139
I00
asbasbasbag56
(g72
g58
NtRp4140
(dp4141
g61
(dp4142
sg70
g4111
sg63
(lp4143
g56
(g77
g58
NtRp4144
(dp4145
g61
(dp4146
sg70
g4140
sg63
(lp4147
g56
(g57
g58
NtRp4148
(dp4149
g61
(dp4150
g69
I1
ssg70
g4144
sg63
(lp4151
S'/topoi/appadmin/index'
p4152
asbasbasbasbasbasbasbag56
(g72
g58
NtRp4153
(dp4154
g61
(dp4155
sg70
g3771
sg63
(lp4156
g56
(g77
g58
NtRp4157
(dp4158
g61
(dp4159
sg70
g4153
sg63
(lp4160
g56
(g57
g58
NtRp4161
(dp4162
g61
(dp4163
g69
I2
ssg70
g4157
sg63
(lp4164
g56
(g65
g58
NtRp4165
(dp4166
g61
(dp4167
g69
I1
ssg70
Nsg63
(lp4168
g56
(g72
g58
NtRp4169
(dp4170
g61
(dp4171
sg70
g4165
sg63
(lp4172
g56
(g77
g58
NtRp4173
(dp4174
g61
(dp4175
sg70
g4169
sg63
(lp4176
g56
(g57
g58
NtRp4177
(dp4178
g61
(dp4179
g69
I1
ssg70
g4173
sg63
(lp4180
g3662
(S't\x06\x00\x00\x00Errors'
tRp4181
asbasbasbag56
(g72
g58
NtRp4182
(dp4183
g61
(dp4184
sg70
g4165
sg63
(lp4185
g56
(g77
g58
NtRp4186
(dp4187
g61
(dp4188
sg70
g4182
sg63
(lp4189
g56
(g57
g58
NtRp4190
(dp4191
g61
(dp4192
g69
I1
ssg70
g4186
sg63
(lp4193
I00
asbasbasbag56
(g72
g58
NtRp4194
(dp4195
g61
(dp4196
sg70
g4165
sg63
(lp4197
g56
(g77
g58
NtRp4198
(dp4199
g61
(dp4200
sg70
g4194
sg63
(lp4201
g56
(g57
g58
NtRp4202
(dp4203
g61
(dp4204
g69
I1
ssg70
g4198
sg63
(lp4205
S'/admin/default/errors/topoi'
p4206
asbasbasbasbasbasbasbag56
(g72
g58
NtRp4207
(dp4208
g61
(dp4209
sg70
g3771
sg63
(lp4210
g56
(g77
g58
NtRp4211
(dp4212
g61
(dp4213
sg70
g4207
sg63
(lp4214
g56
(g57
g58
NtRp4215
(dp4216
g61
(dp4217
g69
I2
ssg70
g4211
sg63
(lp4218
g56
(g65
g58
NtRp4219
(dp4220
g61
(dp4221
g69
I1
ssg70
Nsg63
(lp4222
g56
(g72
g58
NtRp4223
(dp4224
g61
(dp4225
sg70
g4219
sg63
(lp4226
g56
(g77
g58
NtRp4227
(dp4228
g61
(dp4229
sg70
g4223
sg63
(lp4230
g56
(g57
g58
NtRp4231
(dp4232
g61
(dp4233
g69
I1
ssg70
g4227
sg63
(lp4234
g3662
(S't\x05\x00\x00\x00About'
tRp4235
asbasbasbag56
(g72
g58
NtRp4236
(dp4237
g61
(dp4238
sg70
g4219
sg63
(lp4239
g56
(g77
g58
NtRp4240
(dp4241
g61
(dp4242
sg70
g4236
sg63
(lp4243
g56
(g57
g58
NtRp4244
(dp4245
g61
(dp4246
g69
I1
ssg70
g4240
sg63
(lp4247
I00
asbasbasbag56
(g72
g58
NtRp4248
(dp4249
g61
(dp4250
sg70
g4219
sg63
(lp4251
g56
(g77
g58
NtRp4252
(dp4253
g61
(dp4254
sg70
g4248
sg63
(lp4255
g56
(g57
g58
NtRp4256
(dp4257
g61
(dp4258
g69
I1
ssg70
g4252
sg63
(lp4259
S'/admin/default/about/topoi'
p4260
asbasbasbasbasbasbasbasbasbasbasbasbasbasbasbasbasbasbasbag56
(g72
g58
NtRp4261
(dp4262
g61
(dp4263
sg70
g3157
sg63
(lp4264
g56
(g77
g58
NtRp4265
(dp4266
g61
(dp4267
g81
g82
ssg70
g4261
sg63
(lp4268
S'meta'
p4269
asbag56
(g77
g58
NtRp4270
(dp4271
g61
(dp4272
g88
g89
ssg70
g4261
sg63
(lp4273
S':'
asbag56
(g77
g58
NtRp4274
(dp4275
g61
(dp4276
sg70
g4261
sg63
(lp4277
g56
(g57
g58
NtRp4278
(dp4279
g61
(dp4280
g69
I5
ssg70
g4274
sg63
(lp4281
g56
(g65
g58
NtRp4282
(dp4283
g61
(dp4284
g69
I4
ssg70
Nsg63
(lp4285
g56
(g72
g58
NtRp4286
(dp4287
g61
(dp4288
sg70
g4282
sg63
(lp4289
g56
(g77
g58
NtRp4290
(dp4291
g61
(dp4292
g81
g82
ssg70
g4286
sg63
(lp4293
S'author'
p4294
asbag56
(g77
g58
NtRp4295
(dp4296
g61
(dp4297
g88
g89
ssg70
g4286
sg63
(lp4298
S':'
asbag56
(g77
g58
NtRp4299
(dp4300
g61
(dp4301
sg70
g4286
sg63
(lp4302
g56
(g57
g58
NtRp4303
(dp4304
g61
(dp4305
g69
I4
ssg70
g4299
sg63
(lp4306
S'Ian W. Scott'
p4307
asbasbasbag56
(g72
g58
NtRp4308
(dp4309
g61
(dp4310
sg70
g4282
sg63
(lp4311
g56
(g77
g58
NtRp4312
(dp4313
g61
(dp4314
g81
g82
ssg70
g4308
sg63
(lp4315
S'copyright'
p4316
asbag56
(g77
g58
NtRp4317
(dp4318
g61
(dp4319
g88
g89
ssg70
g4308
sg63
(lp4320
S':'
asbag56
(g77
g58
NtRp4321
(dp4322
g61
(dp4323
sg70
g4308
sg63
(lp4324
g56
(g57
g58
NtRp4325
(dp4326
g61
(dp4327
g69
I4
ssg70
g4321
sg63
(lp4328
S'Copyright 2011'
p4329
asbasbasbag56
(g72
g58
NtRp4330
(dp4331
g61
(dp4332
sg70
g4282
sg63
(lp4333
g56
(g77
g58
NtRp4334
(dp4335
g61
(dp4336
g81
g82
ssg70
g4330
sg63
(lp4337
S'description'
p4338
asbag56
(g77
g58
NtRp4339
(dp4340
g61
(dp4341
g88
g89
ssg70
g4330
sg63
(lp4342
S':'
asbag56
(g77
g58
NtRp4343
(dp4344
g61
(dp4345
sg70
g4330
sg63
(lp4346
g56
(g57
g58
NtRp4347
(dp4348
g61
(dp4349
g69
I4
ssg70
g4343
sg63
(lp4350
S'A web-app for managing primary-text research in the humanities.'
p4351
asbasbasbag56
(g72
g58
NtRp4352
(dp4353
g61
(dp4354
sg70
g4282
sg63
(lp4355
g56
(g77
g58
NtRp4356
(dp4357
g61
(dp4358
g81
g82
ssg70
g4352
sg63
(lp4359
S'generator'
p4360
asbag56
(g77
g58
NtRp4361
(dp4362
g61
(dp4363
g88
g89
ssg70
g4352
sg63
(lp4364
S':'
asbag56
(g77
g58
NtRp4365
(dp4366
g61
(dp4367
sg70
g4352
sg63
(lp4368
g56
(g57
g58
NtRp4369
(dp4370
g61
(dp4371
g69
I4
ssg70
g4365
sg63
(lp4372
S'Web2py Enterprise Framework'
p4373
asbasbasbag56
(g72
g58
NtRp4374
(dp4375
g61
(dp4376
sg70
g4282
sg63
(lp4377
g56
(g77
g58
NtRp4378
(dp4379
g61
(dp4380
g81
g82
ssg70
g4374
sg63
(lp4381
S'keywords'
p4382
asbag56
(g77
g58
NtRp4383
(dp4384
g61
(dp4385
g88
g89
ssg70
g4374
sg63
(lp4386
S':'
asbag56
(g77
g58
NtRp4387
(dp4388
g61
(dp4389
sg70
g4374
sg63
(lp4390
g56
(g57
g58
NtRp4391
(dp4392
g61
(dp4393
g69
I4
ssg70
g4387
sg63
(lp4394
S'research, humanities, biblical'
p4395
asbasbasbasbasbasbasbag56
(g72
g58
NtRp4396
(dp4397
g61
(dp4398
sg70
g3157
sg63
(lp4399
g56
(g77
g58
NtRp4400
(dp4401
g61
(dp4402
g81
g82
ssg70
g4396
sg63
(lp4403
S'postprocessing'
p4404
asbag56
(g77
g58
NtRp4405
(dp4406
g61
(dp4407
g88
g89
ssg70
g4396
sg63
(lp4408
S':'
asbag56
(g77
g58
NtRp4409
(dp4410
g61
(dp4411
sg70
g4396
sg63
(lp4412
g56
(g57
g58
NtRp4413
(dp4414
g61
(dp4415
g69
I5
ssg70
g4409
sg63
(lp4416
g56
(g65
g58
NtRp4417
(dp4418
g61
(dp4419
g69
I4
ssg70
Nsg63
(lp4420
sbasbasbasbag56
(g72
g58
NtRp4421
(dp4422
g61
(dp4423
sg70
g3157
sg63
(lp4424
g56
(g77
g58
NtRp4425
(dp4426
g61
(dp4427
g81
g82
ssg70
g4421
sg63
(lp4428
S'session_filename'
p4429
asbag56
(g77
g58
NtRp4430
(dp4431
g61
(dp4432
g88
g89
ssg70
g4421
sg63
(lp4433
S':'
asbag56
(g77
g58
NtRp4434
(dp4435
g61
(dp4436
sg70
g4421
sg63
(lp4437
g56
(g57
g58
NtRp4438
(dp4439
g61
(dp4440
g69
I5
ssg70
g4434
sg63
(lp4441
S'/home/ian/web2py/applications/topoi/sessions/127.0.0.1-ac11578b-560e-427d-9d84-2d1f1cc7563b'
p4442
asbasbasbag56
(g72
g58
NtRp4443
(dp4444
g61
(dp4445
sg70
g3157
sg63
(lp4446
g56
(g77
g58
NtRp4447
(dp4448
g61
(dp4449
g81
g82
ssg70
g4443
sg63
(lp4450
S'session_id'
p4451
asbag56
(g77
g58
NtRp4452
(dp4453
g61
(dp4454
g88
g89
ssg70
g4443
sg63
(lp4455
S':'
asbag56
(g77
g58
NtRp4456
(dp4457
g61
(dp4458
sg70
g4443
sg63
(lp4459
g56
(g57
g58
NtRp4460
(dp4461
g61
(dp4462
g69
I5
ssg70
g4456
sg63
(lp4463
S'127.0.0.1-ac11578b-560e-427d-9d84-2d1f1cc7563b'
p4464
asbasbasbag56
(g72
g58
NtRp4465
(dp4466
g61
(dp4467
sg70
g3157
sg63
(lp4468
g56
(g77
g58
NtRp4469
(dp4470
g61
(dp4471
g81
g82
ssg70
g4465
sg63
(lp4472
S'session_id_name'
p4473
asbag56
(g77
g58
NtRp4474
(dp4475
g61
(dp4476
g88
g89
ssg70
g4465
sg63
(lp4477
S':'
asbag56
(g77
g58
NtRp4478
(dp4479
g61
(dp4480
sg70
g4465
sg63
(lp4481
g56
(g57
g58
NtRp4482
(dp4483
g61
(dp4484
g69
I5
ssg70
g4478
sg63
(lp4485
g3214
asbasbasbag56
(g72
g58
NtRp4486
(dp4487
g61
(dp4488
sg70
g3157
sg63
(lp4489
g56
(g77
g58
NtRp4490
(dp4491
g61
(dp4492
g81
g82
ssg70
g4486
sg63
(lp4493
S'session_new'
p4494
asbag56
(g77
g58
NtRp4495
(dp4496
g61
(dp4497
g88
g89
ssg70
g4486
sg63
(lp4498
S':'
asbag56
(g77
g58
NtRp4499
(dp4500
g61
(dp4501
sg70
g4486
sg63
(lp4502
g56
(g57
g58
NtRp4503
(dp4504
g61
(dp4505
g69
I5
ssg70
g4499
sg63
(lp4506
g1725
asbasbasbag56
(g72
g58
NtRp4507
(dp4508
g61
(dp4509
sg70
g3157
sg63
(lp4510
g56
(g77
g58
NtRp4511
(dp4512
g61
(dp4513
g81
g82
ssg70
g4507
sg63
(lp4514
S'status'
p4515
asbag56
(g77
g58
NtRp4516
(dp4517
g61
(dp4518
g88
g89
ssg70
g4507
sg63
(lp4519
S':'
asbag56
(g77
g58
NtRp4520
(dp4521
g61
(dp4522
sg70
g4507
sg63
(lp4523
g56
(g57
g58
NtRp4524
(dp4525
g61
(dp4526
g69
I5
ssg70
g4520
sg63
(lp4527
S'200'
p4528
asbasbasbag56
(g72
g58
NtRp4529
(dp4530
g61
(dp4531
sg70
g3157
sg63
(lp4532
g56
(g77
g58
NtRp4533
(dp4534
g61
(dp4535
g81
g82
ssg70
g4529
sg63
(lp4536
S'subtitle'
p4537
asbag56
(g77
g58
NtRp4538
(dp4539
g61
(dp4540
g88
g89
ssg70
g4529
sg63
(lp4541
S':'
asbag56
(g77
g58
NtRp4542
(dp4543
g61
(dp4544
sg70
g4529
sg63
(lp4545
g56
(g57
g58
NtRp4546
(dp4547
g61
(dp4548
g69
I5
ssg70
g4542
sg63
(lp4549
g3662
(S's;\x00\x00\x00A tool for managing primary-text research in the humanities'
tRp4550
asbasbasbag56
(g72
g58
NtRp4551
(dp4552
g61
(dp4553
sg70
g3157
sg63
(lp4554
g56
(g77
g58
NtRp4555
(dp4556
g61
(dp4557
g81
g82
ssg70
g4551
sg63
(lp4558
S'title'
p4559
asbag56
(g77
g58
NtRp4560
(dp4561
g61
(dp4562
g88
g89
ssg70
g4551
sg63
(lp4563
S':'
asbag56
(g77
g58
NtRp4564
(dp4565
g61
(dp4566
sg70
g4551
sg63
(lp4567
g56
(g57
g58
NtRp4568
(dp4569
g61
(dp4570
g69
I5
ssg70
g4564
sg63
(lp4571
g121
asbasbasbag56
(g72
g58
NtRp4572
(dp4573
g61
(dp4574
sg70
g3157
sg63
(lp4575
g56
(g77
g58
NtRp4576
(dp4577
g61
(dp4578
g81
g82
ssg70
g4572
sg63
(lp4579
g2391
asbag56
(g77
g58
NtRp4580
(dp4581
g61
(dp4582
g88
g89
ssg70
g4572
sg63
(lp4583
S':'
asbag56
(g77
g58
NtRp4584
(dp4585
g61
(dp4586
sg70
g4572
sg63
(lp4587
g56
(g57
g58
NtRp4588
(dp4589
g61
(dp4590
g69
I5
ssg70
g4584
sg63
(lp4591
g2404
asbasbasbag56
(g72
g58
NtRp4592
(dp4593
g61
(dp4594
sg70
g3157
sg63
(lp4595
g56
(g77
g58
NtRp4596
(dp4597
g61
(dp4598
g81
g82
ssg70
g4592
sg63
(lp4599
S'view'
p4600
asbag56
(g77
g58
NtRp4601
(dp4602
g61
(dp4603
g88
g89
ssg70
g4592
sg63
(lp4604
S':'
asbag56
(g77
g58
NtRp4605
(dp4606
g61
(dp4607
sg70
g4592
sg63
(lp4608
g56
(g57
g58
NtRp4609
(dp4610
g61
(dp4611
g69
I5
ssg70
g4605
sg63
(lp4612
S'plugin_listandedit/list.html'
p4613
asbasbasbasbasbsS'locals'
p4614
(dp4615
S'Service'
p4616
S"<class 'gluon.tools.Service'>"
p4617
sS'OBJECT'
p4618
S"<class 'gluon.html.OBJECT'>"
p4619
sS'SQLDB'
p4620
S"<class 'gluon.dal.DAL'>"
p4621
sg3139
S"<Storage {'_Session__hash': '\\xc8[\\xd5\\xc1#\\xd8e\\x10\\xe3\\x06\\x0ba\\xddT\\x92m'}>"
p4622
sS'LINK'
p4623
S"<class 'gluon.html.LINK'>"
p4624
sS'hmultiselect_widget'
p4625
S'<function hmultiselect_widget>'
p4626
sS'BR'
p4627
S"<class 'gluon.html.BR'>"
p4628
sS'local_import'
p4629
S'<function <lambda>>'
p4630
sS'OPTGROUP'
p4631
S"<class 'gluon.html.OPTGROUP'>"
p4632
sS'PRE'
p4633
S"<class 'gluon.html.PRE'>"
p4634
sS'IS_INT_IN_RANGE'
p4635
S"<class 'gluon.validators.IS_INT_IN_RANGE'>"
p4636
sS'IS_LOWER'
p4637
S"<class 'gluon.validators.IS_LOWER'>"
p4638
sS'IS_STRONG'
p4639
S"<class 'gluon.validators.IS_STRONG'>"
p4640
sS'cache'
p4641
S'<gluon.cache.Cache object>'
p4642
sS'IS_IN_DB'
p4643
S"<class 'gluon.validators.IS_IN_DB'>"
p4644
sS'TAG'
p4645
S'<gluon.html.__TAG__ object>'
p4646
sS'SQLField'
p4647
S"<class 'gluon.dal.Field'>"
p4648
sS'mail'
p4649
S'<gluon.tools.Mail object>'
p4650
sS'BODY'
p4651
S"<class 'gluon.html.BODY'>"
p4652
sS'IS_DATE_IN_RANGE'
p4653
S"<class 'gluon.validators.IS_DATE_IN_RANGE'>"
p4654
sS'IFRAME'
p4655
S"<class 'gluon.html.IFRAME'>"
p4656
sS'URL'
p4657
S'<function URL>'
p4658
sS'__file__'
p4659
S"'/home/ian/web2py/applications/topoi/models/topoi.py'"
p4660
sS'db'
p4661
S"<DAL {'auth_event': <Table {'origin': <gluon.dal...': <gluon.dal.Field object at 0x7ffcec532bd0>}>}>"
p4662
sS'auth'
p4663
S'<gluon.tools.Auth object>'
p4664
sS'P'
S"<class 'gluon.html.P'>"
p4665
sS'TFOOT'
p4666
S"<class 'gluon.html.TFOOT'>"
p4667
sS'XHTML'
p4668
S"<class 'gluon.html.XHTML'>"
p4669
sS'datetime'
p4670
S"<module 'datetime' from '/usr/lib/python2.7/lib-dynload/datetime.so'>"
p4671
sS'ON'
p4672
g1725
sS'OL'
p4673
S"<class 'gluon.html.OL'>"
p4674
sS'TEXTAREA'
p4675
S"<class 'gluon.html.TEXTAREA'>"
p4676
sS'MENU'
p4677
S"<class 'gluon.html.MENU'>"
p4678
sS'EM'
p4679
S"<class 'gluon.html.EM'>"
p4680
sS'CODE'
p4681
S"<class 'gluon.html.CODE'>"
p4682
sS'HTTP'
p4683
S"<class 'gluon.http.HTTP'>"
p4684
sS'HR'
p4685
S"<class 'gluon.html.HR'>"
p4686
sS'IS_DATETIME'
p4687
S"<class 'gluon.validators.IS_DATETIME'>"
p4688
sS'STYLE'
p4689
S"<class 'gluon.html.STYLE'>"
p4690
sS'LABEL'
p4691
S"<class 'gluon.html.LABEL'>"
p4692
sS'META'
p4693
S"<class 'gluon.html.META'>"
p4694
sS'plugins'
p4695
S'<gluon.tools.PluginManager object>'
p4696
sS'SELECT'
p4697
S"<class 'gluon.html.SELECT'>"
p4698
sS'CENTER'
p4699
S"<class 'gluon.html.CENTER'>"
p4700
sS'prettydate'
p4701
S'<function prettydate>'
p4702
sS'Crud'
p4703
S"<class 'gluon.tools.Crud'>"
p4704
sS'Auth'
p4705
S"<class 'gluon.tools.Auth'>"
p4706
sS'__builtins__'
p4707
S"{'ArithmeticError': <type 'exceptions.ArithmeticError'>, 'AssertionError': <type 'exceptions.AssertionError'>, 'AttributeError': <type 'exceptions.AttributeError'>, 'BaseException': <type 'exceptions.BaseException'>, 'BufferError': <type 'exceptions.BufferError'>, 'BytesWarning': <type 'exceptions.BytesWarning'>, 'DeprecationWarning': <type 'exceptions.DeprecationWarning'>, 'EOFError': <type 'exceptions.EOFError'>, 'Ellipsis': Ellipsis, 'EnvironmentError': <type 'exceptions.EnvironmentError'>, ...}"
p4708
sS'HTML'
p4709
S"<class 'gluon.html.HTML'>"
p4710
sS'SQLFORM'
p4711
S"<class 'gluon.sqlhtml.SQLFORM'>"
p4712
sS'LOAD'
p4713
S'<gluon.compileapp.LoadFactory object>'
p4714
sS'redirect'
p4715
S'<function redirect>'
p4716
sS'FIELDSET'
p4717
S"<class 'gluon.html.FIELDSET'>"
p4718
sS'IS_EQUAL_TO'
p4719
S"<class 'gluon.validators.IS_EQUAL_TO'>"
p4720
sS'embed64'
p4721
S'<function embed64>'
p4722
sS'IS_LIST_OF'
p4723
S"<class 'gluon.validators.IS_LIST_OF'>"
p4724
sS'INPUT'
p4725
S"<class 'gluon.html.INPUT'>"
p4726
sS'EMBED'
p4727
S"<class 'gluon.html.EMBED'>"
p4728
sS'FORM'
p4729
S"<class 'gluon.html.FORM'>"
p4730
sS'H2'
p4731
S"<class 'gluon.html.H2'>"
p4732
sS'H3'
p4733
S"<class 'gluon.html.H3'>"
p4734
sS'BUTTON'
p4735
S"<class 'gluon.html.BUTTON'>"
p4736
sS'H1'
p4737
S"<class 'gluon.html.H1'>"
p4738
sS'H6'
p4739
S"<class 'gluon.html.H6'>"
p4740
sS'H4'
p4741
S"<class 'gluon.html.H4'>"
p4742
sS'H5'
p4743
S"<class 'gluon.html.H5'>"
p4744
sS'UL'
p4745
S"<class 'gluon.html.UL'>"
p4746
sS'IS_UPPER'
p4747
S"<class 'gluon.validators.IS_UPPER'>"
p4748
sS'xmlescape'
p4749
S'<function xmlescape>'
p4750
sS'IS_TIME'
p4751
S"<class 'gluon.validators.IS_TIME'>"
p4752
sS'OPTION'
p4753
S"<class 'gluon.html.OPTION'>"
p4754
sS'TITLE'
p4755
S"<class 'gluon.html.TITLE'>"
p4756
sS'CRYPT'
p4757
S"<class 'gluon.validators.CRYPT'>"
p4758
sS'IS_EMPTY_OR'
p4759
S"<class 'gluon.validators.IS_EMPTY_OR'>"
p4760
sS'MARKMIN'
p4761
S"<class 'gluon.html.MARKMIN'>"
p4762
sS'vmultiselect_widget'
p4763
S'<function vmultiselect_widget>'
p4764
sS'COL'
p4765
S"<class 'gluon.html.COL'>"
p4766
sS'service'
p4767
S'<gluon.tools.Service object>'
p4768
sS'SCRIPT'
p4769
S"<class 'gluon.html.SCRIPT'>"
p4770
sS'TABLE'
p4771
S"<class 'gluon.html.TABLE'>"
p4772
sS'IS_IPV4'
p4773
S"<class 'gluon.validators.IS_IPV4'>"
p4774
sS'IS_LENGTH'
p4775
S"<class 'gluon.validators.IS_LENGTH'>"
p4776
sS'XML'
p4777
S"<class 'gluon.html.XML'>"
p4778
sS'B'
S"<class 'gluon.html.B'>"
p4779
sS'IMG'
p4780
S"<class 'gluon.html.IMG'>"
p4781
sS'SQLTABLE'
p4782
S"<class 'gluon.sqlhtml.SQLTABLE'>"
p4783
sS'IS_MATCH'
p4784
S"<class 'gluon.validators.IS_MATCH'>"
p4785
sS'IS_ALPHANUMERIC'
p4786
S"<class 'gluon.validators.IS_ALPHANUMERIC'>"
p4787
sS'SPAN'
p4788
S"<class 'gluon.html.SPAN'>"
p4789
sS'IS_SLUG'
p4790
S"<class 'gluon.validators.IS_SLUG'>"
p4791
sS'CLEANUP'
p4792
S"<class 'gluon.validators.CLEANUP'>"
p4793
sS'IS_DATE'
p4794
S"<class 'gluon.validators.IS_DATE'>"
p4795
sS'IS_EMAIL'
p4796
S"<class 'gluon.validators.IS_EMAIL'>"
p4797
sS'IS_NOT_EMPTY'
p4798
S"<class 'gluon.validators.IS_NOT_EMPTY'>"
p4799
sS'IS_FLOAT_IN_RANGE'
p4800
S"<class 'gluon.validators.IS_FLOAT_IN_RANGE'>"
p4801
sS'BEAUTIFY'
p4802
S"<class 'gluon.html.BEAUTIFY'>"
p4803
sS'TBODY'
p4804
S"<class 'gluon.html.TBODY'>"
p4805
sS'CAT'
p4806
S"<class 'gluon.html.CAT'>"
p4807
sS'Field'
p4808
S"<class 'gluon.dal.Field'>"
p4809
sS'Mail'
p4810
S"<class 'gluon.tools.Mail'>"
p4811
sS'DIV'
p4812
S"<class 'gluon.html.DIV'>"
p4813
sS'LEGEND'
p4814
S"<class 'gluon.html.LEGEND'>"
p4815
sS'COLGROUP'
p4816
S"<class 'gluon.html.COLGROUP'>"
p4817
sS'DAL'
p4818
S"<class 'gluon.dal.DAL'>"
p4819
sS'TT'
p4820
S"<class 'gluon.html.TT'>"
p4821
sS'TR'
p4822
S"<class 'gluon.html.TR'>"
p4823
sS'LI'
p4824
S"<class 'gluon.html.LI'>"
p4825
sS'TH'
p4826
S"<class 'gluon.html.TH'>"
p4827
sS'SELECT_OR_ADD_OPTION'
p4828
S"<class 'applications.topoi.modules.plugin_selectoradd.SELECT_OR_ADD_OPTION'>"
p4829
sS'TD'
p4830
S"<class 'gluon.html.TD'>"
p4831
sS'PluginManager'
p4832
S"<class 'gluon.tools.PluginManager'>"
p4833
sS'IS_URL'
p4834
S"<class 'gluon.validators.IS_URL'>"
p4835
sS'A'
S"<class 'gluon.html.A'>"
p4836
sS'HEAD'
p4837
S"<class 'gluon.html.HEAD'>"
p4838
sS'IS_DATETIME_IN_RANGE'
p4839
S"<class 'gluon.validators.IS_DATETIME_IN_RANGE'>"
p4840
sS'IS_IMAGE'
p4841
S"<class 'gluon.validators.IS_IMAGE'>"
p4842
sS'I'
S"<class 'gluon.html.I'>"
p4843
sS'crud'
p4844
S'<gluon.tools.Crud object>'
p4845
sS'IS_NOT_IN_DB'
p4846
S"<class 'gluon.validators.IS_NOT_IN_DB'>"
p4847
sg3152
S"<Storage {'status': 200, 'body': <cStringIO.Stri...es': [], 'view': 'plugin_listandedit/list.html'}>"
p4848
sS'THEAD'
p4849
S"<class 'gluon.html.THEAD'>"
p4850
sS'IS_NULL_OR'
p4851
S"<class 'gluon.validators.IS_EMPTY_OR'>"
p4852
sg55
S"<Storage {'body': <cStringIO.StringO object at 0..._vars': <Storage {}>, 'post_vars': <Storage {}>}>"
p4853
sS'IS_EXPR'
p4854
S"<class 'gluon.validators.IS_EXPR'>"
p4855
sS'IS_IN_SET'
p4856
S"<class 'gluon.validators.IS_IN_SET'>"
p4857
sS'IS_UPLOAD_FILENAME'
p4858
S"<class 'gluon.validators.IS_UPLOAD_FILENAME'>"
p4859
sS'IS_DECIMAL_IN_RANGE'
p4860
S"<class 'gluon.validators.IS_DECIMAL_IN_RANGE'>"
p4861
sS'T'
S'<gluon.languages.translator object>'
p4862
sssS'traceback'
p4863
S'Traceback (most recent call last):\n  File "/home/ian/web2py/gluon/restricted.py", line 194, in restricted\n    exec ccode in environment\n  File "/home/ian/web2py/applications/topoi/models/topoi.py", line 5, in <module>\n    T = current.T\nNameError: name \'current\' is not defined\n'
p4864
s.