(dp1
S'output'
p2
S''
sS'layer'
p3
S'/home/ian/web2py/applications/topoi/controllers/plugin_listandedit.py'
p4
sS'code'
p5
S'# coding: utf8\n\ndef list():\n    """\n    API: Takes two required arguments. The first is the name of the table being listed, and the second is the id of the project.\n    Takes one required variable in the URL request: a dictionary with at least one item with the index \'fields\'. The value of request.vars[fields] provides the fields to be used to represent each record in the list.\n    """\n    response.files.append(URL(\'static\', \'plugin_listandedit/plugin_listandedit.css\'))\n    response.files.append(URL(\'static\', \'plugin_listandedit/plugin_listandedit.js\'))\n\n    tablename = request.args[0]\n    fieldnames = request.vars[\'fields\']\n\n    rowlist = \'\'\n    if not tablename in db.tables():\n        response.flash = \'Sorry, you are trying to list entries from a table that does not exist in the database.\'\n    else:\n        tb = db[tablename]\n        rowlist = db((tb.author == db.authors.id) & (tb.work == db.works.id)).select()\n        print rowlist\n\n    listset = []\n    for r in rowlist:\n        #FIXME: I need to get these values programmatically from vars[\'fields\']\n        listformat = r.authors.name, \', \', r.works.title, \', \', r.notes.reference\n\n        i = A(listformat, _href=URL(\'plugin_listandedit\', \'edit.load\', args=[tablename, r.notes.id]), _class=\'plugin_listandedit_list\', cid=\'viewpane\')\n        listset.append(i)\n\n    return dict(listset = listset)\n\ndef edit():\n    tablename = request.args[0]\n    rowid = request.args[1]\n    formname = \'%s/%s\' % (tablename, rowid)\n\n    form = SQLFORM(db[tablename], rowid)\n    if form.process(formname=formname).accepted:\n        response.flash = \'form accepted\'\n    elif form.errors:\n        response.flash = \'something went wrong\'\n    else:\n        pass\n\n    return dict(form = form)\n\nresponse._vars=response._caller(edit)\n'
p6
sS'snapshot'
p7
(dp8
S'exception'
p9
(dp10
S'__hash__'
p11
S"<method-wrapper '__hash__' of exceptions.IndexError object>"
p12
sS'__setattr__'
p13
S"<method-wrapper '__setattr__' of exceptions.IndexError object>"
p14
sS'__reduce_ex__'
p15
S'<built-in method __reduce_ex__ of exceptions.IndexError object>'
p16
sS'__getslice__'
p17
S"<method-wrapper '__getslice__' of exceptions.IndexError object>"
p18
sS'__getitem__'
p19
S"<method-wrapper '__getitem__' of exceptions.IndexError object>"
p20
sS'__setstate__'
p21
S'<built-in method __setstate__ of exceptions.IndexError object>'
p22
sS'args'
p23
S"('list index out of range',)"
p24
sS'__reduce__'
p25
S'<built-in method __reduce__ of exceptions.IndexError object>'
p26
sS'__str__'
p27
S"<method-wrapper '__str__' of exceptions.IndexError object>"
p28
sS'__format__'
p29
S'<built-in method __format__ of exceptions.IndexError object>'
p30
sS'__getattribute__'
p31
S"<method-wrapper '__getattribute__' of exceptions.IndexError object>"
p32
sS'__class__'
p33
S"<type 'exceptions.IndexError'>"
p34
sS'__unicode__'
p35
S'<built-in method __unicode__ of exceptions.IndexError object>'
p36
sS'__delattr__'
p37
S"<method-wrapper '__delattr__' of exceptions.IndexError object>"
p38
sS'__subclasshook__'
p39
S'<built-in method __subclasshook__ of type object>'
p40
sS'__repr__'
p41
S"<method-wrapper '__repr__' of exceptions.IndexError object>"
p42
sS'__dict__'
p43
S'{}'
p44
sS'__sizeof__'
p45
S'<built-in method __sizeof__ of exceptions.IndexError object>'
p46
sS'__doc__'
p47
S"'Sequence index out of range.'"
p48
sS'__init__'
p49
S"<method-wrapper '__init__' of exceptions.IndexError object>"
p50
sS'__new__'
p51
S'<built-in method __new__ of type object>'
p52
ssS'evalue'
p53
S'list index out of range'
p54
sS'request'
p55
ccopy_reg
_reconstructor
p56
(cgluon.html
BEAUTIFY
p57
c__builtin__
object
p58
NtRp59
(dp60
S'attributes'
p61
(dp62
sS'components'
p63
(lp64
g56
(cgluon.html
TABLE
p65
g58
NtRp66
(dp67
g61
(dp68
S'level'
p69
I5
ssS'parent'
p70
Nsg63
(lp71
g56
(cgluon.html
TR
p72
g58
NtRp73
(dp74
g61
(dp75
sg70
g66
sg63
(lp76
g56
(cgluon.html
TD
p77
g58
NtRp78
(dp79
g61
(dp80
S'_style'
p81
S'font-weight:bold;'
p82
ssg70
g73
sg63
(lp83
S'ajax'
p84
asbag56
(g77
g58
NtRp85
(dp86
g61
(dp87
S'_valign'
p88
S'top'
p89
ssg70
g73
sg63
(lp90
S':'
asbag56
(g77
g58
NtRp91
(dp92
g61
(dp93
sg70
g73
sg63
(lp94
g56
(g57
g58
NtRp95
(dp96
g61
(dp97
g69
I5
ssg70
g91
sg63
(lp98
S'True'
p99
asbasbasbag56
(g72
g58
NtRp100
(dp101
g61
(dp102
sg70
g66
sg63
(lp103
g56
(g77
g58
NtRp104
(dp105
g61
(dp106
g81
g82
ssg70
g100
sg63
(lp107
S'application'
p108
asbag56
(g77
g58
NtRp109
(dp110
g61
(dp111
g88
g89
ssg70
g100
sg63
(lp112
S':'
asbag56
(g77
g58
NtRp113
(dp114
g61
(dp115
sg70
g100
sg63
(lp116
g56
(g57
g58
NtRp117
(dp118
g61
(dp119
g69
I5
ssg70
g113
sg63
(lp120
S'topoi'
p121
asbasbasbag56
(g72
g58
NtRp122
(dp123
g61
(dp124
sg70
g66
sg63
(lp125
g56
(g77
g58
NtRp126
(dp127
g61
(dp128
g81
g82
ssg70
g122
sg63
(lp129
g23
asbag56
(g77
g58
NtRp130
(dp131
g61
(dp132
g88
g89
ssg70
g122
sg63
(lp133
S':'
asbag56
(g77
g58
NtRp134
(dp135
g61
(dp136
sg70
g122
sg63
(lp137
g56
(g57
g58
NtRp138
(dp139
g61
(dp140
g69
I5
ssg70
g134
sg63
(lp141
g56
(g65
g58
NtRp142
(dp143
g61
(dp144
g69
I4
ssg70
Nsg63
(lp145
g56
(g72
g58
NtRp146
(dp147
g61
(dp148
sg70
g142
sg63
(lp149
g56
(g77
g58
NtRp150
(dp151
g61
(dp152
sg70
g146
sg63
(lp153
g56
(g57
g58
NtRp154
(dp155
g61
(dp156
g69
I4
ssg70
g150
sg63
(lp157
S'1'
asbasbasbasbasbasbasbag56
(g72
g58
NtRp158
(dp159
g61
(dp160
sg70
g66
sg63
(lp161
g56
(g77
g58
NtRp162
(dp163
g61
(dp164
g81
g82
ssg70
g158
sg63
(lp165
S'body'
p166
asbag56
(g77
g58
NtRp167
(dp168
g61
(dp169
g88
g89
ssg70
g158
sg63
(lp170
S':'
asbag56
(g77
g58
NtRp171
(dp172
g61
(dp173
sg70
g158
sg63
(lp174
g56
(g57
g58
NtRp175
(dp176
g61
(dp177
g69
I5
ssg70
g171
sg63
(lp178
S'<cStringIO.StringO object at 0x3a23228>'
p179
asbasbasbag56
(g72
g58
NtRp180
(dp181
g61
(dp182
sg70
g66
sg63
(lp183
g56
(g77
g58
NtRp184
(dp185
g61
(dp186
g81
g82
ssg70
g180
sg63
(lp187
S'cid'
p188
asbag56
(g77
g58
NtRp189
(dp190
g61
(dp191
g88
g89
ssg70
g180
sg63
(lp192
S':'
asbag56
(g77
g58
NtRp193
(dp194
g61
(dp195
sg70
g180
sg63
(lp196
g56
(g57
g58
NtRp197
(dp198
g61
(dp199
g69
I5
ssg70
g193
sg63
(lp200
S'viewload'
p201
asbasbasbag56
(g72
g58
NtRp202
(dp203
g61
(dp204
sg70
g66
sg63
(lp205
g56
(g77
g58
NtRp206
(dp207
g61
(dp208
g81
g82
ssg70
g202
sg63
(lp209
S'client'
p210
asbag56
(g77
g58
NtRp211
(dp212
g61
(dp213
g88
g89
ssg70
g202
sg63
(lp214
S':'
asbag56
(g77
g58
NtRp215
(dp216
g61
(dp217
sg70
g202
sg63
(lp218
g56
(g57
g58
NtRp219
(dp220
g61
(dp221
g69
I5
ssg70
g215
sg63
(lp222
S'127.0.0.1'
p223
asbasbasbag56
(g72
g58
NtRp224
(dp225
g61
(dp226
sg70
g66
sg63
(lp227
g56
(g77
g58
NtRp228
(dp229
g61
(dp230
g81
g82
ssg70
g224
sg63
(lp231
S'controller'
p232
asbag56
(g77
g58
NtRp233
(dp234
g61
(dp235
g88
g89
ssg70
g224
sg63
(lp236
S':'
asbag56
(g77
g58
NtRp237
(dp238
g61
(dp239
sg70
g224
sg63
(lp240
g56
(g57
g58
NtRp241
(dp242
g61
(dp243
g69
I5
ssg70
g237
sg63
(lp244
S'plugin_listandedit'
p245
asbasbasbag56
(g72
g58
NtRp246
(dp247
g61
(dp248
sg70
g66
sg63
(lp249
g56
(g77
g58
NtRp250
(dp251
g61
(dp252
g81
g82
ssg70
g246
sg63
(lp253
S'cookies'
p254
asbag56
(g77
g58
NtRp255
(dp256
g61
(dp257
g88
g89
ssg70
g246
sg63
(lp258
S':'
asbag56
(g77
g58
NtRp259
(dp260
g61
(dp261
sg70
g246
sg63
(lp262
g56
(g57
g58
NtRp263
(dp264
g61
(dp265
g69
I5
ssg70
g259
sg63
(lp266
g56
(g65
g58
NtRp267
(dp268
g61
(dp269
g69
I4
ssg70
Nsg63
(lp270
g56
(g72
g58
NtRp271
(dp272
g61
(dp273
sg70
g267
sg63
(lp274
g56
(g77
g58
NtRp275
(dp276
g61
(dp277
g81
g82
ssg70
g271
sg63
(lp278
S'session_id_admin'
p279
asbag56
(g77
g58
NtRp280
(dp281
g61
(dp282
g88
g89
ssg70
g271
sg63
(lp283
S':'
asbag56
(g77
g58
NtRp284
(dp285
g61
(dp286
sg70
g271
sg63
(lp287
g56
(g57
g58
NtRp288
(dp289
g61
(dp290
g69
I4
ssg70
g284
sg63
(lp291
g56
(g65
g58
NtRp292
(dp293
g61
(dp294
g69
I3
ssg70
Nsg63
(lp295
g56
(g72
g58
NtRp296
(dp297
g61
(dp298
sg70
g292
sg63
(lp299
g56
(g77
g58
NtRp300
(dp301
g61
(dp302
g81
g82
ssg70
g296
sg63
(lp303
S'comment'
p304
asbag56
(g77
g58
NtRp305
(dp306
g61
(dp307
g88
g89
ssg70
g296
sg63
(lp308
S':'
asbag56
(g77
g58
NtRp309
(dp310
g61
(dp311
sg70
g296
sg63
(lp312
g56
(g57
g58
NtRp313
(dp314
g61
(dp315
g69
I3
ssg70
g309
sg63
(lp316
S''
asbasbasbag56
(g72
g58
NtRp317
(dp318
g61
(dp319
sg70
g292
sg63
(lp320
g56
(g77
g58
NtRp321
(dp322
g61
(dp323
g81
g82
ssg70
g317
sg63
(lp324
S'domain'
p325
asbag56
(g77
g58
NtRp326
(dp327
g61
(dp328
g88
g89
ssg70
g317
sg63
(lp329
S':'
asbag56
(g77
g58
NtRp330
(dp331
g61
(dp332
sg70
g317
sg63
(lp333
g56
(g57
g58
NtRp334
(dp335
g61
(dp336
g69
I3
ssg70
g330
sg63
(lp337
S''
asbasbasbag56
(g72
g58
NtRp338
(dp339
g61
(dp340
sg70
g292
sg63
(lp341
g56
(g77
g58
NtRp342
(dp343
g61
(dp344
g81
g82
ssg70
g338
sg63
(lp345
S'expires'
p346
asbag56
(g77
g58
NtRp347
(dp348
g61
(dp349
g88
g89
ssg70
g338
sg63
(lp350
S':'
asbag56
(g77
g58
NtRp351
(dp352
g61
(dp353
sg70
g338
sg63
(lp354
g56
(g57
g58
NtRp355
(dp356
g61
(dp357
g69
I3
ssg70
g351
sg63
(lp358
S''
asbasbasbag56
(g72
g58
NtRp359
(dp360
g61
(dp361
sg70
g292
sg63
(lp362
g56
(g77
g58
NtRp363
(dp364
g61
(dp365
g81
g82
ssg70
g359
sg63
(lp366
S'httponly'
p367
asbag56
(g77
g58
NtRp368
(dp369
g61
(dp370
g88
g89
ssg70
g359
sg63
(lp371
S':'
asbag56
(g77
g58
NtRp372
(dp373
g61
(dp374
sg70
g359
sg63
(lp375
g56
(g57
g58
NtRp376
(dp377
g61
(dp378
g69
I3
ssg70
g372
sg63
(lp379
S''
asbasbasbag56
(g72
g58
NtRp380
(dp381
g61
(dp382
sg70
g292
sg63
(lp383
g56
(g77
g58
NtRp384
(dp385
g61
(dp386
g81
g82
ssg70
g380
sg63
(lp387
S'max-age'
p388
asbag56
(g77
g58
NtRp389
(dp390
g61
(dp391
g88
g89
ssg70
g380
sg63
(lp392
S':'
asbag56
(g77
g58
NtRp393
(dp394
g61
(dp395
sg70
g380
sg63
(lp396
g56
(g57
g58
NtRp397
(dp398
g61
(dp399
g69
I3
ssg70
g393
sg63
(lp400
S''
asbasbasbag56
(g72
g58
NtRp401
(dp402
g61
(dp403
sg70
g292
sg63
(lp404
g56
(g77
g58
NtRp405
(dp406
g61
(dp407
g81
g82
ssg70
g401
sg63
(lp408
S'path'
p409
asbag56
(g77
g58
NtRp410
(dp411
g61
(dp412
g88
g89
ssg70
g401
sg63
(lp413
S':'
asbag56
(g77
g58
NtRp414
(dp415
g61
(dp416
sg70
g401
sg63
(lp417
g56
(g57
g58
NtRp418
(dp419
g61
(dp420
g69
I3
ssg70
g414
sg63
(lp421
S''
asbasbasbag56
(g72
g58
NtRp422
(dp423
g61
(dp424
sg70
g292
sg63
(lp425
g56
(g77
g58
NtRp426
(dp427
g61
(dp428
g81
g82
ssg70
g422
sg63
(lp429
S'secure'
p430
asbag56
(g77
g58
NtRp431
(dp432
g61
(dp433
g88
g89
ssg70
g422
sg63
(lp434
S':'
asbag56
(g77
g58
NtRp435
(dp436
g61
(dp437
sg70
g422
sg63
(lp438
g56
(g57
g58
NtRp439
(dp440
g61
(dp441
g69
I3
ssg70
g435
sg63
(lp442
S''
asbasbasbag56
(g72
g58
NtRp443
(dp444
g61
(dp445
sg70
g292
sg63
(lp446
g56
(g77
g58
NtRp447
(dp448
g61
(dp449
g81
g82
ssg70
g443
sg63
(lp450
S'version'
p451
asbag56
(g77
g58
NtRp452
(dp453
g61
(dp454
g88
g89
ssg70
g443
sg63
(lp455
S':'
asbag56
(g77
g58
NtRp456
(dp457
g61
(dp458
sg70
g443
sg63
(lp459
g56
(g57
g58
NtRp460
(dp461
g61
(dp462
g69
I3
ssg70
g456
sg63
(lp463
S''
asbasbasbasbasbasbasbag56
(g72
g58
NtRp464
(dp465
g61
(dp466
sg70
g267
sg63
(lp467
g56
(g77
g58
NtRp468
(dp469
g61
(dp470
g81
g82
ssg70
g464
sg63
(lp471
S'session_id_topoi'
p472
asbag56
(g77
g58
NtRp473
(dp474
g61
(dp475
g88
g89
ssg70
g464
sg63
(lp476
S':'
asbag56
(g77
g58
NtRp477
(dp478
g61
(dp479
sg70
g464
sg63
(lp480
g56
(g57
g58
NtRp481
(dp482
g61
(dp483
g69
I4
ssg70
g477
sg63
(lp484
g56
(g65
g58
NtRp485
(dp486
g61
(dp487
g69
I3
ssg70
Nsg63
(lp488
g56
(g72
g58
NtRp489
(dp490
g61
(dp491
sg70
g485
sg63
(lp492
g56
(g77
g58
NtRp493
(dp494
g61
(dp495
g81
g82
ssg70
g489
sg63
(lp496
g304
asbag56
(g77
g58
NtRp497
(dp498
g61
(dp499
g88
g89
ssg70
g489
sg63
(lp500
S':'
asbag56
(g77
g58
NtRp501
(dp502
g61
(dp503
sg70
g489
sg63
(lp504
g56
(g57
g58
NtRp505
(dp506
g61
(dp507
g69
I3
ssg70
g501
sg63
(lp508
S''
asbasbasbag56
(g72
g58
NtRp509
(dp510
g61
(dp511
sg70
g485
sg63
(lp512
g56
(g77
g58
NtRp513
(dp514
g61
(dp515
g81
g82
ssg70
g509
sg63
(lp516
g325
asbag56
(g77
g58
NtRp517
(dp518
g61
(dp519
g88
g89
ssg70
g509
sg63
(lp520
S':'
asbag56
(g77
g58
NtRp521
(dp522
g61
(dp523
sg70
g509
sg63
(lp524
g56
(g57
g58
NtRp525
(dp526
g61
(dp527
g69
I3
ssg70
g521
sg63
(lp528
S''
asbasbasbag56
(g72
g58
NtRp529
(dp530
g61
(dp531
sg70
g485
sg63
(lp532
g56
(g77
g58
NtRp533
(dp534
g61
(dp535
g81
g82
ssg70
g529
sg63
(lp536
g346
asbag56
(g77
g58
NtRp537
(dp538
g61
(dp539
g88
g89
ssg70
g529
sg63
(lp540
S':'
asbag56
(g77
g58
NtRp541
(dp542
g61
(dp543
sg70
g529
sg63
(lp544
g56
(g57
g58
NtRp545
(dp546
g61
(dp547
g69
I3
ssg70
g541
sg63
(lp548
S''
asbasbasbag56
(g72
g58
NtRp549
(dp550
g61
(dp551
sg70
g485
sg63
(lp552
g56
(g77
g58
NtRp553
(dp554
g61
(dp555
g81
g82
ssg70
g549
sg63
(lp556
g367
asbag56
(g77
g58
NtRp557
(dp558
g61
(dp559
g88
g89
ssg70
g549
sg63
(lp560
S':'
asbag56
(g77
g58
NtRp561
(dp562
g61
(dp563
sg70
g549
sg63
(lp564
g56
(g57
g58
NtRp565
(dp566
g61
(dp567
g69
I3
ssg70
g561
sg63
(lp568
S''
asbasbasbag56
(g72
g58
NtRp569
(dp570
g61
(dp571
sg70
g485
sg63
(lp572
g56
(g77
g58
NtRp573
(dp574
g61
(dp575
g81
g82
ssg70
g569
sg63
(lp576
g388
asbag56
(g77
g58
NtRp577
(dp578
g61
(dp579
g88
g89
ssg70
g569
sg63
(lp580
S':'
asbag56
(g77
g58
NtRp581
(dp582
g61
(dp583
sg70
g569
sg63
(lp584
g56
(g57
g58
NtRp585
(dp586
g61
(dp587
g69
I3
ssg70
g581
sg63
(lp588
S''
asbasbasbag56
(g72
g58
NtRp589
(dp590
g61
(dp591
sg70
g485
sg63
(lp592
g56
(g77
g58
NtRp593
(dp594
g61
(dp595
g81
g82
ssg70
g589
sg63
(lp596
g409
asbag56
(g77
g58
NtRp597
(dp598
g61
(dp599
g88
g89
ssg70
g589
sg63
(lp600
S':'
asbag56
(g77
g58
NtRp601
(dp602
g61
(dp603
sg70
g589
sg63
(lp604
g56
(g57
g58
NtRp605
(dp606
g61
(dp607
g69
I3
ssg70
g601
sg63
(lp608
S''
asbasbasbag56
(g72
g58
NtRp609
(dp610
g61
(dp611
sg70
g485
sg63
(lp612
g56
(g77
g58
NtRp613
(dp614
g61
(dp615
g81
g82
ssg70
g609
sg63
(lp616
g430
asbag56
(g77
g58
NtRp617
(dp618
g61
(dp619
g88
g89
ssg70
g609
sg63
(lp620
S':'
asbag56
(g77
g58
NtRp621
(dp622
g61
(dp623
sg70
g609
sg63
(lp624
g56
(g57
g58
NtRp625
(dp626
g61
(dp627
g69
I3
ssg70
g621
sg63
(lp628
S''
asbasbasbag56
(g72
g58
NtRp629
(dp630
g61
(dp631
sg70
g485
sg63
(lp632
g56
(g77
g58
NtRp633
(dp634
g61
(dp635
g81
g82
ssg70
g629
sg63
(lp636
g451
asbag56
(g77
g58
NtRp637
(dp638
g61
(dp639
g88
g89
ssg70
g629
sg63
(lp640
S':'
asbag56
(g77
g58
NtRp641
(dp642
g61
(dp643
sg70
g629
sg63
(lp644
g56
(g57
g58
NtRp645
(dp646
g61
(dp647
g69
I3
ssg70
g641
sg63
(lp648
S''
asbasbasbasbasbasbasbasbasbasbasbag56
(g72
g58
NtRp649
(dp650
g61
(dp651
sg70
g66
sg63
(lp652
g56
(g77
g58
NtRp653
(dp654
g61
(dp655
g81
g82
ssg70
g649
sg63
(lp656
S'env'
p657
asbag56
(g77
g58
NtRp658
(dp659
g61
(dp660
g88
g89
ssg70
g649
sg63
(lp661
S':'
asbag56
(g77
g58
NtRp662
(dp663
g61
(dp664
sg70
g649
sg63
(lp665
g56
(g57
g58
NtRp666
(dp667
g61
(dp668
g69
I5
ssg70
g662
sg63
(lp669
g56
(g65
g58
NtRp670
(dp671
g61
(dp672
g69
I4
ssg70
Nsg63
(lp673
g56
(g72
g58
NtRp674
(dp675
g61
(dp676
sg70
g670
sg63
(lp677
g56
(g77
g58
NtRp678
(dp679
g61
(dp680
g81
g82
ssg70
g674
sg63
(lp681
S'app_folders'
p682
asbag56
(g77
g58
NtRp683
(dp684
g61
(dp685
g88
g89
ssg70
g674
sg63
(lp686
S':'
asbag56
(g77
g58
NtRp687
(dp688
g61
(dp689
sg70
g674
sg63
(lp690
g56
(g57
g58
NtRp691
(dp692
g61
(dp693
g69
I4
ssg70
g687
sg63
(lp694
S"set(['/home/ian/web2py/applications/topoi/', '/home/ian/web2py/applications/admin/'])"
p695
asbasbasbag56
(g72
g58
NtRp696
(dp697
g61
(dp698
sg70
g670
sg63
(lp699
g56
(g77
g58
NtRp700
(dp701
g61
(dp702
g81
g82
ssg70
g696
sg63
(lp703
S'applications_parent'
p704
asbag56
(g77
g58
NtRp705
(dp706
g61
(dp707
g88
g89
ssg70
g696
sg63
(lp708
S':'
asbag56
(g77
g58
NtRp709
(dp710
g61
(dp711
sg70
g696
sg63
(lp712
g56
(g57
g58
NtRp713
(dp714
g61
(dp715
g69
I4
ssg70
g709
sg63
(lp716
S'/home/ian/web2py'
p717
asbasbasbag56
(g72
g58
NtRp718
(dp719
g61
(dp720
sg70
g670
sg63
(lp721
g56
(g77
g58
NtRp722
(dp723
g61
(dp724
g81
g82
ssg70
g718
sg63
(lp725
S'cmd_args'
p726
asbag56
(g77
g58
NtRp727
(dp728
g61
(dp729
g88
g89
ssg70
g718
sg63
(lp730
S':'
asbag56
(g77
g58
NtRp731
(dp732
g61
(dp733
sg70
g718
sg63
(lp734
g56
(g57
g58
NtRp735
(dp736
g61
(dp737
g69
I4
ssg70
g731
sg63
(lp738
g56
(g65
g58
NtRp739
(dp740
g61
(dp741
g69
I3
ssg70
Nsg63
(lp742
sbasbasbasbag56
(g72
g58
NtRp743
(dp744
g61
(dp745
sg70
g670
sg63
(lp746
g56
(g77
g58
NtRp747
(dp748
g61
(dp749
g81
g82
ssg70
g743
sg63
(lp750
S'cmd_options'
p751
asbag56
(g77
g58
NtRp752
(dp753
g61
(dp754
g88
g89
ssg70
g743
sg63
(lp755
S':'
asbag56
(g77
g58
NtRp756
(dp757
g61
(dp758
sg70
g743
sg63
(lp759
g56
(g57
g58
NtRp760
(dp761
g61
(dp762
g69
I4
ssg70
g756
sg63
(lp763
S"<Values at 0x2c53758: {'verbose': False, 'ip': '127.0.0.1', 'shutdown_timeout': 5, 'taskbar': False, 'nocron': False, 'pid_filename': 'httpserver.pid', 'maxthreads': None, 'softcron': False, 'server_name': 'uriel', 'bpython': False, 'nogui': False, 'port': 8000, 'extcron': False, 'debuglevel': 30, 'test': None, 'folder': '/home/ian/web2py', 'config': '', 'import_models': False, 'winservice': '', 'shell': None, 'run': '', 'log_filename': 'httpserver.log', 'args': [''], 'ssl_ca_certificate': None, 'scheduler': None, 'profiler_filename': None, 'ssl_private_key': '', 'password': '<ask>', 'request_queue_size': 5, 'ssl_certificate': '', 'cronjob': False, 'plain': False, 'quiet': False, 'interfaces': None, 'minthreads': None, 'timeout': 10, 'numthreads': None, 'nobanner': False}>"
p764
asbasbasbag56
(g72
g58
NtRp765
(dp766
g61
(dp767
sg70
g670
sg63
(lp768
g56
(g77
g58
NtRp769
(dp770
g61
(dp771
g81
g82
ssg70
g765
sg63
(lp772
S'db_sessions'
p773
asbag56
(g77
g58
NtRp774
(dp775
g61
(dp776
g88
g89
ssg70
g765
sg63
(lp777
S':'
asbag56
(g77
g58
NtRp778
(dp779
g61
(dp780
sg70
g765
sg63
(lp781
g56
(g57
g58
NtRp782
(dp783
g61
(dp784
g69
I4
ssg70
g778
sg63
(lp785
S'set([])'
p786
asbasbasbag56
(g72
g58
NtRp787
(dp788
g61
(dp789
sg70
g670
sg63
(lp790
g56
(g77
g58
NtRp791
(dp792
g61
(dp793
g81
g82
ssg70
g787
sg63
(lp794
S'debugging'
p795
asbag56
(g77
g58
NtRp796
(dp797
g61
(dp798
g88
g89
ssg70
g787
sg63
(lp799
S':'
asbag56
(g77
g58
NtRp800
(dp801
g61
(dp802
sg70
g787
sg63
(lp803
g56
(g57
g58
NtRp804
(dp805
g61
(dp806
g69
I4
ssg70
g800
sg63
(lp807
S'False'
p808
asbasbasbag56
(g72
g58
NtRp809
(dp810
g61
(dp811
sg70
g670
sg63
(lp812
g56
(g77
g58
NtRp813
(dp814
g61
(dp815
g81
g82
ssg70
g809
sg63
(lp816
S'gluon_parent'
p817
asbag56
(g77
g58
NtRp818
(dp819
g61
(dp820
g88
g89
ssg70
g809
sg63
(lp821
S':'
asbag56
(g77
g58
NtRp822
(dp823
g61
(dp824
sg70
g809
sg63
(lp825
g56
(g57
g58
NtRp826
(dp827
g61
(dp828
g69
I4
ssg70
g822
sg63
(lp829
S'/home/ian/web2py'
p830
asbasbasbag56
(g72
g58
NtRp831
(dp832
g61
(dp833
sg70
g670
sg63
(lp834
g56
(g77
g58
NtRp835
(dp836
g61
(dp837
g81
g82
ssg70
g831
sg63
(lp838
S'http_accept'
p839
asbag56
(g77
g58
NtRp840
(dp841
g61
(dp842
g88
g89
ssg70
g831
sg63
(lp843
S':'
asbag56
(g77
g58
NtRp844
(dp845
g61
(dp846
sg70
g831
sg63
(lp847
g56
(g57
g58
NtRp848
(dp849
g61
(dp850
g69
I4
ssg70
g844
sg63
(lp851
S'*/*'
p852
asbasbasbag56
(g72
g58
NtRp853
(dp854
g61
(dp855
sg70
g670
sg63
(lp856
g56
(g77
g58
NtRp857
(dp858
g61
(dp859
g81
g82
ssg70
g853
sg63
(lp860
S'http_accept_charset'
p861
asbag56
(g77
g58
NtRp862
(dp863
g61
(dp864
g88
g89
ssg70
g853
sg63
(lp865
S':'
asbag56
(g77
g58
NtRp866
(dp867
g61
(dp868
sg70
g853
sg63
(lp869
g56
(g57
g58
NtRp870
(dp871
g61
(dp872
g69
I4
ssg70
g866
sg63
(lp873
S'UTF-8,*'
p874
asbasbasbag56
(g72
g58
NtRp875
(dp876
g61
(dp877
sg70
g670
sg63
(lp878
g56
(g77
g58
NtRp879
(dp880
g61
(dp881
g81
g82
ssg70
g875
sg63
(lp882
S'http_accept_encoding'
p883
asbag56
(g77
g58
NtRp884
(dp885
g61
(dp886
g88
g89
ssg70
g875
sg63
(lp887
S':'
asbag56
(g77
g58
NtRp888
(dp889
g61
(dp890
sg70
g875
sg63
(lp891
g56
(g57
g58
NtRp892
(dp893
g61
(dp894
g69
I4
ssg70
g888
sg63
(lp895
S'gzip, deflate'
p896
asbasbasbag56
(g72
g58
NtRp897
(dp898
g61
(dp899
sg70
g670
sg63
(lp900
g56
(g77
g58
NtRp901
(dp902
g61
(dp903
g81
g82
ssg70
g897
sg63
(lp904
S'http_accept_language'
p905
asbag56
(g77
g58
NtRp906
(dp907
g61
(dp908
g88
g89
ssg70
g897
sg63
(lp909
S':'
asbag56
(g77
g58
NtRp910
(dp911
g61
(dp912
sg70
g897
sg63
(lp913
g56
(g57
g58
NtRp914
(dp915
g61
(dp916
g69
I4
ssg70
g910
sg63
(lp917
S'en-us,en;q=0.5'
p918
asbasbasbag56
(g72
g58
NtRp919
(dp920
g61
(dp921
sg70
g670
sg63
(lp922
g56
(g77
g58
NtRp923
(dp924
g61
(dp925
g81
g82
ssg70
g919
sg63
(lp926
S'http_cache_control'
p927
asbag56
(g77
g58
NtRp928
(dp929
g61
(dp930
g88
g89
ssg70
g919
sg63
(lp931
S':'
asbag56
(g77
g58
NtRp932
(dp933
g61
(dp934
sg70
g919
sg63
(lp935
g56
(g57
g58
NtRp936
(dp937
g61
(dp938
g69
I4
ssg70
g932
sg63
(lp939
S'max-age=0'
p940
asbasbasbag56
(g72
g58
NtRp941
(dp942
g61
(dp943
sg70
g670
sg63
(lp944
g56
(g77
g58
NtRp945
(dp946
g61
(dp947
g81
g82
ssg70
g941
sg63
(lp948
S'http_connection'
p949
asbag56
(g77
g58
NtRp950
(dp951
g61
(dp952
g88
g89
ssg70
g941
sg63
(lp953
S':'
asbag56
(g77
g58
NtRp954
(dp955
g61
(dp956
sg70
g941
sg63
(lp957
g56
(g57
g58
NtRp958
(dp959
g61
(dp960
g69
I4
ssg70
g954
sg63
(lp961
S'keep-alive'
p962
asbasbasbag56
(g72
g58
NtRp963
(dp964
g61
(dp965
sg70
g670
sg63
(lp966
g56
(g77
g58
NtRp967
(dp968
g61
(dp969
g81
g82
ssg70
g963
sg63
(lp970
S'http_cookie'
p971
asbag56
(g77
g58
NtRp972
(dp973
g61
(dp974
g88
g89
ssg70
g963
sg63
(lp975
S':'
asbag56
(g77
g58
NtRp976
(dp977
g61
(dp978
sg70
g963
sg63
(lp979
g56
(g57
g58
NtRp980
(dp981
g61
(dp982
g69
I4
ssg70
g976
sg63
(lp983
S'session_id_topoi=127.0.0.1-fbfd7fa3-57f5-4d42-8f08-594178070e93; session_id_admin=127.0.0.1-d7c37b6e-5c02-4001-ac4d-6ba36c6ca1e8'
p984
asbasbasbag56
(g72
g58
NtRp985
(dp986
g61
(dp987
sg70
g670
sg63
(lp988
g56
(g77
g58
NtRp989
(dp990
g61
(dp991
g81
g82
ssg70
g985
sg63
(lp992
S'http_host'
p993
asbag56
(g77
g58
NtRp994
(dp995
g61
(dp996
g88
g89
ssg70
g985
sg63
(lp997
S':'
asbag56
(g77
g58
NtRp998
(dp999
g61
(dp1000
sg70
g985
sg63
(lp1001
g56
(g57
g58
NtRp1002
(dp1003
g61
(dp1004
g69
I4
ssg70
g998
sg63
(lp1005
S'127.0.0.1:8000'
p1006
asbasbasbag56
(g72
g58
NtRp1007
(dp1008
g61
(dp1009
sg70
g670
sg63
(lp1010
g56
(g77
g58
NtRp1011
(dp1012
g61
(dp1013
g81
g82
ssg70
g1007
sg63
(lp1014
S'http_referer'
p1015
asbag56
(g77
g58
NtRp1016
(dp1017
g61
(dp1018
g88
g89
ssg70
g1007
sg63
(lp1019
S':'
asbag56
(g77
g58
NtRp1020
(dp1021
g61
(dp1022
sg70
g1007
sg63
(lp1023
g56
(g57
g58
NtRp1024
(dp1025
g61
(dp1026
g69
I4
ssg70
g1020
sg63
(lp1027
S'http://127.0.0.1:8000/topoi/plugin_listandedit/list/notes/1?fields=author&fields=work&fields=reference'
p1028
asbasbasbag56
(g72
g58
NtRp1029
(dp1030
g61
(dp1031
sg70
g670
sg63
(lp1032
g56
(g77
g58
NtRp1033
(dp1034
g61
(dp1035
g81
g82
ssg70
g1029
sg63
(lp1036
S'http_user_agent'
p1037
asbag56
(g77
g58
NtRp1038
(dp1039
g61
(dp1040
g88
g89
ssg70
g1029
sg63
(lp1041
S':'
asbag56
(g77
g58
NtRp1042
(dp1043
g61
(dp1044
sg70
g1029
sg63
(lp1045
g56
(g57
g58
NtRp1046
(dp1047
g61
(dp1048
g69
I4
ssg70
g1042
sg63
(lp1049
S'Mozilla/5.0 (Ubuntu; X11; Linux x86_64; rv:8.0) Gecko/20100101 Firefox/8.0'
p1050
asbasbasbag56
(g72
g58
NtRp1051
(dp1052
g61
(dp1053
sg70
g670
sg63
(lp1054
g56
(g77
g58
NtRp1055
(dp1056
g61
(dp1057
g81
g82
ssg70
g1051
sg63
(lp1058
S'http_web2py_component_element'
p1059
asbag56
(g77
g58
NtRp1060
(dp1061
g61
(dp1062
g88
g89
ssg70
g1051
sg63
(lp1063
S':'
asbag56
(g77
g58
NtRp1064
(dp1065
g61
(dp1066
sg70
g1051
sg63
(lp1067
g56
(g57
g58
NtRp1068
(dp1069
g61
(dp1070
g69
I4
ssg70
g1064
sg63
(lp1071
g201
asbasbasbag56
(g72
g58
NtRp1072
(dp1073
g61
(dp1074
sg70
g670
sg63
(lp1075
g56
(g77
g58
NtRp1076
(dp1077
g61
(dp1078
g81
g82
ssg70
g1072
sg63
(lp1079
S'http_web2py_component_location'
p1080
asbag56
(g77
g58
NtRp1081
(dp1082
g61
(dp1083
g88
g89
ssg70
g1072
sg63
(lp1084
S':'
asbag56
(g77
g58
NtRp1085
(dp1086
g61
(dp1087
sg70
g1072
sg63
(lp1088
g56
(g57
g58
NtRp1089
(dp1090
g61
(dp1091
g69
I4
ssg70
g1085
sg63
(lp1092
S'http://127.0.0.1:8000/topoi/plugin_listandedit/list/notes/1?fields=author&fields=work&fields=reference'
p1093
asbasbasbag56
(g72
g58
NtRp1094
(dp1095
g61
(dp1096
sg70
g670
sg63
(lp1097
g56
(g77
g58
NtRp1098
(dp1099
g61
(dp1100
g81
g82
ssg70
g1094
sg63
(lp1101
S'http_x_requested_with'
p1102
asbag56
(g77
g58
NtRp1103
(dp1104
g61
(dp1105
g88
g89
ssg70
g1094
sg63
(lp1106
S':'
asbag56
(g77
g58
NtRp1107
(dp1108
g61
(dp1109
sg70
g1094
sg63
(lp1110
g56
(g57
g58
NtRp1111
(dp1112
g61
(dp1113
g69
I4
ssg70
g1107
sg63
(lp1114
S'XMLHttpRequest'
p1115
asbasbasbag56
(g72
g58
NtRp1116
(dp1117
g61
(dp1118
sg70
g670
sg63
(lp1119
g56
(g77
g58
NtRp1120
(dp1121
g61
(dp1122
g81
g82
ssg70
g1116
sg63
(lp1123
S'is_jython'
p1124
asbag56
(g77
g58
NtRp1125
(dp1126
g61
(dp1127
g88
g89
ssg70
g1116
sg63
(lp1128
S':'
asbag56
(g77
g58
NtRp1129
(dp1130
g61
(dp1131
sg70
g1116
sg63
(lp1132
g56
(g57
g58
NtRp1133
(dp1134
g61
(dp1135
g69
I4
ssg70
g1129
sg63
(lp1136
g808
asbasbasbag56
(g72
g58
NtRp1137
(dp1138
g61
(dp1139
sg70
g670
sg63
(lp1140
g56
(g77
g58
NtRp1141
(dp1142
g61
(dp1143
g81
g82
ssg70
g1137
sg63
(lp1144
S'path_info'
p1145
asbag56
(g77
g58
NtRp1146
(dp1147
g61
(dp1148
g88
g89
ssg70
g1137
sg63
(lp1149
S':'
asbag56
(g77
g58
NtRp1150
(dp1151
g61
(dp1152
sg70
g1137
sg63
(lp1153
g56
(g57
g58
NtRp1154
(dp1155
g61
(dp1156
g69
I4
ssg70
g1150
sg63
(lp1157
S'/topoi/plugin_listandedit/edit.load/1'
p1158
asbasbasbag56
(g72
g58
NtRp1159
(dp1160
g61
(dp1161
sg70
g670
sg63
(lp1162
g56
(g77
g58
NtRp1163
(dp1164
g61
(dp1165
g81
g82
ssg70
g1159
sg63
(lp1166
S'query_string'
p1167
asbag56
(g77
g58
NtRp1168
(dp1169
g61
(dp1170
g88
g89
ssg70
g1159
sg63
(lp1171
S':'
asbag56
(g77
g58
NtRp1172
(dp1173
g61
(dp1174
sg70
g1159
sg63
(lp1175
g56
(g57
g58
NtRp1176
(dp1177
g61
(dp1178
g69
I4
ssg70
g1172
sg63
(lp1179
S''
asbasbasbag56
(g72
g58
NtRp1180
(dp1181
g61
(dp1182
sg70
g670
sg63
(lp1183
g56
(g77
g58
NtRp1184
(dp1185
g61
(dp1186
g81
g82
ssg70
g1180
sg63
(lp1187
S'remote_addr'
p1188
asbag56
(g77
g58
NtRp1189
(dp1190
g61
(dp1191
g88
g89
ssg70
g1180
sg63
(lp1192
S':'
asbag56
(g77
g58
NtRp1193
(dp1194
g61
(dp1195
sg70
g1180
sg63
(lp1196
g56
(g57
g58
NtRp1197
(dp1198
g61
(dp1199
g69
I4
ssg70
g1193
sg63
(lp1200
g223
asbasbasbag56
(g72
g58
NtRp1201
(dp1202
g61
(dp1203
sg70
g670
sg63
(lp1204
g56
(g77
g58
NtRp1205
(dp1206
g61
(dp1207
g81
g82
ssg70
g1201
sg63
(lp1208
S'remote_port'
p1209
asbag56
(g77
g58
NtRp1210
(dp1211
g61
(dp1212
g88
g89
ssg70
g1201
sg63
(lp1213
S':'
asbag56
(g77
g58
NtRp1214
(dp1215
g61
(dp1216
sg70
g1201
sg63
(lp1217
g56
(g57
g58
NtRp1218
(dp1219
g61
(dp1220
g69
I4
ssg70
g1214
sg63
(lp1221
S'57313'
p1222
asbasbasbag56
(g72
g58
NtRp1223
(dp1224
g61
(dp1225
sg70
g670
sg63
(lp1226
g56
(g77
g58
NtRp1227
(dp1228
g61
(dp1229
g81
g82
ssg70
g1223
sg63
(lp1230
S'request_method'
p1231
asbag56
(g77
g58
NtRp1232
(dp1233
g61
(dp1234
g88
g89
ssg70
g1223
sg63
(lp1235
S':'
asbag56
(g77
g58
NtRp1236
(dp1237
g61
(dp1238
sg70
g1223
sg63
(lp1239
g56
(g57
g58
NtRp1240
(dp1241
g61
(dp1242
g69
I4
ssg70
g1236
sg63
(lp1243
S'GET'
p1244
asbasbasbag56
(g72
g58
NtRp1245
(dp1246
g61
(dp1247
sg70
g670
sg63
(lp1248
g56
(g77
g58
NtRp1249
(dp1250
g61
(dp1251
g81
g82
ssg70
g1245
sg63
(lp1252
S'script_name'
p1253
asbag56
(g77
g58
NtRp1254
(dp1255
g61
(dp1256
g88
g89
ssg70
g1245
sg63
(lp1257
S':'
asbag56
(g77
g58
NtRp1258
(dp1259
g61
(dp1260
sg70
g1245
sg63
(lp1261
g56
(g57
g58
NtRp1262
(dp1263
g61
(dp1264
g69
I4
ssg70
g1258
sg63
(lp1265
S''
asbasbasbag56
(g72
g58
NtRp1266
(dp1267
g61
(dp1268
sg70
g670
sg63
(lp1269
g56
(g77
g58
NtRp1270
(dp1271
g61
(dp1272
g81
g82
ssg70
g1266
sg63
(lp1273
S'server_name'
p1274
asbag56
(g77
g58
NtRp1275
(dp1276
g61
(dp1277
g88
g89
ssg70
g1266
sg63
(lp1278
S':'
asbag56
(g77
g58
NtRp1279
(dp1280
g61
(dp1281
sg70
g1266
sg63
(lp1282
g56
(g57
g58
NtRp1283
(dp1284
g61
(dp1285
g69
I4
ssg70
g1279
sg63
(lp1286
S'uriel'
p1287
asbasbasbag56
(g72
g58
NtRp1288
(dp1289
g61
(dp1290
sg70
g670
sg63
(lp1291
g56
(g77
g58
NtRp1292
(dp1293
g61
(dp1294
g81
g82
ssg70
g1288
sg63
(lp1295
S'server_port'
p1296
asbag56
(g77
g58
NtRp1297
(dp1298
g61
(dp1299
g88
g89
ssg70
g1288
sg63
(lp1300
S':'
asbag56
(g77
g58
NtRp1301
(dp1302
g61
(dp1303
sg70
g1288
sg63
(lp1304
g56
(g57
g58
NtRp1305
(dp1306
g61
(dp1307
g69
I4
ssg70
g1301
sg63
(lp1308
S'8000'
p1309
asbasbasbag56
(g72
g58
NtRp1310
(dp1311
g61
(dp1312
sg70
g670
sg63
(lp1313
g56
(g77
g58
NtRp1314
(dp1315
g61
(dp1316
g81
g82
ssg70
g1310
sg63
(lp1317
S'server_protocol'
p1318
asbag56
(g77
g58
NtRp1319
(dp1320
g61
(dp1321
g88
g89
ssg70
g1310
sg63
(lp1322
S':'
asbag56
(g77
g58
NtRp1323
(dp1324
g61
(dp1325
sg70
g1310
sg63
(lp1326
g56
(g57
g58
NtRp1327
(dp1328
g61
(dp1329
g69
I4
ssg70
g1323
sg63
(lp1330
S'HTTP/1.1'
p1331
asbasbasbag56
(g72
g58
NtRp1332
(dp1333
g61
(dp1334
sg70
g670
sg63
(lp1335
g56
(g77
g58
NtRp1336
(dp1337
g61
(dp1338
g81
g82
ssg70
g1332
sg63
(lp1339
S'server_software'
p1340
asbag56
(g77
g58
NtRp1341
(dp1342
g61
(dp1343
g88
g89
ssg70
g1332
sg63
(lp1344
S':'
asbag56
(g77
g58
NtRp1345
(dp1346
g61
(dp1347
sg70
g1332
sg63
(lp1348
g56
(g57
g58
NtRp1349
(dp1350
g61
(dp1351
g69
I4
ssg70
g1345
sg63
(lp1352
S'Rocket 1.2.4'
p1353
asbasbasbag56
(g72
g58
NtRp1354
(dp1355
g61
(dp1356
sg70
g670
sg63
(lp1357
g56
(g77
g58
NtRp1358
(dp1359
g61
(dp1360
g81
g82
ssg70
g1354
sg63
(lp1361
S'web2py_crontype'
p1362
asbag56
(g77
g58
NtRp1363
(dp1364
g61
(dp1365
g88
g89
ssg70
g1354
sg63
(lp1366
S':'
asbag56
(g77
g58
NtRp1367
(dp1368
g61
(dp1369
sg70
g1354
sg63
(lp1370
g56
(g57
g58
NtRp1371
(dp1372
g61
(dp1373
g69
I4
ssg70
g1367
sg63
(lp1374
S'hard'
p1375
asbasbasbag56
(g72
g58
NtRp1376
(dp1377
g61
(dp1378
sg70
g670
sg63
(lp1379
g56
(g77
g58
NtRp1380
(dp1381
g61
(dp1382
g81
g82
ssg70
g1376
sg63
(lp1383
S'web2py_path'
p1384
asbag56
(g77
g58
NtRp1385
(dp1386
g61
(dp1387
g88
g89
ssg70
g1376
sg63
(lp1388
S':'
asbag56
(g77
g58
NtRp1389
(dp1390
g61
(dp1391
sg70
g1376
sg63
(lp1392
g56
(g57
g58
NtRp1393
(dp1394
g61
(dp1395
g69
I4
ssg70
g1389
sg63
(lp1396
g717
asbasbasbag56
(g72
g58
NtRp1397
(dp1398
g61
(dp1399
sg70
g670
sg63
(lp1400
g56
(g77
g58
NtRp1401
(dp1402
g61
(dp1403
g81
g82
ssg70
g1397
sg63
(lp1404
S'web2py_version'
p1405
asbag56
(g77
g58
NtRp1406
(dp1407
g61
(dp1408
g88
g89
ssg70
g1397
sg63
(lp1409
S':'
asbag56
(g77
g58
NtRp1410
(dp1411
g61
(dp1412
sg70
g1397
sg63
(lp1413
g56
(g57
g58
NtRp1414
(dp1415
g61
(dp1416
g69
I4
ssg70
g1410
sg63
(lp1417
g56
(g65
g58
NtRp1418
(dp1419
g61
(dp1420
g69
I3
ssg70
Nsg63
(lp1421
g56
(g72
g58
NtRp1422
(dp1423
g61
(dp1424
sg70
g1418
sg63
(lp1425
g56
(g77
g58
NtRp1426
(dp1427
g61
(dp1428
sg70
g1422
sg63
(lp1429
g56
(g57
g58
NtRp1430
(dp1431
g61
(dp1432
g69
I3
ssg70
g1426
sg63
(lp1433
S'1'
asbasbasbag56
(g72
g58
NtRp1434
(dp1435
g61
(dp1436
sg70
g1418
sg63
(lp1437
g56
(g77
g58
NtRp1438
(dp1439
g61
(dp1440
sg70
g1434
sg63
(lp1441
g56
(g57
g58
NtRp1442
(dp1443
g61
(dp1444
g69
I3
ssg70
g1438
sg63
(lp1445
S'99'
p1446
asbasbasbag56
(g72
g58
NtRp1447
(dp1448
g61
(dp1449
sg70
g1418
sg63
(lp1450
g56
(g77
g58
NtRp1451
(dp1452
g61
(dp1453
sg70
g1447
sg63
(lp1454
g56
(g57
g58
NtRp1455
(dp1456
g61
(dp1457
g69
I3
ssg70
g1451
sg63
(lp1458
S'2'
asbasbasbag56
(g72
g58
NtRp1459
(dp1460
g61
(dp1461
sg70
g1418
sg63
(lp1462
g56
(g77
g58
NtRp1463
(dp1464
g61
(dp1465
sg70
g1459
sg63
(lp1466
g56
(g57
g58
NtRp1467
(dp1468
g61
(dp1469
g69
I3
ssg70
g1463
sg63
(lp1470
S'datetime.datetime(2011, 9, 26, 6, 55, 33)'
p1471
asbasbasbag56
(g72
g58
NtRp1472
(dp1473
g61
(dp1474
sg70
g1418
sg63
(lp1475
g56
(g77
g58
NtRp1476
(dp1477
g61
(dp1478
sg70
g1472
sg63
(lp1479
g56
(g57
g58
NtRp1480
(dp1481
g61
(dp1482
g69
I3
ssg70
g1476
sg63
(lp1483
S'stable'
p1484
asbasbasbasbasbasbasbag56
(g72
g58
NtRp1485
(dp1486
g61
(dp1487
sg70
g670
sg63
(lp1488
g56
(g77
g58
NtRp1489
(dp1490
g61
(dp1491
g81
g82
ssg70
g1485
sg63
(lp1492
S'wsgi_errors'
p1493
asbag56
(g77
g58
NtRp1494
(dp1495
g61
(dp1496
g88
g89
ssg70
g1485
sg63
(lp1497
S':'
asbag56
(g77
g58
NtRp1498
(dp1499
g61
(dp1500
sg70
g1485
sg63
(lp1501
g56
(g57
g58
NtRp1502
(dp1503
g61
(dp1504
g69
I4
ssg70
g1498
sg63
(lp1505
S"<open file '<stderr>', mode 'w' at 0x7f8b30c7d270>"
p1506
asbasbasbag56
(g72
g58
NtRp1507
(dp1508
g61
(dp1509
sg70
g670
sg63
(lp1510
g56
(g77
g58
NtRp1511
(dp1512
g61
(dp1513
g81
g82
ssg70
g1507
sg63
(lp1514
S'wsgi_file_wrapper'
p1515
asbag56
(g77
g58
NtRp1516
(dp1517
g61
(dp1518
g88
g89
ssg70
g1507
sg63
(lp1519
S':'
asbag56
(g77
g58
NtRp1520
(dp1521
g61
(dp1522
sg70
g1507
sg63
(lp1523
g56
(g57
g58
NtRp1524
(dp1525
g61
(dp1526
g69
I4
ssg70
g1520
sg63
(lp1527
S'<class wsgiref.util.FileWrapper at 0x2b1e870>'
p1528
asbasbasbag56
(g72
g58
NtRp1529
(dp1530
g61
(dp1531
sg70
g670
sg63
(lp1532
g56
(g77
g58
NtRp1533
(dp1534
g61
(dp1535
g81
g82
ssg70
g1529
sg63
(lp1536
S'wsgi_input'
p1537
asbag56
(g77
g58
NtRp1538
(dp1539
g61
(dp1540
g88
g89
ssg70
g1529
sg63
(lp1541
S':'
asbag56
(g77
g58
NtRp1542
(dp1543
g61
(dp1544
sg70
g1529
sg63
(lp1545
g56
(g57
g58
NtRp1546
(dp1547
g61
(dp1548
g69
I4
ssg70
g1542
sg63
(lp1549
S'<socket._fileobject object at 0x3af8cd0>'
p1550
asbasbasbag56
(g72
g58
NtRp1551
(dp1552
g61
(dp1553
sg70
g670
sg63
(lp1554
g56
(g77
g58
NtRp1555
(dp1556
g61
(dp1557
g81
g82
ssg70
g1551
sg63
(lp1558
S'wsgi_multiprocess'
p1559
asbag56
(g77
g58
NtRp1560
(dp1561
g61
(dp1562
g88
g89
ssg70
g1551
sg63
(lp1563
S':'
asbag56
(g77
g58
NtRp1564
(dp1565
g61
(dp1566
sg70
g1551
sg63
(lp1567
g56
(g57
g58
NtRp1568
(dp1569
g61
(dp1570
g69
I4
ssg70
g1564
sg63
(lp1571
g808
asbasbasbag56
(g72
g58
NtRp1572
(dp1573
g61
(dp1574
sg70
g670
sg63
(lp1575
g56
(g77
g58
NtRp1576
(dp1577
g61
(dp1578
g81
g82
ssg70
g1572
sg63
(lp1579
S'wsgi_multithread'
p1580
asbag56
(g77
g58
NtRp1581
(dp1582
g61
(dp1583
g88
g89
ssg70
g1572
sg63
(lp1584
S':'
asbag56
(g77
g58
NtRp1585
(dp1586
g61
(dp1587
sg70
g1572
sg63
(lp1588
g56
(g57
g58
NtRp1589
(dp1590
g61
(dp1591
g69
I4
ssg70
g1585
sg63
(lp1592
g99
asbasbasbag56
(g72
g58
NtRp1593
(dp1594
g61
(dp1595
sg70
g670
sg63
(lp1596
g56
(g77
g58
NtRp1597
(dp1598
g61
(dp1599
g81
g82
ssg70
g1593
sg63
(lp1600
S'wsgi_run_once'
p1601
asbag56
(g77
g58
NtRp1602
(dp1603
g61
(dp1604
g88
g89
ssg70
g1593
sg63
(lp1605
S':'
asbag56
(g77
g58
NtRp1606
(dp1607
g61
(dp1608
sg70
g1593
sg63
(lp1609
g56
(g57
g58
NtRp1610
(dp1611
g61
(dp1612
g69
I4
ssg70
g1606
sg63
(lp1613
g808
asbasbasbag56
(g72
g58
NtRp1614
(dp1615
g61
(dp1616
sg70
g670
sg63
(lp1617
g56
(g77
g58
NtRp1618
(dp1619
g61
(dp1620
g81
g82
ssg70
g1614
sg63
(lp1621
S'wsgi_url_scheme'
p1622
asbag56
(g77
g58
NtRp1623
(dp1624
g61
(dp1625
g88
g89
ssg70
g1614
sg63
(lp1626
S':'
asbag56
(g77
g58
NtRp1627
(dp1628
g61
(dp1629
sg70
g1614
sg63
(lp1630
g56
(g57
g58
NtRp1631
(dp1632
g61
(dp1633
g69
I4
ssg70
g1627
sg63
(lp1634
S'http'
p1635
asbasbasbag56
(g72
g58
NtRp1636
(dp1637
g61
(dp1638
sg70
g670
sg63
(lp1639
g56
(g77
g58
NtRp1640
(dp1641
g61
(dp1642
g81
g82
ssg70
g1636
sg63
(lp1643
S'wsgi_version'
p1644
asbag56
(g77
g58
NtRp1645
(dp1646
g61
(dp1647
g88
g89
ssg70
g1636
sg63
(lp1648
S':'
asbag56
(g77
g58
NtRp1649
(dp1650
g61
(dp1651
sg70
g1636
sg63
(lp1652
g56
(g57
g58
NtRp1653
(dp1654
g61
(dp1655
g69
I4
ssg70
g1649
sg63
(lp1656
g56
(g65
g58
NtRp1657
(dp1658
g61
(dp1659
g69
I3
ssg70
Nsg63
(lp1660
g56
(g72
g58
NtRp1661
(dp1662
g61
(dp1663
sg70
g1657
sg63
(lp1664
g56
(g77
g58
NtRp1665
(dp1666
g61
(dp1667
sg70
g1661
sg63
(lp1668
g56
(g57
g58
NtRp1669
(dp1670
g61
(dp1671
g69
I3
ssg70
g1665
sg63
(lp1672
S'1'
asbasbasbag56
(g72
g58
NtRp1673
(dp1674
g61
(dp1675
sg70
g1657
sg63
(lp1676
g56
(g77
g58
NtRp1677
(dp1678
g61
(dp1679
sg70
g1673
sg63
(lp1680
g56
(g57
g58
NtRp1681
(dp1682
g61
(dp1683
g69
I3
ssg70
g1677
sg63
(lp1684
S'0'
asbasbasbasbasbasbasbasbasbasbasbag56
(g72
g58
NtRp1685
(dp1686
g61
(dp1687
sg70
g66
sg63
(lp1688
g56
(g77
g58
NtRp1689
(dp1690
g61
(dp1691
g81
g82
ssg70
g1685
sg63
(lp1692
S'extension'
p1693
asbag56
(g77
g58
NtRp1694
(dp1695
g61
(dp1696
g88
g89
ssg70
g1685
sg63
(lp1697
S':'
asbag56
(g77
g58
NtRp1698
(dp1699
g61
(dp1700
sg70
g1685
sg63
(lp1701
g56
(g57
g58
NtRp1702
(dp1703
g61
(dp1704
g69
I5
ssg70
g1698
sg63
(lp1705
S'load'
p1706
asbasbasbag56
(g72
g58
NtRp1707
(dp1708
g61
(dp1709
sg70
g66
sg63
(lp1710
g56
(g77
g58
NtRp1711
(dp1712
g61
(dp1713
g81
g82
ssg70
g1707
sg63
(lp1714
S'folder'
p1715
asbag56
(g77
g58
NtRp1716
(dp1717
g61
(dp1718
g88
g89
ssg70
g1707
sg63
(lp1719
S':'
asbag56
(g77
g58
NtRp1720
(dp1721
g61
(dp1722
sg70
g1707
sg63
(lp1723
g56
(g57
g58
NtRp1724
(dp1725
g61
(dp1726
g69
I5
ssg70
g1720
sg63
(lp1727
S'/home/ian/web2py/applications/topoi/'
p1728
asbasbasbag56
(g72
g58
NtRp1729
(dp1730
g61
(dp1731
sg70
g66
sg63
(lp1732
g56
(g77
g58
NtRp1733
(dp1734
g61
(dp1735
g81
g82
ssg70
g1729
sg63
(lp1736
S'function'
p1737
asbag56
(g77
g58
NtRp1738
(dp1739
g61
(dp1740
g88
g89
ssg70
g1729
sg63
(lp1741
S':'
asbag56
(g77
g58
NtRp1742
(dp1743
g61
(dp1744
sg70
g1729
sg63
(lp1745
g56
(g57
g58
NtRp1746
(dp1747
g61
(dp1748
g69
I5
ssg70
g1742
sg63
(lp1749
S'edit'
p1750
asbasbasbag56
(g72
g58
NtRp1751
(dp1752
g61
(dp1753
sg70
g66
sg63
(lp1754
g56
(g77
g58
NtRp1755
(dp1756
g61
(dp1757
g81
g82
ssg70
g1751
sg63
(lp1758
S'get_vars'
p1759
asbag56
(g77
g58
NtRp1760
(dp1761
g61
(dp1762
g88
g89
ssg70
g1751
sg63
(lp1763
S':'
asbag56
(g77
g58
NtRp1764
(dp1765
g61
(dp1766
sg70
g1751
sg63
(lp1767
g56
(g57
g58
NtRp1768
(dp1769
g61
(dp1770
g69
I5
ssg70
g1764
sg63
(lp1771
g56
(g65
g58
NtRp1772
(dp1773
g61
(dp1774
g69
I4
ssg70
Nsg63
(lp1775
sbasbasbasbag56
(g72
g58
NtRp1776
(dp1777
g61
(dp1778
sg70
g66
sg63
(lp1779
g56
(g77
g58
NtRp1780
(dp1781
g61
(dp1782
g81
g82
ssg70
g1776
sg63
(lp1783
S'global_settings'
p1784
asbag56
(g77
g58
NtRp1785
(dp1786
g61
(dp1787
g88
g89
ssg70
g1776
sg63
(lp1788
S':'
asbag56
(g77
g58
NtRp1789
(dp1790
g61
(dp1791
sg70
g1776
sg63
(lp1792
g56
(g57
g58
NtRp1793
(dp1794
g61
(dp1795
g69
I5
ssg70
g1789
sg63
(lp1796
g56
(g65
g58
NtRp1797
(dp1798
g61
(dp1799
g69
I4
ssg70
Nsg63
(lp1800
g56
(g72
g58
NtRp1801
(dp1802
g61
(dp1803
sg70
g1797
sg63
(lp1804
g56
(g77
g58
NtRp1805
(dp1806
g61
(dp1807
g81
g82
ssg70
g1801
sg63
(lp1808
g682
asbag56
(g77
g58
NtRp1809
(dp1810
g61
(dp1811
g88
g89
ssg70
g1801
sg63
(lp1812
S':'
asbag56
(g77
g58
NtRp1813
(dp1814
g61
(dp1815
sg70
g1801
sg63
(lp1816
g56
(g57
g58
NtRp1817
(dp1818
g61
(dp1819
g69
I4
ssg70
g1813
sg63
(lp1820
S"set(['/home/ian/web2py/applications/topoi/', '/home/ian/web2py/applications/admin/'])"
p1821
asbasbasbag56
(g72
g58
NtRp1822
(dp1823
g61
(dp1824
sg70
g1797
sg63
(lp1825
g56
(g77
g58
NtRp1826
(dp1827
g61
(dp1828
g81
g82
ssg70
g1822
sg63
(lp1829
g704
asbag56
(g77
g58
NtRp1830
(dp1831
g61
(dp1832
g88
g89
ssg70
g1822
sg63
(lp1833
S':'
asbag56
(g77
g58
NtRp1834
(dp1835
g61
(dp1836
sg70
g1822
sg63
(lp1837
g56
(g57
g58
NtRp1838
(dp1839
g61
(dp1840
g69
I4
ssg70
g1834
sg63
(lp1841
g717
asbasbasbag56
(g72
g58
NtRp1842
(dp1843
g61
(dp1844
sg70
g1797
sg63
(lp1845
g56
(g77
g58
NtRp1846
(dp1847
g61
(dp1848
g81
g82
ssg70
g1842
sg63
(lp1849
g726
asbag56
(g77
g58
NtRp1850
(dp1851
g61
(dp1852
g88
g89
ssg70
g1842
sg63
(lp1853
S':'
asbag56
(g77
g58
NtRp1854
(dp1855
g61
(dp1856
sg70
g1842
sg63
(lp1857
g56
(g57
g58
NtRp1858
(dp1859
g61
(dp1860
g69
I4
ssg70
g1854
sg63
(lp1861
g56
(g65
g58
NtRp1862
(dp1863
g61
(dp1864
g69
I3
ssg70
Nsg63
(lp1865
sbasbasbasbag56
(g72
g58
NtRp1866
(dp1867
g61
(dp1868
sg70
g1797
sg63
(lp1869
g56
(g77
g58
NtRp1870
(dp1871
g61
(dp1872
g81
g82
ssg70
g1866
sg63
(lp1873
g751
asbag56
(g77
g58
NtRp1874
(dp1875
g61
(dp1876
g88
g89
ssg70
g1866
sg63
(lp1877
S':'
asbag56
(g77
g58
NtRp1878
(dp1879
g61
(dp1880
sg70
g1866
sg63
(lp1881
g56
(g57
g58
NtRp1882
(dp1883
g61
(dp1884
g69
I4
ssg70
g1878
sg63
(lp1885
S"<Values at 0x2c53758: {'verbose': False, 'ip': '127.0.0.1', 'shutdown_timeout': 5, 'taskbar': False, 'nocron': False, 'pid_filename': 'httpserver.pid', 'maxthreads': None, 'softcron': False, 'server_name': 'uriel', 'bpython': False, 'nogui': False, 'port': 8000, 'extcron': False, 'debuglevel': 30, 'test': None, 'folder': '/home/ian/web2py', 'config': '', 'import_models': False, 'winservice': '', 'shell': None, 'run': '', 'log_filename': 'httpserver.log', 'args': [''], 'ssl_ca_certificate': None, 'scheduler': None, 'profiler_filename': None, 'ssl_private_key': '', 'password': '<ask>', 'request_queue_size': 5, 'ssl_certificate': '', 'cronjob': False, 'plain': False, 'quiet': False, 'interfaces': None, 'minthreads': None, 'timeout': 10, 'numthreads': None, 'nobanner': False}>"
p1886
asbasbasbag56
(g72
g58
NtRp1887
(dp1888
g61
(dp1889
sg70
g1797
sg63
(lp1890
g56
(g77
g58
NtRp1891
(dp1892
g61
(dp1893
g81
g82
ssg70
g1887
sg63
(lp1894
g773
asbag56
(g77
g58
NtRp1895
(dp1896
g61
(dp1897
g88
g89
ssg70
g1887
sg63
(lp1898
S':'
asbag56
(g77
g58
NtRp1899
(dp1900
g61
(dp1901
sg70
g1887
sg63
(lp1902
g56
(g57
g58
NtRp1903
(dp1904
g61
(dp1905
g69
I4
ssg70
g1899
sg63
(lp1906
S'set([])'
p1907
asbasbasbag56
(g72
g58
NtRp1908
(dp1909
g61
(dp1910
sg70
g1797
sg63
(lp1911
g56
(g77
g58
NtRp1912
(dp1913
g61
(dp1914
g81
g82
ssg70
g1908
sg63
(lp1915
g795
asbag56
(g77
g58
NtRp1916
(dp1917
g61
(dp1918
g88
g89
ssg70
g1908
sg63
(lp1919
S':'
asbag56
(g77
g58
NtRp1920
(dp1921
g61
(dp1922
sg70
g1908
sg63
(lp1923
g56
(g57
g58
NtRp1924
(dp1925
g61
(dp1926
g69
I4
ssg70
g1920
sg63
(lp1927
g808
asbasbasbag56
(g72
g58
NtRp1928
(dp1929
g61
(dp1930
sg70
g1797
sg63
(lp1931
g56
(g77
g58
NtRp1932
(dp1933
g61
(dp1934
g81
g82
ssg70
g1928
sg63
(lp1935
g817
asbag56
(g77
g58
NtRp1936
(dp1937
g61
(dp1938
g88
g89
ssg70
g1928
sg63
(lp1939
S':'
asbag56
(g77
g58
NtRp1940
(dp1941
g61
(dp1942
sg70
g1928
sg63
(lp1943
g56
(g57
g58
NtRp1944
(dp1945
g61
(dp1946
g69
I4
ssg70
g1940
sg63
(lp1947
g830
asbasbasbag56
(g72
g58
NtRp1948
(dp1949
g61
(dp1950
sg70
g1797
sg63
(lp1951
g56
(g77
g58
NtRp1952
(dp1953
g61
(dp1954
g81
g82
ssg70
g1948
sg63
(lp1955
g1124
asbag56
(g77
g58
NtRp1956
(dp1957
g61
(dp1958
g88
g89
ssg70
g1948
sg63
(lp1959
S':'
asbag56
(g77
g58
NtRp1960
(dp1961
g61
(dp1962
sg70
g1948
sg63
(lp1963
g56
(g57
g58
NtRp1964
(dp1965
g61
(dp1966
g69
I4
ssg70
g1960
sg63
(lp1967
g808
asbasbasbag56
(g72
g58
NtRp1968
(dp1969
g61
(dp1970
sg70
g1797
sg63
(lp1971
g56
(g77
g58
NtRp1972
(dp1973
g61
(dp1974
g81
g82
ssg70
g1968
sg63
(lp1975
g1362
asbag56
(g77
g58
NtRp1976
(dp1977
g61
(dp1978
g88
g89
ssg70
g1968
sg63
(lp1979
S':'
asbag56
(g77
g58
NtRp1980
(dp1981
g61
(dp1982
sg70
g1968
sg63
(lp1983
g56
(g57
g58
NtRp1984
(dp1985
g61
(dp1986
g69
I4
ssg70
g1980
sg63
(lp1987
g1375
asbasbasbag56
(g72
g58
NtRp1988
(dp1989
g61
(dp1990
sg70
g1797
sg63
(lp1991
g56
(g77
g58
NtRp1992
(dp1993
g61
(dp1994
g81
g82
ssg70
g1988
sg63
(lp1995
g1405
asbag56
(g77
g58
NtRp1996
(dp1997
g61
(dp1998
g88
g89
ssg70
g1988
sg63
(lp1999
S':'
asbag56
(g77
g58
NtRp2000
(dp2001
g61
(dp2002
sg70
g1988
sg63
(lp2003
g56
(g57
g58
NtRp2004
(dp2005
g61
(dp2006
g69
I4
ssg70
g2000
sg63
(lp2007
g56
(g65
g58
NtRp2008
(dp2009
g61
(dp2010
g69
I3
ssg70
Nsg63
(lp2011
g56
(g72
g58
NtRp2012
(dp2013
g61
(dp2014
sg70
g2008
sg63
(lp2015
g56
(g77
g58
NtRp2016
(dp2017
g61
(dp2018
sg70
g2012
sg63
(lp2019
g56
(g57
g58
NtRp2020
(dp2021
g61
(dp2022
g69
I3
ssg70
g2016
sg63
(lp2023
S'1'
asbasbasbag56
(g72
g58
NtRp2024
(dp2025
g61
(dp2026
sg70
g2008
sg63
(lp2027
g56
(g77
g58
NtRp2028
(dp2029
g61
(dp2030
sg70
g2024
sg63
(lp2031
g56
(g57
g58
NtRp2032
(dp2033
g61
(dp2034
g69
I3
ssg70
g2028
sg63
(lp2035
S'99'
p2036
asbasbasbag56
(g72
g58
NtRp2037
(dp2038
g61
(dp2039
sg70
g2008
sg63
(lp2040
g56
(g77
g58
NtRp2041
(dp2042
g61
(dp2043
sg70
g2037
sg63
(lp2044
g56
(g57
g58
NtRp2045
(dp2046
g61
(dp2047
g69
I3
ssg70
g2041
sg63
(lp2048
S'2'
asbasbasbag56
(g72
g58
NtRp2049
(dp2050
g61
(dp2051
sg70
g2008
sg63
(lp2052
g56
(g77
g58
NtRp2053
(dp2054
g61
(dp2055
sg70
g2049
sg63
(lp2056
g56
(g57
g58
NtRp2057
(dp2058
g61
(dp2059
g69
I3
ssg70
g2053
sg63
(lp2060
S'datetime.datetime(2011, 9, 26, 6, 55, 33)'
p2061
asbasbasbag56
(g72
g58
NtRp2062
(dp2063
g61
(dp2064
sg70
g2008
sg63
(lp2065
g56
(g77
g58
NtRp2066
(dp2067
g61
(dp2068
sg70
g2062
sg63
(lp2069
g56
(g57
g58
NtRp2070
(dp2071
g61
(dp2072
g69
I3
ssg70
g2066
sg63
(lp2073
g1484
asbasbasbasbasbasbasbasbasbasbasbag56
(g72
g58
NtRp2074
(dp2075
g61
(dp2076
sg70
g66
sg63
(lp2077
g56
(g77
g58
NtRp2078
(dp2079
g61
(dp2080
g81
g82
ssg70
g2074
sg63
(lp2081
S'is_https'
p2082
asbag56
(g77
g58
NtRp2083
(dp2084
g61
(dp2085
g88
g89
ssg70
g2074
sg63
(lp2086
S':'
asbag56
(g77
g58
NtRp2087
(dp2088
g61
(dp2089
sg70
g2074
sg63
(lp2090
g56
(g57
g58
NtRp2091
(dp2092
g61
(dp2093
g69
I5
ssg70
g2087
sg63
(lp2094
g808
asbasbasbag56
(g72
g58
NtRp2095
(dp2096
g61
(dp2097
sg70
g66
sg63
(lp2098
g56
(g77
g58
NtRp2099
(dp2100
g61
(dp2101
g81
g82
ssg70
g2095
sg63
(lp2102
S'is_local'
p2103
asbag56
(g77
g58
NtRp2104
(dp2105
g61
(dp2106
g88
g89
ssg70
g2095
sg63
(lp2107
S':'
asbag56
(g77
g58
NtRp2108
(dp2109
g61
(dp2110
sg70
g2095
sg63
(lp2111
g56
(g57
g58
NtRp2112
(dp2113
g61
(dp2114
g69
I5
ssg70
g2108
sg63
(lp2115
g99
asbasbasbag56
(g72
g58
NtRp2116
(dp2117
g61
(dp2118
sg70
g66
sg63
(lp2119
g56
(g77
g58
NtRp2120
(dp2121
g61
(dp2122
g81
g82
ssg70
g2116
sg63
(lp2123
S'is_restful'
p2124
asbag56
(g77
g58
NtRp2125
(dp2126
g61
(dp2127
g88
g89
ssg70
g2116
sg63
(lp2128
S':'
asbag56
(g77
g58
NtRp2129
(dp2130
g61
(dp2131
sg70
g2116
sg63
(lp2132
g56
(g57
g58
NtRp2133
(dp2134
g61
(dp2135
g69
I5
ssg70
g2129
sg63
(lp2136
g808
asbasbasbag56
(g72
g58
NtRp2137
(dp2138
g61
(dp2139
sg70
g66
sg63
(lp2140
g56
(g77
g58
NtRp2141
(dp2142
g61
(dp2143
g81
g82
ssg70
g2137
sg63
(lp2144
S'now'
p2145
asbag56
(g77
g58
NtRp2146
(dp2147
g61
(dp2148
g88
g89
ssg70
g2137
sg63
(lp2149
S':'
asbag56
(g77
g58
NtRp2150
(dp2151
g61
(dp2152
sg70
g2137
sg63
(lp2153
g56
(g57
g58
NtRp2154
(dp2155
g61
(dp2156
g69
I5
ssg70
g2150
sg63
(lp2157
S'datetime.datetime(2011, 12, 17, 22, 41, 11, 643309)'
p2158
asbasbasbag56
(g72
g58
NtRp2159
(dp2160
g61
(dp2161
sg70
g66
sg63
(lp2162
g56
(g77
g58
NtRp2163
(dp2164
g61
(dp2165
g81
g82
ssg70
g2159
sg63
(lp2166
S'post_vars'
p2167
asbag56
(g77
g58
NtRp2168
(dp2169
g61
(dp2170
g88
g89
ssg70
g2159
sg63
(lp2171
S':'
asbag56
(g77
g58
NtRp2172
(dp2173
g61
(dp2174
sg70
g2159
sg63
(lp2175
g56
(g57
g58
NtRp2176
(dp2177
g61
(dp2178
g69
I5
ssg70
g2172
sg63
(lp2179
g56
(g65
g58
NtRp2180
(dp2181
g61
(dp2182
g69
I4
ssg70
Nsg63
(lp2183
sbasbasbasbag56
(g72
g58
NtRp2184
(dp2185
g61
(dp2186
sg70
g66
sg63
(lp2187
g56
(g77
g58
NtRp2188
(dp2189
g61
(dp2190
g81
g82
ssg70
g2184
sg63
(lp2191
S'raw_args'
p2192
asbag56
(g77
g58
NtRp2193
(dp2194
g61
(dp2195
g88
g89
ssg70
g2184
sg63
(lp2196
S':'
asbag56
(g77
g58
NtRp2197
(dp2198
g61
(dp2199
sg70
g2184
sg63
(lp2200
g56
(g57
g58
NtRp2201
(dp2202
g61
(dp2203
g69
I5
ssg70
g2197
sg63
(lp2204
S'1'
asbasbasbag56
(g72
g58
NtRp2205
(dp2206
g61
(dp2207
sg70
g66
sg63
(lp2208
g56
(g77
g58
NtRp2209
(dp2210
g61
(dp2211
g81
g82
ssg70
g2205
sg63
(lp2212
S'raw_extension'
p2213
asbag56
(g77
g58
NtRp2214
(dp2215
g61
(dp2216
g88
g89
ssg70
g2205
sg63
(lp2217
S':'
asbag56
(g77
g58
NtRp2218
(dp2219
g61
(dp2220
sg70
g2205
sg63
(lp2221
g56
(g57
g58
NtRp2222
(dp2223
g61
(dp2224
g69
I5
ssg70
g2218
sg63
(lp2225
g1706
asbasbasbag56
(g72
g58
NtRp2226
(dp2227
g61
(dp2228
sg70
g66
sg63
(lp2229
g56
(g77
g58
NtRp2230
(dp2231
g61
(dp2232
g81
g82
ssg70
g2226
sg63
(lp2233
S'url'
p2234
asbag56
(g77
g58
NtRp2235
(dp2236
g61
(dp2237
g88
g89
ssg70
g2226
sg63
(lp2238
S':'
asbag56
(g77
g58
NtRp2239
(dp2240
g61
(dp2241
sg70
g2226
sg63
(lp2242
g56
(g57
g58
NtRp2243
(dp2244
g61
(dp2245
g69
I5
ssg70
g2239
sg63
(lp2246
S'/topoi/plugin_listandedit/edit.load/1'
p2247
asbasbasbag56
(g72
g58
NtRp2248
(dp2249
g61
(dp2250
sg70
g66
sg63
(lp2251
g56
(g77
g58
NtRp2252
(dp2253
g61
(dp2254
g81
g82
ssg70
g2248
sg63
(lp2255
S'utcnow'
p2256
asbag56
(g77
g58
NtRp2257
(dp2258
g61
(dp2259
g88
g89
ssg70
g2248
sg63
(lp2260
S':'
asbag56
(g77
g58
NtRp2261
(dp2262
g61
(dp2263
sg70
g2248
sg63
(lp2264
g56
(g57
g58
NtRp2265
(dp2266
g61
(dp2267
g69
I5
ssg70
g2261
sg63
(lp2268
S'datetime.datetime(2011, 12, 18, 3, 41, 11, 643347)'
p2269
asbasbasbag56
(g72
g58
NtRp2270
(dp2271
g61
(dp2272
sg70
g66
sg63
(lp2273
g56
(g77
g58
NtRp2274
(dp2275
g61
(dp2276
g81
g82
ssg70
g2270
sg63
(lp2277
S'uuid'
p2278
asbag56
(g77
g58
NtRp2279
(dp2280
g61
(dp2281
g88
g89
ssg70
g2270
sg63
(lp2282
S':'
asbag56
(g77
g58
NtRp2283
(dp2284
g61
(dp2285
sg70
g2270
sg63
(lp2286
g56
(g57
g58
NtRp2287
(dp2288
g61
(dp2289
g69
I5
ssg70
g2283
sg63
(lp2290
S'topoi/127.0.0.1.2011-12-17.22-41-11.4457fdea-2747-494b-a8e6-fe1e628dc06b'
p2291
asbasbasbag56
(g72
g58
NtRp2292
(dp2293
g61
(dp2294
sg70
g66
sg63
(lp2295
g56
(g77
g58
NtRp2296
(dp2297
g61
(dp2298
g81
g82
ssg70
g2292
sg63
(lp2299
S'vars'
p2300
asbag56
(g77
g58
NtRp2301
(dp2302
g61
(dp2303
g88
g89
ssg70
g2292
sg63
(lp2304
S':'
asbag56
(g77
g58
NtRp2305
(dp2306
g61
(dp2307
sg70
g2292
sg63
(lp2308
g56
(g57
g58
NtRp2309
(dp2310
g61
(dp2311
g69
I5
ssg70
g2305
sg63
(lp2312
g56
(g65
g58
NtRp2313
(dp2314
g61
(dp2315
g69
I4
ssg70
Nsg63
(lp2316
sbasbasbasbag56
(g72
g58
NtRp2317
(dp2318
g61
(dp2319
sg70
g66
sg63
(lp2320
g56
(g77
g58
NtRp2321
(dp2322
g61
(dp2323
g81
g82
ssg70
g2317
sg63
(lp2324
S'wsgi'
p2325
asbag56
(g77
g58
NtRp2326
(dp2327
g61
(dp2328
g88
g89
ssg70
g2317
sg63
(lp2329
S':'
asbag56
(g77
g58
NtRp2330
(dp2331
g61
(dp2332
sg70
g2317
sg63
(lp2333
g56
(g57
g58
NtRp2334
(dp2335
g61
(dp2336
g69
I5
ssg70
g2330
sg63
(lp2337
g56
(g65
g58
NtRp2338
(dp2339
g61
(dp2340
g69
I4
ssg70
Nsg63
(lp2341
g56
(g72
g58
NtRp2342
(dp2343
g61
(dp2344
sg70
g2338
sg63
(lp2345
g56
(g77
g58
NtRp2346
(dp2347
g61
(dp2348
g81
g82
ssg70
g2342
sg63
(lp2349
S'environ'
p2350
asbag56
(g77
g58
NtRp2351
(dp2352
g61
(dp2353
g88
g89
ssg70
g2342
sg63
(lp2354
S':'
asbag56
(g77
g58
NtRp2355
(dp2356
g61
(dp2357
sg70
g2342
sg63
(lp2358
g56
(g57
g58
NtRp2359
(dp2360
g61
(dp2361
g69
I4
ssg70
g2355
sg63
(lp2362
g56
(g65
g58
NtRp2363
(dp2364
g61
(dp2365
g69
I3
ssg70
Nsg63
(lp2366
g56
(g72
g58
NtRp2367
(dp2368
g61
(dp2369
sg70
g2363
sg63
(lp2370
g56
(g77
g58
NtRp2371
(dp2372
g61
(dp2373
g81
g82
ssg70
g2367
sg63
(lp2374
S'HTTP_ACCEPT'
p2375
asbag56
(g77
g58
NtRp2376
(dp2377
g61
(dp2378
g88
g89
ssg70
g2367
sg63
(lp2379
S':'
asbag56
(g77
g58
NtRp2380
(dp2381
g61
(dp2382
sg70
g2367
sg63
(lp2383
g56
(g57
g58
NtRp2384
(dp2385
g61
(dp2386
g69
I3
ssg70
g2380
sg63
(lp2387
g852
asbasbasbag56
(g72
g58
NtRp2388
(dp2389
g61
(dp2390
sg70
g2363
sg63
(lp2391
g56
(g77
g58
NtRp2392
(dp2393
g61
(dp2394
g81
g82
ssg70
g2388
sg63
(lp2395
S'HTTP_ACCEPT_CHARSET'
p2396
asbag56
(g77
g58
NtRp2397
(dp2398
g61
(dp2399
g88
g89
ssg70
g2388
sg63
(lp2400
S':'
asbag56
(g77
g58
NtRp2401
(dp2402
g61
(dp2403
sg70
g2388
sg63
(lp2404
g56
(g57
g58
NtRp2405
(dp2406
g61
(dp2407
g69
I3
ssg70
g2401
sg63
(lp2408
g874
asbasbasbag56
(g72
g58
NtRp2409
(dp2410
g61
(dp2411
sg70
g2363
sg63
(lp2412
g56
(g77
g58
NtRp2413
(dp2414
g61
(dp2415
g81
g82
ssg70
g2409
sg63
(lp2416
S'HTTP_ACCEPT_ENCODING'
p2417
asbag56
(g77
g58
NtRp2418
(dp2419
g61
(dp2420
g88
g89
ssg70
g2409
sg63
(lp2421
S':'
asbag56
(g77
g58
NtRp2422
(dp2423
g61
(dp2424
sg70
g2409
sg63
(lp2425
g56
(g57
g58
NtRp2426
(dp2427
g61
(dp2428
g69
I3
ssg70
g2422
sg63
(lp2429
g896
asbasbasbag56
(g72
g58
NtRp2430
(dp2431
g61
(dp2432
sg70
g2363
sg63
(lp2433
g56
(g77
g58
NtRp2434
(dp2435
g61
(dp2436
g81
g82
ssg70
g2430
sg63
(lp2437
S'HTTP_ACCEPT_LANGUAGE'
p2438
asbag56
(g77
g58
NtRp2439
(dp2440
g61
(dp2441
g88
g89
ssg70
g2430
sg63
(lp2442
S':'
asbag56
(g77
g58
NtRp2443
(dp2444
g61
(dp2445
sg70
g2430
sg63
(lp2446
g56
(g57
g58
NtRp2447
(dp2448
g61
(dp2449
g69
I3
ssg70
g2443
sg63
(lp2450
g918
asbasbasbag56
(g72
g58
NtRp2451
(dp2452
g61
(dp2453
sg70
g2363
sg63
(lp2454
g56
(g77
g58
NtRp2455
(dp2456
g61
(dp2457
g81
g82
ssg70
g2451
sg63
(lp2458
S'HTTP_CACHE_CONTROL'
p2459
asbag56
(g77
g58
NtRp2460
(dp2461
g61
(dp2462
g88
g89
ssg70
g2451
sg63
(lp2463
S':'
asbag56
(g77
g58
NtRp2464
(dp2465
g61
(dp2466
sg70
g2451
sg63
(lp2467
g56
(g57
g58
NtRp2468
(dp2469
g61
(dp2470
g69
I3
ssg70
g2464
sg63
(lp2471
g940
asbasbasbag56
(g72
g58
NtRp2472
(dp2473
g61
(dp2474
sg70
g2363
sg63
(lp2475
g56
(g77
g58
NtRp2476
(dp2477
g61
(dp2478
g81
g82
ssg70
g2472
sg63
(lp2479
S'HTTP_CONNECTION'
p2480
asbag56
(g77
g58
NtRp2481
(dp2482
g61
(dp2483
g88
g89
ssg70
g2472
sg63
(lp2484
S':'
asbag56
(g77
g58
NtRp2485
(dp2486
g61
(dp2487
sg70
g2472
sg63
(lp2488
g56
(g57
g58
NtRp2489
(dp2490
g61
(dp2491
g69
I3
ssg70
g2485
sg63
(lp2492
g962
asbasbasbag56
(g72
g58
NtRp2493
(dp2494
g61
(dp2495
sg70
g2363
sg63
(lp2496
g56
(g77
g58
NtRp2497
(dp2498
g61
(dp2499
g81
g82
ssg70
g2493
sg63
(lp2500
S'HTTP_COOKIE'
p2501
asbag56
(g77
g58
NtRp2502
(dp2503
g61
(dp2504
g88
g89
ssg70
g2493
sg63
(lp2505
S':'
asbag56
(g77
g58
NtRp2506
(dp2507
g61
(dp2508
sg70
g2493
sg63
(lp2509
g56
(g57
g58
NtRp2510
(dp2511
g61
(dp2512
g69
I3
ssg70
g2506
sg63
(lp2513
g984
asbasbasbag56
(g72
g58
NtRp2514
(dp2515
g61
(dp2516
sg70
g2363
sg63
(lp2517
g56
(g77
g58
NtRp2518
(dp2519
g61
(dp2520
g81
g82
ssg70
g2514
sg63
(lp2521
S'HTTP_HOST'
p2522
asbag56
(g77
g58
NtRp2523
(dp2524
g61
(dp2525
g88
g89
ssg70
g2514
sg63
(lp2526
S':'
asbag56
(g77
g58
NtRp2527
(dp2528
g61
(dp2529
sg70
g2514
sg63
(lp2530
g56
(g57
g58
NtRp2531
(dp2532
g61
(dp2533
g69
I3
ssg70
g2527
sg63
(lp2534
g1006
asbasbasbag56
(g72
g58
NtRp2535
(dp2536
g61
(dp2537
sg70
g2363
sg63
(lp2538
g56
(g77
g58
NtRp2539
(dp2540
g61
(dp2541
g81
g82
ssg70
g2535
sg63
(lp2542
S'HTTP_REFERER'
p2543
asbag56
(g77
g58
NtRp2544
(dp2545
g61
(dp2546
g88
g89
ssg70
g2535
sg63
(lp2547
S':'
asbag56
(g77
g58
NtRp2548
(dp2549
g61
(dp2550
sg70
g2535
sg63
(lp2551
g56
(g57
g58
NtRp2552
(dp2553
g61
(dp2554
g69
I3
ssg70
g2548
sg63
(lp2555
g1028
asbasbasbag56
(g72
g58
NtRp2556
(dp2557
g61
(dp2558
sg70
g2363
sg63
(lp2559
g56
(g77
g58
NtRp2560
(dp2561
g61
(dp2562
g81
g82
ssg70
g2556
sg63
(lp2563
S'HTTP_USER_AGENT'
p2564
asbag56
(g77
g58
NtRp2565
(dp2566
g61
(dp2567
g88
g89
ssg70
g2556
sg63
(lp2568
S':'
asbag56
(g77
g58
NtRp2569
(dp2570
g61
(dp2571
sg70
g2556
sg63
(lp2572
g56
(g57
g58
NtRp2573
(dp2574
g61
(dp2575
g69
I3
ssg70
g2569
sg63
(lp2576
g1050
asbasbasbag56
(g72
g58
NtRp2577
(dp2578
g61
(dp2579
sg70
g2363
sg63
(lp2580
g56
(g77
g58
NtRp2581
(dp2582
g61
(dp2583
g81
g82
ssg70
g2577
sg63
(lp2584
S'HTTP_WEB2PY_COMPONENT_ELEMENT'
p2585
asbag56
(g77
g58
NtRp2586
(dp2587
g61
(dp2588
g88
g89
ssg70
g2577
sg63
(lp2589
S':'
asbag56
(g77
g58
NtRp2590
(dp2591
g61
(dp2592
sg70
g2577
sg63
(lp2593
g56
(g57
g58
NtRp2594
(dp2595
g61
(dp2596
g69
I3
ssg70
g2590
sg63
(lp2597
g201
asbasbasbag56
(g72
g58
NtRp2598
(dp2599
g61
(dp2600
sg70
g2363
sg63
(lp2601
g56
(g77
g58
NtRp2602
(dp2603
g61
(dp2604
g81
g82
ssg70
g2598
sg63
(lp2605
S'HTTP_WEB2PY_COMPONENT_LOCATION'
p2606
asbag56
(g77
g58
NtRp2607
(dp2608
g61
(dp2609
g88
g89
ssg70
g2598
sg63
(lp2610
S':'
asbag56
(g77
g58
NtRp2611
(dp2612
g61
(dp2613
sg70
g2598
sg63
(lp2614
g56
(g57
g58
NtRp2615
(dp2616
g61
(dp2617
g69
I3
ssg70
g2611
sg63
(lp2618
g1093
asbasbasbag56
(g72
g58
NtRp2619
(dp2620
g61
(dp2621
sg70
g2363
sg63
(lp2622
g56
(g77
g58
NtRp2623
(dp2624
g61
(dp2625
g81
g82
ssg70
g2619
sg63
(lp2626
S'HTTP_X_REQUESTED_WITH'
p2627
asbag56
(g77
g58
NtRp2628
(dp2629
g61
(dp2630
g88
g89
ssg70
g2619
sg63
(lp2631
S':'
asbag56
(g77
g58
NtRp2632
(dp2633
g61
(dp2634
sg70
g2619
sg63
(lp2635
g56
(g57
g58
NtRp2636
(dp2637
g61
(dp2638
g69
I3
ssg70
g2632
sg63
(lp2639
g1115
asbasbasbag56
(g72
g58
NtRp2640
(dp2641
g61
(dp2642
sg70
g2363
sg63
(lp2643
g56
(g77
g58
NtRp2644
(dp2645
g61
(dp2646
g81
g82
ssg70
g2640
sg63
(lp2647
S'PATH_INFO'
p2648
asbag56
(g77
g58
NtRp2649
(dp2650
g61
(dp2651
g88
g89
ssg70
g2640
sg63
(lp2652
S':'
asbag56
(g77
g58
NtRp2653
(dp2654
g61
(dp2655
sg70
g2640
sg63
(lp2656
g56
(g57
g58
NtRp2657
(dp2658
g61
(dp2659
g69
I3
ssg70
g2653
sg63
(lp2660
g1158
asbasbasbag56
(g72
g58
NtRp2661
(dp2662
g61
(dp2663
sg70
g2363
sg63
(lp2664
g56
(g77
g58
NtRp2665
(dp2666
g61
(dp2667
g81
g82
ssg70
g2661
sg63
(lp2668
S'QUERY_STRING'
p2669
asbag56
(g77
g58
NtRp2670
(dp2671
g61
(dp2672
g88
g89
ssg70
g2661
sg63
(lp2673
S':'
asbag56
(g77
g58
NtRp2674
(dp2675
g61
(dp2676
sg70
g2661
sg63
(lp2677
g56
(g57
g58
NtRp2678
(dp2679
g61
(dp2680
g69
I3
ssg70
g2674
sg63
(lp2681
S''
asbasbasbag56
(g72
g58
NtRp2682
(dp2683
g61
(dp2684
sg70
g2363
sg63
(lp2685
g56
(g77
g58
NtRp2686
(dp2687
g61
(dp2688
g81
g82
ssg70
g2682
sg63
(lp2689
S'REMOTE_ADDR'
p2690
asbag56
(g77
g58
NtRp2691
(dp2692
g61
(dp2693
g88
g89
ssg70
g2682
sg63
(lp2694
S':'
asbag56
(g77
g58
NtRp2695
(dp2696
g61
(dp2697
sg70
g2682
sg63
(lp2698
g56
(g57
g58
NtRp2699
(dp2700
g61
(dp2701
g69
I3
ssg70
g2695
sg63
(lp2702
g223
asbasbasbag56
(g72
g58
NtRp2703
(dp2704
g61
(dp2705
sg70
g2363
sg63
(lp2706
g56
(g77
g58
NtRp2707
(dp2708
g61
(dp2709
g81
g82
ssg70
g2703
sg63
(lp2710
S'REMOTE_PORT'
p2711
asbag56
(g77
g58
NtRp2712
(dp2713
g61
(dp2714
g88
g89
ssg70
g2703
sg63
(lp2715
S':'
asbag56
(g77
g58
NtRp2716
(dp2717
g61
(dp2718
sg70
g2703
sg63
(lp2719
g56
(g57
g58
NtRp2720
(dp2721
g61
(dp2722
g69
I3
ssg70
g2716
sg63
(lp2723
g1222
asbasbasbag56
(g72
g58
NtRp2724
(dp2725
g61
(dp2726
sg70
g2363
sg63
(lp2727
g56
(g77
g58
NtRp2728
(dp2729
g61
(dp2730
g81
g82
ssg70
g2724
sg63
(lp2731
S'REQUEST_METHOD'
p2732
asbag56
(g77
g58
NtRp2733
(dp2734
g61
(dp2735
g88
g89
ssg70
g2724
sg63
(lp2736
S':'
asbag56
(g77
g58
NtRp2737
(dp2738
g61
(dp2739
sg70
g2724
sg63
(lp2740
g56
(g57
g58
NtRp2741
(dp2742
g61
(dp2743
g69
I3
ssg70
g2737
sg63
(lp2744
g1244
asbasbasbag56
(g72
g58
NtRp2745
(dp2746
g61
(dp2747
sg70
g2363
sg63
(lp2748
g56
(g77
g58
NtRp2749
(dp2750
g61
(dp2751
g81
g82
ssg70
g2745
sg63
(lp2752
S'SCRIPT_NAME'
p2753
asbag56
(g77
g58
NtRp2754
(dp2755
g61
(dp2756
g88
g89
ssg70
g2745
sg63
(lp2757
S':'
asbag56
(g77
g58
NtRp2758
(dp2759
g61
(dp2760
sg70
g2745
sg63
(lp2761
g56
(g57
g58
NtRp2762
(dp2763
g61
(dp2764
g69
I3
ssg70
g2758
sg63
(lp2765
S''
asbasbasbag56
(g72
g58
NtRp2766
(dp2767
g61
(dp2768
sg70
g2363
sg63
(lp2769
g56
(g77
g58
NtRp2770
(dp2771
g61
(dp2772
g81
g82
ssg70
g2766
sg63
(lp2773
S'SERVER_NAME'
p2774
asbag56
(g77
g58
NtRp2775
(dp2776
g61
(dp2777
g88
g89
ssg70
g2766
sg63
(lp2778
S':'
asbag56
(g77
g58
NtRp2779
(dp2780
g61
(dp2781
sg70
g2766
sg63
(lp2782
g56
(g57
g58
NtRp2783
(dp2784
g61
(dp2785
g69
I3
ssg70
g2779
sg63
(lp2786
g1287
asbasbasbag56
(g72
g58
NtRp2787
(dp2788
g61
(dp2789
sg70
g2363
sg63
(lp2790
g56
(g77
g58
NtRp2791
(dp2792
g61
(dp2793
g81
g82
ssg70
g2787
sg63
(lp2794
S'SERVER_PORT'
p2795
asbag56
(g77
g58
NtRp2796
(dp2797
g61
(dp2798
g88
g89
ssg70
g2787
sg63
(lp2799
S':'
asbag56
(g77
g58
NtRp2800
(dp2801
g61
(dp2802
sg70
g2787
sg63
(lp2803
g56
(g57
g58
NtRp2804
(dp2805
g61
(dp2806
g69
I3
ssg70
g2800
sg63
(lp2807
g1309
asbasbasbag56
(g72
g58
NtRp2808
(dp2809
g61
(dp2810
sg70
g2363
sg63
(lp2811
g56
(g77
g58
NtRp2812
(dp2813
g61
(dp2814
g81
g82
ssg70
g2808
sg63
(lp2815
S'SERVER_PROTOCOL'
p2816
asbag56
(g77
g58
NtRp2817
(dp2818
g61
(dp2819
g88
g89
ssg70
g2808
sg63
(lp2820
S':'
asbag56
(g77
g58
NtRp2821
(dp2822
g61
(dp2823
sg70
g2808
sg63
(lp2824
g56
(g57
g58
NtRp2825
(dp2826
g61
(dp2827
g69
I3
ssg70
g2821
sg63
(lp2828
g1331
asbasbasbag56
(g72
g58
NtRp2829
(dp2830
g61
(dp2831
sg70
g2363
sg63
(lp2832
g56
(g77
g58
NtRp2833
(dp2834
g61
(dp2835
g81
g82
ssg70
g2829
sg63
(lp2836
S'SERVER_SOFTWARE'
p2837
asbag56
(g77
g58
NtRp2838
(dp2839
g61
(dp2840
g88
g89
ssg70
g2829
sg63
(lp2841
S':'
asbag56
(g77
g58
NtRp2842
(dp2843
g61
(dp2844
sg70
g2829
sg63
(lp2845
g56
(g57
g58
NtRp2846
(dp2847
g61
(dp2848
g69
I3
ssg70
g2842
sg63
(lp2849
g1353
asbasbasbag56
(g72
g58
NtRp2850
(dp2851
g61
(dp2852
sg70
g2363
sg63
(lp2853
g56
(g77
g58
NtRp2854
(dp2855
g61
(dp2856
g81
g82
ssg70
g2850
sg63
(lp2857
S'wsgi.errors'
p2858
asbag56
(g77
g58
NtRp2859
(dp2860
g61
(dp2861
g88
g89
ssg70
g2850
sg63
(lp2862
S':'
asbag56
(g77
g58
NtRp2863
(dp2864
g61
(dp2865
sg70
g2850
sg63
(lp2866
g56
(g57
g58
NtRp2867
(dp2868
g61
(dp2869
g69
I3
ssg70
g2863
sg63
(lp2870
S"<open file '<stderr>', mode 'w' at 0x7f8b30c7d270>"
p2871
asbasbasbag56
(g72
g58
NtRp2872
(dp2873
g61
(dp2874
sg70
g2363
sg63
(lp2875
g56
(g77
g58
NtRp2876
(dp2877
g61
(dp2878
g81
g82
ssg70
g2872
sg63
(lp2879
S'wsgi.file_wrapper'
p2880
asbag56
(g77
g58
NtRp2881
(dp2882
g61
(dp2883
g88
g89
ssg70
g2872
sg63
(lp2884
S':'
asbag56
(g77
g58
NtRp2885
(dp2886
g61
(dp2887
sg70
g2872
sg63
(lp2888
g56
(g57
g58
NtRp2889
(dp2890
g61
(dp2891
g69
I3
ssg70
g2885
sg63
(lp2892
S'<class wsgiref.util.FileWrapper at 0x2b1e870>'
p2893
asbasbasbag56
(g72
g58
NtRp2894
(dp2895
g61
(dp2896
sg70
g2363
sg63
(lp2897
g56
(g77
g58
NtRp2898
(dp2899
g61
(dp2900
g81
g82
ssg70
g2894
sg63
(lp2901
S'wsgi.input'
p2902
asbag56
(g77
g58
NtRp2903
(dp2904
g61
(dp2905
g88
g89
ssg70
g2894
sg63
(lp2906
S':'
asbag56
(g77
g58
NtRp2907
(dp2908
g61
(dp2909
sg70
g2894
sg63
(lp2910
g56
(g57
g58
NtRp2911
(dp2912
g61
(dp2913
g69
I3
ssg70
g2907
sg63
(lp2914
S'<cStringIO.StringO object at 0x3a23228>'
p2915
asbasbasbag56
(g72
g58
NtRp2916
(dp2917
g61
(dp2918
sg70
g2363
sg63
(lp2919
g56
(g77
g58
NtRp2920
(dp2921
g61
(dp2922
g81
g82
ssg70
g2916
sg63
(lp2923
S'wsgi.multiprocess'
p2924
asbag56
(g77
g58
NtRp2925
(dp2926
g61
(dp2927
g88
g89
ssg70
g2916
sg63
(lp2928
S':'
asbag56
(g77
g58
NtRp2929
(dp2930
g61
(dp2931
sg70
g2916
sg63
(lp2932
g56
(g57
g58
NtRp2933
(dp2934
g61
(dp2935
g69
I3
ssg70
g2929
sg63
(lp2936
g808
asbasbasbag56
(g72
g58
NtRp2937
(dp2938
g61
(dp2939
sg70
g2363
sg63
(lp2940
g56
(g77
g58
NtRp2941
(dp2942
g61
(dp2943
g81
g82
ssg70
g2937
sg63
(lp2944
S'wsgi.multithread'
p2945
asbag56
(g77
g58
NtRp2946
(dp2947
g61
(dp2948
g88
g89
ssg70
g2937
sg63
(lp2949
S':'
asbag56
(g77
g58
NtRp2950
(dp2951
g61
(dp2952
sg70
g2937
sg63
(lp2953
g56
(g57
g58
NtRp2954
(dp2955
g61
(dp2956
g69
I3
ssg70
g2950
sg63
(lp2957
g99
asbasbasbag56
(g72
g58
NtRp2958
(dp2959
g61
(dp2960
sg70
g2363
sg63
(lp2961
g56
(g77
g58
NtRp2962
(dp2963
g61
(dp2964
g81
g82
ssg70
g2958
sg63
(lp2965
S'wsgi.run_once'
p2966
asbag56
(g77
g58
NtRp2967
(dp2968
g61
(dp2969
g88
g89
ssg70
g2958
sg63
(lp2970
S':'
asbag56
(g77
g58
NtRp2971
(dp2972
g61
(dp2973
sg70
g2958
sg63
(lp2974
g56
(g57
g58
NtRp2975
(dp2976
g61
(dp2977
g69
I3
ssg70
g2971
sg63
(lp2978
g808
asbasbasbag56
(g72
g58
NtRp2979
(dp2980
g61
(dp2981
sg70
g2363
sg63
(lp2982
g56
(g77
g58
NtRp2983
(dp2984
g61
(dp2985
g81
g82
ssg70
g2979
sg63
(lp2986
S'wsgi.url_scheme'
p2987
asbag56
(g77
g58
NtRp2988
(dp2989
g61
(dp2990
g88
g89
ssg70
g2979
sg63
(lp2991
S':'
asbag56
(g77
g58
NtRp2992
(dp2993
g61
(dp2994
sg70
g2979
sg63
(lp2995
g56
(g57
g58
NtRp2996
(dp2997
g61
(dp2998
g69
I3
ssg70
g2992
sg63
(lp2999
g1635
asbasbasbag56
(g72
g58
NtRp3000
(dp3001
g61
(dp3002
sg70
g2363
sg63
(lp3003
g56
(g77
g58
NtRp3004
(dp3005
g61
(dp3006
g81
g82
ssg70
g3000
sg63
(lp3007
S'wsgi.version'
p3008
asbag56
(g77
g58
NtRp3009
(dp3010
g61
(dp3011
g88
g89
ssg70
g3000
sg63
(lp3012
S':'
asbag56
(g77
g58
NtRp3013
(dp3014
g61
(dp3015
sg70
g3000
sg63
(lp3016
g56
(g57
g58
NtRp3017
(dp3018
g61
(dp3019
g69
I3
ssg70
g3013
sg63
(lp3020
S'1'
asbasbasbasbasbasbasbasbasbasbasbasbasbsS'frames'
p3021
(lp3022
(dp3023
S'file'
p3024
S'/home/ian/web2py/gluon/restricted.py'
p3025
sS'dump'
p3026
(dp3027
S'environment'
p3028
S"{'A': <class 'gluon.html.A'>, 'AjaxSelect': <class applications.topoi.modules.plugin_ajaxselect.AjaxSelect>, 'Auth': <class 'gluon.tools.Auth'>, 'B': <class 'gluon.html.B'>, 'BEAUTIFY': <class 'gluon.html.BEAUTIFY'>, 'BODY': <class 'gluon.html.BODY'>, 'BR': <class 'gluon.html.BR'>, 'BUTTON': <class 'gluon.html.BUTTON'>, 'CAT': <class 'gluon.html.CAT'>, 'CENTER': <class 'gluon.html.CENTER'>, ...}"
p3029
sS'ccode'
p3030
S'<code object <module> at 0x3af87b0, file "/home/...topoi/controllers/plugin_listandedit.py", line 3>'
p3031
ssS'lnum'
p3032
I194
sS'lines'
p3033
(dp3034
I192
S'        else:'
p3035
sI193
S'            ccode = compile2(code,layer)'
p3036
sI194
S'        exec ccode in environment'
p3037
sI195
S'    except HTTP:'
p3038
sI196
S'        raise'
p3039
sI197
S'    except Exception, error:'
p3040
sI198
S'        # XXX Show exception in Wing IDE if running in debugger'
p3041
sI189
S'    try:'
p3042
sI190
S'        if type(code) == types.CodeType:'
p3043
sI191
S'            ccode = code'
p3044
ssS'call'
p3045
S'(code=\'# coding: utf8\\n\\ndef list():\\n    """\\n    API: Tak...m = form)\\n\\nresponse._vars=response._caller(edit)\\n\', environment={\'A\': <class \'gluon.html.A\'>, \'AjaxSelect\': <class applications.topoi.modules.plugin_ajaxselect.AjaxSelect>, \'Auth\': <class \'gluon.tools.Auth\'>, \'B\': <class \'gluon.html.B\'>, \'BEAUTIFY\': <class \'gluon.html.BEAUTIFY\'>, \'BODY\': <class \'gluon.html.BODY\'>, \'BR\': <class \'gluon.html.BR\'>, \'BUTTON\': <class \'gluon.html.BUTTON\'>, \'CAT\': <class \'gluon.html.CAT\'>, \'CENTER\': <class \'gluon.html.CENTER\'>, ...}, layer=\'/home/ian/web2py/applications/topoi/controllers/plugin_listandedit.py\')'
p3046
sS'func'
p3047
S'restricted'
p3048
sa(dp3049
g3024
S'/home/ian/web2py/applications/topoi/controllers/plugin_listandedit.py'
p3050
sg3026
(dp3051
sg3032
I47
sg3033
(dp3052
I36
S''
sI37
S'    form = SQLFORM(db[tablename], rowid)'
p3053
sI38
S'    if form.process(formname=formname).accepted:'
p3054
sI39
S"        response.flash = 'form accepted'"
p3055
sI40
S'    elif form.errors:'
p3056
sI41
S"        response.flash = 'something went wrong'"
p3057
sI42
S'    else:'
p3058
sI43
S'        pass'
p3059
sI44
S''
sI45
S'    return dict(form = form)'
p3060
ssg3045
S'()'
p3061
sg3047
S'<module>'
p3062
sa(dp3063
g3024
S'/home/ian/web2py/gluon/globals.py'
p3064
sg3026
(dp3065
S'self'
p3066
S'undefined'
p3067
sS'f'
S'<function edit>'
p3068
ssg3032
I149
sg3033
(dp3069
I144
S'        self.meta = Storage()      # used by web2py_ajax.html'
p3070
sI145
S'        self.menu = []             # used by the default view layout'
p3071
sI146
S'        self.files = []            # used by web2py_ajax.html'
p3072
sI147
S'        self.generic_patterns = [] # patterns to allow generic views'
p3073
sI148
S'        self._vars = None'
p3074
sI149
S'        self._caller = lambda f: f()'
p3075
sI150
S'        self._view_environment = None'
p3076
sI151
S'        self._custom_commit = None'
p3077
sI152
S'        self._custom_rollback = None'
p3078
sI153
S''
ssg3045
S'(f=<function edit>)'
p3079
sg3047
S'<lambda>'
p3080
sa(dp3081
g3024
S'/home/ian/web2py/applications/topoi/controllers/plugin_listandedit.py'
p3082
sg3026
(dp3083
S'global request'
p3084
S"<Storage {'body': <cStringIO.StringO object at 0..._vars': <Storage {}>, 'post_vars': <Storage {}>}>"
p3085
sS'request.args'
p3086
S"['1']"
p3087
sS'rowid'
p3088
g3067
ssg3032
I34
sg3033
(dp3089
I32
S'def edit():'
p3090
sI33
S'    tablename = request.args[0]'
p3091
sI34
S'    rowid = request.args[1]'
p3092
sI35
S"    formname = '%s/%s' % (tablename, rowid)"
p3093
sI36
S''
sI37
S'    form = SQLFORM(db[tablename], rowid)'
p3094
sI38
S'    if form.process(formname=formname).accepted:'
p3095
sI29
S''
sI30
S'    return dict(listset = listset)'
p3096
sI31
S''
ssg3045
S'()'
p3097
sg3047
S'edit'
p3098
sasS'pyver'
p3099
S'Python 2.7.2+: /usr/bin/python2.7'
p3100
sS'session'
p3101
g56
(g57
g58
NtRp3102
(dp3103
g61
(dp3104
sg63
(lp3105
g56
(g65
g58
NtRp3106
(dp3107
g61
(dp3108
g69
I5
ssg70
Nsg63
(lp3109
g56
(g72
g58
NtRp3110
(dp3111
g61
(dp3112
sg70
g3106
sg63
(lp3113
g56
(g77
g58
NtRp3114
(dp3115
g61
(dp3116
g81
g82
ssg70
g3110
sg63
(lp3117
S'auth'
p3118
asbag56
(g77
g58
NtRp3119
(dp3120
g61
(dp3121
g88
g89
ssg70
g3110
sg63
(lp3122
S':'
asbag56
(g77
g58
NtRp3123
(dp3124
g61
(dp3125
sg70
g3110
sg63
(lp3126
g56
(g57
g58
NtRp3127
(dp3128
g61
(dp3129
g69
I5
ssg70
g3123
sg63
(lp3130
g56
(g65
g58
NtRp3131
(dp3132
g61
(dp3133
g69
I4
ssg70
Nsg63
(lp3134
g56
(g72
g58
NtRp3135
(dp3136
g61
(dp3137
sg70
g3131
sg63
(lp3138
g56
(g77
g58
NtRp3139
(dp3140
g61
(dp3141
g81
g82
ssg70
g3135
sg63
(lp3142
S'expiration'
p3143
asbag56
(g77
g58
NtRp3144
(dp3145
g61
(dp3146
g88
g89
ssg70
g3135
sg63
(lp3147
S':'
asbag56
(g77
g58
NtRp3148
(dp3149
g61
(dp3150
sg70
g3135
sg63
(lp3151
g56
(g57
g58
NtRp3152
(dp3153
g61
(dp3154
g69
I4
ssg70
g3148
sg63
(lp3155
S'2592000'
p3156
asbasbasbag56
(g72
g58
NtRp3157
(dp3158
g61
(dp3159
sg70
g3131
sg63
(lp3160
g56
(g77
g58
NtRp3161
(dp3162
g61
(dp3163
g81
g82
ssg70
g3157
sg63
(lp3164
S'hmac_key'
p3165
asbag56
(g77
g58
NtRp3166
(dp3167
g61
(dp3168
g88
g89
ssg70
g3157
sg63
(lp3169
S':'
asbag56
(g77
g58
NtRp3170
(dp3171
g61
(dp3172
sg70
g3157
sg63
(lp3173
g56
(g57
g58
NtRp3174
(dp3175
g61
(dp3176
g69
I4
ssg70
g3170
sg63
(lp3177
S'20c8192d-156c-406c-9f7b-eade4cd34288'
p3178
asbasbasbag56
(g72
g58
NtRp3179
(dp3180
g61
(dp3181
sg70
g3131
sg63
(lp3182
g56
(g77
g58
NtRp3183
(dp3184
g61
(dp3185
g81
g82
ssg70
g3179
sg63
(lp3186
S'last_visit'
p3187
asbag56
(g77
g58
NtRp3188
(dp3189
g61
(dp3190
g88
g89
ssg70
g3179
sg63
(lp3191
S':'
asbag56
(g77
g58
NtRp3192
(dp3193
g61
(dp3194
sg70
g3179
sg63
(lp3195
g56
(g57
g58
NtRp3196
(dp3197
g61
(dp3198
g69
I4
ssg70
g3192
sg63
(lp3199
S'datetime.datetime(2011, 12, 15, 14, 27, 18, 112795)'
p3200
asbasbasbag56
(g72
g58
NtRp3201
(dp3202
g61
(dp3203
sg70
g3131
sg63
(lp3204
g56
(g77
g58
NtRp3205
(dp3206
g61
(dp3207
g81
g82
ssg70
g3201
sg63
(lp3208
S'remember'
p3209
asbag56
(g77
g58
NtRp3210
(dp3211
g61
(dp3212
g88
g89
ssg70
g3201
sg63
(lp3213
S':'
asbag56
(g77
g58
NtRp3214
(dp3215
g61
(dp3216
sg70
g3201
sg63
(lp3217
g56
(g57
g58
NtRp3218
(dp3219
g61
(dp3220
g69
I4
ssg70
g3214
sg63
(lp3221
g99
asbasbasbag56
(g72
g58
NtRp3222
(dp3223
g61
(dp3224
sg70
g3131
sg63
(lp3225
g56
(g77
g58
NtRp3226
(dp3227
g61
(dp3228
g81
g82
ssg70
g3222
sg63
(lp3229
S'user'
p3230
asbag56
(g77
g58
NtRp3231
(dp3232
g61
(dp3233
g88
g89
ssg70
g3222
sg63
(lp3234
S':'
asbag56
(g77
g58
NtRp3235
(dp3236
g61
(dp3237
sg70
g3222
sg63
(lp3238
g56
(g57
g58
NtRp3239
(dp3240
g61
(dp3241
g69
I4
ssg70
g3235
sg63
(lp3242
g56
(g65
g58
NtRp3243
(dp3244
g61
(dp3245
g69
I3
ssg70
Nsg63
(lp3246
g56
(g72
g58
NtRp3247
(dp3248
g61
(dp3249
sg70
g3243
sg63
(lp3250
g56
(g77
g58
NtRp3251
(dp3252
g61
(dp3253
g81
g82
ssg70
g3247
sg63
(lp3254
S'email'
p3255
asbag56
(g77
g58
NtRp3256
(dp3257
g61
(dp3258
g88
g89
ssg70
g3247
sg63
(lp3259
S':'
asbag56
(g77
g58
NtRp3260
(dp3261
g61
(dp3262
sg70
g3247
sg63
(lp3263
g56
(g57
g58
NtRp3264
(dp3265
g61
(dp3266
g69
I3
ssg70
g3260
sg63
(lp3267
S'scottianw@gmail.com'
p3268
asbasbasbag56
(g72
g58
NtRp3269
(dp3270
g61
(dp3271
sg70
g3243
sg63
(lp3272
g56
(g77
g58
NtRp3273
(dp3274
g61
(dp3275
g81
g82
ssg70
g3269
sg63
(lp3276
S'first_name'
p3277
asbag56
(g77
g58
NtRp3278
(dp3279
g61
(dp3280
g88
g89
ssg70
g3269
sg63
(lp3281
S':'
asbag56
(g77
g58
NtRp3282
(dp3283
g61
(dp3284
sg70
g3269
sg63
(lp3285
g56
(g57
g58
NtRp3286
(dp3287
g61
(dp3288
g69
I3
ssg70
g3282
sg63
(lp3289
S'Ian'
p3290
asbasbasbag56
(g72
g58
NtRp3291
(dp3292
g61
(dp3293
sg70
g3243
sg63
(lp3294
g56
(g77
g58
NtRp3295
(dp3296
g61
(dp3297
g81
g82
ssg70
g3291
sg63
(lp3298
S'id'
p3299
asbag56
(g77
g58
NtRp3300
(dp3301
g61
(dp3302
g88
g89
ssg70
g3291
sg63
(lp3303
S':'
asbag56
(g77
g58
NtRp3304
(dp3305
g61
(dp3306
sg70
g3291
sg63
(lp3307
g56
(g57
g58
NtRp3308
(dp3309
g61
(dp3310
g69
I3
ssg70
g3304
sg63
(lp3311
S'1'
asbasbasbag56
(g72
g58
NtRp3312
(dp3313
g61
(dp3314
sg70
g3243
sg63
(lp3315
g56
(g77
g58
NtRp3316
(dp3317
g61
(dp3318
g81
g82
ssg70
g3312
sg63
(lp3319
S'last_name'
p3320
asbag56
(g77
g58
NtRp3321
(dp3322
g61
(dp3323
g88
g89
ssg70
g3312
sg63
(lp3324
S':'
asbag56
(g77
g58
NtRp3325
(dp3326
g61
(dp3327
sg70
g3312
sg63
(lp3328
g56
(g57
g58
NtRp3329
(dp3330
g61
(dp3331
g69
I3
ssg70
g3325
sg63
(lp3332
S'Scott'
p3333
asbasbasbag56
(g72
g58
NtRp3334
(dp3335
g61
(dp3336
sg70
g3243
sg63
(lp3337
g56
(g77
g58
NtRp3338
(dp3339
g61
(dp3340
g81
g82
ssg70
g3334
sg63
(lp3341
S'password'
p3342
asbag56
(g77
g58
NtRp3343
(dp3344
g61
(dp3345
g88
g89
ssg70
g3334
sg63
(lp3346
S':'
asbag56
(g77
g58
NtRp3347
(dp3348
g61
(dp3349
sg70
g3334
sg63
(lp3350
g56
(g57
g58
NtRp3351
(dp3352
g61
(dp3353
g69
I3
ssg70
g3347
sg63
(lp3354
S'6fb48d01a3959846ba0fe062b1789f17d9cf3d34d3ec5aa948f598bbf4387cb10eb60c797988f41dfea97ee691b338dd77413d430229e401cf7c84e6cd9c4458'
p3355
asbasbasbag56
(g72
g58
NtRp3356
(dp3357
g61
(dp3358
sg70
g3243
sg63
(lp3359
g56
(g77
g58
NtRp3360
(dp3361
g61
(dp3362
g81
g82
ssg70
g3356
sg63
(lp3363
S'registration_key'
p3364
asbag56
(g77
g58
NtRp3365
(dp3366
g61
(dp3367
g88
g89
ssg70
g3356
sg63
(lp3368
S':'
asbag56
(g77
g58
NtRp3369
(dp3370
g61
(dp3371
sg70
g3356
sg63
(lp3372
g56
(g57
g58
NtRp3373
(dp3374
g61
(dp3375
g69
I3
ssg70
g3369
sg63
(lp3376
S''
asbasbasbag56
(g72
g58
NtRp3377
(dp3378
g61
(dp3379
sg70
g3243
sg63
(lp3380
g56
(g77
g58
NtRp3381
(dp3382
g61
(dp3383
g81
g82
ssg70
g3377
sg63
(lp3384
S'reset_password_key'
p3385
asbag56
(g77
g58
NtRp3386
(dp3387
g61
(dp3388
g88
g89
ssg70
g3377
sg63
(lp3389
S':'
asbag56
(g77
g58
NtRp3390
(dp3391
g61
(dp3392
sg70
g3377
sg63
(lp3393
g56
(g57
g58
NtRp3394
(dp3395
g61
(dp3396
g69
I3
ssg70
g3390
sg63
(lp3397
S''
asbasbasbasbasbasbasbasbasbasbasbag56
(g72
g58
NtRp3398
(dp3399
g61
(dp3400
sg70
g3106
sg63
(lp3401
g56
(g77
g58
NtRp3402
(dp3403
g61
(dp3404
g81
g82
ssg70
g3398
sg63
(lp3405
S'last_query'
p3406
asbag56
(g77
g58
NtRp3407
(dp3408
g61
(dp3409
g88
g89
ssg70
g3398
sg63
(lp3410
S':'
asbag56
(g77
g58
NtRp3411
(dp3412
g61
(dp3413
sg70
g3398
sg63
(lp3414
g56
(g57
g58
NtRp3415
(dp3416
g61
(dp3417
g69
I5
ssg70
g3411
sg63
(lp3418
S'db.auth_user.id>0'
p3419
asbasbasbasbasbsS'etype'
p3420
S"<type 'exceptions.IndexError'>"
p3421
sS'date'
p3422
S'Sat Dec 17 22:41:11 2011'
p3423
sS'response'
p3424
g56
(g57
g58
NtRp3425
(dp3426
g61
(dp3427
sg63
(lp3428
g56
(g65
g58
NtRp3429
(dp3430
g61
(dp3431
g69
I5
ssg70
Nsg63
(lp3432
g56
(g72
g58
NtRp3433
(dp3434
g61
(dp3435
sg70
g3429
sg63
(lp3436
g56
(g77
g58
NtRp3437
(dp3438
g61
(dp3439
g81
g82
ssg70
g3433
sg63
(lp3440
g166
asbag56
(g77
g58
NtRp3441
(dp3442
g61
(dp3443
g88
g89
ssg70
g3433
sg63
(lp3444
S':'
asbag56
(g77
g58
NtRp3445
(dp3446
g61
(dp3447
sg70
g3433
sg63
(lp3448
g56
(g57
g58
NtRp3449
(dp3450
g61
(dp3451
g69
I5
ssg70
g3445
sg63
(lp3452
S'<cStringIO.StringO object at 0x4747420>'
p3453
asbasbasbag56
(g72
g58
NtRp3454
(dp3455
g61
(dp3456
sg70
g3429
sg63
(lp3457
g56
(g77
g58
NtRp3458
(dp3459
g61
(dp3460
g81
g82
ssg70
g3454
sg63
(lp3461
g254
asbag56
(g77
g58
NtRp3462
(dp3463
g61
(dp3464
g88
g89
ssg70
g3454
sg63
(lp3465
S':'
asbag56
(g77
g58
NtRp3466
(dp3467
g61
(dp3468
sg70
g3454
sg63
(lp3469
g56
(g57
g58
NtRp3470
(dp3471
g61
(dp3472
g69
I5
ssg70
g3466
sg63
(lp3473
g56
(g65
g58
NtRp3474
(dp3475
g61
(dp3476
g69
I4
ssg70
Nsg63
(lp3477
g56
(g72
g58
NtRp3478
(dp3479
g61
(dp3480
sg70
g3474
sg63
(lp3481
g56
(g77
g58
NtRp3482
(dp3483
g61
(dp3484
g81
g82
ssg70
g3478
sg63
(lp3485
S'session_id_topoi'
p3486
asbag56
(g77
g58
NtRp3487
(dp3488
g61
(dp3489
g88
g89
ssg70
g3478
sg63
(lp3490
S':'
asbag56
(g77
g58
NtRp3491
(dp3492
g61
(dp3493
sg70
g3478
sg63
(lp3494
g56
(g57
g58
NtRp3495
(dp3496
g61
(dp3497
g69
I4
ssg70
g3491
sg63
(lp3498
g56
(g65
g58
NtRp3499
(dp3500
g61
(dp3501
g69
I3
ssg70
Nsg63
(lp3502
g56
(g72
g58
NtRp3503
(dp3504
g61
(dp3505
sg70
g3499
sg63
(lp3506
g56
(g77
g58
NtRp3507
(dp3508
g61
(dp3509
g81
g82
ssg70
g3503
sg63
(lp3510
g304
asbag56
(g77
g58
NtRp3511
(dp3512
g61
(dp3513
g88
g89
ssg70
g3503
sg63
(lp3514
S':'
asbag56
(g77
g58
NtRp3515
(dp3516
g61
(dp3517
sg70
g3503
sg63
(lp3518
g56
(g57
g58
NtRp3519
(dp3520
g61
(dp3521
g69
I3
ssg70
g3515
sg63
(lp3522
S''
asbasbasbag56
(g72
g58
NtRp3523
(dp3524
g61
(dp3525
sg70
g3499
sg63
(lp3526
g56
(g77
g58
NtRp3527
(dp3528
g61
(dp3529
g81
g82
ssg70
g3523
sg63
(lp3530
g325
asbag56
(g77
g58
NtRp3531
(dp3532
g61
(dp3533
g88
g89
ssg70
g3523
sg63
(lp3534
S':'
asbag56
(g77
g58
NtRp3535
(dp3536
g61
(dp3537
sg70
g3523
sg63
(lp3538
g56
(g57
g58
NtRp3539
(dp3540
g61
(dp3541
g69
I3
ssg70
g3535
sg63
(lp3542
S''
asbasbasbag56
(g72
g58
NtRp3543
(dp3544
g61
(dp3545
sg70
g3499
sg63
(lp3546
g56
(g77
g58
NtRp3547
(dp3548
g61
(dp3549
g81
g82
ssg70
g3543
sg63
(lp3550
g346
asbag56
(g77
g58
NtRp3551
(dp3552
g61
(dp3553
g88
g89
ssg70
g3543
sg63
(lp3554
S':'
asbag56
(g77
g58
NtRp3555
(dp3556
g61
(dp3557
sg70
g3543
sg63
(lp3558
g56
(g57
g58
NtRp3559
(dp3560
g61
(dp3561
g69
I3
ssg70
g3555
sg63
(lp3562
S'2592000'
p3563
asbasbasbag56
(g72
g58
NtRp3564
(dp3565
g61
(dp3566
sg70
g3499
sg63
(lp3567
g56
(g77
g58
NtRp3568
(dp3569
g61
(dp3570
g81
g82
ssg70
g3564
sg63
(lp3571
g367
asbag56
(g77
g58
NtRp3572
(dp3573
g61
(dp3574
g88
g89
ssg70
g3564
sg63
(lp3575
S':'
asbag56
(g77
g58
NtRp3576
(dp3577
g61
(dp3578
sg70
g3564
sg63
(lp3579
g56
(g57
g58
NtRp3580
(dp3581
g61
(dp3582
g69
I3
ssg70
g3576
sg63
(lp3583
S''
asbasbasbag56
(g72
g58
NtRp3584
(dp3585
g61
(dp3586
sg70
g3499
sg63
(lp3587
g56
(g77
g58
NtRp3588
(dp3589
g61
(dp3590
g81
g82
ssg70
g3584
sg63
(lp3591
g388
asbag56
(g77
g58
NtRp3592
(dp3593
g61
(dp3594
g88
g89
ssg70
g3584
sg63
(lp3595
S':'
asbag56
(g77
g58
NtRp3596
(dp3597
g61
(dp3598
sg70
g3584
sg63
(lp3599
g56
(g57
g58
NtRp3600
(dp3601
g61
(dp3602
g69
I3
ssg70
g3596
sg63
(lp3603
S''
asbasbasbag56
(g72
g58
NtRp3604
(dp3605
g61
(dp3606
sg70
g3499
sg63
(lp3607
g56
(g77
g58
NtRp3608
(dp3609
g61
(dp3610
g81
g82
ssg70
g3604
sg63
(lp3611
g409
asbag56
(g77
g58
NtRp3612
(dp3613
g61
(dp3614
g88
g89
ssg70
g3604
sg63
(lp3615
S':'
asbag56
(g77
g58
NtRp3616
(dp3617
g61
(dp3618
sg70
g3604
sg63
(lp3619
g56
(g57
g58
NtRp3620
(dp3621
g61
(dp3622
g69
I3
ssg70
g3616
sg63
(lp3623
S'/'
asbasbasbag56
(g72
g58
NtRp3624
(dp3625
g61
(dp3626
sg70
g3499
sg63
(lp3627
g56
(g77
g58
NtRp3628
(dp3629
g61
(dp3630
g81
g82
ssg70
g3624
sg63
(lp3631
g430
asbag56
(g77
g58
NtRp3632
(dp3633
g61
(dp3634
g88
g89
ssg70
g3624
sg63
(lp3635
S':'
asbag56
(g77
g58
NtRp3636
(dp3637
g61
(dp3638
sg70
g3624
sg63
(lp3639
g56
(g57
g58
NtRp3640
(dp3641
g61
(dp3642
g69
I3
ssg70
g3636
sg63
(lp3643
S''
asbasbasbag56
(g72
g58
NtRp3644
(dp3645
g61
(dp3646
sg70
g3499
sg63
(lp3647
g56
(g77
g58
NtRp3648
(dp3649
g61
(dp3650
g81
g82
ssg70
g3644
sg63
(lp3651
g451
asbag56
(g77
g58
NtRp3652
(dp3653
g61
(dp3654
g88
g89
ssg70
g3644
sg63
(lp3655
S':'
asbag56
(g77
g58
NtRp3656
(dp3657
g61
(dp3658
sg70
g3644
sg63
(lp3659
g56
(g57
g58
NtRp3660
(dp3661
g61
(dp3662
g69
I3
ssg70
g3656
sg63
(lp3663
S''
asbasbasbasbasbasbasbasbasbasbasbag56
(g72
g58
NtRp3664
(dp3665
g61
(dp3666
sg70
g3429
sg63
(lp3667
g56
(g77
g58
NtRp3668
(dp3669
g61
(dp3670
g81
g82
ssg70
g3664
sg63
(lp3671
S'files'
p3672
asbag56
(g77
g58
NtRp3673
(dp3674
g61
(dp3675
g88
g89
ssg70
g3664
sg63
(lp3676
S':'
asbag56
(g77
g58
NtRp3677
(dp3678
g61
(dp3679
sg70
g3664
sg63
(lp3680
g56
(g57
g58
NtRp3681
(dp3682
g61
(dp3683
g69
I5
ssg70
g3677
sg63
(lp3684
g56
(g65
g58
NtRp3685
(dp3686
g61
(dp3687
g69
I4
ssg70
Nsg63
(lp3688
sbasbasbasbag56
(g72
g58
NtRp3689
(dp3690
g61
(dp3691
sg70
g3429
sg63
(lp3692
g56
(g77
g58
NtRp3693
(dp3694
g61
(dp3695
g81
g82
ssg70
g3689
sg63
(lp3696
S'flash'
p3697
asbag56
(g77
g58
NtRp3698
(dp3699
g61
(dp3700
g88
g89
ssg70
g3689
sg63
(lp3701
S':'
asbag56
(g77
g58
NtRp3702
(dp3703
g61
(dp3704
sg70
g3689
sg63
(lp3705
g56
(g57
g58
NtRp3706
(dp3707
g61
(dp3708
g69
I5
ssg70
g3702
sg63
(lp3709
S''
asbasbasbag56
(g72
g58
NtRp3710
(dp3711
g61
(dp3712
sg70
g3429
sg63
(lp3713
g56
(g77
g58
NtRp3714
(dp3715
g61
(dp3716
g81
g82
ssg70
g3710
sg63
(lp3717
S'generic_patterns'
p3718
asbag56
(g77
g58
NtRp3719
(dp3720
g61
(dp3721
g88
g89
ssg70
g3710
sg63
(lp3722
S':'
asbag56
(g77
g58
NtRp3723
(dp3724
g61
(dp3725
sg70
g3710
sg63
(lp3726
g56
(g57
g58
NtRp3727
(dp3728
g61
(dp3729
g69
I5
ssg70
g3723
sg63
(lp3730
g56
(g65
g58
NtRp3731
(dp3732
g61
(dp3733
g69
I4
ssg70
Nsg63
(lp3734
g56
(g72
g58
NtRp3735
(dp3736
g61
(dp3737
sg70
g3731
sg63
(lp3738
g56
(g77
g58
NtRp3739
(dp3740
g61
(dp3741
sg70
g3735
sg63
(lp3742
g56
(g57
g58
NtRp3743
(dp3744
g61
(dp3745
g69
I4
ssg70
g3739
sg63
(lp3746
S'*'
asbasbasbasbasbasbasbag56
(g72
g58
NtRp3747
(dp3748
g61
(dp3749
sg70
g3429
sg63
(lp3750
g56
(g77
g58
NtRp3751
(dp3752
g61
(dp3753
g81
g82
ssg70
g3747
sg63
(lp3754
S'headers'
p3755
asbag56
(g77
g58
NtRp3756
(dp3757
g61
(dp3758
g88
g89
ssg70
g3747
sg63
(lp3759
S':'
asbag56
(g77
g58
NtRp3760
(dp3761
g61
(dp3762
sg70
g3747
sg63
(lp3763
g56
(g57
g58
NtRp3764
(dp3765
g61
(dp3766
g69
I5
ssg70
g3760
sg63
(lp3767
g56
(g65
g58
NtRp3768
(dp3769
g61
(dp3770
g69
I4
ssg70
Nsg63
(lp3771
g56
(g72
g58
NtRp3772
(dp3773
g61
(dp3774
sg70
g3768
sg63
(lp3775
g56
(g77
g58
NtRp3776
(dp3777
g61
(dp3778
g81
g82
ssg70
g3772
sg63
(lp3779
S'Cache-Control'
p3780
asbag56
(g77
g58
NtRp3781
(dp3782
g61
(dp3783
g88
g89
ssg70
g3772
sg63
(lp3784
S':'
asbag56
(g77
g58
NtRp3785
(dp3786
g61
(dp3787
sg70
g3772
sg63
(lp3788
g56
(g57
g58
NtRp3789
(dp3790
g61
(dp3791
g69
I4
ssg70
g3785
sg63
(lp3792
S'no-store, no-cache, must-revalidate, post-check=0, pre-check=0'
p3793
asbasbasbag56
(g72
g58
NtRp3794
(dp3795
g61
(dp3796
sg70
g3768
sg63
(lp3797
g56
(g77
g58
NtRp3798
(dp3799
g61
(dp3800
g81
g82
ssg70
g3794
sg63
(lp3801
S'Content-Type'
p3802
asbag56
(g77
g58
NtRp3803
(dp3804
g61
(dp3805
g88
g89
ssg70
g3794
sg63
(lp3806
S':'
asbag56
(g77
g58
NtRp3807
(dp3808
g61
(dp3809
sg70
g3794
sg63
(lp3810
g56
(g57
g58
NtRp3811
(dp3812
g61
(dp3813
g69
I4
ssg70
g3807
sg63
(lp3814
S'text/html; charset=utf-8'
p3815
asbasbasbag56
(g72
g58
NtRp3816
(dp3817
g61
(dp3818
sg70
g3768
sg63
(lp3819
g56
(g77
g58
NtRp3820
(dp3821
g61
(dp3822
g81
g82
ssg70
g3816
sg63
(lp3823
S'Expires'
p3824
asbag56
(g77
g58
NtRp3825
(dp3826
g61
(dp3827
g88
g89
ssg70
g3816
sg63
(lp3828
S':'
asbag56
(g77
g58
NtRp3829
(dp3830
g61
(dp3831
sg70
g3816
sg63
(lp3832
g56
(g57
g58
NtRp3833
(dp3834
g61
(dp3835
g69
I4
ssg70
g3829
sg63
(lp3836
S'Sun, 18 Dec 2011 03:41:11 GMT'
p3837
asbasbasbag56
(g72
g58
NtRp3838
(dp3839
g61
(dp3840
sg70
g3768
sg63
(lp3841
g56
(g77
g58
NtRp3842
(dp3843
g61
(dp3844
g81
g82
ssg70
g3838
sg63
(lp3845
S'Pragma'
p3846
asbag56
(g77
g58
NtRp3847
(dp3848
g61
(dp3849
g88
g89
ssg70
g3838
sg63
(lp3850
S':'
asbag56
(g77
g58
NtRp3851
(dp3852
g61
(dp3853
sg70
g3838
sg63
(lp3854
g56
(g57
g58
NtRp3855
(dp3856
g61
(dp3857
g69
I4
ssg70
g3851
sg63
(lp3858
S'no-cache'
p3859
asbasbasbag56
(g72
g58
NtRp3860
(dp3861
g61
(dp3862
sg70
g3768
sg63
(lp3863
g56
(g77
g58
NtRp3864
(dp3865
g61
(dp3866
g81
g82
ssg70
g3860
sg63
(lp3867
S'X-Powered-By'
p3868
asbag56
(g77
g58
NtRp3869
(dp3870
g61
(dp3871
g88
g89
ssg70
g3860
sg63
(lp3872
S':'
asbag56
(g77
g58
NtRp3873
(dp3874
g61
(dp3875
sg70
g3860
sg63
(lp3876
g56
(g57
g58
NtRp3877
(dp3878
g61
(dp3879
g69
I4
ssg70
g3873
sg63
(lp3880
S'web2py'
p3881
asbasbasbasbasbasbasbag56
(g72
g58
NtRp3882
(dp3883
g61
(dp3884
sg70
g3429
sg63
(lp3885
g56
(g77
g58
NtRp3886
(dp3887
g61
(dp3888
g81
g82
ssg70
g3882
sg63
(lp3889
S'menu'
p3890
asbag56
(g77
g58
NtRp3891
(dp3892
g61
(dp3893
g88
g89
ssg70
g3882
sg63
(lp3894
S':'
asbag56
(g77
g58
NtRp3895
(dp3896
g61
(dp3897
sg70
g3882
sg63
(lp3898
g56
(g57
g58
NtRp3899
(dp3900
g61
(dp3901
g69
I5
ssg70
g3895
sg63
(lp3902
g56
(g65
g58
NtRp3903
(dp3904
g61
(dp3905
g69
I4
ssg70
Nsg63
(lp3906
g56
(g72
g58
NtRp3907
(dp3908
g61
(dp3909
sg70
g3903
sg63
(lp3910
g56
(g77
g58
NtRp3911
(dp3912
g61
(dp3913
sg70
g3907
sg63
(lp3914
g56
(g57
g58
NtRp3915
(dp3916
g61
(dp3917
g69
I4
ssg70
g3911
sg63
(lp3918
g56
(g65
g58
NtRp3919
(dp3920
g61
(dp3921
g69
I3
ssg70
Nsg63
(lp3922
g56
(g72
g58
NtRp3923
(dp3924
g61
(dp3925
sg70
g3919
sg63
(lp3926
g56
(g77
g58
NtRp3927
(dp3928
g61
(dp3929
sg70
g3923
sg63
(lp3930
g56
(g57
g58
NtRp3931
(dp3932
g61
(dp3933
g69
I3
ssg70
g3927
sg63
(lp3934
cgluon.languages
lazyT_unpickle
p3935
(S't\x04\x00\x00\x00Home'
tRp3936
asbasbasbag56
(g72
g58
NtRp3937
(dp3938
g61
(dp3939
sg70
g3919
sg63
(lp3940
g56
(g77
g58
NtRp3941
(dp3942
g61
(dp3943
sg70
g3937
sg63
(lp3944
g56
(g57
g58
NtRp3945
(dp3946
g61
(dp3947
g69
I3
ssg70
g3941
sg63
(lp3948
g808
asbasbasbag56
(g72
g58
NtRp3949
(dp3950
g61
(dp3951
sg70
g3919
sg63
(lp3952
g56
(g77
g58
NtRp3953
(dp3954
g61
(dp3955
sg70
g3949
sg63
(lp3956
g56
(g57
g58
NtRp3957
(dp3958
g61
(dp3959
g69
I3
ssg70
g3953
sg63
(lp3960
S'/topoi/default/index.load'
p3961
asbasbasbag56
(g72
g58
NtRp3962
(dp3963
g61
(dp3964
sg70
g3919
sg63
(lp3965
g56
(g77
g58
NtRp3966
(dp3967
g61
(dp3968
sg70
g3962
sg63
(lp3969
g56
(g57
g58
NtRp3970
(dp3971
g61
(dp3972
g69
I3
ssg70
g3966
sg63
(lp3973
g56
(g65
g58
NtRp3974
(dp3975
g61
(dp3976
g69
I2
ssg70
Nsg63
(lp3977
sbasbasbasbasbasbasbasbag56
(g72
g58
NtRp3978
(dp3979
g61
(dp3980
sg70
g3903
sg63
(lp3981
g56
(g77
g58
NtRp3982
(dp3983
g61
(dp3984
sg70
g3978
sg63
(lp3985
g56
(g57
g58
NtRp3986
(dp3987
g61
(dp3988
g69
I4
ssg70
g3982
sg63
(lp3989
g56
(g65
g58
NtRp3990
(dp3991
g61
(dp3992
g69
I3
ssg70
Nsg63
(lp3993
g56
(g72
g58
NtRp3994
(dp3995
g61
(dp3996
sg70
g3990
sg63
(lp3997
g56
(g77
g58
NtRp3998
(dp3999
g61
(dp4000
sg70
g3994
sg63
(lp4001
g56
(g57
g58
NtRp4002
(dp4003
g61
(dp4004
g69
I3
ssg70
g3998
sg63
(lp4005
g3935
(S't\x01\x00\x00\x00S'
tRp4006
asbasbasbag56
(g72
g58
NtRp4007
(dp4008
g61
(dp4009
sg70
g3990
sg63
(lp4010
g56
(g77
g58
NtRp4011
(dp4012
g61
(dp4013
sg70
g4007
sg63
(lp4014
g56
(g57
g58
NtRp4015
(dp4016
g61
(dp4017
g69
I3
ssg70
g4011
sg63
(lp4018
g808
asbasbasbag56
(g72
g58
NtRp4019
(dp4020
g61
(dp4021
sg70
g3990
sg63
(lp4022
g56
(g77
g58
NtRp4023
(dp4024
g61
(dp4025
sg70
g4019
sg63
(lp4026
g56
(g57
g58
NtRp4027
(dp4028
g61
(dp4029
g69
I3
ssg70
g4023
sg63
(lp4030
S'/admin/default/design/topoi.load'
p4031
asbasbasbag56
(g72
g58
NtRp4032
(dp4033
g61
(dp4034
sg70
g3990
sg63
(lp4035
g56
(g77
g58
NtRp4036
(dp4037
g61
(dp4038
sg70
g4032
sg63
(lp4039
g56
(g57
g58
NtRp4040
(dp4041
g61
(dp4042
g69
I3
ssg70
g4036
sg63
(lp4043
g56
(g65
g58
NtRp4044
(dp4045
g61
(dp4046
g69
I2
ssg70
Nsg63
(lp4047
g56
(g72
g58
NtRp4048
(dp4049
g61
(dp4050
sg70
g4044
sg63
(lp4051
g56
(g77
g58
NtRp4052
(dp4053
g61
(dp4054
sg70
g4048
sg63
(lp4055
g56
(g57
g58
NtRp4056
(dp4057
g61
(dp4058
g69
I2
ssg70
g4052
sg63
(lp4059
g56
(g65
g58
NtRp4060
(dp4061
g61
(dp4062
g69
I1
ssg70
Nsg63
(lp4063
g56
(g72
g58
NtRp4064
(dp4065
g61
(dp4066
sg70
g4060
sg63
(lp4067
g56
(g77
g58
NtRp4068
(dp4069
g61
(dp4070
sg70
g4064
sg63
(lp4071
g56
(g57
g58
NtRp4072
(dp4073
g61
(dp4074
g69
I1
ssg70
g4068
sg63
(lp4075
g3935
(S't\n\x00\x00\x00Controller'
tRp4076
asbasbasbag56
(g72
g58
NtRp4077
(dp4078
g61
(dp4079
sg70
g4060
sg63
(lp4080
g56
(g77
g58
NtRp4081
(dp4082
g61
(dp4083
sg70
g4077
sg63
(lp4084
g56
(g57
g58
NtRp4085
(dp4086
g61
(dp4087
g69
I1
ssg70
g4081
sg63
(lp4088
I00
asbasbasbag56
(g72
g58
NtRp4089
(dp4090
g61
(dp4091
sg70
g4060
sg63
(lp4092
g56
(g77
g58
NtRp4093
(dp4094
g61
(dp4095
sg70
g4089
sg63
(lp4096
g56
(g57
g58
NtRp4097
(dp4098
g61
(dp4099
g69
I1
ssg70
g4093
sg63
(lp4100
S'/admin/default/edit/topoi/controllers/plugin_listandedit.py'
p4101
asbasbasbasbasbasbasbag56
(g72
g58
NtRp4102
(dp4103
g61
(dp4104
sg70
g4044
sg63
(lp4105
g56
(g77
g58
NtRp4106
(dp4107
g61
(dp4108
sg70
g4102
sg63
(lp4109
g56
(g57
g58
NtRp4110
(dp4111
g61
(dp4112
g69
I2
ssg70
g4106
sg63
(lp4113
g56
(g65
g58
NtRp4114
(dp4115
g61
(dp4116
g69
I1
ssg70
Nsg63
(lp4117
g56
(g72
g58
NtRp4118
(dp4119
g61
(dp4120
sg70
g4114
sg63
(lp4121
g56
(g77
g58
NtRp4122
(dp4123
g61
(dp4124
sg70
g4118
sg63
(lp4125
g56
(g57
g58
NtRp4126
(dp4127
g61
(dp4128
g69
I1
ssg70
g4122
sg63
(lp4129
g3935
(S't\x04\x00\x00\x00View'
tRp4130
asbasbasbag56
(g72
g58
NtRp4131
(dp4132
g61
(dp4133
sg70
g4114
sg63
(lp4134
g56
(g77
g58
NtRp4135
(dp4136
g61
(dp4137
sg70
g4131
sg63
(lp4138
g56
(g57
g58
NtRp4139
(dp4140
g61
(dp4141
g69
I1
ssg70
g4135
sg63
(lp4142
I00
asbasbasbag56
(g72
g58
NtRp4143
(dp4144
g61
(dp4145
sg70
g4114
sg63
(lp4146
g56
(g77
g58
NtRp4147
(dp4148
g61
(dp4149
sg70
g4143
sg63
(lp4150
g56
(g57
g58
NtRp4151
(dp4152
g61
(dp4153
g69
I1
ssg70
g4147
sg63
(lp4154
S'/admin/default/edit/topoi/views/plugin_listandedit/edit.load'
p4155
asbasbasbasbasbasbasbag56
(g72
g58
NtRp4156
(dp4157
g61
(dp4158
sg70
g4044
sg63
(lp4159
g56
(g77
g58
NtRp4160
(dp4161
g61
(dp4162
sg70
g4156
sg63
(lp4163
g56
(g57
g58
NtRp4164
(dp4165
g61
(dp4166
g69
I2
ssg70
g4160
sg63
(lp4167
g56
(g65
g58
NtRp4168
(dp4169
g61
(dp4170
g69
I1
ssg70
Nsg63
(lp4171
g56
(g72
g58
NtRp4172
(dp4173
g61
(dp4174
sg70
g4168
sg63
(lp4175
g56
(g77
g58
NtRp4176
(dp4177
g61
(dp4178
sg70
g4172
sg63
(lp4179
g56
(g57
g58
NtRp4180
(dp4181
g61
(dp4182
g69
I1
ssg70
g4176
sg63
(lp4183
g3935
(S't\x06\x00\x00\x00Layout'
tRp4184
asbasbasbag56
(g72
g58
NtRp4185
(dp4186
g61
(dp4187
sg70
g4168
sg63
(lp4188
g56
(g77
g58
NtRp4189
(dp4190
g61
(dp4191
sg70
g4185
sg63
(lp4192
g56
(g57
g58
NtRp4193
(dp4194
g61
(dp4195
g69
I1
ssg70
g4189
sg63
(lp4196
I00
asbasbasbag56
(g72
g58
NtRp4197
(dp4198
g61
(dp4199
sg70
g4168
sg63
(lp4200
g56
(g77
g58
NtRp4201
(dp4202
g61
(dp4203
sg70
g4197
sg63
(lp4204
g56
(g57
g58
NtRp4205
(dp4206
g61
(dp4207
g69
I1
ssg70
g4201
sg63
(lp4208
S'/admin/default/edit/topoi/views/layout.html'
p4209
asbasbasbasbasbasbasbag56
(g72
g58
NtRp4210
(dp4211
g61
(dp4212
sg70
g4044
sg63
(lp4213
g56
(g77
g58
NtRp4214
(dp4215
g61
(dp4216
sg70
g4210
sg63
(lp4217
g56
(g57
g58
NtRp4218
(dp4219
g61
(dp4220
g69
I2
ssg70
g4214
sg63
(lp4221
g56
(g65
g58
NtRp4222
(dp4223
g61
(dp4224
g69
I1
ssg70
Nsg63
(lp4225
g56
(g72
g58
NtRp4226
(dp4227
g61
(dp4228
sg70
g4222
sg63
(lp4229
g56
(g77
g58
NtRp4230
(dp4231
g61
(dp4232
sg70
g4226
sg63
(lp4233
g56
(g57
g58
NtRp4234
(dp4235
g61
(dp4236
g69
I1
ssg70
g4230
sg63
(lp4237
g3935
(S't\n\x00\x00\x00Stylesheet'
tRp4238
asbasbasbag56
(g72
g58
NtRp4239
(dp4240
g61
(dp4241
sg70
g4222
sg63
(lp4242
g56
(g77
g58
NtRp4243
(dp4244
g61
(dp4245
sg70
g4239
sg63
(lp4246
g56
(g57
g58
NtRp4247
(dp4248
g61
(dp4249
g69
I1
ssg70
g4243
sg63
(lp4250
I00
asbasbasbag56
(g72
g58
NtRp4251
(dp4252
g61
(dp4253
sg70
g4222
sg63
(lp4254
g56
(g77
g58
NtRp4255
(dp4256
g61
(dp4257
sg70
g4251
sg63
(lp4258
g56
(g57
g58
NtRp4259
(dp4260
g61
(dp4261
g69
I1
ssg70
g4255
sg63
(lp4262
S'/admin/default/edit/topoi/static/base.css'
p4263
asbasbasbasbasbasbasbag56
(g72
g58
NtRp4264
(dp4265
g61
(dp4266
sg70
g4044
sg63
(lp4267
g56
(g77
g58
NtRp4268
(dp4269
g61
(dp4270
sg70
g4264
sg63
(lp4271
g56
(g57
g58
NtRp4272
(dp4273
g61
(dp4274
g69
I2
ssg70
g4268
sg63
(lp4275
g56
(g65
g58
NtRp4276
(dp4277
g61
(dp4278
g69
I1
ssg70
Nsg63
(lp4279
g56
(g72
g58
NtRp4280
(dp4281
g61
(dp4282
sg70
g4276
sg63
(lp4283
g56
(g77
g58
NtRp4284
(dp4285
g61
(dp4286
sg70
g4280
sg63
(lp4287
g56
(g57
g58
NtRp4288
(dp4289
g61
(dp4290
g69
I1
ssg70
g4284
sg63
(lp4291
g3935
(S's\x08\x00\x00\x00DB Model'
tRp4292
asbasbasbag56
(g72
g58
NtRp4293
(dp4294
g61
(dp4295
sg70
g4276
sg63
(lp4296
g56
(g77
g58
NtRp4297
(dp4298
g61
(dp4299
sg70
g4293
sg63
(lp4300
g56
(g57
g58
NtRp4301
(dp4302
g61
(dp4303
g69
I1
ssg70
g4297
sg63
(lp4304
I00
asbasbasbag56
(g72
g58
NtRp4305
(dp4306
g61
(dp4307
sg70
g4276
sg63
(lp4308
g56
(g77
g58
NtRp4309
(dp4310
g61
(dp4311
sg70
g4305
sg63
(lp4312
g56
(g57
g58
NtRp4313
(dp4314
g61
(dp4315
g69
I1
ssg70
g4309
sg63
(lp4316
S'/admin/default/edit/topoi/models/db.py'
p4317
asbasbasbasbasbasbasbag56
(g72
g58
NtRp4318
(dp4319
g61
(dp4320
sg70
g4044
sg63
(lp4321
g56
(g77
g58
NtRp4322
(dp4323
g61
(dp4324
sg70
g4318
sg63
(lp4325
g56
(g57
g58
NtRp4326
(dp4327
g61
(dp4328
g69
I2
ssg70
g4322
sg63
(lp4329
g56
(g65
g58
NtRp4330
(dp4331
g61
(dp4332
g69
I1
ssg70
Nsg63
(lp4333
g56
(g72
g58
NtRp4334
(dp4335
g61
(dp4336
sg70
g4330
sg63
(lp4337
g56
(g77
g58
NtRp4338
(dp4339
g61
(dp4340
sg70
g4334
sg63
(lp4341
g56
(g57
g58
NtRp4342
(dp4343
g61
(dp4344
g69
I1
ssg70
g4338
sg63
(lp4345
g3935
(S's\n\x00\x00\x00Menu Model'
tRp4346
asbasbasbag56
(g72
g58
NtRp4347
(dp4348
g61
(dp4349
sg70
g4330
sg63
(lp4350
g56
(g77
g58
NtRp4351
(dp4352
g61
(dp4353
sg70
g4347
sg63
(lp4354
g56
(g57
g58
NtRp4355
(dp4356
g61
(dp4357
g69
I1
ssg70
g4351
sg63
(lp4358
I00
asbasbasbag56
(g72
g58
NtRp4359
(dp4360
g61
(dp4361
sg70
g4330
sg63
(lp4362
g56
(g77
g58
NtRp4363
(dp4364
g61
(dp4365
sg70
g4359
sg63
(lp4366
g56
(g57
g58
NtRp4367
(dp4368
g61
(dp4369
g69
I1
ssg70
g4363
sg63
(lp4370
S'/admin/default/edit/topoi/models/menu.py'
p4371
asbasbasbasbasbasbasbag56
(g72
g58
NtRp4372
(dp4373
g61
(dp4374
sg70
g4044
sg63
(lp4375
g56
(g77
g58
NtRp4376
(dp4377
g61
(dp4378
sg70
g4372
sg63
(lp4379
g56
(g57
g58
NtRp4380
(dp4381
g61
(dp4382
g69
I2
ssg70
g4376
sg63
(lp4383
g56
(g65
g58
NtRp4384
(dp4385
g61
(dp4386
g69
I1
ssg70
Nsg63
(lp4387
g56
(g72
g58
NtRp4388
(dp4389
g61
(dp4390
sg70
g4384
sg63
(lp4391
g56
(g77
g58
NtRp4392
(dp4393
g61
(dp4394
sg70
g4388
sg63
(lp4395
g56
(g57
g58
NtRp4396
(dp4397
g61
(dp4398
g69
I1
ssg70
g4392
sg63
(lp4399
g3935
(S't\x08\x00\x00\x00Database'
tRp4400
asbasbasbag56
(g72
g58
NtRp4401
(dp4402
g61
(dp4403
sg70
g4384
sg63
(lp4404
g56
(g77
g58
NtRp4405
(dp4406
g61
(dp4407
sg70
g4401
sg63
(lp4408
g56
(g57
g58
NtRp4409
(dp4410
g61
(dp4411
g69
I1
ssg70
g4405
sg63
(lp4412
I00
asbasbasbag56
(g72
g58
NtRp4413
(dp4414
g61
(dp4415
sg70
g4384
sg63
(lp4416
g56
(g77
g58
NtRp4417
(dp4418
g61
(dp4419
sg70
g4413
sg63
(lp4420
g56
(g57
g58
NtRp4421
(dp4422
g61
(dp4423
g69
I1
ssg70
g4417
sg63
(lp4424
S'/topoi/appadmin/index.load'
p4425
asbasbasbasbasbasbasbag56
(g72
g58
NtRp4426
(dp4427
g61
(dp4428
sg70
g4044
sg63
(lp4429
g56
(g77
g58
NtRp4430
(dp4431
g61
(dp4432
sg70
g4426
sg63
(lp4433
g56
(g57
g58
NtRp4434
(dp4435
g61
(dp4436
g69
I2
ssg70
g4430
sg63
(lp4437
g56
(g65
g58
NtRp4438
(dp4439
g61
(dp4440
g69
I1
ssg70
Nsg63
(lp4441
g56
(g72
g58
NtRp4442
(dp4443
g61
(dp4444
sg70
g4438
sg63
(lp4445
g56
(g77
g58
NtRp4446
(dp4447
g61
(dp4448
sg70
g4442
sg63
(lp4449
g56
(g57
g58
NtRp4450
(dp4451
g61
(dp4452
g69
I1
ssg70
g4446
sg63
(lp4453
g3935
(S't\x06\x00\x00\x00Errors'
tRp4454
asbasbasbag56
(g72
g58
NtRp4455
(dp4456
g61
(dp4457
sg70
g4438
sg63
(lp4458
g56
(g77
g58
NtRp4459
(dp4460
g61
(dp4461
sg70
g4455
sg63
(lp4462
g56
(g57
g58
NtRp4463
(dp4464
g61
(dp4465
g69
I1
ssg70
g4459
sg63
(lp4466
I00
asbasbasbag56
(g72
g58
NtRp4467
(dp4468
g61
(dp4469
sg70
g4438
sg63
(lp4470
g56
(g77
g58
NtRp4471
(dp4472
g61
(dp4473
sg70
g4467
sg63
(lp4474
g56
(g57
g58
NtRp4475
(dp4476
g61
(dp4477
g69
I1
ssg70
g4471
sg63
(lp4478
S'/admin/default/errors/topoi.load'
p4479
asbasbasbasbasbasbasbag56
(g72
g58
NtRp4480
(dp4481
g61
(dp4482
sg70
g4044
sg63
(lp4483
g56
(g77
g58
NtRp4484
(dp4485
g61
(dp4486
sg70
g4480
sg63
(lp4487
g56
(g57
g58
NtRp4488
(dp4489
g61
(dp4490
g69
I2
ssg70
g4484
sg63
(lp4491
g56
(g65
g58
NtRp4492
(dp4493
g61
(dp4494
g69
I1
ssg70
Nsg63
(lp4495
g56
(g72
g58
NtRp4496
(dp4497
g61
(dp4498
sg70
g4492
sg63
(lp4499
g56
(g77
g58
NtRp4500
(dp4501
g61
(dp4502
sg70
g4496
sg63
(lp4503
g56
(g57
g58
NtRp4504
(dp4505
g61
(dp4506
g69
I1
ssg70
g4500
sg63
(lp4507
g3935
(S't\x05\x00\x00\x00About'
tRp4508
asbasbasbag56
(g72
g58
NtRp4509
(dp4510
g61
(dp4511
sg70
g4492
sg63
(lp4512
g56
(g77
g58
NtRp4513
(dp4514
g61
(dp4515
sg70
g4509
sg63
(lp4516
g56
(g57
g58
NtRp4517
(dp4518
g61
(dp4519
g69
I1
ssg70
g4513
sg63
(lp4520
I00
asbasbasbag56
(g72
g58
NtRp4521
(dp4522
g61
(dp4523
sg70
g4492
sg63
(lp4524
g56
(g77
g58
NtRp4525
(dp4526
g61
(dp4527
sg70
g4521
sg63
(lp4528
g56
(g57
g58
NtRp4529
(dp4530
g61
(dp4531
g69
I1
ssg70
g4525
sg63
(lp4532
S'/admin/default/about/topoi.load'
p4533
asbasbasbasbasbasbasbasbasbasbasbasbasbasbasbasbasbasbasbag56
(g72
g58
NtRp4534
(dp4535
g61
(dp4536
sg70
g3429
sg63
(lp4537
g56
(g77
g58
NtRp4538
(dp4539
g61
(dp4540
g81
g82
ssg70
g4534
sg63
(lp4541
S'meta'
p4542
asbag56
(g77
g58
NtRp4543
(dp4544
g61
(dp4545
g88
g89
ssg70
g4534
sg63
(lp4546
S':'
asbag56
(g77
g58
NtRp4547
(dp4548
g61
(dp4549
sg70
g4534
sg63
(lp4550
g56
(g57
g58
NtRp4551
(dp4552
g61
(dp4553
g69
I5
ssg70
g4547
sg63
(lp4554
g56
(g65
g58
NtRp4555
(dp4556
g61
(dp4557
g69
I4
ssg70
Nsg63
(lp4558
g56
(g72
g58
NtRp4559
(dp4560
g61
(dp4561
sg70
g4555
sg63
(lp4562
g56
(g77
g58
NtRp4563
(dp4564
g61
(dp4565
g81
g82
ssg70
g4559
sg63
(lp4566
S'author'
p4567
asbag56
(g77
g58
NtRp4568
(dp4569
g61
(dp4570
g88
g89
ssg70
g4559
sg63
(lp4571
S':'
asbag56
(g77
g58
NtRp4572
(dp4573
g61
(dp4574
sg70
g4559
sg63
(lp4575
g56
(g57
g58
NtRp4576
(dp4577
g61
(dp4578
g69
I4
ssg70
g4572
sg63
(lp4579
S'Ian W. Scott'
p4580
asbasbasbag56
(g72
g58
NtRp4581
(dp4582
g61
(dp4583
sg70
g4555
sg63
(lp4584
g56
(g77
g58
NtRp4585
(dp4586
g61
(dp4587
g81
g82
ssg70
g4581
sg63
(lp4588
S'copyright'
p4589
asbag56
(g77
g58
NtRp4590
(dp4591
g61
(dp4592
g88
g89
ssg70
g4581
sg63
(lp4593
S':'
asbag56
(g77
g58
NtRp4594
(dp4595
g61
(dp4596
sg70
g4581
sg63
(lp4597
g56
(g57
g58
NtRp4598
(dp4599
g61
(dp4600
g69
I4
ssg70
g4594
sg63
(lp4601
S'Copyright 2011'
p4602
asbasbasbag56
(g72
g58
NtRp4603
(dp4604
g61
(dp4605
sg70
g4555
sg63
(lp4606
g56
(g77
g58
NtRp4607
(dp4608
g61
(dp4609
g81
g82
ssg70
g4603
sg63
(lp4610
S'description'
p4611
asbag56
(g77
g58
NtRp4612
(dp4613
g61
(dp4614
g88
g89
ssg70
g4603
sg63
(lp4615
S':'
asbag56
(g77
g58
NtRp4616
(dp4617
g61
(dp4618
sg70
g4603
sg63
(lp4619
g56
(g57
g58
NtRp4620
(dp4621
g61
(dp4622
g69
I4
ssg70
g4616
sg63
(lp4623
S'A web-app for managing primary-text research in the humanities.'
p4624
asbasbasbag56
(g72
g58
NtRp4625
(dp4626
g61
(dp4627
sg70
g4555
sg63
(lp4628
g56
(g77
g58
NtRp4629
(dp4630
g61
(dp4631
g81
g82
ssg70
g4625
sg63
(lp4632
S'generator'
p4633
asbag56
(g77
g58
NtRp4634
(dp4635
g61
(dp4636
g88
g89
ssg70
g4625
sg63
(lp4637
S':'
asbag56
(g77
g58
NtRp4638
(dp4639
g61
(dp4640
sg70
g4625
sg63
(lp4641
g56
(g57
g58
NtRp4642
(dp4643
g61
(dp4644
g69
I4
ssg70
g4638
sg63
(lp4645
S'Web2py Enterprise Framework'
p4646
asbasbasbag56
(g72
g58
NtRp4647
(dp4648
g61
(dp4649
sg70
g4555
sg63
(lp4650
g56
(g77
g58
NtRp4651
(dp4652
g61
(dp4653
g81
g82
ssg70
g4647
sg63
(lp4654
S'keywords'
p4655
asbag56
(g77
g58
NtRp4656
(dp4657
g61
(dp4658
g88
g89
ssg70
g4647
sg63
(lp4659
S':'
asbag56
(g77
g58
NtRp4660
(dp4661
g61
(dp4662
sg70
g4647
sg63
(lp4663
g56
(g57
g58
NtRp4664
(dp4665
g61
(dp4666
g69
I4
ssg70
g4660
sg63
(lp4667
S'research, humanities, biblical'
p4668
asbasbasbasbasbasbasbag56
(g72
g58
NtRp4669
(dp4670
g61
(dp4671
sg70
g3429
sg63
(lp4672
g56
(g77
g58
NtRp4673
(dp4674
g61
(dp4675
g81
g82
ssg70
g4669
sg63
(lp4676
S'postprocessing'
p4677
asbag56
(g77
g58
NtRp4678
(dp4679
g61
(dp4680
g88
g89
ssg70
g4669
sg63
(lp4681
S':'
asbag56
(g77
g58
NtRp4682
(dp4683
g61
(dp4684
sg70
g4669
sg63
(lp4685
g56
(g57
g58
NtRp4686
(dp4687
g61
(dp4688
g69
I5
ssg70
g4682
sg63
(lp4689
g56
(g65
g58
NtRp4690
(dp4691
g61
(dp4692
g69
I4
ssg70
Nsg63
(lp4693
sbasbasbasbag56
(g72
g58
NtRp4694
(dp4695
g61
(dp4696
sg70
g3429
sg63
(lp4697
g56
(g77
g58
NtRp4698
(dp4699
g61
(dp4700
g81
g82
ssg70
g4694
sg63
(lp4701
S'session_file'
p4702
asbag56
(g77
g58
NtRp4703
(dp4704
g61
(dp4705
g88
g89
ssg70
g4694
sg63
(lp4706
S':'
asbag56
(g77
g58
NtRp4707
(dp4708
g61
(dp4709
sg70
g4694
sg63
(lp4710
g56
(g57
g58
NtRp4711
(dp4712
g61
(dp4713
g69
I5
ssg70
g4707
sg63
(lp4714
S"<open file '/home/ian/web2py/applications/topoi/sessions/127.0.0.1-fbfd7fa3-57f5-4d42-8f08-594178070e93', mode 'rb+' at 0x3659a50>"
p4715
asbasbasbag56
(g72
g58
NtRp4716
(dp4717
g61
(dp4718
sg70
g3429
sg63
(lp4719
g56
(g77
g58
NtRp4720
(dp4721
g61
(dp4722
g81
g82
ssg70
g4716
sg63
(lp4723
S'session_filename'
p4724
asbag56
(g77
g58
NtRp4725
(dp4726
g61
(dp4727
g88
g89
ssg70
g4716
sg63
(lp4728
S':'
asbag56
(g77
g58
NtRp4729
(dp4730
g61
(dp4731
sg70
g4716
sg63
(lp4732
g56
(g57
g58
NtRp4733
(dp4734
g61
(dp4735
g69
I5
ssg70
g4729
sg63
(lp4736
S'/home/ian/web2py/applications/topoi/sessions/127.0.0.1-fbfd7fa3-57f5-4d42-8f08-594178070e93'
p4737
asbasbasbag56
(g72
g58
NtRp4738
(dp4739
g61
(dp4740
sg70
g3429
sg63
(lp4741
g56
(g77
g58
NtRp4742
(dp4743
g61
(dp4744
g81
g82
ssg70
g4738
sg63
(lp4745
S'session_id'
p4746
asbag56
(g77
g58
NtRp4747
(dp4748
g61
(dp4749
g88
g89
ssg70
g4738
sg63
(lp4750
S':'
asbag56
(g77
g58
NtRp4751
(dp4752
g61
(dp4753
sg70
g4738
sg63
(lp4754
g56
(g57
g58
NtRp4755
(dp4756
g61
(dp4757
g69
I5
ssg70
g4751
sg63
(lp4758
S'127.0.0.1-fbfd7fa3-57f5-4d42-8f08-594178070e93'
p4759
asbasbasbag56
(g72
g58
NtRp4760
(dp4761
g61
(dp4762
sg70
g3429
sg63
(lp4763
g56
(g77
g58
NtRp4764
(dp4765
g61
(dp4766
g81
g82
ssg70
g4760
sg63
(lp4767
S'session_id_name'
p4768
asbag56
(g77
g58
NtRp4769
(dp4770
g61
(dp4771
g88
g89
ssg70
g4760
sg63
(lp4772
S':'
asbag56
(g77
g58
NtRp4773
(dp4774
g61
(dp4775
sg70
g4760
sg63
(lp4776
g56
(g57
g58
NtRp4777
(dp4778
g61
(dp4779
g69
I5
ssg70
g4773
sg63
(lp4780
g3486
asbasbasbag56
(g72
g58
NtRp4781
(dp4782
g61
(dp4783
sg70
g3429
sg63
(lp4784
g56
(g77
g58
NtRp4785
(dp4786
g61
(dp4787
g81
g82
ssg70
g4781
sg63
(lp4788
S'session_locked'
p4789
asbag56
(g77
g58
NtRp4790
(dp4791
g61
(dp4792
g88
g89
ssg70
g4781
sg63
(lp4793
S':'
asbag56
(g77
g58
NtRp4794
(dp4795
g61
(dp4796
sg70
g4781
sg63
(lp4797
g56
(g57
g58
NtRp4798
(dp4799
g61
(dp4800
g69
I5
ssg70
g4794
sg63
(lp4801
g99
asbasbasbag56
(g72
g58
NtRp4802
(dp4803
g61
(dp4804
sg70
g3429
sg63
(lp4805
g56
(g77
g58
NtRp4806
(dp4807
g61
(dp4808
g81
g82
ssg70
g4802
sg63
(lp4809
S'session_new'
p4810
asbag56
(g77
g58
NtRp4811
(dp4812
g61
(dp4813
g88
g89
ssg70
g4802
sg63
(lp4814
S':'
asbag56
(g77
g58
NtRp4815
(dp4816
g61
(dp4817
sg70
g4802
sg63
(lp4818
g56
(g57
g58
NtRp4819
(dp4820
g61
(dp4821
g69
I5
ssg70
g4815
sg63
(lp4822
g808
asbasbasbag56
(g72
g58
NtRp4823
(dp4824
g61
(dp4825
sg70
g3429
sg63
(lp4826
g56
(g77
g58
NtRp4827
(dp4828
g61
(dp4829
g81
g82
ssg70
g4823
sg63
(lp4830
S'status'
p4831
asbag56
(g77
g58
NtRp4832
(dp4833
g61
(dp4834
g88
g89
ssg70
g4823
sg63
(lp4835
S':'
asbag56
(g77
g58
NtRp4836
(dp4837
g61
(dp4838
sg70
g4823
sg63
(lp4839
g56
(g57
g58
NtRp4840
(dp4841
g61
(dp4842
g69
I5
ssg70
g4836
sg63
(lp4843
S'200'
p4844
asbasbasbag56
(g72
g58
NtRp4845
(dp4846
g61
(dp4847
sg70
g3429
sg63
(lp4848
g56
(g77
g58
NtRp4849
(dp4850
g61
(dp4851
g81
g82
ssg70
g4845
sg63
(lp4852
S'subtitle'
p4853
asbag56
(g77
g58
NtRp4854
(dp4855
g61
(dp4856
g88
g89
ssg70
g4845
sg63
(lp4857
S':'
asbag56
(g77
g58
NtRp4858
(dp4859
g61
(dp4860
sg70
g4845
sg63
(lp4861
g56
(g57
g58
NtRp4862
(dp4863
g61
(dp4864
g69
I5
ssg70
g4858
sg63
(lp4865
g3935
(S's;\x00\x00\x00A tool for managing primary-text research in the humanities'
tRp4866
asbasbasbag56
(g72
g58
NtRp4867
(dp4868
g61
(dp4869
sg70
g3429
sg63
(lp4870
g56
(g77
g58
NtRp4871
(dp4872
g61
(dp4873
g81
g82
ssg70
g4867
sg63
(lp4874
S'title'
p4875
asbag56
(g77
g58
NtRp4876
(dp4877
g61
(dp4878
g88
g89
ssg70
g4867
sg63
(lp4879
S':'
asbag56
(g77
g58
NtRp4880
(dp4881
g61
(dp4882
sg70
g4867
sg63
(lp4883
g56
(g57
g58
NtRp4884
(dp4885
g61
(dp4886
g69
I5
ssg70
g4880
sg63
(lp4887
g121
asbasbasbag56
(g72
g58
NtRp4888
(dp4889
g61
(dp4890
sg70
g3429
sg63
(lp4891
g56
(g77
g58
NtRp4892
(dp4893
g61
(dp4894
g81
g82
ssg70
g4888
sg63
(lp4895
g2278
asbag56
(g77
g58
NtRp4896
(dp4897
g61
(dp4898
g88
g89
ssg70
g4888
sg63
(lp4899
S':'
asbag56
(g77
g58
NtRp4900
(dp4901
g61
(dp4902
sg70
g4888
sg63
(lp4903
g56
(g57
g58
NtRp4904
(dp4905
g61
(dp4906
g69
I5
ssg70
g4900
sg63
(lp4907
g2291
asbasbasbag56
(g72
g58
NtRp4908
(dp4909
g61
(dp4910
sg70
g3429
sg63
(lp4911
g56
(g77
g58
NtRp4912
(dp4913
g61
(dp4914
g81
g82
ssg70
g4908
sg63
(lp4915
S'view'
p4916
asbag56
(g77
g58
NtRp4917
(dp4918
g61
(dp4919
g88
g89
ssg70
g4908
sg63
(lp4920
S':'
asbag56
(g77
g58
NtRp4921
(dp4922
g61
(dp4923
sg70
g4908
sg63
(lp4924
g56
(g57
g58
NtRp4925
(dp4926
g61
(dp4927
g69
I5
ssg70
g4921
sg63
(lp4928
S'plugin_listandedit/edit.load'
p4929
asbasbasbasbasbsS'locals'
p4930
(dp4931
S'tablename'
p4932
S"'1'"
p4933
sssS'traceback'
p4934
S'Traceback (most recent call last):\n  File "/home/ian/web2py/gluon/restricted.py", line 194, in restricted\n    exec ccode in environment\n  File "/home/ian/web2py/applications/topoi/controllers/plugin_listandedit.py", line 47, in <module>\n  File "/home/ian/web2py/gluon/globals.py", line 149, in <lambda>\n    self._caller = lambda f: f()\n  File "/home/ian/web2py/applications/topoi/controllers/plugin_listandedit.py", line 34, in edit\n    rowid = request.args[1]\nIndexError: list index out of range\n'
p4935
s.