(dp1
S'output'
p2
S''
sS'layer'
p3
S'Framework'
p4
sS'code'
p5
S''
sS'snapshot'
p6
(dp7
S'exception'
p8
(dp9
S'__hash__'
p10
S"<method-wrapper '__hash__' of exceptions.AttributeError object>"
p11
sS'__setattr__'
p12
S"<method-wrapper '__setattr__' of exceptions.AttributeError object>"
p13
sS'__reduce_ex__'
p14
S'<built-in method __reduce_ex__ of exceptions.AttributeError object>'
p15
sS'__getslice__'
p16
S"<method-wrapper '__getslice__' of exceptions.AttributeError object>"
p17
sS'__getitem__'
p18
S"<method-wrapper '__getitem__' of exceptions.AttributeError object>"
p19
sS'__setstate__'
p20
S'<built-in method __setstate__ of exceptions.AttributeError object>'
p21
sS'args'
p22
S'("\'tuple\' object has no attribute \'replace\'",)'
p23
sS'__reduce__'
p24
S'<built-in method __reduce__ of exceptions.AttributeError object>'
p25
sS'__str__'
p26
S"<method-wrapper '__str__' of exceptions.AttributeError object>"
p27
sS'__format__'
p28
S'<built-in method __format__ of exceptions.AttributeError object>'
p29
sS'__getattribute__'
p30
S"<method-wrapper '__getattribute__' of exceptions.AttributeError object>"
p31
sS'__class__'
p32
S"<type 'exceptions.AttributeError'>"
p33
sS'__unicode__'
p34
S'<built-in method __unicode__ of exceptions.AttributeError object>'
p35
sS'__delattr__'
p36
S"<method-wrapper '__delattr__' of exceptions.AttributeError object>"
p37
sS'__subclasshook__'
p38
S'<built-in method __subclasshook__ of type object>'
p39
sS'__repr__'
p40
S"<method-wrapper '__repr__' of exceptions.AttributeError object>"
p41
sS'__dict__'
p42
S'{}'
p43
sS'__sizeof__'
p44
S'<built-in method __sizeof__ of exceptions.AttributeError object>'
p45
sS'__doc__'
p46
S"'Attribute not found.'"
p47
sS'__init__'
p48
S"<method-wrapper '__init__' of exceptions.AttributeError object>"
p49
sS'__new__'
p50
S'<built-in method __new__ of type object>'
p51
ssS'evalue'
p52
S"'tuple' object has no attribute 'replace'"
p53
sS'request'
p54
ccopy_reg
_reconstructor
p55
(cgluon.html
BEAUTIFY
p56
c__builtin__
object
p57
NtRp58
(dp59
S'attributes'
p60
(dp61
sS'components'
p62
(lp63
g55
(cgluon.html
TABLE
p64
g57
NtRp65
(dp66
g60
(dp67
S'level'
p68
I5
ssS'parent'
p69
Nsg62
(lp70
g55
(cgluon.html
TR
p71
g57
NtRp72
(dp73
g60
(dp74
sg69
g65
sg62
(lp75
g55
(cgluon.html
TD
p76
g57
NtRp77
(dp78
g60
(dp79
S'_style'
p80
S'font-weight:bold;vertical-align:top'
p81
ssg69
g72
sg62
(lp82
S'ajax'
p83
asbag55
(g76
g57
NtRp84
(dp85
g60
(dp86
S'_valign'
p87
S'top'
p88
ssg69
g72
sg62
(lp89
S':'
asbag55
(g76
g57
NtRp90
(dp91
g60
(dp92
sg69
g72
sg62
(lp93
g55
(g56
g57
NtRp94
(dp95
g60
(dp96
g68
I5
ssg69
g90
sg62
(lp97
S'True'
p98
asbasbasbag55
(g71
g57
NtRp99
(dp100
g60
(dp101
sg69
g65
sg62
(lp102
g55
(g76
g57
NtRp103
(dp104
g60
(dp105
g80
g81
ssg69
g99
sg62
(lp106
S'application'
p107
asbag55
(g76
g57
NtRp108
(dp109
g60
(dp110
g87
g88
ssg69
g99
sg62
(lp111
S':'
asbag55
(g76
g57
NtRp112
(dp113
g60
(dp114
sg69
g99
sg62
(lp115
g55
(g56
g57
NtRp116
(dp117
g60
(dp118
g68
I5
ssg69
g112
sg62
(lp119
S'topoi'
p120
asbasbasbag55
(g71
g57
NtRp121
(dp122
g60
(dp123
sg69
g65
sg62
(lp124
g55
(g76
g57
NtRp125
(dp126
g60
(dp127
g80
g81
ssg69
g121
sg62
(lp128
g22
asbag55
(g76
g57
NtRp129
(dp130
g60
(dp131
g87
g88
ssg69
g121
sg62
(lp132
S':'
asbag55
(g76
g57
NtRp133
(dp134
g60
(dp135
sg69
g121
sg62
(lp136
g55
(g56
g57
NtRp137
(dp138
g60
(dp139
g68
I5
ssg69
g133
sg62
(lp140
g55
(g64
g57
NtRp141
(dp142
g60
(dp143
g68
I4
ssg69
Nsg62
(lp144
g55
(g71
g57
NtRp145
(dp146
g60
(dp147
sg69
g141
sg62
(lp148
g55
(g76
g57
NtRp149
(dp150
g60
(dp151
sg69
g145
sg62
(lp152
g55
(g56
g57
NtRp153
(dp154
g60
(dp155
g68
I4
ssg69
g149
sg62
(lp156
S'notes'
p157
asbasbasbasbasbasbasbag55
(g71
g57
NtRp158
(dp159
g60
(dp160
sg69
g65
sg62
(lp161
g55
(g76
g57
NtRp162
(dp163
g60
(dp164
g80
g81
ssg69
g158
sg62
(lp165
S'body'
p166
asbag55
(g76
g57
NtRp167
(dp168
g60
(dp169
g87
g88
ssg69
g158
sg62
(lp170
S':'
asbag55
(g76
g57
NtRp171
(dp172
g60
(dp173
sg69
g158
sg62
(lp174
g55
(g56
g57
NtRp175
(dp176
g60
(dp177
g68
I5
ssg69
g171
sg62
(lp178
S"<closed file '<fdopen>', mode 'w+b' at 0x46cf270>"
p179
asbasbasbag55
(g71
g57
NtRp180
(dp181
g60
(dp182
sg69
g65
sg62
(lp183
g55
(g76
g57
NtRp184
(dp185
g60
(dp186
g80
g81
ssg69
g180
sg62
(lp187
S'cid'
p188
asbag55
(g76
g57
NtRp189
(dp190
g60
(dp191
g87
g88
ssg69
g180
sg62
(lp192
S':'
asbag55
(g76
g57
NtRp193
(dp194
g60
(dp195
sg69
g180
sg62
(lp196
g55
(g56
g57
NtRp197
(dp198
g60
(dp199
g68
I5
ssg69
g193
sg62
(lp200
S'viewpane'
p201
asbasbasbag55
(g71
g57
NtRp202
(dp203
g60
(dp204
sg69
g65
sg62
(lp205
g55
(g76
g57
NtRp206
(dp207
g60
(dp208
g80
g81
ssg69
g202
sg62
(lp209
S'client'
p210
asbag55
(g76
g57
NtRp211
(dp212
g60
(dp213
g87
g88
ssg69
g202
sg62
(lp214
S':'
asbag55
(g76
g57
NtRp215
(dp216
g60
(dp217
sg69
g202
sg62
(lp218
g55
(g56
g57
NtRp219
(dp220
g60
(dp221
g68
I5
ssg69
g215
sg62
(lp222
S'127.0.0.1'
p223
asbasbasbag55
(g71
g57
NtRp224
(dp225
g60
(dp226
sg69
g65
sg62
(lp227
g55
(g76
g57
NtRp228
(dp229
g60
(dp230
g80
g81
ssg69
g224
sg62
(lp231
S'controller'
p232
asbag55
(g76
g57
NtRp233
(dp234
g60
(dp235
g87
g88
ssg69
g224
sg62
(lp236
S':'
asbag55
(g76
g57
NtRp237
(dp238
g60
(dp239
sg69
g224
sg62
(lp240
g55
(g56
g57
NtRp241
(dp242
g60
(dp243
g68
I5
ssg69
g237
sg62
(lp244
S'plugin_listandedit'
p245
asbasbasbag55
(g71
g57
NtRp246
(dp247
g60
(dp248
sg69
g65
sg62
(lp249
g55
(g76
g57
NtRp250
(dp251
g60
(dp252
g80
g81
ssg69
g246
sg62
(lp253
S'cookies'
p254
asbag55
(g76
g57
NtRp255
(dp256
g60
(dp257
g87
g88
ssg69
g246
sg62
(lp258
S':'
asbag55
(g76
g57
NtRp259
(dp260
g60
(dp261
sg69
g246
sg62
(lp262
g55
(g56
g57
NtRp263
(dp264
g60
(dp265
g68
I5
ssg69
g259
sg62
(lp266
g55
(g64
g57
NtRp267
(dp268
g60
(dp269
g68
I4
ssg69
Nsg62
(lp270
g55
(g71
g57
NtRp271
(dp272
g60
(dp273
sg69
g267
sg62
(lp274
g55
(g76
g57
NtRp275
(dp276
g60
(dp277
g80
g81
ssg69
g271
sg62
(lp278
S'session_id_admin'
p279
asbag55
(g76
g57
NtRp280
(dp281
g60
(dp282
g87
g88
ssg69
g271
sg62
(lp283
S':'
asbag55
(g76
g57
NtRp284
(dp285
g60
(dp286
sg69
g271
sg62
(lp287
g55
(g56
g57
NtRp288
(dp289
g60
(dp290
g68
I4
ssg69
g284
sg62
(lp291
g55
(g64
g57
NtRp292
(dp293
g60
(dp294
g68
I3
ssg69
Nsg62
(lp295
g55
(g71
g57
NtRp296
(dp297
g60
(dp298
sg69
g292
sg62
(lp299
g55
(g76
g57
NtRp300
(dp301
g60
(dp302
g80
g81
ssg69
g296
sg62
(lp303
S'comment'
p304
asbag55
(g76
g57
NtRp305
(dp306
g60
(dp307
g87
g88
ssg69
g296
sg62
(lp308
S':'
asbag55
(g76
g57
NtRp309
(dp310
g60
(dp311
sg69
g296
sg62
(lp312
g55
(g56
g57
NtRp313
(dp314
g60
(dp315
g68
I3
ssg69
g309
sg62
(lp316
S''
asbasbasbag55
(g71
g57
NtRp317
(dp318
g60
(dp319
sg69
g292
sg62
(lp320
g55
(g76
g57
NtRp321
(dp322
g60
(dp323
g80
g81
ssg69
g317
sg62
(lp324
S'domain'
p325
asbag55
(g76
g57
NtRp326
(dp327
g60
(dp328
g87
g88
ssg69
g317
sg62
(lp329
S':'
asbag55
(g76
g57
NtRp330
(dp331
g60
(dp332
sg69
g317
sg62
(lp333
g55
(g56
g57
NtRp334
(dp335
g60
(dp336
g68
I3
ssg69
g330
sg62
(lp337
S''
asbasbasbag55
(g71
g57
NtRp338
(dp339
g60
(dp340
sg69
g292
sg62
(lp341
g55
(g76
g57
NtRp342
(dp343
g60
(dp344
g80
g81
ssg69
g338
sg62
(lp345
S'expires'
p346
asbag55
(g76
g57
NtRp347
(dp348
g60
(dp349
g87
g88
ssg69
g338
sg62
(lp350
S':'
asbag55
(g76
g57
NtRp351
(dp352
g60
(dp353
sg69
g338
sg62
(lp354
g55
(g56
g57
NtRp355
(dp356
g60
(dp357
g68
I3
ssg69
g351
sg62
(lp358
S''
asbasbasbag55
(g71
g57
NtRp359
(dp360
g60
(dp361
sg69
g292
sg62
(lp362
g55
(g76
g57
NtRp363
(dp364
g60
(dp365
g80
g81
ssg69
g359
sg62
(lp366
S'httponly'
p367
asbag55
(g76
g57
NtRp368
(dp369
g60
(dp370
g87
g88
ssg69
g359
sg62
(lp371
S':'
asbag55
(g76
g57
NtRp372
(dp373
g60
(dp374
sg69
g359
sg62
(lp375
g55
(g56
g57
NtRp376
(dp377
g60
(dp378
g68
I3
ssg69
g372
sg62
(lp379
S''
asbasbasbag55
(g71
g57
NtRp380
(dp381
g60
(dp382
sg69
g292
sg62
(lp383
g55
(g76
g57
NtRp384
(dp385
g60
(dp386
g80
g81
ssg69
g380
sg62
(lp387
S'max-age'
p388
asbag55
(g76
g57
NtRp389
(dp390
g60
(dp391
g87
g88
ssg69
g380
sg62
(lp392
S':'
asbag55
(g76
g57
NtRp393
(dp394
g60
(dp395
sg69
g380
sg62
(lp396
g55
(g56
g57
NtRp397
(dp398
g60
(dp399
g68
I3
ssg69
g393
sg62
(lp400
S''
asbasbasbag55
(g71
g57
NtRp401
(dp402
g60
(dp403
sg69
g292
sg62
(lp404
g55
(g76
g57
NtRp405
(dp406
g60
(dp407
g80
g81
ssg69
g401
sg62
(lp408
S'path'
p409
asbag55
(g76
g57
NtRp410
(dp411
g60
(dp412
g87
g88
ssg69
g401
sg62
(lp413
S':'
asbag55
(g76
g57
NtRp414
(dp415
g60
(dp416
sg69
g401
sg62
(lp417
g55
(g56
g57
NtRp418
(dp419
g60
(dp420
g68
I3
ssg69
g414
sg62
(lp421
S''
asbasbasbag55
(g71
g57
NtRp422
(dp423
g60
(dp424
sg69
g292
sg62
(lp425
g55
(g76
g57
NtRp426
(dp427
g60
(dp428
g80
g81
ssg69
g422
sg62
(lp429
S'secure'
p430
asbag55
(g76
g57
NtRp431
(dp432
g60
(dp433
g87
g88
ssg69
g422
sg62
(lp434
S':'
asbag55
(g76
g57
NtRp435
(dp436
g60
(dp437
sg69
g422
sg62
(lp438
g55
(g56
g57
NtRp439
(dp440
g60
(dp441
g68
I3
ssg69
g435
sg62
(lp442
S''
asbasbasbag55
(g71
g57
NtRp443
(dp444
g60
(dp445
sg69
g292
sg62
(lp446
g55
(g76
g57
NtRp447
(dp448
g60
(dp449
g80
g81
ssg69
g443
sg62
(lp450
S'version'
p451
asbag55
(g76
g57
NtRp452
(dp453
g60
(dp454
g87
g88
ssg69
g443
sg62
(lp455
S':'
asbag55
(g76
g57
NtRp456
(dp457
g60
(dp458
sg69
g443
sg62
(lp459
g55
(g56
g57
NtRp460
(dp461
g60
(dp462
g68
I3
ssg69
g456
sg62
(lp463
S''
asbasbasbasbasbasbasbag55
(g71
g57
NtRp464
(dp465
g60
(dp466
sg69
g267
sg62
(lp467
g55
(g76
g57
NtRp468
(dp469
g60
(dp470
g80
g81
ssg69
g464
sg62
(lp471
S'session_id_grades'
p472
asbag55
(g76
g57
NtRp473
(dp474
g60
(dp475
g87
g88
ssg69
g464
sg62
(lp476
S':'
asbag55
(g76
g57
NtRp477
(dp478
g60
(dp479
sg69
g464
sg62
(lp480
g55
(g56
g57
NtRp481
(dp482
g60
(dp483
g68
I4
ssg69
g477
sg62
(lp484
g55
(g64
g57
NtRp485
(dp486
g60
(dp487
g68
I3
ssg69
Nsg62
(lp488
g55
(g71
g57
NtRp489
(dp490
g60
(dp491
sg69
g485
sg62
(lp492
g55
(g76
g57
NtRp493
(dp494
g60
(dp495
g80
g81
ssg69
g489
sg62
(lp496
g304
asbag55
(g76
g57
NtRp497
(dp498
g60
(dp499
g87
g88
ssg69
g489
sg62
(lp500
S':'
asbag55
(g76
g57
NtRp501
(dp502
g60
(dp503
sg69
g489
sg62
(lp504
g55
(g56
g57
NtRp505
(dp506
g60
(dp507
g68
I3
ssg69
g501
sg62
(lp508
S''
asbasbasbag55
(g71
g57
NtRp509
(dp510
g60
(dp511
sg69
g485
sg62
(lp512
g55
(g76
g57
NtRp513
(dp514
g60
(dp515
g80
g81
ssg69
g509
sg62
(lp516
g325
asbag55
(g76
g57
NtRp517
(dp518
g60
(dp519
g87
g88
ssg69
g509
sg62
(lp520
S':'
asbag55
(g76
g57
NtRp521
(dp522
g60
(dp523
sg69
g509
sg62
(lp524
g55
(g56
g57
NtRp525
(dp526
g60
(dp527
g68
I3
ssg69
g521
sg62
(lp528
S''
asbasbasbag55
(g71
g57
NtRp529
(dp530
g60
(dp531
sg69
g485
sg62
(lp532
g55
(g76
g57
NtRp533
(dp534
g60
(dp535
g80
g81
ssg69
g529
sg62
(lp536
g346
asbag55
(g76
g57
NtRp537
(dp538
g60
(dp539
g87
g88
ssg69
g529
sg62
(lp540
S':'
asbag55
(g76
g57
NtRp541
(dp542
g60
(dp543
sg69
g529
sg62
(lp544
g55
(g56
g57
NtRp545
(dp546
g60
(dp547
g68
I3
ssg69
g541
sg62
(lp548
S''
asbasbasbag55
(g71
g57
NtRp549
(dp550
g60
(dp551
sg69
g485
sg62
(lp552
g55
(g76
g57
NtRp553
(dp554
g60
(dp555
g80
g81
ssg69
g549
sg62
(lp556
g367
asbag55
(g76
g57
NtRp557
(dp558
g60
(dp559
g87
g88
ssg69
g549
sg62
(lp560
S':'
asbag55
(g76
g57
NtRp561
(dp562
g60
(dp563
sg69
g549
sg62
(lp564
g55
(g56
g57
NtRp565
(dp566
g60
(dp567
g68
I3
ssg69
g561
sg62
(lp568
S''
asbasbasbag55
(g71
g57
NtRp569
(dp570
g60
(dp571
sg69
g485
sg62
(lp572
g55
(g76
g57
NtRp573
(dp574
g60
(dp575
g80
g81
ssg69
g569
sg62
(lp576
g388
asbag55
(g76
g57
NtRp577
(dp578
g60
(dp579
g87
g88
ssg69
g569
sg62
(lp580
S':'
asbag55
(g76
g57
NtRp581
(dp582
g60
(dp583
sg69
g569
sg62
(lp584
g55
(g56
g57
NtRp585
(dp586
g60
(dp587
g68
I3
ssg69
g581
sg62
(lp588
S''
asbasbasbag55
(g71
g57
NtRp589
(dp590
g60
(dp591
sg69
g485
sg62
(lp592
g55
(g76
g57
NtRp593
(dp594
g60
(dp595
g80
g81
ssg69
g589
sg62
(lp596
g409
asbag55
(g76
g57
NtRp597
(dp598
g60
(dp599
g87
g88
ssg69
g589
sg62
(lp600
S':'
asbag55
(g76
g57
NtRp601
(dp602
g60
(dp603
sg69
g589
sg62
(lp604
g55
(g56
g57
NtRp605
(dp606
g60
(dp607
g68
I3
ssg69
g601
sg62
(lp608
S''
asbasbasbag55
(g71
g57
NtRp609
(dp610
g60
(dp611
sg69
g485
sg62
(lp612
g55
(g76
g57
NtRp613
(dp614
g60
(dp615
g80
g81
ssg69
g609
sg62
(lp616
g430
asbag55
(g76
g57
NtRp617
(dp618
g60
(dp619
g87
g88
ssg69
g609
sg62
(lp620
S':'
asbag55
(g76
g57
NtRp621
(dp622
g60
(dp623
sg69
g609
sg62
(lp624
g55
(g56
g57
NtRp625
(dp626
g60
(dp627
g68
I3
ssg69
g621
sg62
(lp628
S''
asbasbasbag55
(g71
g57
NtRp629
(dp630
g60
(dp631
sg69
g485
sg62
(lp632
g55
(g76
g57
NtRp633
(dp634
g60
(dp635
g80
g81
ssg69
g629
sg62
(lp636
g451
asbag55
(g76
g57
NtRp637
(dp638
g60
(dp639
g87
g88
ssg69
g629
sg62
(lp640
S':'
asbag55
(g76
g57
NtRp641
(dp642
g60
(dp643
sg69
g629
sg62
(lp644
g55
(g56
g57
NtRp645
(dp646
g60
(dp647
g68
I3
ssg69
g641
sg62
(lp648
S''
asbasbasbasbasbasbasbag55
(g71
g57
NtRp649
(dp650
g60
(dp651
sg69
g267
sg62
(lp652
g55
(g76
g57
NtRp653
(dp654
g60
(dp655
g80
g81
ssg69
g649
sg62
(lp656
S'session_id_paideia'
p657
asbag55
(g76
g57
NtRp658
(dp659
g60
(dp660
g87
g88
ssg69
g649
sg62
(lp661
S':'
asbag55
(g76
g57
NtRp662
(dp663
g60
(dp664
sg69
g649
sg62
(lp665
g55
(g56
g57
NtRp666
(dp667
g60
(dp668
g68
I4
ssg69
g662
sg62
(lp669
g55
(g64
g57
NtRp670
(dp671
g60
(dp672
g68
I3
ssg69
Nsg62
(lp673
g55
(g71
g57
NtRp674
(dp675
g60
(dp676
sg69
g670
sg62
(lp677
g55
(g76
g57
NtRp678
(dp679
g60
(dp680
g80
g81
ssg69
g674
sg62
(lp681
g304
asbag55
(g76
g57
NtRp682
(dp683
g60
(dp684
g87
g88
ssg69
g674
sg62
(lp685
S':'
asbag55
(g76
g57
NtRp686
(dp687
g60
(dp688
sg69
g674
sg62
(lp689
g55
(g56
g57
NtRp690
(dp691
g60
(dp692
g68
I3
ssg69
g686
sg62
(lp693
S''
asbasbasbag55
(g71
g57
NtRp694
(dp695
g60
(dp696
sg69
g670
sg62
(lp697
g55
(g76
g57
NtRp698
(dp699
g60
(dp700
g80
g81
ssg69
g694
sg62
(lp701
g325
asbag55
(g76
g57
NtRp702
(dp703
g60
(dp704
g87
g88
ssg69
g694
sg62
(lp705
S':'
asbag55
(g76
g57
NtRp706
(dp707
g60
(dp708
sg69
g694
sg62
(lp709
g55
(g56
g57
NtRp710
(dp711
g60
(dp712
g68
I3
ssg69
g706
sg62
(lp713
S''
asbasbasbag55
(g71
g57
NtRp714
(dp715
g60
(dp716
sg69
g670
sg62
(lp717
g55
(g76
g57
NtRp718
(dp719
g60
(dp720
g80
g81
ssg69
g714
sg62
(lp721
g346
asbag55
(g76
g57
NtRp722
(dp723
g60
(dp724
g87
g88
ssg69
g714
sg62
(lp725
S':'
asbag55
(g76
g57
NtRp726
(dp727
g60
(dp728
sg69
g714
sg62
(lp729
g55
(g56
g57
NtRp730
(dp731
g60
(dp732
g68
I3
ssg69
g726
sg62
(lp733
S''
asbasbasbag55
(g71
g57
NtRp734
(dp735
g60
(dp736
sg69
g670
sg62
(lp737
g55
(g76
g57
NtRp738
(dp739
g60
(dp740
g80
g81
ssg69
g734
sg62
(lp741
g367
asbag55
(g76
g57
NtRp742
(dp743
g60
(dp744
g87
g88
ssg69
g734
sg62
(lp745
S':'
asbag55
(g76
g57
NtRp746
(dp747
g60
(dp748
sg69
g734
sg62
(lp749
g55
(g56
g57
NtRp750
(dp751
g60
(dp752
g68
I3
ssg69
g746
sg62
(lp753
S''
asbasbasbag55
(g71
g57
NtRp754
(dp755
g60
(dp756
sg69
g670
sg62
(lp757
g55
(g76
g57
NtRp758
(dp759
g60
(dp760
g80
g81
ssg69
g754
sg62
(lp761
g388
asbag55
(g76
g57
NtRp762
(dp763
g60
(dp764
g87
g88
ssg69
g754
sg62
(lp765
S':'
asbag55
(g76
g57
NtRp766
(dp767
g60
(dp768
sg69
g754
sg62
(lp769
g55
(g56
g57
NtRp770
(dp771
g60
(dp772
g68
I3
ssg69
g766
sg62
(lp773
S''
asbasbasbag55
(g71
g57
NtRp774
(dp775
g60
(dp776
sg69
g670
sg62
(lp777
g55
(g76
g57
NtRp778
(dp779
g60
(dp780
g80
g81
ssg69
g774
sg62
(lp781
g409
asbag55
(g76
g57
NtRp782
(dp783
g60
(dp784
g87
g88
ssg69
g774
sg62
(lp785
S':'
asbag55
(g76
g57
NtRp786
(dp787
g60
(dp788
sg69
g774
sg62
(lp789
g55
(g56
g57
NtRp790
(dp791
g60
(dp792
g68
I3
ssg69
g786
sg62
(lp793
S''
asbasbasbag55
(g71
g57
NtRp794
(dp795
g60
(dp796
sg69
g670
sg62
(lp797
g55
(g76
g57
NtRp798
(dp799
g60
(dp800
g80
g81
ssg69
g794
sg62
(lp801
g430
asbag55
(g76
g57
NtRp802
(dp803
g60
(dp804
g87
g88
ssg69
g794
sg62
(lp805
S':'
asbag55
(g76
g57
NtRp806
(dp807
g60
(dp808
sg69
g794
sg62
(lp809
g55
(g56
g57
NtRp810
(dp811
g60
(dp812
g68
I3
ssg69
g806
sg62
(lp813
S''
asbasbasbag55
(g71
g57
NtRp814
(dp815
g60
(dp816
sg69
g670
sg62
(lp817
g55
(g76
g57
NtRp818
(dp819
g60
(dp820
g80
g81
ssg69
g814
sg62
(lp821
g451
asbag55
(g76
g57
NtRp822
(dp823
g60
(dp824
g87
g88
ssg69
g814
sg62
(lp825
S':'
asbag55
(g76
g57
NtRp826
(dp827
g60
(dp828
sg69
g814
sg62
(lp829
g55
(g56
g57
NtRp830
(dp831
g60
(dp832
g68
I3
ssg69
g826
sg62
(lp833
S''
asbasbasbasbasbasbasbag55
(g71
g57
NtRp834
(dp835
g60
(dp836
sg69
g267
sg62
(lp837
g55
(g76
g57
NtRp838
(dp839
g60
(dp840
g80
g81
ssg69
g834
sg62
(lp841
S'session_id_topoi'
p842
asbag55
(g76
g57
NtRp843
(dp844
g60
(dp845
g87
g88
ssg69
g834
sg62
(lp846
S':'
asbag55
(g76
g57
NtRp847
(dp848
g60
(dp849
sg69
g834
sg62
(lp850
g55
(g56
g57
NtRp851
(dp852
g60
(dp853
g68
I4
ssg69
g847
sg62
(lp854
g55
(g64
g57
NtRp855
(dp856
g60
(dp857
g68
I3
ssg69
Nsg62
(lp858
g55
(g71
g57
NtRp859
(dp860
g60
(dp861
sg69
g855
sg62
(lp862
g55
(g76
g57
NtRp863
(dp864
g60
(dp865
g80
g81
ssg69
g859
sg62
(lp866
g304
asbag55
(g76
g57
NtRp867
(dp868
g60
(dp869
g87
g88
ssg69
g859
sg62
(lp870
S':'
asbag55
(g76
g57
NtRp871
(dp872
g60
(dp873
sg69
g859
sg62
(lp874
g55
(g56
g57
NtRp875
(dp876
g60
(dp877
g68
I3
ssg69
g871
sg62
(lp878
S''
asbasbasbag55
(g71
g57
NtRp879
(dp880
g60
(dp881
sg69
g855
sg62
(lp882
g55
(g76
g57
NtRp883
(dp884
g60
(dp885
g80
g81
ssg69
g879
sg62
(lp886
g325
asbag55
(g76
g57
NtRp887
(dp888
g60
(dp889
g87
g88
ssg69
g879
sg62
(lp890
S':'
asbag55
(g76
g57
NtRp891
(dp892
g60
(dp893
sg69
g879
sg62
(lp894
g55
(g56
g57
NtRp895
(dp896
g60
(dp897
g68
I3
ssg69
g891
sg62
(lp898
S''
asbasbasbag55
(g71
g57
NtRp899
(dp900
g60
(dp901
sg69
g855
sg62
(lp902
g55
(g76
g57
NtRp903
(dp904
g60
(dp905
g80
g81
ssg69
g899
sg62
(lp906
g346
asbag55
(g76
g57
NtRp907
(dp908
g60
(dp909
g87
g88
ssg69
g899
sg62
(lp910
S':'
asbag55
(g76
g57
NtRp911
(dp912
g60
(dp913
sg69
g899
sg62
(lp914
g55
(g56
g57
NtRp915
(dp916
g60
(dp917
g68
I3
ssg69
g911
sg62
(lp918
S''
asbasbasbag55
(g71
g57
NtRp919
(dp920
g60
(dp921
sg69
g855
sg62
(lp922
g55
(g76
g57
NtRp923
(dp924
g60
(dp925
g80
g81
ssg69
g919
sg62
(lp926
g367
asbag55
(g76
g57
NtRp927
(dp928
g60
(dp929
g87
g88
ssg69
g919
sg62
(lp930
S':'
asbag55
(g76
g57
NtRp931
(dp932
g60
(dp933
sg69
g919
sg62
(lp934
g55
(g56
g57
NtRp935
(dp936
g60
(dp937
g68
I3
ssg69
g931
sg62
(lp938
S''
asbasbasbag55
(g71
g57
NtRp939
(dp940
g60
(dp941
sg69
g855
sg62
(lp942
g55
(g76
g57
NtRp943
(dp944
g60
(dp945
g80
g81
ssg69
g939
sg62
(lp946
g388
asbag55
(g76
g57
NtRp947
(dp948
g60
(dp949
g87
g88
ssg69
g939
sg62
(lp950
S':'
asbag55
(g76
g57
NtRp951
(dp952
g60
(dp953
sg69
g939
sg62
(lp954
g55
(g56
g57
NtRp955
(dp956
g60
(dp957
g68
I3
ssg69
g951
sg62
(lp958
S''
asbasbasbag55
(g71
g57
NtRp959
(dp960
g60
(dp961
sg69
g855
sg62
(lp962
g55
(g76
g57
NtRp963
(dp964
g60
(dp965
g80
g81
ssg69
g959
sg62
(lp966
g409
asbag55
(g76
g57
NtRp967
(dp968
g60
(dp969
g87
g88
ssg69
g959
sg62
(lp970
S':'
asbag55
(g76
g57
NtRp971
(dp972
g60
(dp973
sg69
g959
sg62
(lp974
g55
(g56
g57
NtRp975
(dp976
g60
(dp977
g68
I3
ssg69
g971
sg62
(lp978
S''
asbasbasbag55
(g71
g57
NtRp979
(dp980
g60
(dp981
sg69
g855
sg62
(lp982
g55
(g76
g57
NtRp983
(dp984
g60
(dp985
g80
g81
ssg69
g979
sg62
(lp986
g430
asbag55
(g76
g57
NtRp987
(dp988
g60
(dp989
g87
g88
ssg69
g979
sg62
(lp990
S':'
asbag55
(g76
g57
NtRp991
(dp992
g60
(dp993
sg69
g979
sg62
(lp994
g55
(g56
g57
NtRp995
(dp996
g60
(dp997
g68
I3
ssg69
g991
sg62
(lp998
S''
asbasbasbag55
(g71
g57
NtRp999
(dp1000
g60
(dp1001
sg69
g855
sg62
(lp1002
g55
(g76
g57
NtRp1003
(dp1004
g60
(dp1005
g80
g81
ssg69
g999
sg62
(lp1006
g451
asbag55
(g76
g57
NtRp1007
(dp1008
g60
(dp1009
g87
g88
ssg69
g999
sg62
(lp1010
S':'
asbag55
(g76
g57
NtRp1011
(dp1012
g60
(dp1013
sg69
g999
sg62
(lp1014
g55
(g56
g57
NtRp1015
(dp1016
g60
(dp1017
g68
I3
ssg69
g1011
sg62
(lp1018
S''
asbasbasbasbasbasbasbag55
(g71
g57
NtRp1019
(dp1020
g60
(dp1021
sg69
g267
sg62
(lp1022
g55
(g76
g57
NtRp1023
(dp1024
g60
(dp1025
g80
g81
ssg69
g1019
sg62
(lp1026
S'session_id_welcome'
p1027
asbag55
(g76
g57
NtRp1028
(dp1029
g60
(dp1030
g87
g88
ssg69
g1019
sg62
(lp1031
S':'
asbag55
(g76
g57
NtRp1032
(dp1033
g60
(dp1034
sg69
g1019
sg62
(lp1035
g55
(g56
g57
NtRp1036
(dp1037
g60
(dp1038
g68
I4
ssg69
g1032
sg62
(lp1039
g55
(g64
g57
NtRp1040
(dp1041
g60
(dp1042
g68
I3
ssg69
Nsg62
(lp1043
g55
(g71
g57
NtRp1044
(dp1045
g60
(dp1046
sg69
g1040
sg62
(lp1047
g55
(g76
g57
NtRp1048
(dp1049
g60
(dp1050
g80
g81
ssg69
g1044
sg62
(lp1051
g304
asbag55
(g76
g57
NtRp1052
(dp1053
g60
(dp1054
g87
g88
ssg69
g1044
sg62
(lp1055
S':'
asbag55
(g76
g57
NtRp1056
(dp1057
g60
(dp1058
sg69
g1044
sg62
(lp1059
g55
(g56
g57
NtRp1060
(dp1061
g60
(dp1062
g68
I3
ssg69
g1056
sg62
(lp1063
S''
asbasbasbag55
(g71
g57
NtRp1064
(dp1065
g60
(dp1066
sg69
g1040
sg62
(lp1067
g55
(g76
g57
NtRp1068
(dp1069
g60
(dp1070
g80
g81
ssg69
g1064
sg62
(lp1071
g325
asbag55
(g76
g57
NtRp1072
(dp1073
g60
(dp1074
g87
g88
ssg69
g1064
sg62
(lp1075
S':'
asbag55
(g76
g57
NtRp1076
(dp1077
g60
(dp1078
sg69
g1064
sg62
(lp1079
g55
(g56
g57
NtRp1080
(dp1081
g60
(dp1082
g68
I3
ssg69
g1076
sg62
(lp1083
S''
asbasbasbag55
(g71
g57
NtRp1084
(dp1085
g60
(dp1086
sg69
g1040
sg62
(lp1087
g55
(g76
g57
NtRp1088
(dp1089
g60
(dp1090
g80
g81
ssg69
g1084
sg62
(lp1091
g346
asbag55
(g76
g57
NtRp1092
(dp1093
g60
(dp1094
g87
g88
ssg69
g1084
sg62
(lp1095
S':'
asbag55
(g76
g57
NtRp1096
(dp1097
g60
(dp1098
sg69
g1084
sg62
(lp1099
g55
(g56
g57
NtRp1100
(dp1101
g60
(dp1102
g68
I3
ssg69
g1096
sg62
(lp1103
S''
asbasbasbag55
(g71
g57
NtRp1104
(dp1105
g60
(dp1106
sg69
g1040
sg62
(lp1107
g55
(g76
g57
NtRp1108
(dp1109
g60
(dp1110
g80
g81
ssg69
g1104
sg62
(lp1111
g367
asbag55
(g76
g57
NtRp1112
(dp1113
g60
(dp1114
g87
g88
ssg69
g1104
sg62
(lp1115
S':'
asbag55
(g76
g57
NtRp1116
(dp1117
g60
(dp1118
sg69
g1104
sg62
(lp1119
g55
(g56
g57
NtRp1120
(dp1121
g60
(dp1122
g68
I3
ssg69
g1116
sg62
(lp1123
S''
asbasbasbag55
(g71
g57
NtRp1124
(dp1125
g60
(dp1126
sg69
g1040
sg62
(lp1127
g55
(g76
g57
NtRp1128
(dp1129
g60
(dp1130
g80
g81
ssg69
g1124
sg62
(lp1131
g388
asbag55
(g76
g57
NtRp1132
(dp1133
g60
(dp1134
g87
g88
ssg69
g1124
sg62
(lp1135
S':'
asbag55
(g76
g57
NtRp1136
(dp1137
g60
(dp1138
sg69
g1124
sg62
(lp1139
g55
(g56
g57
NtRp1140
(dp1141
g60
(dp1142
g68
I3
ssg69
g1136
sg62
(lp1143
S''
asbasbasbag55
(g71
g57
NtRp1144
(dp1145
g60
(dp1146
sg69
g1040
sg62
(lp1147
g55
(g76
g57
NtRp1148
(dp1149
g60
(dp1150
g80
g81
ssg69
g1144
sg62
(lp1151
g409
asbag55
(g76
g57
NtRp1152
(dp1153
g60
(dp1154
g87
g88
ssg69
g1144
sg62
(lp1155
S':'
asbag55
(g76
g57
NtRp1156
(dp1157
g60
(dp1158
sg69
g1144
sg62
(lp1159
g55
(g56
g57
NtRp1160
(dp1161
g60
(dp1162
g68
I3
ssg69
g1156
sg62
(lp1163
S''
asbasbasbag55
(g71
g57
NtRp1164
(dp1165
g60
(dp1166
sg69
g1040
sg62
(lp1167
g55
(g76
g57
NtRp1168
(dp1169
g60
(dp1170
g80
g81
ssg69
g1164
sg62
(lp1171
g430
asbag55
(g76
g57
NtRp1172
(dp1173
g60
(dp1174
g87
g88
ssg69
g1164
sg62
(lp1175
S':'
asbag55
(g76
g57
NtRp1176
(dp1177
g60
(dp1178
sg69
g1164
sg62
(lp1179
g55
(g56
g57
NtRp1180
(dp1181
g60
(dp1182
g68
I3
ssg69
g1176
sg62
(lp1183
S''
asbasbasbag55
(g71
g57
NtRp1184
(dp1185
g60
(dp1186
sg69
g1040
sg62
(lp1187
g55
(g76
g57
NtRp1188
(dp1189
g60
(dp1190
g80
g81
ssg69
g1184
sg62
(lp1191
g451
asbag55
(g76
g57
NtRp1192
(dp1193
g60
(dp1194
g87
g88
ssg69
g1184
sg62
(lp1195
S':'
asbag55
(g76
g57
NtRp1196
(dp1197
g60
(dp1198
sg69
g1184
sg62
(lp1199
g55
(g56
g57
NtRp1200
(dp1201
g60
(dp1202
g68
I3
ssg69
g1196
sg62
(lp1203
S''
asbasbasbasbasbasbasbasbasbasbasbag55
(g71
g57
NtRp1204
(dp1205
g60
(dp1206
sg69
g65
sg62
(lp1207
g55
(g76
g57
NtRp1208
(dp1209
g60
(dp1210
g80
g81
ssg69
g1204
sg62
(lp1211
S'env'
p1212
asbag55
(g76
g57
NtRp1213
(dp1214
g60
(dp1215
g87
g88
ssg69
g1204
sg62
(lp1216
S':'
asbag55
(g76
g57
NtRp1217
(dp1218
g60
(dp1219
sg69
g1204
sg62
(lp1220
g55
(g56
g57
NtRp1221
(dp1222
g60
(dp1223
g68
I5
ssg69
g1217
sg62
(lp1224
g55
(g64
g57
NtRp1225
(dp1226
g60
(dp1227
g68
I4
ssg69
Nsg62
(lp1228
g55
(g71
g57
NtRp1229
(dp1230
g60
(dp1231
sg69
g1225
sg62
(lp1232
g55
(g76
g57
NtRp1233
(dp1234
g60
(dp1235
g80
g81
ssg69
g1229
sg62
(lp1236
S'app_folders'
p1237
asbag55
(g76
g57
NtRp1238
(dp1239
g60
(dp1240
g87
g88
ssg69
g1229
sg62
(lp1241
S':'
asbag55
(g76
g57
NtRp1242
(dp1243
g60
(dp1244
sg69
g1229
sg62
(lp1245
g55
(g56
g57
NtRp1246
(dp1247
g60
(dp1248
g68
I4
ssg69
g1242
sg62
(lp1249
S"set(['/home/ian/web2py/applications/topoi/', '/home/ian/web2py/applications/welcome/', '/home/ian/web2py/applications/admin/'])"
p1250
asbasbasbag55
(g71
g57
NtRp1251
(dp1252
g60
(dp1253
sg69
g1225
sg62
(lp1254
g55
(g76
g57
NtRp1255
(dp1256
g60
(dp1257
g80
g81
ssg69
g1251
sg62
(lp1258
S'applications_parent'
p1259
asbag55
(g76
g57
NtRp1260
(dp1261
g60
(dp1262
g87
g88
ssg69
g1251
sg62
(lp1263
S':'
asbag55
(g76
g57
NtRp1264
(dp1265
g60
(dp1266
sg69
g1251
sg62
(lp1267
g55
(g56
g57
NtRp1268
(dp1269
g60
(dp1270
g68
I4
ssg69
g1264
sg62
(lp1271
S'/home/ian/web2py'
p1272
asbasbasbag55
(g71
g57
NtRp1273
(dp1274
g60
(dp1275
sg69
g1225
sg62
(lp1276
g55
(g76
g57
NtRp1277
(dp1278
g60
(dp1279
g80
g81
ssg69
g1273
sg62
(lp1280
S'cmd_args'
p1281
asbag55
(g76
g57
NtRp1282
(dp1283
g60
(dp1284
g87
g88
ssg69
g1273
sg62
(lp1285
S':'
asbag55
(g76
g57
NtRp1286
(dp1287
g60
(dp1288
sg69
g1273
sg62
(lp1289
g55
(g56
g57
NtRp1290
(dp1291
g60
(dp1292
g68
I4
ssg69
g1286
sg62
(lp1293
g55
(g64
g57
NtRp1294
(dp1295
g60
(dp1296
g68
I3
ssg69
Nsg62
(lp1297
sbasbasbasbag55
(g71
g57
NtRp1298
(dp1299
g60
(dp1300
sg69
g1225
sg62
(lp1301
g55
(g76
g57
NtRp1302
(dp1303
g60
(dp1304
g80
g81
ssg69
g1298
sg62
(lp1305
S'cmd_options'
p1306
asbag55
(g76
g57
NtRp1307
(dp1308
g60
(dp1309
g87
g88
ssg69
g1298
sg62
(lp1310
S':'
asbag55
(g76
g57
NtRp1311
(dp1312
g60
(dp1313
sg69
g1298
sg62
(lp1314
g55
(g56
g57
NtRp1315
(dp1316
g60
(dp1317
g68
I4
ssg69
g1311
sg62
(lp1318
S"<Values at 0x28edb00: {'verbose': False, 'ip': '127.0.0.1', 'shutdown_timeout': 5, 'taskbar': False, 'nocron': False, 'pid_filename': 'httpserver.pid', 'maxthreads': None, 'softcron': False, 'server_name': 'Ariel-ubuntu', 'bpython': False, 'nogui': False, 'port': 8000, 'extcron': False, 'debuglevel': 30, 'test': None, 'folder': '/home/ian/web2py', 'config': '', 'import_models': False, 'winservice': '', 'shell': None, 'run': '', 'log_filename': 'httpserver.log', 'args': [''], 'socket_timeout': 1, 'ssl_ca_certificate': None, 'scheduler': None, 'profiler_filename': None, 'ssl_private_key': '', 'password': '<ask>', 'request_queue_size': 5, 'ssl_certificate': '', 'cronjob': False, 'numthreads': None, 'quiet': False, 'interfaces': None, 'minthreads': None, 'timeout': 10, 'plain': False, 'nobanner': False}>"
p1319
asbasbasbag55
(g71
g57
NtRp1320
(dp1321
g60
(dp1322
sg69
g1225
sg62
(lp1323
g55
(g76
g57
NtRp1324
(dp1325
g60
(dp1326
g80
g81
ssg69
g1320
sg62
(lp1327
S'content_length'
p1328
asbag55
(g76
g57
NtRp1329
(dp1330
g60
(dp1331
g87
g88
ssg69
g1320
sg62
(lp1332
S':'
asbag55
(g76
g57
NtRp1333
(dp1334
g60
(dp1335
sg69
g1320
sg62
(lp1336
g55
(g56
g57
NtRp1337
(dp1338
g60
(dp1339
g68
I4
ssg69
g1333
sg62
(lp1340
S'182'
p1341
asbasbasbag55
(g71
g57
NtRp1342
(dp1343
g60
(dp1344
sg69
g1225
sg62
(lp1345
g55
(g76
g57
NtRp1346
(dp1347
g60
(dp1348
g80
g81
ssg69
g1342
sg62
(lp1349
S'content_type'
p1350
asbag55
(g76
g57
NtRp1351
(dp1352
g60
(dp1353
g87
g88
ssg69
g1342
sg62
(lp1354
S':'
asbag55
(g76
g57
NtRp1355
(dp1356
g60
(dp1357
sg69
g1342
sg62
(lp1358
g55
(g56
g57
NtRp1359
(dp1360
g60
(dp1361
g68
I4
ssg69
g1355
sg62
(lp1362
S'application/x-www-form-urlencoded; charset=UTF-8'
p1363
asbasbasbag55
(g71
g57
NtRp1364
(dp1365
g60
(dp1366
sg69
g1225
sg62
(lp1367
g55
(g76
g57
NtRp1368
(dp1369
g60
(dp1370
g80
g81
ssg69
g1364
sg62
(lp1371
S'db_sessions'
p1372
asbag55
(g76
g57
NtRp1373
(dp1374
g60
(dp1375
g87
g88
ssg69
g1364
sg62
(lp1376
S':'
asbag55
(g76
g57
NtRp1377
(dp1378
g60
(dp1379
sg69
g1364
sg62
(lp1380
g55
(g56
g57
NtRp1381
(dp1382
g60
(dp1383
g68
I4
ssg69
g1377
sg62
(lp1384
S'set([])'
p1385
asbasbasbag55
(g71
g57
NtRp1386
(dp1387
g60
(dp1388
sg69
g1225
sg62
(lp1389
g55
(g76
g57
NtRp1390
(dp1391
g60
(dp1392
g80
g81
ssg69
g1386
sg62
(lp1393
S'debugging'
p1394
asbag55
(g76
g57
NtRp1395
(dp1396
g60
(dp1397
g87
g88
ssg69
g1386
sg62
(lp1398
S':'
asbag55
(g76
g57
NtRp1399
(dp1400
g60
(dp1401
sg69
g1386
sg62
(lp1402
g55
(g56
g57
NtRp1403
(dp1404
g60
(dp1405
g68
I4
ssg69
g1399
sg62
(lp1406
S'False'
p1407
asbasbasbag55
(g71
g57
NtRp1408
(dp1409
g60
(dp1410
sg69
g1225
sg62
(lp1411
g55
(g76
g57
NtRp1412
(dp1413
g60
(dp1414
g80
g81
ssg69
g1408
sg62
(lp1415
S'gluon_parent'
p1416
asbag55
(g76
g57
NtRp1417
(dp1418
g60
(dp1419
g87
g88
ssg69
g1408
sg62
(lp1420
S':'
asbag55
(g76
g57
NtRp1421
(dp1422
g60
(dp1423
sg69
g1408
sg62
(lp1424
g55
(g56
g57
NtRp1425
(dp1426
g60
(dp1427
g68
I4
ssg69
g1421
sg62
(lp1428
S'/home/ian/web2py'
p1429
asbasbasbag55
(g71
g57
NtRp1430
(dp1431
g60
(dp1432
sg69
g1225
sg62
(lp1433
g55
(g76
g57
NtRp1434
(dp1435
g60
(dp1436
g80
g81
ssg69
g1430
sg62
(lp1437
S'http_accept'
p1438
asbag55
(g76
g57
NtRp1439
(dp1440
g60
(dp1441
g87
g88
ssg69
g1430
sg62
(lp1442
S':'
asbag55
(g76
g57
NtRp1443
(dp1444
g60
(dp1445
sg69
g1430
sg62
(lp1446
g55
(g56
g57
NtRp1447
(dp1448
g60
(dp1449
g68
I4
ssg69
g1443
sg62
(lp1450
S'*/*'
p1451
asbasbasbag55
(g71
g57
NtRp1452
(dp1453
g60
(dp1454
sg69
g1225
sg62
(lp1455
g55
(g76
g57
NtRp1456
(dp1457
g60
(dp1458
g80
g81
ssg69
g1452
sg62
(lp1459
S'http_accept_charset'
p1460
asbag55
(g76
g57
NtRp1461
(dp1462
g60
(dp1463
g87
g88
ssg69
g1452
sg62
(lp1464
S':'
asbag55
(g76
g57
NtRp1465
(dp1466
g60
(dp1467
sg69
g1452
sg62
(lp1468
g55
(g56
g57
NtRp1469
(dp1470
g60
(dp1471
g68
I4
ssg69
g1465
sg62
(lp1472
S'ISO-8859-1,utf-8;q=0.7,*;q=0.7'
p1473
asbasbasbag55
(g71
g57
NtRp1474
(dp1475
g60
(dp1476
sg69
g1225
sg62
(lp1477
g55
(g76
g57
NtRp1478
(dp1479
g60
(dp1480
g80
g81
ssg69
g1474
sg62
(lp1481
S'http_accept_encoding'
p1482
asbag55
(g76
g57
NtRp1483
(dp1484
g60
(dp1485
g87
g88
ssg69
g1474
sg62
(lp1486
S':'
asbag55
(g76
g57
NtRp1487
(dp1488
g60
(dp1489
sg69
g1474
sg62
(lp1490
g55
(g56
g57
NtRp1491
(dp1492
g60
(dp1493
g68
I4
ssg69
g1487
sg62
(lp1494
S'gzip, deflate'
p1495
asbasbasbag55
(g71
g57
NtRp1496
(dp1497
g60
(dp1498
sg69
g1225
sg62
(lp1499
g55
(g76
g57
NtRp1500
(dp1501
g60
(dp1502
g80
g81
ssg69
g1496
sg62
(lp1503
S'http_accept_language'
p1504
asbag55
(g76
g57
NtRp1505
(dp1506
g60
(dp1507
g87
g88
ssg69
g1496
sg62
(lp1508
S':'
asbag55
(g76
g57
NtRp1509
(dp1510
g60
(dp1511
sg69
g1496
sg62
(lp1512
g55
(g56
g57
NtRp1513
(dp1514
g60
(dp1515
g68
I4
ssg69
g1509
sg62
(lp1516
S'en-us,en;q=0.5'
p1517
asbasbasbag55
(g71
g57
NtRp1518
(dp1519
g60
(dp1520
sg69
g1225
sg62
(lp1521
g55
(g76
g57
NtRp1522
(dp1523
g60
(dp1524
g80
g81
ssg69
g1518
sg62
(lp1525
S'http_cache_control'
p1526
asbag55
(g76
g57
NtRp1527
(dp1528
g60
(dp1529
g87
g88
ssg69
g1518
sg62
(lp1530
S':'
asbag55
(g76
g57
NtRp1531
(dp1532
g60
(dp1533
sg69
g1518
sg62
(lp1534
g55
(g56
g57
NtRp1535
(dp1536
g60
(dp1537
g68
I4
ssg69
g1531
sg62
(lp1538
S'no-cache'
p1539
asbasbasbag55
(g71
g57
NtRp1540
(dp1541
g60
(dp1542
sg69
g1225
sg62
(lp1543
g55
(g76
g57
NtRp1544
(dp1545
g60
(dp1546
g80
g81
ssg69
g1540
sg62
(lp1547
S'http_connection'
p1548
asbag55
(g76
g57
NtRp1549
(dp1550
g60
(dp1551
g87
g88
ssg69
g1540
sg62
(lp1552
S':'
asbag55
(g76
g57
NtRp1553
(dp1554
g60
(dp1555
sg69
g1540
sg62
(lp1556
g55
(g56
g57
NtRp1557
(dp1558
g60
(dp1559
g68
I4
ssg69
g1553
sg62
(lp1560
S'keep-alive'
p1561
asbasbasbag55
(g71
g57
NtRp1562
(dp1563
g60
(dp1564
sg69
g1225
sg62
(lp1565
g55
(g76
g57
NtRp1566
(dp1567
g60
(dp1568
g80
g81
ssg69
g1562
sg62
(lp1569
S'http_content_length'
p1570
asbag55
(g76
g57
NtRp1571
(dp1572
g60
(dp1573
g87
g88
ssg69
g1562
sg62
(lp1574
S':'
asbag55
(g76
g57
NtRp1575
(dp1576
g60
(dp1577
sg69
g1562
sg62
(lp1578
g55
(g56
g57
NtRp1579
(dp1580
g60
(dp1581
g68
I4
ssg69
g1575
sg62
(lp1582
g1341
asbasbasbag55
(g71
g57
NtRp1583
(dp1584
g60
(dp1585
sg69
g1225
sg62
(lp1586
g55
(g76
g57
NtRp1587
(dp1588
g60
(dp1589
g80
g81
ssg69
g1583
sg62
(lp1590
S'http_content_type'
p1591
asbag55
(g76
g57
NtRp1592
(dp1593
g60
(dp1594
g87
g88
ssg69
g1583
sg62
(lp1595
S':'
asbag55
(g76
g57
NtRp1596
(dp1597
g60
(dp1598
sg69
g1583
sg62
(lp1599
g55
(g56
g57
NtRp1600
(dp1601
g60
(dp1602
g68
I4
ssg69
g1596
sg62
(lp1603
g1363
asbasbasbag55
(g71
g57
NtRp1604
(dp1605
g60
(dp1606
sg69
g1225
sg62
(lp1607
g55
(g76
g57
NtRp1608
(dp1609
g60
(dp1610
g80
g81
ssg69
g1604
sg62
(lp1611
S'http_cookie'
p1612
asbag55
(g76
g57
NtRp1613
(dp1614
g60
(dp1615
g87
g88
ssg69
g1604
sg62
(lp1616
S':'
asbag55
(g76
g57
NtRp1617
(dp1618
g60
(dp1619
sg69
g1604
sg62
(lp1620
g55
(g56
g57
NtRp1621
(dp1622
g60
(dp1623
g68
I4
ssg69
g1617
sg62
(lp1624
S'__utma_a2a=9789918665.1351576430.1320019504.1320019504.1320019504.1; session_id_grades=127.0.0.1-dd79f5dc-b5bd-45ea-8db7-d0bfdd939f5e; session_id_paideia=127.0.0.1-e39bb56e-30eb-4da5-9f4e-559a6c22ef0d; session_id_welcome=127.0.0.1-bc5123dd-815b-46f6-97bc-b00806880997; session_id_topoi=127.0.0.1-36a47132-9f63-403c-93e8-4b961484278b; session_id_admin=127.0.0.1-bdcf41dc-96fb-4f1d-9904-f67b47ba2070'
p1625
asbasbasbag55
(g71
g57
NtRp1626
(dp1627
g60
(dp1628
sg69
g1225
sg62
(lp1629
g55
(g76
g57
NtRp1630
(dp1631
g60
(dp1632
g80
g81
ssg69
g1626
sg62
(lp1633
S'http_host'
p1634
asbag55
(g76
g57
NtRp1635
(dp1636
g60
(dp1637
g87
g88
ssg69
g1626
sg62
(lp1638
S':'
asbag55
(g76
g57
NtRp1639
(dp1640
g60
(dp1641
sg69
g1626
sg62
(lp1642
g55
(g56
g57
NtRp1643
(dp1644
g60
(dp1645
g68
I4
ssg69
g1639
sg62
(lp1646
S'127.0.0.1:8000'
p1647
asbasbasbag55
(g71
g57
NtRp1648
(dp1649
g60
(dp1650
sg69
g1225
sg62
(lp1651
g55
(g76
g57
NtRp1652
(dp1653
g60
(dp1654
g80
g81
ssg69
g1648
sg62
(lp1655
S'http_pragma'
p1656
asbag55
(g76
g57
NtRp1657
(dp1658
g60
(dp1659
g87
g88
ssg69
g1648
sg62
(lp1660
S':'
asbag55
(g76
g57
NtRp1661
(dp1662
g60
(dp1663
sg69
g1648
sg62
(lp1664
g55
(g56
g57
NtRp1665
(dp1666
g60
(dp1667
g68
I4
ssg69
g1661
sg62
(lp1668
S'no-cache'
p1669
asbasbasbag55
(g71
g57
NtRp1670
(dp1671
g60
(dp1672
sg69
g1225
sg62
(lp1673
g55
(g76
g57
NtRp1674
(dp1675
g60
(dp1676
g80
g81
ssg69
g1670
sg62
(lp1677
S'http_referer'
p1678
asbag55
(g76
g57
NtRp1679
(dp1680
g60
(dp1681
g87
g88
ssg69
g1670
sg62
(lp1682
S':'
asbag55
(g76
g57
NtRp1683
(dp1684
g60
(dp1685
sg69
g1670
sg62
(lp1686
g55
(g56
g57
NtRp1687
(dp1688
g60
(dp1689
g68
I4
ssg69
g1683
sg62
(lp1690
S'http://127.0.0.1:8000/topoi/plugin_listandedit/list/notes/1?fields=author&fields=work&fields=reference'
p1691
asbasbasbag55
(g71
g57
NtRp1692
(dp1693
g60
(dp1694
sg69
g1225
sg62
(lp1695
g55
(g76
g57
NtRp1696
(dp1697
g60
(dp1698
g80
g81
ssg69
g1692
sg62
(lp1699
S'http_user_agent'
p1700
asbag55
(g76
g57
NtRp1701
(dp1702
g60
(dp1703
g87
g88
ssg69
g1692
sg62
(lp1704
S':'
asbag55
(g76
g57
NtRp1705
(dp1706
g60
(dp1707
sg69
g1692
sg62
(lp1708
g55
(g56
g57
NtRp1709
(dp1710
g60
(dp1711
g68
I4
ssg69
g1705
sg62
(lp1712
S'Mozilla/5.0 (Ubuntu; X11; Linux x86_64; rv:9.0.1) Gecko/20100101 Firefox/9.0.1'
p1713
asbasbasbag55
(g71
g57
NtRp1714
(dp1715
g60
(dp1716
sg69
g1225
sg62
(lp1717
g55
(g76
g57
NtRp1718
(dp1719
g60
(dp1720
g80
g81
ssg69
g1714
sg62
(lp1721
S'http_web2py_component_element'
p1722
asbag55
(g76
g57
NtRp1723
(dp1724
g60
(dp1725
g87
g88
ssg69
g1714
sg62
(lp1726
S':'
asbag55
(g76
g57
NtRp1727
(dp1728
g60
(dp1729
sg69
g1714
sg62
(lp1730
g55
(g56
g57
NtRp1731
(dp1732
g60
(dp1733
g68
I4
ssg69
g1727
sg62
(lp1734
g201
asbasbasbag55
(g71
g57
NtRp1735
(dp1736
g60
(dp1737
sg69
g1225
sg62
(lp1738
g55
(g76
g57
NtRp1739
(dp1740
g60
(dp1741
g80
g81
ssg69
g1735
sg62
(lp1742
S'http_web2py_component_location'
p1743
asbag55
(g76
g57
NtRp1744
(dp1745
g60
(dp1746
g87
g88
ssg69
g1735
sg62
(lp1747
S':'
asbag55
(g76
g57
NtRp1748
(dp1749
g60
(dp1750
sg69
g1735
sg62
(lp1751
g55
(g56
g57
NtRp1752
(dp1753
g60
(dp1754
g68
I4
ssg69
g1748
sg62
(lp1755
S'http://127.0.0.1:8000/topoi/plugin_listandedit/list/notes/1?fields=author&fields=work&fields=reference'
p1756
asbasbasbag55
(g71
g57
NtRp1757
(dp1758
g60
(dp1759
sg69
g1225
sg62
(lp1760
g55
(g76
g57
NtRp1761
(dp1762
g60
(dp1763
g80
g81
ssg69
g1757
sg62
(lp1764
S'http_x_requested_with'
p1765
asbag55
(g76
g57
NtRp1766
(dp1767
g60
(dp1768
g87
g88
ssg69
g1757
sg62
(lp1769
S':'
asbag55
(g76
g57
NtRp1770
(dp1771
g60
(dp1772
sg69
g1757
sg62
(lp1773
g55
(g56
g57
NtRp1774
(dp1775
g60
(dp1776
g68
I4
ssg69
g1770
sg62
(lp1777
S'XMLHttpRequest'
p1778
asbasbasbag55
(g71
g57
NtRp1779
(dp1780
g60
(dp1781
sg69
g1225
sg62
(lp1782
g55
(g76
g57
NtRp1783
(dp1784
g60
(dp1785
g80
g81
ssg69
g1779
sg62
(lp1786
S'is_jython'
p1787
asbag55
(g76
g57
NtRp1788
(dp1789
g60
(dp1790
g87
g88
ssg69
g1779
sg62
(lp1791
S':'
asbag55
(g76
g57
NtRp1792
(dp1793
g60
(dp1794
sg69
g1779
sg62
(lp1795
g55
(g56
g57
NtRp1796
(dp1797
g60
(dp1798
g68
I4
ssg69
g1792
sg62
(lp1799
g1407
asbasbasbag55
(g71
g57
NtRp1800
(dp1801
g60
(dp1802
sg69
g1225
sg62
(lp1803
g55
(g76
g57
NtRp1804
(dp1805
g60
(dp1806
g80
g81
ssg69
g1800
sg62
(lp1807
S'is_pypy'
p1808
asbag55
(g76
g57
NtRp1809
(dp1810
g60
(dp1811
g87
g88
ssg69
g1800
sg62
(lp1812
S':'
asbag55
(g76
g57
NtRp1813
(dp1814
g60
(dp1815
sg69
g1800
sg62
(lp1816
g55
(g56
g57
NtRp1817
(dp1818
g60
(dp1819
g68
I4
ssg69
g1813
sg62
(lp1820
g1407
asbasbasbag55
(g71
g57
NtRp1821
(dp1822
g60
(dp1823
sg69
g1225
sg62
(lp1824
g55
(g76
g57
NtRp1825
(dp1826
g60
(dp1827
g80
g81
ssg69
g1821
sg62
(lp1828
S'path_info'
p1829
asbag55
(g76
g57
NtRp1830
(dp1831
g60
(dp1832
g87
g88
ssg69
g1821
sg62
(lp1833
S':'
asbag55
(g76
g57
NtRp1834
(dp1835
g60
(dp1836
sg69
g1821
sg62
(lp1837
g55
(g56
g57
NtRp1838
(dp1839
g60
(dp1840
g68
I4
ssg69
g1834
sg62
(lp1841
S'/topoi/plugin_listandedit/edit.load/notes'
p1842
asbasbasbag55
(g71
g57
NtRp1843
(dp1844
g60
(dp1845
sg69
g1225
sg62
(lp1846
g55
(g76
g57
NtRp1847
(dp1848
g60
(dp1849
g80
g81
ssg69
g1843
sg62
(lp1850
S'query_string'
p1851
asbag55
(g76
g57
NtRp1852
(dp1853
g60
(dp1854
g87
g88
ssg69
g1843
sg62
(lp1855
S':'
asbag55
(g76
g57
NtRp1856
(dp1857
g60
(dp1858
sg69
g1843
sg62
(lp1859
g55
(g56
g57
NtRp1860
(dp1861
g60
(dp1862
g68
I4
ssg69
g1856
sg62
(lp1863
S''
asbasbasbag55
(g71
g57
NtRp1864
(dp1865
g60
(dp1866
sg69
g1225
sg62
(lp1867
g55
(g76
g57
NtRp1868
(dp1869
g60
(dp1870
g80
g81
ssg69
g1864
sg62
(lp1871
S'remote_addr'
p1872
asbag55
(g76
g57
NtRp1873
(dp1874
g60
(dp1875
g87
g88
ssg69
g1864
sg62
(lp1876
S':'
asbag55
(g76
g57
NtRp1877
(dp1878
g60
(dp1879
sg69
g1864
sg62
(lp1880
g55
(g56
g57
NtRp1881
(dp1882
g60
(dp1883
g68
I4
ssg69
g1877
sg62
(lp1884
g223
asbasbasbag55
(g71
g57
NtRp1885
(dp1886
g60
(dp1887
sg69
g1225
sg62
(lp1888
g55
(g76
g57
NtRp1889
(dp1890
g60
(dp1891
g80
g81
ssg69
g1885
sg62
(lp1892
S'remote_port'
p1893
asbag55
(g76
g57
NtRp1894
(dp1895
g60
(dp1896
g87
g88
ssg69
g1885
sg62
(lp1897
S':'
asbag55
(g76
g57
NtRp1898
(dp1899
g60
(dp1900
sg69
g1885
sg62
(lp1901
g55
(g56
g57
NtRp1902
(dp1903
g60
(dp1904
g68
I4
ssg69
g1898
sg62
(lp1905
S'58658'
p1906
asbasbasbag55
(g71
g57
NtRp1907
(dp1908
g60
(dp1909
sg69
g1225
sg62
(lp1910
g55
(g76
g57
NtRp1911
(dp1912
g60
(dp1913
g80
g81
ssg69
g1907
sg62
(lp1914
S'request_method'
p1915
asbag55
(g76
g57
NtRp1916
(dp1917
g60
(dp1918
g87
g88
ssg69
g1907
sg62
(lp1919
S':'
asbag55
(g76
g57
NtRp1920
(dp1921
g60
(dp1922
sg69
g1907
sg62
(lp1923
g55
(g56
g57
NtRp1924
(dp1925
g60
(dp1926
g68
I4
ssg69
g1920
sg62
(lp1927
S'POST'
p1928
asbasbasbag55
(g71
g57
NtRp1929
(dp1930
g60
(dp1931
sg69
g1225
sg62
(lp1932
g55
(g76
g57
NtRp1933
(dp1934
g60
(dp1935
g80
g81
ssg69
g1929
sg62
(lp1936
S'script_name'
p1937
asbag55
(g76
g57
NtRp1938
(dp1939
g60
(dp1940
g87
g88
ssg69
g1929
sg62
(lp1941
S':'
asbag55
(g76
g57
NtRp1942
(dp1943
g60
(dp1944
sg69
g1929
sg62
(lp1945
g55
(g56
g57
NtRp1946
(dp1947
g60
(dp1948
g68
I4
ssg69
g1942
sg62
(lp1949
S''
asbasbasbag55
(g71
g57
NtRp1950
(dp1951
g60
(dp1952
sg69
g1225
sg62
(lp1953
g55
(g76
g57
NtRp1954
(dp1955
g60
(dp1956
g80
g81
ssg69
g1950
sg62
(lp1957
S'server_name'
p1958
asbag55
(g76
g57
NtRp1959
(dp1960
g60
(dp1961
g87
g88
ssg69
g1950
sg62
(lp1962
S':'
asbag55
(g76
g57
NtRp1963
(dp1964
g60
(dp1965
sg69
g1950
sg62
(lp1966
g55
(g56
g57
NtRp1967
(dp1968
g60
(dp1969
g68
I4
ssg69
g1963
sg62
(lp1970
S'Ariel-ubuntu'
p1971
asbasbasbag55
(g71
g57
NtRp1972
(dp1973
g60
(dp1974
sg69
g1225
sg62
(lp1975
g55
(g76
g57
NtRp1976
(dp1977
g60
(dp1978
g80
g81
ssg69
g1972
sg62
(lp1979
S'server_port'
p1980
asbag55
(g76
g57
NtRp1981
(dp1982
g60
(dp1983
g87
g88
ssg69
g1972
sg62
(lp1984
S':'
asbag55
(g76
g57
NtRp1985
(dp1986
g60
(dp1987
sg69
g1972
sg62
(lp1988
g55
(g56
g57
NtRp1989
(dp1990
g60
(dp1991
g68
I4
ssg69
g1985
sg62
(lp1992
S'8000'
p1993
asbasbasbag55
(g71
g57
NtRp1994
(dp1995
g60
(dp1996
sg69
g1225
sg62
(lp1997
g55
(g76
g57
NtRp1998
(dp1999
g60
(dp2000
g80
g81
ssg69
g1994
sg62
(lp2001
S'server_protocol'
p2002
asbag55
(g76
g57
NtRp2003
(dp2004
g60
(dp2005
g87
g88
ssg69
g1994
sg62
(lp2006
S':'
asbag55
(g76
g57
NtRp2007
(dp2008
g60
(dp2009
sg69
g1994
sg62
(lp2010
g55
(g56
g57
NtRp2011
(dp2012
g60
(dp2013
g68
I4
ssg69
g2007
sg62
(lp2014
S'HTTP/1.1'
p2015
asbasbasbag55
(g71
g57
NtRp2016
(dp2017
g60
(dp2018
sg69
g1225
sg62
(lp2019
g55
(g76
g57
NtRp2020
(dp2021
g60
(dp2022
g80
g81
ssg69
g2016
sg62
(lp2023
S'server_software'
p2024
asbag55
(g76
g57
NtRp2025
(dp2026
g60
(dp2027
g87
g88
ssg69
g2016
sg62
(lp2028
S':'
asbag55
(g76
g57
NtRp2029
(dp2030
g60
(dp2031
sg69
g2016
sg62
(lp2032
g55
(g56
g57
NtRp2033
(dp2034
g60
(dp2035
g68
I4
ssg69
g2029
sg62
(lp2036
S'Rocket 1.2.4'
p2037
asbasbasbag55
(g71
g57
NtRp2038
(dp2039
g60
(dp2040
sg69
g1225
sg62
(lp2041
g55
(g76
g57
NtRp2042
(dp2043
g60
(dp2044
g80
g81
ssg69
g2038
sg62
(lp2045
S'web2py_crontype'
p2046
asbag55
(g76
g57
NtRp2047
(dp2048
g60
(dp2049
g87
g88
ssg69
g2038
sg62
(lp2050
S':'
asbag55
(g76
g57
NtRp2051
(dp2052
g60
(dp2053
sg69
g2038
sg62
(lp2054
g55
(g56
g57
NtRp2055
(dp2056
g60
(dp2057
g68
I4
ssg69
g2051
sg62
(lp2058
S'hard'
p2059
asbasbasbag55
(g71
g57
NtRp2060
(dp2061
g60
(dp2062
sg69
g1225
sg62
(lp2063
g55
(g76
g57
NtRp2064
(dp2065
g60
(dp2066
g80
g81
ssg69
g2060
sg62
(lp2067
S'web2py_path'
p2068
asbag55
(g76
g57
NtRp2069
(dp2070
g60
(dp2071
g87
g88
ssg69
g2060
sg62
(lp2072
S':'
asbag55
(g76
g57
NtRp2073
(dp2074
g60
(dp2075
sg69
g2060
sg62
(lp2076
g55
(g56
g57
NtRp2077
(dp2078
g60
(dp2079
g68
I4
ssg69
g2073
sg62
(lp2080
g1272
asbasbasbag55
(g71
g57
NtRp2081
(dp2082
g60
(dp2083
sg69
g1225
sg62
(lp2084
g55
(g76
g57
NtRp2085
(dp2086
g60
(dp2087
g80
g81
ssg69
g2081
sg62
(lp2088
S'web2py_version'
p2089
asbag55
(g76
g57
NtRp2090
(dp2091
g60
(dp2092
g87
g88
ssg69
g2081
sg62
(lp2093
S':'
asbag55
(g76
g57
NtRp2094
(dp2095
g60
(dp2096
sg69
g2081
sg62
(lp2097
g55
(g56
g57
NtRp2098
(dp2099
g60
(dp2100
g68
I4
ssg69
g2094
sg62
(lp2101
g55
(g64
g57
NtRp2102
(dp2103
g60
(dp2104
g68
I3
ssg69
Nsg62
(lp2105
g55
(g71
g57
NtRp2106
(dp2107
g60
(dp2108
sg69
g2102
sg62
(lp2109
g55
(g76
g57
NtRp2110
(dp2111
g60
(dp2112
sg69
g2106
sg62
(lp2113
g55
(g56
g57
NtRp2114
(dp2115
g60
(dp2116
g68
I3
ssg69
g2110
sg62
(lp2117
S'1'
asbasbasbag55
(g71
g57
NtRp2118
(dp2119
g60
(dp2120
sg69
g2102
sg62
(lp2121
g55
(g76
g57
NtRp2122
(dp2123
g60
(dp2124
sg69
g2118
sg62
(lp2125
g55
(g56
g57
NtRp2126
(dp2127
g60
(dp2128
g68
I3
ssg69
g2122
sg62
(lp2129
S'99'
p2130
asbasbasbag55
(g71
g57
NtRp2131
(dp2132
g60
(dp2133
sg69
g2102
sg62
(lp2134
g55
(g76
g57
NtRp2135
(dp2136
g60
(dp2137
sg69
g2131
sg62
(lp2138
g55
(g56
g57
NtRp2139
(dp2140
g60
(dp2141
g68
I3
ssg69
g2135
sg62
(lp2142
S'4'
asbasbasbag55
(g71
g57
NtRp2143
(dp2144
g60
(dp2145
sg69
g2102
sg62
(lp2146
g55
(g76
g57
NtRp2147
(dp2148
g60
(dp2149
sg69
g2143
sg62
(lp2150
g55
(g56
g57
NtRp2151
(dp2152
g60
(dp2153
g68
I3
ssg69
g2147
sg62
(lp2154
S'datetime.datetime(2011, 12, 14, 14, 46, 14)'
p2155
asbasbasbag55
(g71
g57
NtRp2156
(dp2157
g60
(dp2158
sg69
g2102
sg62
(lp2159
g55
(g76
g57
NtRp2160
(dp2161
g60
(dp2162
sg69
g2156
sg62
(lp2163
g55
(g56
g57
NtRp2164
(dp2165
g60
(dp2166
g68
I3
ssg69
g2160
sg62
(lp2167
S'stable'
p2168
asbasbasbasbasbasbasbag55
(g71
g57
NtRp2169
(dp2170
g60
(dp2171
sg69
g1225
sg62
(lp2172
g55
(g76
g57
NtRp2173
(dp2174
g60
(dp2175
g80
g81
ssg69
g2169
sg62
(lp2176
S'wsgi_errors'
p2177
asbag55
(g76
g57
NtRp2178
(dp2179
g60
(dp2180
g87
g88
ssg69
g2169
sg62
(lp2181
S':'
asbag55
(g76
g57
NtRp2182
(dp2183
g60
(dp2184
sg69
g2169
sg62
(lp2185
g55
(g56
g57
NtRp2186
(dp2187
g60
(dp2188
g68
I4
ssg69
g2182
sg62
(lp2189
S"<open file '<stderr>', mode 'w' at 0x7f82e3665270>"
p2190
asbasbasbag55
(g71
g57
NtRp2191
(dp2192
g60
(dp2193
sg69
g1225
sg62
(lp2194
g55
(g76
g57
NtRp2195
(dp2196
g60
(dp2197
g80
g81
ssg69
g2191
sg62
(lp2198
S'wsgi_file_wrapper'
p2199
asbag55
(g76
g57
NtRp2200
(dp2201
g60
(dp2202
g87
g88
ssg69
g2191
sg62
(lp2203
S':'
asbag55
(g76
g57
NtRp2204
(dp2205
g60
(dp2206
sg69
g2191
sg62
(lp2207
g55
(g56
g57
NtRp2208
(dp2209
g60
(dp2210
g68
I4
ssg69
g2204
sg62
(lp2211
S'<class wsgiref.util.FileWrapper at 0x27acc80>'
p2212
asbasbasbag55
(g71
g57
NtRp2213
(dp2214
g60
(dp2215
sg69
g1225
sg62
(lp2216
g55
(g76
g57
NtRp2217
(dp2218
g60
(dp2219
g80
g81
ssg69
g2213
sg62
(lp2220
S'wsgi_input'
p2221
asbag55
(g76
g57
NtRp2222
(dp2223
g60
(dp2224
g87
g88
ssg69
g2213
sg62
(lp2225
S':'
asbag55
(g76
g57
NtRp2226
(dp2227
g60
(dp2228
sg69
g2213
sg62
(lp2229
g55
(g56
g57
NtRp2230
(dp2231
g60
(dp2232
g68
I4
ssg69
g2226
sg62
(lp2233
S'<socket._fileobject object at 0x4e9d7d0>'
p2234
asbasbasbag55
(g71
g57
NtRp2235
(dp2236
g60
(dp2237
sg69
g1225
sg62
(lp2238
g55
(g76
g57
NtRp2239
(dp2240
g60
(dp2241
g80
g81
ssg69
g2235
sg62
(lp2242
S'wsgi_multiprocess'
p2243
asbag55
(g76
g57
NtRp2244
(dp2245
g60
(dp2246
g87
g88
ssg69
g2235
sg62
(lp2247
S':'
asbag55
(g76
g57
NtRp2248
(dp2249
g60
(dp2250
sg69
g2235
sg62
(lp2251
g55
(g56
g57
NtRp2252
(dp2253
g60
(dp2254
g68
I4
ssg69
g2248
sg62
(lp2255
g1407
asbasbasbag55
(g71
g57
NtRp2256
(dp2257
g60
(dp2258
sg69
g1225
sg62
(lp2259
g55
(g76
g57
NtRp2260
(dp2261
g60
(dp2262
g80
g81
ssg69
g2256
sg62
(lp2263
S'wsgi_multithread'
p2264
asbag55
(g76
g57
NtRp2265
(dp2266
g60
(dp2267
g87
g88
ssg69
g2256
sg62
(lp2268
S':'
asbag55
(g76
g57
NtRp2269
(dp2270
g60
(dp2271
sg69
g2256
sg62
(lp2272
g55
(g56
g57
NtRp2273
(dp2274
g60
(dp2275
g68
I4
ssg69
g2269
sg62
(lp2276
g98
asbasbasbag55
(g71
g57
NtRp2277
(dp2278
g60
(dp2279
sg69
g1225
sg62
(lp2280
g55
(g76
g57
NtRp2281
(dp2282
g60
(dp2283
g80
g81
ssg69
g2277
sg62
(lp2284
S'wsgi_run_once'
p2285
asbag55
(g76
g57
NtRp2286
(dp2287
g60
(dp2288
g87
g88
ssg69
g2277
sg62
(lp2289
S':'
asbag55
(g76
g57
NtRp2290
(dp2291
g60
(dp2292
sg69
g2277
sg62
(lp2293
g55
(g56
g57
NtRp2294
(dp2295
g60
(dp2296
g68
I4
ssg69
g2290
sg62
(lp2297
g1407
asbasbasbag55
(g71
g57
NtRp2298
(dp2299
g60
(dp2300
sg69
g1225
sg62
(lp2301
g55
(g76
g57
NtRp2302
(dp2303
g60
(dp2304
g80
g81
ssg69
g2298
sg62
(lp2305
S'wsgi_url_scheme'
p2306
asbag55
(g76
g57
NtRp2307
(dp2308
g60
(dp2309
g87
g88
ssg69
g2298
sg62
(lp2310
S':'
asbag55
(g76
g57
NtRp2311
(dp2312
g60
(dp2313
sg69
g2298
sg62
(lp2314
g55
(g56
g57
NtRp2315
(dp2316
g60
(dp2317
g68
I4
ssg69
g2311
sg62
(lp2318
S'http'
p2319
asbasbasbag55
(g71
g57
NtRp2320
(dp2321
g60
(dp2322
sg69
g1225
sg62
(lp2323
g55
(g76
g57
NtRp2324
(dp2325
g60
(dp2326
g80
g81
ssg69
g2320
sg62
(lp2327
S'wsgi_version'
p2328
asbag55
(g76
g57
NtRp2329
(dp2330
g60
(dp2331
g87
g88
ssg69
g2320
sg62
(lp2332
S':'
asbag55
(g76
g57
NtRp2333
(dp2334
g60
(dp2335
sg69
g2320
sg62
(lp2336
g55
(g56
g57
NtRp2337
(dp2338
g60
(dp2339
g68
I4
ssg69
g2333
sg62
(lp2340
g55
(g64
g57
NtRp2341
(dp2342
g60
(dp2343
g68
I3
ssg69
Nsg62
(lp2344
g55
(g71
g57
NtRp2345
(dp2346
g60
(dp2347
sg69
g2341
sg62
(lp2348
g55
(g76
g57
NtRp2349
(dp2350
g60
(dp2351
sg69
g2345
sg62
(lp2352
g55
(g56
g57
NtRp2353
(dp2354
g60
(dp2355
g68
I3
ssg69
g2349
sg62
(lp2356
S'1'
asbasbasbag55
(g71
g57
NtRp2357
(dp2358
g60
(dp2359
sg69
g2341
sg62
(lp2360
g55
(g76
g57
NtRp2361
(dp2362
g60
(dp2363
sg69
g2357
sg62
(lp2364
g55
(g56
g57
NtRp2365
(dp2366
g60
(dp2367
g68
I3
ssg69
g2361
sg62
(lp2368
S'0'
asbasbasbasbasbasbasbasbasbasbasbag55
(g71
g57
NtRp2369
(dp2370
g60
(dp2371
sg69
g65
sg62
(lp2372
g55
(g76
g57
NtRp2373
(dp2374
g60
(dp2375
g80
g81
ssg69
g2369
sg62
(lp2376
S'extension'
p2377
asbag55
(g76
g57
NtRp2378
(dp2379
g60
(dp2380
g87
g88
ssg69
g2369
sg62
(lp2381
S':'
asbag55
(g76
g57
NtRp2382
(dp2383
g60
(dp2384
sg69
g2369
sg62
(lp2385
g55
(g56
g57
NtRp2386
(dp2387
g60
(dp2388
g68
I5
ssg69
g2382
sg62
(lp2389
S'load'
p2390
asbasbasbag55
(g71
g57
NtRp2391
(dp2392
g60
(dp2393
sg69
g65
sg62
(lp2394
g55
(g76
g57
NtRp2395
(dp2396
g60
(dp2397
g80
g81
ssg69
g2391
sg62
(lp2398
S'folder'
p2399
asbag55
(g76
g57
NtRp2400
(dp2401
g60
(dp2402
g87
g88
ssg69
g2391
sg62
(lp2403
S':'
asbag55
(g76
g57
NtRp2404
(dp2405
g60
(dp2406
sg69
g2391
sg62
(lp2407
g55
(g56
g57
NtRp2408
(dp2409
g60
(dp2410
g68
I5
ssg69
g2404
sg62
(lp2411
S'/home/ian/web2py/applications/topoi/'
p2412
asbasbasbag55
(g71
g57
NtRp2413
(dp2414
g60
(dp2415
sg69
g65
sg62
(lp2416
g55
(g76
g57
NtRp2417
(dp2418
g60
(dp2419
g80
g81
ssg69
g2413
sg62
(lp2420
S'function'
p2421
asbag55
(g76
g57
NtRp2422
(dp2423
g60
(dp2424
g87
g88
ssg69
g2413
sg62
(lp2425
S':'
asbag55
(g76
g57
NtRp2426
(dp2427
g60
(dp2428
sg69
g2413
sg62
(lp2429
g55
(g56
g57
NtRp2430
(dp2431
g60
(dp2432
g68
I5
ssg69
g2426
sg62
(lp2433
S'edit'
p2434
asbasbasbag55
(g71
g57
NtRp2435
(dp2436
g60
(dp2437
sg69
g65
sg62
(lp2438
g55
(g76
g57
NtRp2439
(dp2440
g60
(dp2441
g80
g81
ssg69
g2435
sg62
(lp2442
S'get_vars'
p2443
asbag55
(g76
g57
NtRp2444
(dp2445
g60
(dp2446
g87
g88
ssg69
g2435
sg62
(lp2447
S':'
asbag55
(g76
g57
NtRp2448
(dp2449
g60
(dp2450
sg69
g2435
sg62
(lp2451
g55
(g56
g57
NtRp2452
(dp2453
g60
(dp2454
g68
I5
ssg69
g2448
sg62
(lp2455
g55
(g64
g57
NtRp2456
(dp2457
g60
(dp2458
g68
I4
ssg69
Nsg62
(lp2459
sbasbasbasbag55
(g71
g57
NtRp2460
(dp2461
g60
(dp2462
sg69
g65
sg62
(lp2463
g55
(g76
g57
NtRp2464
(dp2465
g60
(dp2466
g80
g81
ssg69
g2460
sg62
(lp2467
S'global_settings'
p2468
asbag55
(g76
g57
NtRp2469
(dp2470
g60
(dp2471
g87
g88
ssg69
g2460
sg62
(lp2472
S':'
asbag55
(g76
g57
NtRp2473
(dp2474
g60
(dp2475
sg69
g2460
sg62
(lp2476
g55
(g56
g57
NtRp2477
(dp2478
g60
(dp2479
g68
I5
ssg69
g2473
sg62
(lp2480
g55
(g64
g57
NtRp2481
(dp2482
g60
(dp2483
g68
I4
ssg69
Nsg62
(lp2484
g55
(g71
g57
NtRp2485
(dp2486
g60
(dp2487
sg69
g2481
sg62
(lp2488
g55
(g76
g57
NtRp2489
(dp2490
g60
(dp2491
g80
g81
ssg69
g2485
sg62
(lp2492
g1237
asbag55
(g76
g57
NtRp2493
(dp2494
g60
(dp2495
g87
g88
ssg69
g2485
sg62
(lp2496
S':'
asbag55
(g76
g57
NtRp2497
(dp2498
g60
(dp2499
sg69
g2485
sg62
(lp2500
g55
(g56
g57
NtRp2501
(dp2502
g60
(dp2503
g68
I4
ssg69
g2497
sg62
(lp2504
S"set(['/home/ian/web2py/applications/topoi/', '/home/ian/web2py/applications/welcome/', '/home/ian/web2py/applications/admin/'])"
p2505
asbasbasbag55
(g71
g57
NtRp2506
(dp2507
g60
(dp2508
sg69
g2481
sg62
(lp2509
g55
(g76
g57
NtRp2510
(dp2511
g60
(dp2512
g80
g81
ssg69
g2506
sg62
(lp2513
g1259
asbag55
(g76
g57
NtRp2514
(dp2515
g60
(dp2516
g87
g88
ssg69
g2506
sg62
(lp2517
S':'
asbag55
(g76
g57
NtRp2518
(dp2519
g60
(dp2520
sg69
g2506
sg62
(lp2521
g55
(g56
g57
NtRp2522
(dp2523
g60
(dp2524
g68
I4
ssg69
g2518
sg62
(lp2525
g1272
asbasbasbag55
(g71
g57
NtRp2526
(dp2527
g60
(dp2528
sg69
g2481
sg62
(lp2529
g55
(g76
g57
NtRp2530
(dp2531
g60
(dp2532
g80
g81
ssg69
g2526
sg62
(lp2533
g1281
asbag55
(g76
g57
NtRp2534
(dp2535
g60
(dp2536
g87
g88
ssg69
g2526
sg62
(lp2537
S':'
asbag55
(g76
g57
NtRp2538
(dp2539
g60
(dp2540
sg69
g2526
sg62
(lp2541
g55
(g56
g57
NtRp2542
(dp2543
g60
(dp2544
g68
I4
ssg69
g2538
sg62
(lp2545
g55
(g64
g57
NtRp2546
(dp2547
g60
(dp2548
g68
I3
ssg69
Nsg62
(lp2549
sbasbasbasbag55
(g71
g57
NtRp2550
(dp2551
g60
(dp2552
sg69
g2481
sg62
(lp2553
g55
(g76
g57
NtRp2554
(dp2555
g60
(dp2556
g80
g81
ssg69
g2550
sg62
(lp2557
g1306
asbag55
(g76
g57
NtRp2558
(dp2559
g60
(dp2560
g87
g88
ssg69
g2550
sg62
(lp2561
S':'
asbag55
(g76
g57
NtRp2562
(dp2563
g60
(dp2564
sg69
g2550
sg62
(lp2565
g55
(g56
g57
NtRp2566
(dp2567
g60
(dp2568
g68
I4
ssg69
g2562
sg62
(lp2569
S"<Values at 0x28edb00: {'verbose': False, 'ip': '127.0.0.1', 'shutdown_timeout': 5, 'taskbar': False, 'nocron': False, 'pid_filename': 'httpserver.pid', 'maxthreads': None, 'softcron': False, 'server_name': 'Ariel-ubuntu', 'bpython': False, 'nogui': False, 'port': 8000, 'extcron': False, 'debuglevel': 30, 'test': None, 'folder': '/home/ian/web2py', 'config': '', 'import_models': False, 'winservice': '', 'shell': None, 'run': '', 'log_filename': 'httpserver.log', 'args': [''], 'socket_timeout': 1, 'ssl_ca_certificate': None, 'scheduler': None, 'profiler_filename': None, 'ssl_private_key': '', 'password': '<ask>', 'request_queue_size': 5, 'ssl_certificate': '', 'cronjob': False, 'numthreads': None, 'quiet': False, 'interfaces': None, 'minthreads': None, 'timeout': 10, 'plain': False, 'nobanner': False}>"
p2570
asbasbasbag55
(g71
g57
NtRp2571
(dp2572
g60
(dp2573
sg69
g2481
sg62
(lp2574
g55
(g76
g57
NtRp2575
(dp2576
g60
(dp2577
g80
g81
ssg69
g2571
sg62
(lp2578
g1372
asbag55
(g76
g57
NtRp2579
(dp2580
g60
(dp2581
g87
g88
ssg69
g2571
sg62
(lp2582
S':'
asbag55
(g76
g57
NtRp2583
(dp2584
g60
(dp2585
sg69
g2571
sg62
(lp2586
g55
(g56
g57
NtRp2587
(dp2588
g60
(dp2589
g68
I4
ssg69
g2583
sg62
(lp2590
S'set([])'
p2591
asbasbasbag55
(g71
g57
NtRp2592
(dp2593
g60
(dp2594
sg69
g2481
sg62
(lp2595
g55
(g76
g57
NtRp2596
(dp2597
g60
(dp2598
g80
g81
ssg69
g2592
sg62
(lp2599
g1394
asbag55
(g76
g57
NtRp2600
(dp2601
g60
(dp2602
g87
g88
ssg69
g2592
sg62
(lp2603
S':'
asbag55
(g76
g57
NtRp2604
(dp2605
g60
(dp2606
sg69
g2592
sg62
(lp2607
g55
(g56
g57
NtRp2608
(dp2609
g60
(dp2610
g68
I4
ssg69
g2604
sg62
(lp2611
g1407
asbasbasbag55
(g71
g57
NtRp2612
(dp2613
g60
(dp2614
sg69
g2481
sg62
(lp2615
g55
(g76
g57
NtRp2616
(dp2617
g60
(dp2618
g80
g81
ssg69
g2612
sg62
(lp2619
g1416
asbag55
(g76
g57
NtRp2620
(dp2621
g60
(dp2622
g87
g88
ssg69
g2612
sg62
(lp2623
S':'
asbag55
(g76
g57
NtRp2624
(dp2625
g60
(dp2626
sg69
g2612
sg62
(lp2627
g55
(g56
g57
NtRp2628
(dp2629
g60
(dp2630
g68
I4
ssg69
g2624
sg62
(lp2631
g1429
asbasbasbag55
(g71
g57
NtRp2632
(dp2633
g60
(dp2634
sg69
g2481
sg62
(lp2635
g55
(g76
g57
NtRp2636
(dp2637
g60
(dp2638
g80
g81
ssg69
g2632
sg62
(lp2639
g1787
asbag55
(g76
g57
NtRp2640
(dp2641
g60
(dp2642
g87
g88
ssg69
g2632
sg62
(lp2643
S':'
asbag55
(g76
g57
NtRp2644
(dp2645
g60
(dp2646
sg69
g2632
sg62
(lp2647
g55
(g56
g57
NtRp2648
(dp2649
g60
(dp2650
g68
I4
ssg69
g2644
sg62
(lp2651
g1407
asbasbasbag55
(g71
g57
NtRp2652
(dp2653
g60
(dp2654
sg69
g2481
sg62
(lp2655
g55
(g76
g57
NtRp2656
(dp2657
g60
(dp2658
g80
g81
ssg69
g2652
sg62
(lp2659
g1808
asbag55
(g76
g57
NtRp2660
(dp2661
g60
(dp2662
g87
g88
ssg69
g2652
sg62
(lp2663
S':'
asbag55
(g76
g57
NtRp2664
(dp2665
g60
(dp2666
sg69
g2652
sg62
(lp2667
g55
(g56
g57
NtRp2668
(dp2669
g60
(dp2670
g68
I4
ssg69
g2664
sg62
(lp2671
g1407
asbasbasbag55
(g71
g57
NtRp2672
(dp2673
g60
(dp2674
sg69
g2481
sg62
(lp2675
g55
(g76
g57
NtRp2676
(dp2677
g60
(dp2678
g80
g81
ssg69
g2672
sg62
(lp2679
g2046
asbag55
(g76
g57
NtRp2680
(dp2681
g60
(dp2682
g87
g88
ssg69
g2672
sg62
(lp2683
S':'
asbag55
(g76
g57
NtRp2684
(dp2685
g60
(dp2686
sg69
g2672
sg62
(lp2687
g55
(g56
g57
NtRp2688
(dp2689
g60
(dp2690
g68
I4
ssg69
g2684
sg62
(lp2691
g2059
asbasbasbag55
(g71
g57
NtRp2692
(dp2693
g60
(dp2694
sg69
g2481
sg62
(lp2695
g55
(g76
g57
NtRp2696
(dp2697
g60
(dp2698
g80
g81
ssg69
g2692
sg62
(lp2699
g2089
asbag55
(g76
g57
NtRp2700
(dp2701
g60
(dp2702
g87
g88
ssg69
g2692
sg62
(lp2703
S':'
asbag55
(g76
g57
NtRp2704
(dp2705
g60
(dp2706
sg69
g2692
sg62
(lp2707
g55
(g56
g57
NtRp2708
(dp2709
g60
(dp2710
g68
I4
ssg69
g2704
sg62
(lp2711
g55
(g64
g57
NtRp2712
(dp2713
g60
(dp2714
g68
I3
ssg69
Nsg62
(lp2715
g55
(g71
g57
NtRp2716
(dp2717
g60
(dp2718
sg69
g2712
sg62
(lp2719
g55
(g76
g57
NtRp2720
(dp2721
g60
(dp2722
sg69
g2716
sg62
(lp2723
g55
(g56
g57
NtRp2724
(dp2725
g60
(dp2726
g68
I3
ssg69
g2720
sg62
(lp2727
S'1'
asbasbasbag55
(g71
g57
NtRp2728
(dp2729
g60
(dp2730
sg69
g2712
sg62
(lp2731
g55
(g76
g57
NtRp2732
(dp2733
g60
(dp2734
sg69
g2728
sg62
(lp2735
g55
(g56
g57
NtRp2736
(dp2737
g60
(dp2738
g68
I3
ssg69
g2732
sg62
(lp2739
S'99'
p2740
asbasbasbag55
(g71
g57
NtRp2741
(dp2742
g60
(dp2743
sg69
g2712
sg62
(lp2744
g55
(g76
g57
NtRp2745
(dp2746
g60
(dp2747
sg69
g2741
sg62
(lp2748
g55
(g56
g57
NtRp2749
(dp2750
g60
(dp2751
g68
I3
ssg69
g2745
sg62
(lp2752
S'4'
asbasbasbag55
(g71
g57
NtRp2753
(dp2754
g60
(dp2755
sg69
g2712
sg62
(lp2756
g55
(g76
g57
NtRp2757
(dp2758
g60
(dp2759
sg69
g2753
sg62
(lp2760
g55
(g56
g57
NtRp2761
(dp2762
g60
(dp2763
g68
I3
ssg69
g2757
sg62
(lp2764
S'datetime.datetime(2011, 12, 14, 14, 46, 14)'
p2765
asbasbasbag55
(g71
g57
NtRp2766
(dp2767
g60
(dp2768
sg69
g2712
sg62
(lp2769
g55
(g76
g57
NtRp2770
(dp2771
g60
(dp2772
sg69
g2766
sg62
(lp2773
g55
(g56
g57
NtRp2774
(dp2775
g60
(dp2776
g68
I3
ssg69
g2770
sg62
(lp2777
g2168
asbasbasbasbasbasbasbasbasbasbasbag55
(g71
g57
NtRp2778
(dp2779
g60
(dp2780
sg69
g65
sg62
(lp2781
g55
(g76
g57
NtRp2782
(dp2783
g60
(dp2784
g80
g81
ssg69
g2778
sg62
(lp2785
S'is_https'
p2786
asbag55
(g76
g57
NtRp2787
(dp2788
g60
(dp2789
g87
g88
ssg69
g2778
sg62
(lp2790
S':'
asbag55
(g76
g57
NtRp2791
(dp2792
g60
(dp2793
sg69
g2778
sg62
(lp2794
g55
(g56
g57
NtRp2795
(dp2796
g60
(dp2797
g68
I5
ssg69
g2791
sg62
(lp2798
g1407
asbasbasbag55
(g71
g57
NtRp2799
(dp2800
g60
(dp2801
sg69
g65
sg62
(lp2802
g55
(g76
g57
NtRp2803
(dp2804
g60
(dp2805
g80
g81
ssg69
g2799
sg62
(lp2806
S'is_local'
p2807
asbag55
(g76
g57
NtRp2808
(dp2809
g60
(dp2810
g87
g88
ssg69
g2799
sg62
(lp2811
S':'
asbag55
(g76
g57
NtRp2812
(dp2813
g60
(dp2814
sg69
g2799
sg62
(lp2815
g55
(g56
g57
NtRp2816
(dp2817
g60
(dp2818
g68
I5
ssg69
g2812
sg62
(lp2819
g98
asbasbasbag55
(g71
g57
NtRp2820
(dp2821
g60
(dp2822
sg69
g65
sg62
(lp2823
g55
(g76
g57
NtRp2824
(dp2825
g60
(dp2826
g80
g81
ssg69
g2820
sg62
(lp2827
S'is_restful'
p2828
asbag55
(g76
g57
NtRp2829
(dp2830
g60
(dp2831
g87
g88
ssg69
g2820
sg62
(lp2832
S':'
asbag55
(g76
g57
NtRp2833
(dp2834
g60
(dp2835
sg69
g2820
sg62
(lp2836
g55
(g56
g57
NtRp2837
(dp2838
g60
(dp2839
g68
I5
ssg69
g2833
sg62
(lp2840
g1407
asbasbasbag55
(g71
g57
NtRp2841
(dp2842
g60
(dp2843
sg69
g65
sg62
(lp2844
g55
(g76
g57
NtRp2845
(dp2846
g60
(dp2847
g80
g81
ssg69
g2841
sg62
(lp2848
S'now'
p2849
asbag55
(g76
g57
NtRp2850
(dp2851
g60
(dp2852
g87
g88
ssg69
g2841
sg62
(lp2853
S':'
asbag55
(g76
g57
NtRp2854
(dp2855
g60
(dp2856
sg69
g2841
sg62
(lp2857
g55
(g56
g57
NtRp2858
(dp2859
g60
(dp2860
g68
I5
ssg69
g2854
sg62
(lp2861
S'datetime.datetime(2012, 1, 21, 19, 8, 22, 163558)'
p2862
asbasbasbag55
(g71
g57
NtRp2863
(dp2864
g60
(dp2865
sg69
g65
sg62
(lp2866
g55
(g76
g57
NtRp2867
(dp2868
g60
(dp2869
g80
g81
ssg69
g2863
sg62
(lp2870
S'post_vars'
p2871
asbag55
(g76
g57
NtRp2872
(dp2873
g60
(dp2874
g87
g88
ssg69
g2863
sg62
(lp2875
S':'
asbag55
(g76
g57
NtRp2876
(dp2877
g60
(dp2878
sg69
g2863
sg62
(lp2879
g55
(g56
g57
NtRp2880
(dp2881
g60
(dp2882
g68
I5
ssg69
g2876
sg62
(lp2883
g55
(g64
g57
NtRp2884
(dp2885
g60
(dp2886
g68
I4
ssg69
Nsg62
(lp2887
g55
(g71
g57
NtRp2888
(dp2889
g60
(dp2890
sg69
g2884
sg62
(lp2891
g55
(g76
g57
NtRp2892
(dp2893
g60
(dp2894
g80
g81
ssg69
g2888
sg62
(lp2895
S'author'
p2896
asbag55
(g76
g57
NtRp2897
(dp2898
g60
(dp2899
g87
g88
ssg69
g2888
sg62
(lp2900
S':'
asbag55
(g76
g57
NtRp2901
(dp2902
g60
(dp2903
sg69
g2888
sg62
(lp2904
g55
(g56
g57
NtRp2905
(dp2906
g60
(dp2907
g68
I4
ssg69
g2901
sg62
(lp2908
S'11'
p2909
asbasbasbag55
(g71
g57
NtRp2910
(dp2911
g60
(dp2912
sg69
g2884
sg62
(lp2913
g55
(g76
g57
NtRp2914
(dp2915
g60
(dp2916
g80
g81
ssg69
g2910
sg62
(lp2917
S'body'
p2918
asbag55
(g76
g57
NtRp2919
(dp2920
g60
(dp2921
g87
g88
ssg69
g2910
sg62
(lp2922
S':'
asbag55
(g76
g57
NtRp2923
(dp2924
g60
(dp2925
sg69
g2910
sg62
(lp2926
g55
(g56
g57
NtRp2927
(dp2928
g60
(dp2929
g68
I4
ssg69
g2923
sg62
(lp2930
S'"theoretical" school'
p2931
asbasbasbag55
(g71
g57
NtRp2932
(dp2933
g60
(dp2934
sg69
g2884
sg62
(lp2935
g55
(g76
g57
NtRp2936
(dp2937
g60
(dp2938
g80
g81
ssg69
g2932
sg62
(lp2939
S'excerpt'
p2940
asbag55
(g76
g57
NtRp2941
(dp2942
g60
(dp2943
g87
g88
ssg69
g2932
sg62
(lp2944
S':'
asbag55
(g76
g57
NtRp2945
(dp2946
g60
(dp2947
sg69
g2932
sg62
(lp2948
g55
(g56
g57
NtRp2949
(dp2950
g60
(dp2951
g68
I4
ssg69
g2945
sg62
(lp2952
S''
asbasbasbag55
(g71
g57
NtRp2953
(dp2954
g60
(dp2955
sg69
g2884
sg62
(lp2956
g55
(g76
g57
NtRp2957
(dp2958
g60
(dp2959
g80
g81
ssg69
g2953
sg62
(lp2960
S'project'
p2961
asbag55
(g76
g57
NtRp2962
(dp2963
g60
(dp2964
g87
g88
ssg69
g2953
sg62
(lp2965
S':'
asbag55
(g76
g57
NtRp2966
(dp2967
g60
(dp2968
sg69
g2953
sg62
(lp2969
g55
(g56
g57
NtRp2970
(dp2971
g60
(dp2972
g68
I4
ssg69
g2966
sg62
(lp2973
S'1'
asbasbasbag55
(g71
g57
NtRp2974
(dp2975
g60
(dp2976
sg69
g2884
sg62
(lp2977
g55
(g76
g57
NtRp2978
(dp2979
g60
(dp2980
g80
g81
ssg69
g2974
sg62
(lp2981
S'reference'
p2982
asbag55
(g76
g57
NtRp2983
(dp2984
g60
(dp2985
g87
g88
ssg69
g2974
sg62
(lp2986
S':'
asbag55
(g76
g57
NtRp2987
(dp2988
g60
(dp2989
sg69
g2974
sg62
(lp2990
g55
(g56
g57
NtRp2991
(dp2992
g60
(dp2993
g68
I4
ssg69
g2987
sg62
(lp2994
S'13a.2'
p2995
asbasbasbag55
(g71
g57
NtRp2996
(dp2997
g60
(dp2998
sg69
g2884
sg62
(lp2999
g55
(g76
g57
NtRp3000
(dp3001
g60
(dp3002
g80
g81
ssg69
g2996
sg62
(lp3003
S'tags'
p3004
asbag55
(g76
g57
NtRp3005
(dp3006
g60
(dp3007
g87
g88
ssg69
g2996
sg62
(lp3008
S':'
asbag55
(g76
g57
NtRp3009
(dp3010
g60
(dp3011
sg69
g2996
sg62
(lp3012
g55
(g56
g57
NtRp3013
(dp3014
g60
(dp3015
g68
I4
ssg69
g3009
sg62
(lp3016
g55
(g64
g57
NtRp3017
(dp3018
g60
(dp3019
g68
I3
ssg69
Nsg62
(lp3020
g55
(g71
g57
NtRp3021
(dp3022
g60
(dp3023
sg69
g3017
sg62
(lp3024
g55
(g76
g57
NtRp3025
(dp3026
g60
(dp3027
sg69
g3021
sg62
(lp3028
g55
(g56
g57
NtRp3029
(dp3030
g60
(dp3031
g68
I3
ssg69
g3025
sg62
(lp3032
S'10'
p3033
asbasbasbag55
(g71
g57
NtRp3034
(dp3035
g60
(dp3036
sg69
g3017
sg62
(lp3037
g55
(g76
g57
NtRp3038
(dp3039
g60
(dp3040
sg69
g3034
sg62
(lp3041
g55
(g56
g57
NtRp3042
(dp3043
g60
(dp3044
g68
I3
ssg69
g3038
sg62
(lp3045
S'12'
p3046
asbasbasbag55
(g71
g57
NtRp3047
(dp3048
g60
(dp3049
sg69
g3017
sg62
(lp3050
g55
(g76
g57
NtRp3051
(dp3052
g60
(dp3053
sg69
g3047
sg62
(lp3054
g55
(g56
g57
NtRp3055
(dp3056
g60
(dp3057
g68
I3
ssg69
g3051
sg62
(lp3058
S'3'
asbasbasbasbasbasbasbag55
(g71
g57
NtRp3059
(dp3060
g60
(dp3061
sg69
g2884
sg62
(lp3062
g55
(g76
g57
NtRp3063
(dp3064
g60
(dp3065
g80
g81
ssg69
g3059
sg62
(lp3066
S'user'
p3067
asbag55
(g76
g57
NtRp3068
(dp3069
g60
(dp3070
g87
g88
ssg69
g3059
sg62
(lp3071
S':'
asbag55
(g76
g57
NtRp3072
(dp3073
g60
(dp3074
sg69
g3059
sg62
(lp3075
g55
(g56
g57
NtRp3076
(dp3077
g60
(dp3078
g68
I4
ssg69
g3072
sg62
(lp3079
S'1'
asbasbasbag55
(g71
g57
NtRp3080
(dp3081
g60
(dp3082
sg69
g2884
sg62
(lp3083
g55
(g76
g57
NtRp3084
(dp3085
g60
(dp3086
g80
g81
ssg69
g3080
sg62
(lp3087
S'work'
p3088
asbag55
(g76
g57
NtRp3089
(dp3090
g60
(dp3091
g87
g88
ssg69
g3080
sg62
(lp3092
S':'
asbag55
(g76
g57
NtRp3093
(dp3094
g60
(dp3095
sg69
g3080
sg62
(lp3096
g55
(g56
g57
NtRp3097
(dp3098
g60
(dp3099
g68
I4
ssg69
g3093
sg62
(lp3100
S'9'
asbasbasbasbasbasbasbag55
(g71
g57
NtRp3101
(dp3102
g60
(dp3103
sg69
g65
sg62
(lp3104
g55
(g76
g57
NtRp3105
(dp3106
g60
(dp3107
g80
g81
ssg69
g3101
sg62
(lp3108
S'raw_args'
p3109
asbag55
(g76
g57
NtRp3110
(dp3111
g60
(dp3112
g87
g88
ssg69
g3101
sg62
(lp3113
S':'
asbag55
(g76
g57
NtRp3114
(dp3115
g60
(dp3116
sg69
g3101
sg62
(lp3117
g55
(g56
g57
NtRp3118
(dp3119
g60
(dp3120
g68
I5
ssg69
g3114
sg62
(lp3121
g157
asbasbasbag55
(g71
g57
NtRp3122
(dp3123
g60
(dp3124
sg69
g65
sg62
(lp3125
g55
(g76
g57
NtRp3126
(dp3127
g60
(dp3128
g80
g81
ssg69
g3122
sg62
(lp3129
S'raw_extension'
p3130
asbag55
(g76
g57
NtRp3131
(dp3132
g60
(dp3133
g87
g88
ssg69
g3122
sg62
(lp3134
S':'
asbag55
(g76
g57
NtRp3135
(dp3136
g60
(dp3137
sg69
g3122
sg62
(lp3138
g55
(g56
g57
NtRp3139
(dp3140
g60
(dp3141
g68
I5
ssg69
g3135
sg62
(lp3142
g2390
asbasbasbag55
(g71
g57
NtRp3143
(dp3144
g60
(dp3145
sg69
g65
sg62
(lp3146
g55
(g76
g57
NtRp3147
(dp3148
g60
(dp3149
g80
g81
ssg69
g3143
sg62
(lp3150
S'url'
p3151
asbag55
(g76
g57
NtRp3152
(dp3153
g60
(dp3154
g87
g88
ssg69
g3143
sg62
(lp3155
S':'
asbag55
(g76
g57
NtRp3156
(dp3157
g60
(dp3158
sg69
g3143
sg62
(lp3159
g55
(g56
g57
NtRp3160
(dp3161
g60
(dp3162
g68
I5
ssg69
g3156
sg62
(lp3163
S'/topoi/plugin_listandedit/edit.load/notes'
p3164
asbasbasbag55
(g71
g57
NtRp3165
(dp3166
g60
(dp3167
sg69
g65
sg62
(lp3168
g55
(g76
g57
NtRp3169
(dp3170
g60
(dp3171
g80
g81
ssg69
g3165
sg62
(lp3172
S'utcnow'
p3173
asbag55
(g76
g57
NtRp3174
(dp3175
g60
(dp3176
g87
g88
ssg69
g3165
sg62
(lp3177
S':'
asbag55
(g76
g57
NtRp3178
(dp3179
g60
(dp3180
sg69
g3165
sg62
(lp3181
g55
(g56
g57
NtRp3182
(dp3183
g60
(dp3184
g68
I5
ssg69
g3178
sg62
(lp3185
S'datetime.datetime(2012, 1, 22, 0, 8, 22, 163601)'
p3186
asbasbasbag55
(g71
g57
NtRp3187
(dp3188
g60
(dp3189
sg69
g65
sg62
(lp3190
g55
(g76
g57
NtRp3191
(dp3192
g60
(dp3193
g80
g81
ssg69
g3187
sg62
(lp3194
S'uuid'
p3195
asbag55
(g76
g57
NtRp3196
(dp3197
g60
(dp3198
g87
g88
ssg69
g3187
sg62
(lp3199
S':'
asbag55
(g76
g57
NtRp3200
(dp3201
g60
(dp3202
sg69
g3187
sg62
(lp3203
g55
(g56
g57
NtRp3204
(dp3205
g60
(dp3206
g68
I5
ssg69
g3200
sg62
(lp3207
S'topoi/127.0.0.1.2012-01-21.19-08-22.d17caee6-5890-4dee-b2d7-0511cd3e7198'
p3208
asbasbasbag55
(g71
g57
NtRp3209
(dp3210
g60
(dp3211
sg69
g65
sg62
(lp3212
g55
(g76
g57
NtRp3213
(dp3214
g60
(dp3215
g80
g81
ssg69
g3209
sg62
(lp3216
S'vars'
p3217
asbag55
(g76
g57
NtRp3218
(dp3219
g60
(dp3220
g87
g88
ssg69
g3209
sg62
(lp3221
S':'
asbag55
(g76
g57
NtRp3222
(dp3223
g60
(dp3224
sg69
g3209
sg62
(lp3225
g55
(g56
g57
NtRp3226
(dp3227
g60
(dp3228
g68
I5
ssg69
g3222
sg62
(lp3229
g55
(g64
g57
NtRp3230
(dp3231
g60
(dp3232
g68
I4
ssg69
Nsg62
(lp3233
g55
(g71
g57
NtRp3234
(dp3235
g60
(dp3236
sg69
g3230
sg62
(lp3237
g55
(g76
g57
NtRp3238
(dp3239
g60
(dp3240
g80
g81
ssg69
g3234
sg62
(lp3241
g2896
asbag55
(g76
g57
NtRp3242
(dp3243
g60
(dp3244
g87
g88
ssg69
g3234
sg62
(lp3245
S':'
asbag55
(g76
g57
NtRp3246
(dp3247
g60
(dp3248
sg69
g3234
sg62
(lp3249
g55
(g56
g57
NtRp3250
(dp3251
g60
(dp3252
g68
I4
ssg69
g3246
sg62
(lp3253
g2909
asbasbasbag55
(g71
g57
NtRp3254
(dp3255
g60
(dp3256
sg69
g3230
sg62
(lp3257
g55
(g76
g57
NtRp3258
(dp3259
g60
(dp3260
g80
g81
ssg69
g3254
sg62
(lp3261
g2918
asbag55
(g76
g57
NtRp3262
(dp3263
g60
(dp3264
g87
g88
ssg69
g3254
sg62
(lp3265
S':'
asbag55
(g76
g57
NtRp3266
(dp3267
g60
(dp3268
sg69
g3254
sg62
(lp3269
g55
(g56
g57
NtRp3270
(dp3271
g60
(dp3272
g68
I4
ssg69
g3266
sg62
(lp3273
g2931
asbasbasbag55
(g71
g57
NtRp3274
(dp3275
g60
(dp3276
sg69
g3230
sg62
(lp3277
g55
(g76
g57
NtRp3278
(dp3279
g60
(dp3280
g80
g81
ssg69
g3274
sg62
(lp3281
g2940
asbag55
(g76
g57
NtRp3282
(dp3283
g60
(dp3284
g87
g88
ssg69
g3274
sg62
(lp3285
S':'
asbag55
(g76
g57
NtRp3286
(dp3287
g60
(dp3288
sg69
g3274
sg62
(lp3289
g55
(g56
g57
NtRp3290
(dp3291
g60
(dp3292
g68
I4
ssg69
g3286
sg62
(lp3293
S''
asbasbasbag55
(g71
g57
NtRp3294
(dp3295
g60
(dp3296
sg69
g3230
sg62
(lp3297
g55
(g76
g57
NtRp3298
(dp3299
g60
(dp3300
g80
g81
ssg69
g3294
sg62
(lp3301
g2961
asbag55
(g76
g57
NtRp3302
(dp3303
g60
(dp3304
g87
g88
ssg69
g3294
sg62
(lp3305
S':'
asbag55
(g76
g57
NtRp3306
(dp3307
g60
(dp3308
sg69
g3294
sg62
(lp3309
g55
(g56
g57
NtRp3310
(dp3311
g60
(dp3312
g68
I4
ssg69
g3306
sg62
(lp3313
S'1'
asbasbasbag55
(g71
g57
NtRp3314
(dp3315
g60
(dp3316
sg69
g3230
sg62
(lp3317
g55
(g76
g57
NtRp3318
(dp3319
g60
(dp3320
g80
g81
ssg69
g3314
sg62
(lp3321
g2982
asbag55
(g76
g57
NtRp3322
(dp3323
g60
(dp3324
g87
g88
ssg69
g3314
sg62
(lp3325
S':'
asbag55
(g76
g57
NtRp3326
(dp3327
g60
(dp3328
sg69
g3314
sg62
(lp3329
g55
(g56
g57
NtRp3330
(dp3331
g60
(dp3332
g68
I4
ssg69
g3326
sg62
(lp3333
g2995
asbasbasbag55
(g71
g57
NtRp3334
(dp3335
g60
(dp3336
sg69
g3230
sg62
(lp3337
g55
(g76
g57
NtRp3338
(dp3339
g60
(dp3340
g80
g81
ssg69
g3334
sg62
(lp3341
g3004
asbag55
(g76
g57
NtRp3342
(dp3343
g60
(dp3344
g87
g88
ssg69
g3334
sg62
(lp3345
S':'
asbag55
(g76
g57
NtRp3346
(dp3347
g60
(dp3348
sg69
g3334
sg62
(lp3349
g55
(g56
g57
NtRp3350
(dp3351
g60
(dp3352
g68
I4
ssg69
g3346
sg62
(lp3353
g55
(g64
g57
NtRp3354
(dp3355
g60
(dp3356
g68
I3
ssg69
Nsg62
(lp3357
g55
(g71
g57
NtRp3358
(dp3359
g60
(dp3360
sg69
g3354
sg62
(lp3361
g55
(g76
g57
NtRp3362
(dp3363
g60
(dp3364
sg69
g3358
sg62
(lp3365
g55
(g56
g57
NtRp3366
(dp3367
g60
(dp3368
g68
I3
ssg69
g3362
sg62
(lp3369
g3033
asbasbasbag55
(g71
g57
NtRp3370
(dp3371
g60
(dp3372
sg69
g3354
sg62
(lp3373
g55
(g76
g57
NtRp3374
(dp3375
g60
(dp3376
sg69
g3370
sg62
(lp3377
g55
(g56
g57
NtRp3378
(dp3379
g60
(dp3380
g68
I3
ssg69
g3374
sg62
(lp3381
g3046
asbasbasbag55
(g71
g57
NtRp3382
(dp3383
g60
(dp3384
sg69
g3354
sg62
(lp3385
g55
(g76
g57
NtRp3386
(dp3387
g60
(dp3388
sg69
g3382
sg62
(lp3389
g55
(g56
g57
NtRp3390
(dp3391
g60
(dp3392
g68
I3
ssg69
g3386
sg62
(lp3393
S'3'
asbasbasbasbasbasbasbag55
(g71
g57
NtRp3394
(dp3395
g60
(dp3396
sg69
g3230
sg62
(lp3397
g55
(g76
g57
NtRp3398
(dp3399
g60
(dp3400
g80
g81
ssg69
g3394
sg62
(lp3401
g3067
asbag55
(g76
g57
NtRp3402
(dp3403
g60
(dp3404
g87
g88
ssg69
g3394
sg62
(lp3405
S':'
asbag55
(g76
g57
NtRp3406
(dp3407
g60
(dp3408
sg69
g3394
sg62
(lp3409
g55
(g56
g57
NtRp3410
(dp3411
g60
(dp3412
g68
I4
ssg69
g3406
sg62
(lp3413
S'1'
asbasbasbag55
(g71
g57
NtRp3414
(dp3415
g60
(dp3416
sg69
g3230
sg62
(lp3417
g55
(g76
g57
NtRp3418
(dp3419
g60
(dp3420
g80
g81
ssg69
g3414
sg62
(lp3421
g3088
asbag55
(g76
g57
NtRp3422
(dp3423
g60
(dp3424
g87
g88
ssg69
g3414
sg62
(lp3425
S':'
asbag55
(g76
g57
NtRp3426
(dp3427
g60
(dp3428
sg69
g3414
sg62
(lp3429
g55
(g56
g57
NtRp3430
(dp3431
g60
(dp3432
g68
I4
ssg69
g3426
sg62
(lp3433
S'9'
asbasbasbasbasbasbasbag55
(g71
g57
NtRp3434
(dp3435
g60
(dp3436
sg69
g65
sg62
(lp3437
g55
(g76
g57
NtRp3438
(dp3439
g60
(dp3440
g80
g81
ssg69
g3434
sg62
(lp3441
S'wsgi'
p3442
asbag55
(g76
g57
NtRp3443
(dp3444
g60
(dp3445
g87
g88
ssg69
g3434
sg62
(lp3446
S':'
asbag55
(g76
g57
NtRp3447
(dp3448
g60
(dp3449
sg69
g3434
sg62
(lp3450
g55
(g56
g57
NtRp3451
(dp3452
g60
(dp3453
g68
I5
ssg69
g3447
sg62
(lp3454
g55
(g64
g57
NtRp3455
(dp3456
g60
(dp3457
g68
I4
ssg69
Nsg62
(lp3458
g55
(g71
g57
NtRp3459
(dp3460
g60
(dp3461
sg69
g3455
sg62
(lp3462
g55
(g76
g57
NtRp3463
(dp3464
g60
(dp3465
g80
g81
ssg69
g3459
sg62
(lp3466
S'environ'
p3467
asbag55
(g76
g57
NtRp3468
(dp3469
g60
(dp3470
g87
g88
ssg69
g3459
sg62
(lp3471
S':'
asbag55
(g76
g57
NtRp3472
(dp3473
g60
(dp3474
sg69
g3459
sg62
(lp3475
g55
(g56
g57
NtRp3476
(dp3477
g60
(dp3478
g68
I4
ssg69
g3472
sg62
(lp3479
g55
(g64
g57
NtRp3480
(dp3481
g60
(dp3482
g68
I3
ssg69
Nsg62
(lp3483
g55
(g71
g57
NtRp3484
(dp3485
g60
(dp3486
sg69
g3480
sg62
(lp3487
g55
(g76
g57
NtRp3488
(dp3489
g60
(dp3490
g80
g81
ssg69
g3484
sg62
(lp3491
S'CONTENT_LENGTH'
p3492
asbag55
(g76
g57
NtRp3493
(dp3494
g60
(dp3495
g87
g88
ssg69
g3484
sg62
(lp3496
S':'
asbag55
(g76
g57
NtRp3497
(dp3498
g60
(dp3499
sg69
g3484
sg62
(lp3500
g55
(g56
g57
NtRp3501
(dp3502
g60
(dp3503
g68
I3
ssg69
g3497
sg62
(lp3504
g1341
asbasbasbag55
(g71
g57
NtRp3505
(dp3506
g60
(dp3507
sg69
g3480
sg62
(lp3508
g55
(g76
g57
NtRp3509
(dp3510
g60
(dp3511
g80
g81
ssg69
g3505
sg62
(lp3512
S'CONTENT_TYPE'
p3513
asbag55
(g76
g57
NtRp3514
(dp3515
g60
(dp3516
g87
g88
ssg69
g3505
sg62
(lp3517
S':'
asbag55
(g76
g57
NtRp3518
(dp3519
g60
(dp3520
sg69
g3505
sg62
(lp3521
g55
(g56
g57
NtRp3522
(dp3523
g60
(dp3524
g68
I3
ssg69
g3518
sg62
(lp3525
g1363
asbasbasbag55
(g71
g57
NtRp3526
(dp3527
g60
(dp3528
sg69
g3480
sg62
(lp3529
g55
(g76
g57
NtRp3530
(dp3531
g60
(dp3532
g80
g81
ssg69
g3526
sg62
(lp3533
S'HTTP_ACCEPT'
p3534
asbag55
(g76
g57
NtRp3535
(dp3536
g60
(dp3537
g87
g88
ssg69
g3526
sg62
(lp3538
S':'
asbag55
(g76
g57
NtRp3539
(dp3540
g60
(dp3541
sg69
g3526
sg62
(lp3542
g55
(g56
g57
NtRp3543
(dp3544
g60
(dp3545
g68
I3
ssg69
g3539
sg62
(lp3546
g1451
asbasbasbag55
(g71
g57
NtRp3547
(dp3548
g60
(dp3549
sg69
g3480
sg62
(lp3550
g55
(g76
g57
NtRp3551
(dp3552
g60
(dp3553
g80
g81
ssg69
g3547
sg62
(lp3554
S'HTTP_ACCEPT_CHARSET'
p3555
asbag55
(g76
g57
NtRp3556
(dp3557
g60
(dp3558
g87
g88
ssg69
g3547
sg62
(lp3559
S':'
asbag55
(g76
g57
NtRp3560
(dp3561
g60
(dp3562
sg69
g3547
sg62
(lp3563
g55
(g56
g57
NtRp3564
(dp3565
g60
(dp3566
g68
I3
ssg69
g3560
sg62
(lp3567
g1473
asbasbasbag55
(g71
g57
NtRp3568
(dp3569
g60
(dp3570
sg69
g3480
sg62
(lp3571
g55
(g76
g57
NtRp3572
(dp3573
g60
(dp3574
g80
g81
ssg69
g3568
sg62
(lp3575
S'HTTP_ACCEPT_ENCODING'
p3576
asbag55
(g76
g57
NtRp3577
(dp3578
g60
(dp3579
g87
g88
ssg69
g3568
sg62
(lp3580
S':'
asbag55
(g76
g57
NtRp3581
(dp3582
g60
(dp3583
sg69
g3568
sg62
(lp3584
g55
(g56
g57
NtRp3585
(dp3586
g60
(dp3587
g68
I3
ssg69
g3581
sg62
(lp3588
g1495
asbasbasbag55
(g71
g57
NtRp3589
(dp3590
g60
(dp3591
sg69
g3480
sg62
(lp3592
g55
(g76
g57
NtRp3593
(dp3594
g60
(dp3595
g80
g81
ssg69
g3589
sg62
(lp3596
S'HTTP_ACCEPT_LANGUAGE'
p3597
asbag55
(g76
g57
NtRp3598
(dp3599
g60
(dp3600
g87
g88
ssg69
g3589
sg62
(lp3601
S':'
asbag55
(g76
g57
NtRp3602
(dp3603
g60
(dp3604
sg69
g3589
sg62
(lp3605
g55
(g56
g57
NtRp3606
(dp3607
g60
(dp3608
g68
I3
ssg69
g3602
sg62
(lp3609
g1517
asbasbasbag55
(g71
g57
NtRp3610
(dp3611
g60
(dp3612
sg69
g3480
sg62
(lp3613
g55
(g76
g57
NtRp3614
(dp3615
g60
(dp3616
g80
g81
ssg69
g3610
sg62
(lp3617
S'HTTP_CACHE_CONTROL'
p3618
asbag55
(g76
g57
NtRp3619
(dp3620
g60
(dp3621
g87
g88
ssg69
g3610
sg62
(lp3622
S':'
asbag55
(g76
g57
NtRp3623
(dp3624
g60
(dp3625
sg69
g3610
sg62
(lp3626
g55
(g56
g57
NtRp3627
(dp3628
g60
(dp3629
g68
I3
ssg69
g3623
sg62
(lp3630
g1539
asbasbasbag55
(g71
g57
NtRp3631
(dp3632
g60
(dp3633
sg69
g3480
sg62
(lp3634
g55
(g76
g57
NtRp3635
(dp3636
g60
(dp3637
g80
g81
ssg69
g3631
sg62
(lp3638
S'HTTP_CONNECTION'
p3639
asbag55
(g76
g57
NtRp3640
(dp3641
g60
(dp3642
g87
g88
ssg69
g3631
sg62
(lp3643
S':'
asbag55
(g76
g57
NtRp3644
(dp3645
g60
(dp3646
sg69
g3631
sg62
(lp3647
g55
(g56
g57
NtRp3648
(dp3649
g60
(dp3650
g68
I3
ssg69
g3644
sg62
(lp3651
g1561
asbasbasbag55
(g71
g57
NtRp3652
(dp3653
g60
(dp3654
sg69
g3480
sg62
(lp3655
g55
(g76
g57
NtRp3656
(dp3657
g60
(dp3658
g80
g81
ssg69
g3652
sg62
(lp3659
S'HTTP_CONTENT_LENGTH'
p3660
asbag55
(g76
g57
NtRp3661
(dp3662
g60
(dp3663
g87
g88
ssg69
g3652
sg62
(lp3664
S':'
asbag55
(g76
g57
NtRp3665
(dp3666
g60
(dp3667
sg69
g3652
sg62
(lp3668
g55
(g56
g57
NtRp3669
(dp3670
g60
(dp3671
g68
I3
ssg69
g3665
sg62
(lp3672
g1341
asbasbasbag55
(g71
g57
NtRp3673
(dp3674
g60
(dp3675
sg69
g3480
sg62
(lp3676
g55
(g76
g57
NtRp3677
(dp3678
g60
(dp3679
g80
g81
ssg69
g3673
sg62
(lp3680
S'HTTP_CONTENT_TYPE'
p3681
asbag55
(g76
g57
NtRp3682
(dp3683
g60
(dp3684
g87
g88
ssg69
g3673
sg62
(lp3685
S':'
asbag55
(g76
g57
NtRp3686
(dp3687
g60
(dp3688
sg69
g3673
sg62
(lp3689
g55
(g56
g57
NtRp3690
(dp3691
g60
(dp3692
g68
I3
ssg69
g3686
sg62
(lp3693
g1363
asbasbasbag55
(g71
g57
NtRp3694
(dp3695
g60
(dp3696
sg69
g3480
sg62
(lp3697
g55
(g76
g57
NtRp3698
(dp3699
g60
(dp3700
g80
g81
ssg69
g3694
sg62
(lp3701
S'HTTP_COOKIE'
p3702
asbag55
(g76
g57
NtRp3703
(dp3704
g60
(dp3705
g87
g88
ssg69
g3694
sg62
(lp3706
S':'
asbag55
(g76
g57
NtRp3707
(dp3708
g60
(dp3709
sg69
g3694
sg62
(lp3710
g55
(g56
g57
NtRp3711
(dp3712
g60
(dp3713
g68
I3
ssg69
g3707
sg62
(lp3714
g1625
asbasbasbag55
(g71
g57
NtRp3715
(dp3716
g60
(dp3717
sg69
g3480
sg62
(lp3718
g55
(g76
g57
NtRp3719
(dp3720
g60
(dp3721
g80
g81
ssg69
g3715
sg62
(lp3722
S'HTTP_HOST'
p3723
asbag55
(g76
g57
NtRp3724
(dp3725
g60
(dp3726
g87
g88
ssg69
g3715
sg62
(lp3727
S':'
asbag55
(g76
g57
NtRp3728
(dp3729
g60
(dp3730
sg69
g3715
sg62
(lp3731
g55
(g56
g57
NtRp3732
(dp3733
g60
(dp3734
g68
I3
ssg69
g3728
sg62
(lp3735
g1647
asbasbasbag55
(g71
g57
NtRp3736
(dp3737
g60
(dp3738
sg69
g3480
sg62
(lp3739
g55
(g76
g57
NtRp3740
(dp3741
g60
(dp3742
g80
g81
ssg69
g3736
sg62
(lp3743
S'HTTP_PRAGMA'
p3744
asbag55
(g76
g57
NtRp3745
(dp3746
g60
(dp3747
g87
g88
ssg69
g3736
sg62
(lp3748
S':'
asbag55
(g76
g57
NtRp3749
(dp3750
g60
(dp3751
sg69
g3736
sg62
(lp3752
g55
(g56
g57
NtRp3753
(dp3754
g60
(dp3755
g68
I3
ssg69
g3749
sg62
(lp3756
g1669
asbasbasbag55
(g71
g57
NtRp3757
(dp3758
g60
(dp3759
sg69
g3480
sg62
(lp3760
g55
(g76
g57
NtRp3761
(dp3762
g60
(dp3763
g80
g81
ssg69
g3757
sg62
(lp3764
S'HTTP_REFERER'
p3765
asbag55
(g76
g57
NtRp3766
(dp3767
g60
(dp3768
g87
g88
ssg69
g3757
sg62
(lp3769
S':'
asbag55
(g76
g57
NtRp3770
(dp3771
g60
(dp3772
sg69
g3757
sg62
(lp3773
g55
(g56
g57
NtRp3774
(dp3775
g60
(dp3776
g68
I3
ssg69
g3770
sg62
(lp3777
g1691
asbasbasbag55
(g71
g57
NtRp3778
(dp3779
g60
(dp3780
sg69
g3480
sg62
(lp3781
g55
(g76
g57
NtRp3782
(dp3783
g60
(dp3784
g80
g81
ssg69
g3778
sg62
(lp3785
S'HTTP_USER_AGENT'
p3786
asbag55
(g76
g57
NtRp3787
(dp3788
g60
(dp3789
g87
g88
ssg69
g3778
sg62
(lp3790
S':'
asbag55
(g76
g57
NtRp3791
(dp3792
g60
(dp3793
sg69
g3778
sg62
(lp3794
g55
(g56
g57
NtRp3795
(dp3796
g60
(dp3797
g68
I3
ssg69
g3791
sg62
(lp3798
g1713
asbasbasbag55
(g71
g57
NtRp3799
(dp3800
g60
(dp3801
sg69
g3480
sg62
(lp3802
g55
(g76
g57
NtRp3803
(dp3804
g60
(dp3805
g80
g81
ssg69
g3799
sg62
(lp3806
S'HTTP_WEB2PY_COMPONENT_ELEMENT'
p3807
asbag55
(g76
g57
NtRp3808
(dp3809
g60
(dp3810
g87
g88
ssg69
g3799
sg62
(lp3811
S':'
asbag55
(g76
g57
NtRp3812
(dp3813
g60
(dp3814
sg69
g3799
sg62
(lp3815
g55
(g56
g57
NtRp3816
(dp3817
g60
(dp3818
g68
I3
ssg69
g3812
sg62
(lp3819
g201
asbasbasbag55
(g71
g57
NtRp3820
(dp3821
g60
(dp3822
sg69
g3480
sg62
(lp3823
g55
(g76
g57
NtRp3824
(dp3825
g60
(dp3826
g80
g81
ssg69
g3820
sg62
(lp3827
S'HTTP_WEB2PY_COMPONENT_LOCATION'
p3828
asbag55
(g76
g57
NtRp3829
(dp3830
g60
(dp3831
g87
g88
ssg69
g3820
sg62
(lp3832
S':'
asbag55
(g76
g57
NtRp3833
(dp3834
g60
(dp3835
sg69
g3820
sg62
(lp3836
g55
(g56
g57
NtRp3837
(dp3838
g60
(dp3839
g68
I3
ssg69
g3833
sg62
(lp3840
g1756
asbasbasbag55
(g71
g57
NtRp3841
(dp3842
g60
(dp3843
sg69
g3480
sg62
(lp3844
g55
(g76
g57
NtRp3845
(dp3846
g60
(dp3847
g80
g81
ssg69
g3841
sg62
(lp3848
S'HTTP_X_REQUESTED_WITH'
p3849
asbag55
(g76
g57
NtRp3850
(dp3851
g60
(dp3852
g87
g88
ssg69
g3841
sg62
(lp3853
S':'
asbag55
(g76
g57
NtRp3854
(dp3855
g60
(dp3856
sg69
g3841
sg62
(lp3857
g55
(g56
g57
NtRp3858
(dp3859
g60
(dp3860
g68
I3
ssg69
g3854
sg62
(lp3861
g1778
asbasbasbag55
(g71
g57
NtRp3862
(dp3863
g60
(dp3864
sg69
g3480
sg62
(lp3865
g55
(g76
g57
NtRp3866
(dp3867
g60
(dp3868
g80
g81
ssg69
g3862
sg62
(lp3869
S'PATH_INFO'
p3870
asbag55
(g76
g57
NtRp3871
(dp3872
g60
(dp3873
g87
g88
ssg69
g3862
sg62
(lp3874
S':'
asbag55
(g76
g57
NtRp3875
(dp3876
g60
(dp3877
sg69
g3862
sg62
(lp3878
g55
(g56
g57
NtRp3879
(dp3880
g60
(dp3881
g68
I3
ssg69
g3875
sg62
(lp3882
g1842
asbasbasbag55
(g71
g57
NtRp3883
(dp3884
g60
(dp3885
sg69
g3480
sg62
(lp3886
g55
(g76
g57
NtRp3887
(dp3888
g60
(dp3889
g80
g81
ssg69
g3883
sg62
(lp3890
S'QUERY_STRING'
p3891
asbag55
(g76
g57
NtRp3892
(dp3893
g60
(dp3894
g87
g88
ssg69
g3883
sg62
(lp3895
S':'
asbag55
(g76
g57
NtRp3896
(dp3897
g60
(dp3898
sg69
g3883
sg62
(lp3899
g55
(g56
g57
NtRp3900
(dp3901
g60
(dp3902
g68
I3
ssg69
g3896
sg62
(lp3903
S''
asbasbasbag55
(g71
g57
NtRp3904
(dp3905
g60
(dp3906
sg69
g3480
sg62
(lp3907
g55
(g76
g57
NtRp3908
(dp3909
g60
(dp3910
g80
g81
ssg69
g3904
sg62
(lp3911
S'REMOTE_ADDR'
p3912
asbag55
(g76
g57
NtRp3913
(dp3914
g60
(dp3915
g87
g88
ssg69
g3904
sg62
(lp3916
S':'
asbag55
(g76
g57
NtRp3917
(dp3918
g60
(dp3919
sg69
g3904
sg62
(lp3920
g55
(g56
g57
NtRp3921
(dp3922
g60
(dp3923
g68
I3
ssg69
g3917
sg62
(lp3924
g223
asbasbasbag55
(g71
g57
NtRp3925
(dp3926
g60
(dp3927
sg69
g3480
sg62
(lp3928
g55
(g76
g57
NtRp3929
(dp3930
g60
(dp3931
g80
g81
ssg69
g3925
sg62
(lp3932
S'REMOTE_PORT'
p3933
asbag55
(g76
g57
NtRp3934
(dp3935
g60
(dp3936
g87
g88
ssg69
g3925
sg62
(lp3937
S':'
asbag55
(g76
g57
NtRp3938
(dp3939
g60
(dp3940
sg69
g3925
sg62
(lp3941
g55
(g56
g57
NtRp3942
(dp3943
g60
(dp3944
g68
I3
ssg69
g3938
sg62
(lp3945
g1906
asbasbasbag55
(g71
g57
NtRp3946
(dp3947
g60
(dp3948
sg69
g3480
sg62
(lp3949
g55
(g76
g57
NtRp3950
(dp3951
g60
(dp3952
g80
g81
ssg69
g3946
sg62
(lp3953
S'REQUEST_METHOD'
p3954
asbag55
(g76
g57
NtRp3955
(dp3956
g60
(dp3957
g87
g88
ssg69
g3946
sg62
(lp3958
S':'
asbag55
(g76
g57
NtRp3959
(dp3960
g60
(dp3961
sg69
g3946
sg62
(lp3962
g55
(g56
g57
NtRp3963
(dp3964
g60
(dp3965
g68
I3
ssg69
g3959
sg62
(lp3966
g1928
asbasbasbag55
(g71
g57
NtRp3967
(dp3968
g60
(dp3969
sg69
g3480
sg62
(lp3970
g55
(g76
g57
NtRp3971
(dp3972
g60
(dp3973
g80
g81
ssg69
g3967
sg62
(lp3974
S'SCRIPT_NAME'
p3975
asbag55
(g76
g57
NtRp3976
(dp3977
g60
(dp3978
g87
g88
ssg69
g3967
sg62
(lp3979
S':'
asbag55
(g76
g57
NtRp3980
(dp3981
g60
(dp3982
sg69
g3967
sg62
(lp3983
g55
(g56
g57
NtRp3984
(dp3985
g60
(dp3986
g68
I3
ssg69
g3980
sg62
(lp3987
S''
asbasbasbag55
(g71
g57
NtRp3988
(dp3989
g60
(dp3990
sg69
g3480
sg62
(lp3991
g55
(g76
g57
NtRp3992
(dp3993
g60
(dp3994
g80
g81
ssg69
g3988
sg62
(lp3995
S'SERVER_NAME'
p3996
asbag55
(g76
g57
NtRp3997
(dp3998
g60
(dp3999
g87
g88
ssg69
g3988
sg62
(lp4000
S':'
asbag55
(g76
g57
NtRp4001
(dp4002
g60
(dp4003
sg69
g3988
sg62
(lp4004
g55
(g56
g57
NtRp4005
(dp4006
g60
(dp4007
g68
I3
ssg69
g4001
sg62
(lp4008
g1971
asbasbasbag55
(g71
g57
NtRp4009
(dp4010
g60
(dp4011
sg69
g3480
sg62
(lp4012
g55
(g76
g57
NtRp4013
(dp4014
g60
(dp4015
g80
g81
ssg69
g4009
sg62
(lp4016
S'SERVER_PORT'
p4017
asbag55
(g76
g57
NtRp4018
(dp4019
g60
(dp4020
g87
g88
ssg69
g4009
sg62
(lp4021
S':'
asbag55
(g76
g57
NtRp4022
(dp4023
g60
(dp4024
sg69
g4009
sg62
(lp4025
g55
(g56
g57
NtRp4026
(dp4027
g60
(dp4028
g68
I3
ssg69
g4022
sg62
(lp4029
g1993
asbasbasbag55
(g71
g57
NtRp4030
(dp4031
g60
(dp4032
sg69
g3480
sg62
(lp4033
g55
(g76
g57
NtRp4034
(dp4035
g60
(dp4036
g80
g81
ssg69
g4030
sg62
(lp4037
S'SERVER_PROTOCOL'
p4038
asbag55
(g76
g57
NtRp4039
(dp4040
g60
(dp4041
g87
g88
ssg69
g4030
sg62
(lp4042
S':'
asbag55
(g76
g57
NtRp4043
(dp4044
g60
(dp4045
sg69
g4030
sg62
(lp4046
g55
(g56
g57
NtRp4047
(dp4048
g60
(dp4049
g68
I3
ssg69
g4043
sg62
(lp4050
g2015
asbasbasbag55
(g71
g57
NtRp4051
(dp4052
g60
(dp4053
sg69
g3480
sg62
(lp4054
g55
(g76
g57
NtRp4055
(dp4056
g60
(dp4057
g80
g81
ssg69
g4051
sg62
(lp4058
S'SERVER_SOFTWARE'
p4059
asbag55
(g76
g57
NtRp4060
(dp4061
g60
(dp4062
g87
g88
ssg69
g4051
sg62
(lp4063
S':'
asbag55
(g76
g57
NtRp4064
(dp4065
g60
(dp4066
sg69
g4051
sg62
(lp4067
g55
(g56
g57
NtRp4068
(dp4069
g60
(dp4070
g68
I3
ssg69
g4064
sg62
(lp4071
g2037
asbasbasbag55
(g71
g57
NtRp4072
(dp4073
g60
(dp4074
sg69
g3480
sg62
(lp4075
g55
(g76
g57
NtRp4076
(dp4077
g60
(dp4078
g80
g81
ssg69
g4072
sg62
(lp4079
S'wsgi.errors'
p4080
asbag55
(g76
g57
NtRp4081
(dp4082
g60
(dp4083
g87
g88
ssg69
g4072
sg62
(lp4084
S':'
asbag55
(g76
g57
NtRp4085
(dp4086
g60
(dp4087
sg69
g4072
sg62
(lp4088
g55
(g56
g57
NtRp4089
(dp4090
g60
(dp4091
g68
I3
ssg69
g4085
sg62
(lp4092
S"<open file '<stderr>', mode 'w' at 0x7f82e3665270>"
p4093
asbasbasbag55
(g71
g57
NtRp4094
(dp4095
g60
(dp4096
sg69
g3480
sg62
(lp4097
g55
(g76
g57
NtRp4098
(dp4099
g60
(dp4100
g80
g81
ssg69
g4094
sg62
(lp4101
S'wsgi.file_wrapper'
p4102
asbag55
(g76
g57
NtRp4103
(dp4104
g60
(dp4105
g87
g88
ssg69
g4094
sg62
(lp4106
S':'
asbag55
(g76
g57
NtRp4107
(dp4108
g60
(dp4109
sg69
g4094
sg62
(lp4110
g55
(g56
g57
NtRp4111
(dp4112
g60
(dp4113
g68
I3
ssg69
g4107
sg62
(lp4114
S'<class wsgiref.util.FileWrapper at 0x27acc80>'
p4115
asbasbasbag55
(g71
g57
NtRp4116
(dp4117
g60
(dp4118
sg69
g3480
sg62
(lp4119
g55
(g76
g57
NtRp4120
(dp4121
g60
(dp4122
g80
g81
ssg69
g4116
sg62
(lp4123
S'wsgi.input'
p4124
asbag55
(g76
g57
NtRp4125
(dp4126
g60
(dp4127
g87
g88
ssg69
g4116
sg62
(lp4128
S':'
asbag55
(g76
g57
NtRp4129
(dp4130
g60
(dp4131
sg69
g4116
sg62
(lp4132
g55
(g56
g57
NtRp4133
(dp4134
g60
(dp4135
g68
I3
ssg69
g4129
sg62
(lp4136
S"<closed file '<fdopen>', mode 'w+b' at 0x46cf270>"
p4137
asbasbasbag55
(g71
g57
NtRp4138
(dp4139
g60
(dp4140
sg69
g3480
sg62
(lp4141
g55
(g76
g57
NtRp4142
(dp4143
g60
(dp4144
g80
g81
ssg69
g4138
sg62
(lp4145
S'wsgi.multiprocess'
p4146
asbag55
(g76
g57
NtRp4147
(dp4148
g60
(dp4149
g87
g88
ssg69
g4138
sg62
(lp4150
S':'
asbag55
(g76
g57
NtRp4151
(dp4152
g60
(dp4153
sg69
g4138
sg62
(lp4154
g55
(g56
g57
NtRp4155
(dp4156
g60
(dp4157
g68
I3
ssg69
g4151
sg62
(lp4158
g1407
asbasbasbag55
(g71
g57
NtRp4159
(dp4160
g60
(dp4161
sg69
g3480
sg62
(lp4162
g55
(g76
g57
NtRp4163
(dp4164
g60
(dp4165
g80
g81
ssg69
g4159
sg62
(lp4166
S'wsgi.multithread'
p4167
asbag55
(g76
g57
NtRp4168
(dp4169
g60
(dp4170
g87
g88
ssg69
g4159
sg62
(lp4171
S':'
asbag55
(g76
g57
NtRp4172
(dp4173
g60
(dp4174
sg69
g4159
sg62
(lp4175
g55
(g56
g57
NtRp4176
(dp4177
g60
(dp4178
g68
I3
ssg69
g4172
sg62
(lp4179
g98
asbasbasbag55
(g71
g57
NtRp4180
(dp4181
g60
(dp4182
sg69
g3480
sg62
(lp4183
g55
(g76
g57
NtRp4184
(dp4185
g60
(dp4186
g80
g81
ssg69
g4180
sg62
(lp4187
S'wsgi.run_once'
p4188
asbag55
(g76
g57
NtRp4189
(dp4190
g60
(dp4191
g87
g88
ssg69
g4180
sg62
(lp4192
S':'
asbag55
(g76
g57
NtRp4193
(dp4194
g60
(dp4195
sg69
g4180
sg62
(lp4196
g55
(g56
g57
NtRp4197
(dp4198
g60
(dp4199
g68
I3
ssg69
g4193
sg62
(lp4200
g1407
asbasbasbag55
(g71
g57
NtRp4201
(dp4202
g60
(dp4203
sg69
g3480
sg62
(lp4204
g55
(g76
g57
NtRp4205
(dp4206
g60
(dp4207
g80
g81
ssg69
g4201
sg62
(lp4208
S'wsgi.url_scheme'
p4209
asbag55
(g76
g57
NtRp4210
(dp4211
g60
(dp4212
g87
g88
ssg69
g4201
sg62
(lp4213
S':'
asbag55
(g76
g57
NtRp4214
(dp4215
g60
(dp4216
sg69
g4201
sg62
(lp4217
g55
(g56
g57
NtRp4218
(dp4219
g60
(dp4220
g68
I3
ssg69
g4214
sg62
(lp4221
g2319
asbasbasbag55
(g71
g57
NtRp4222
(dp4223
g60
(dp4224
sg69
g3480
sg62
(lp4225
g55
(g76
g57
NtRp4226
(dp4227
g60
(dp4228
g80
g81
ssg69
g4222
sg62
(lp4229
S'wsgi.version'
p4230
asbag55
(g76
g57
NtRp4231
(dp4232
g60
(dp4233
g87
g88
ssg69
g4222
sg62
(lp4234
S':'
asbag55
(g76
g57
NtRp4235
(dp4236
g60
(dp4237
sg69
g4222
sg62
(lp4238
g55
(g56
g57
NtRp4239
(dp4240
g60
(dp4241
g68
I3
ssg69
g4235
sg62
(lp4242
S'1'
asbasbasbasbasbasbasbasbasbasbasbasbasbsS'frames'
p4243
(lp4244
(dp4245
S'file'
p4246
S'/home/ian/web2py/gluon/main.py'
p4247
sS'dump'
p4248
(dp4249
S'response.js.replace'
p4250
S'undefined'
p4251
sS'response.js'
p4252
S'(\'web2py_component(\', \'/topoi/plugin_listandedit/list.load\', ", \'listpane\');")'
p4253
sS'response'
p4254
S"<Storage {'body': <cStringIO.StringO object at 0...67b848>, 'view': 'plugin_listandedit/edit.load'}>"
p4255
ssS'lnum'
p4256
I536
sS'lines'
p4257
(dp4258
I531
S"                    if response.flash and not 'web2py-component-flash' in http_response.headers:"
p4259
sI532
S"                        http_response.headers['web2py-component-flash'] = \\"
p4260
sI533
S"                            str(response.flash).replace('\\n','')"
p4261
sI534
S"                    if response.js and not 'web2py-component-command' in http_response.headers:"
p4262
sI535
S"                        http_response.headers['web2py-component-command'] = \\"
p4263
sI536
S"                            response.js.replace('\\n','')"
p4264
sI537
S'                if session._forget and \\'
p4265
sI538
S'                        response.session_id_name in response.cookies:'
p4266
sI539
S'                    del response.cookies[response.session_id_name]'
p4267
sI540
S'                elif session._secure:'
p4268
ssS'call'
p4269
S"(environ={'CONTENT_LENGTH': '182', 'CONTENT_TYPE': 'application/x-www-form-urlencoded; charset=UTF-8', 'HTTP_ACCEPT': '*/*', 'HTTP_ACCEPT_CHARSET': 'ISO-8859-1,utf-8;q=0.7,*;q=0.7', 'HTTP_ACCEPT_ENCODING': 'gzip, deflate', 'HTTP_ACCEPT_LANGUAGE': 'en-us,en;q=0.5', 'HTTP_CACHE_CONTROL': 'no-cache', 'HTTP_CONNECTION': 'keep-alive', 'HTTP_CONTENT_LENGTH': '182', 'HTTP_CONTENT_TYPE': 'application/x-www-form-urlencoded; charset=UTF-8', ...}, responder=<function responder2>)"
p4270
sS'func'
p4271
S'wsgibase'
p4272
sasS'pyver'
p4273
S'Python 2.7.2+: /usr/bin/python2.7'
p4274
sS'session'
p4275
g55
(g56
g57
NtRp4276
(dp4277
g60
(dp4278
sg62
(lp4279
g55
(g64
g57
NtRp4280
(dp4281
g60
(dp4282
g68
I5
ssg69
Nsg62
(lp4283
g55
(g71
g57
NtRp4284
(dp4285
g60
(dp4286
sg69
g4280
sg62
(lp4287
g55
(g76
g57
NtRp4288
(dp4289
g60
(dp4290
g80
g81
ssg69
g4284
sg62
(lp4291
S'auth'
p4292
asbag55
(g76
g57
NtRp4293
(dp4294
g60
(dp4295
g87
g88
ssg69
g4284
sg62
(lp4296
S':'
asbag55
(g76
g57
NtRp4297
(dp4298
g60
(dp4299
sg69
g4284
sg62
(lp4300
g55
(g56
g57
NtRp4301
(dp4302
g60
(dp4303
g68
I5
ssg69
g4297
sg62
(lp4304
g55
(g64
g57
NtRp4305
(dp4306
g60
(dp4307
g68
I4
ssg69
Nsg62
(lp4308
g55
(g71
g57
NtRp4309
(dp4310
g60
(dp4311
sg69
g4305
sg62
(lp4312
g55
(g76
g57
NtRp4313
(dp4314
g60
(dp4315
g80
g81
ssg69
g4309
sg62
(lp4316
S'expiration'
p4317
asbag55
(g76
g57
NtRp4318
(dp4319
g60
(dp4320
g87
g88
ssg69
g4309
sg62
(lp4321
S':'
asbag55
(g76
g57
NtRp4322
(dp4323
g60
(dp4324
sg69
g4309
sg62
(lp4325
g55
(g56
g57
NtRp4326
(dp4327
g60
(dp4328
g68
I4
ssg69
g4322
sg62
(lp4329
S'2592000'
p4330
asbasbasbag55
(g71
g57
NtRp4331
(dp4332
g60
(dp4333
sg69
g4305
sg62
(lp4334
g55
(g76
g57
NtRp4335
(dp4336
g60
(dp4337
g80
g81
ssg69
g4331
sg62
(lp4338
S'hmac_key'
p4339
asbag55
(g76
g57
NtRp4340
(dp4341
g60
(dp4342
g87
g88
ssg69
g4331
sg62
(lp4343
S':'
asbag55
(g76
g57
NtRp4344
(dp4345
g60
(dp4346
sg69
g4331
sg62
(lp4347
g55
(g56
g57
NtRp4348
(dp4349
g60
(dp4350
g68
I4
ssg69
g4344
sg62
(lp4351
S'fafb80cc-442d-44e4-9f25-86354ae01fce'
p4352
asbasbasbag55
(g71
g57
NtRp4353
(dp4354
g60
(dp4355
sg69
g4305
sg62
(lp4356
g55
(g76
g57
NtRp4357
(dp4358
g60
(dp4359
g80
g81
ssg69
g4353
sg62
(lp4360
S'last_visit'
p4361
asbag55
(g76
g57
NtRp4362
(dp4363
g60
(dp4364
g87
g88
ssg69
g4353
sg62
(lp4365
S':'
asbag55
(g76
g57
NtRp4366
(dp4367
g60
(dp4368
sg69
g4353
sg62
(lp4369
g55
(g56
g57
NtRp4370
(dp4371
g60
(dp4372
g68
I4
ssg69
g4366
sg62
(lp4373
S'datetime.datetime(2012, 1, 21, 16, 35, 10, 96556)'
p4374
asbasbasbag55
(g71
g57
NtRp4375
(dp4376
g60
(dp4377
sg69
g4305
sg62
(lp4378
g55
(g76
g57
NtRp4379
(dp4380
g60
(dp4381
g80
g81
ssg69
g4375
sg62
(lp4382
S'remember'
p4383
asbag55
(g76
g57
NtRp4384
(dp4385
g60
(dp4386
g87
g88
ssg69
g4375
sg62
(lp4387
S':'
asbag55
(g76
g57
NtRp4388
(dp4389
g60
(dp4390
sg69
g4375
sg62
(lp4391
g55
(g56
g57
NtRp4392
(dp4393
g60
(dp4394
g68
I4
ssg69
g4388
sg62
(lp4395
g98
asbasbasbag55
(g71
g57
NtRp4396
(dp4397
g60
(dp4398
sg69
g4305
sg62
(lp4399
g55
(g76
g57
NtRp4400
(dp4401
g60
(dp4402
g80
g81
ssg69
g4396
sg62
(lp4403
S'user'
p4404
asbag55
(g76
g57
NtRp4405
(dp4406
g60
(dp4407
g87
g88
ssg69
g4396
sg62
(lp4408
S':'
asbag55
(g76
g57
NtRp4409
(dp4410
g60
(dp4411
sg69
g4396
sg62
(lp4412
g55
(g56
g57
NtRp4413
(dp4414
g60
(dp4415
g68
I4
ssg69
g4409
sg62
(lp4416
g55
(g64
g57
NtRp4417
(dp4418
g60
(dp4419
g68
I3
ssg69
Nsg62
(lp4420
g55
(g71
g57
NtRp4421
(dp4422
g60
(dp4423
sg69
g4417
sg62
(lp4424
g55
(g76
g57
NtRp4425
(dp4426
g60
(dp4427
g80
g81
ssg69
g4421
sg62
(lp4428
S'email'
p4429
asbag55
(g76
g57
NtRp4430
(dp4431
g60
(dp4432
g87
g88
ssg69
g4421
sg62
(lp4433
S':'
asbag55
(g76
g57
NtRp4434
(dp4435
g60
(dp4436
sg69
g4421
sg62
(lp4437
g55
(g56
g57
NtRp4438
(dp4439
g60
(dp4440
g68
I3
ssg69
g4434
sg62
(lp4441
S'scottianw@gmail.com'
p4442
asbasbasbag55
(g71
g57
NtRp4443
(dp4444
g60
(dp4445
sg69
g4417
sg62
(lp4446
g55
(g76
g57
NtRp4447
(dp4448
g60
(dp4449
g80
g81
ssg69
g4443
sg62
(lp4450
S'first_name'
p4451
asbag55
(g76
g57
NtRp4452
(dp4453
g60
(dp4454
g87
g88
ssg69
g4443
sg62
(lp4455
S':'
asbag55
(g76
g57
NtRp4456
(dp4457
g60
(dp4458
sg69
g4443
sg62
(lp4459
g55
(g56
g57
NtRp4460
(dp4461
g60
(dp4462
g68
I3
ssg69
g4456
sg62
(lp4463
S'Ian'
p4464
asbasbasbag55
(g71
g57
NtRp4465
(dp4466
g60
(dp4467
sg69
g4417
sg62
(lp4468
g55
(g76
g57
NtRp4469
(dp4470
g60
(dp4471
g80
g81
ssg69
g4465
sg62
(lp4472
S'id'
p4473
asbag55
(g76
g57
NtRp4474
(dp4475
g60
(dp4476
g87
g88
ssg69
g4465
sg62
(lp4477
S':'
asbag55
(g76
g57
NtRp4478
(dp4479
g60
(dp4480
sg69
g4465
sg62
(lp4481
g55
(g56
g57
NtRp4482
(dp4483
g60
(dp4484
g68
I3
ssg69
g4478
sg62
(lp4485
S'1'
asbasbasbag55
(g71
g57
NtRp4486
(dp4487
g60
(dp4488
sg69
g4417
sg62
(lp4489
g55
(g76
g57
NtRp4490
(dp4491
g60
(dp4492
g80
g81
ssg69
g4486
sg62
(lp4493
S'last_name'
p4494
asbag55
(g76
g57
NtRp4495
(dp4496
g60
(dp4497
g87
g88
ssg69
g4486
sg62
(lp4498
S':'
asbag55
(g76
g57
NtRp4499
(dp4500
g60
(dp4501
sg69
g4486
sg62
(lp4502
g55
(g56
g57
NtRp4503
(dp4504
g60
(dp4505
g68
I3
ssg69
g4499
sg62
(lp4506
S'Scott'
p4507
asbasbasbag55
(g71
g57
NtRp4508
(dp4509
g60
(dp4510
sg69
g4417
sg62
(lp4511
g55
(g76
g57
NtRp4512
(dp4513
g60
(dp4514
g80
g81
ssg69
g4508
sg62
(lp4515
S'password'
p4516
asbag55
(g76
g57
NtRp4517
(dp4518
g60
(dp4519
g87
g88
ssg69
g4508
sg62
(lp4520
S':'
asbag55
(g76
g57
NtRp4521
(dp4522
g60
(dp4523
sg69
g4508
sg62
(lp4524
g55
(g56
g57
NtRp4525
(dp4526
g60
(dp4527
g68
I3
ssg69
g4521
sg62
(lp4528
S'6fb48d01a3959846ba0fe062b1789f17d9cf3d34d3ec5aa948f598bbf4387cb10eb60c797988f41dfea97ee691b338dd77413d430229e401cf7c84e6cd9c4458'
p4529
asbasbasbag55
(g71
g57
NtRp4530
(dp4531
g60
(dp4532
sg69
g4417
sg62
(lp4533
g55
(g76
g57
NtRp4534
(dp4535
g60
(dp4536
g80
g81
ssg69
g4530
sg62
(lp4537
S'registration_id'
p4538
asbag55
(g76
g57
NtRp4539
(dp4540
g60
(dp4541
g87
g88
ssg69
g4530
sg62
(lp4542
S':'
asbag55
(g76
g57
NtRp4543
(dp4544
g60
(dp4545
sg69
g4530
sg62
(lp4546
g55
(g56
g57
NtRp4547
(dp4548
g60
(dp4549
g68
I3
ssg69
g4543
sg62
(lp4550
S'None'
p4551
asbasbasbag55
(g71
g57
NtRp4552
(dp4553
g60
(dp4554
sg69
g4417
sg62
(lp4555
g55
(g76
g57
NtRp4556
(dp4557
g60
(dp4558
g80
g81
ssg69
g4552
sg62
(lp4559
S'registration_key'
p4560
asbag55
(g76
g57
NtRp4561
(dp4562
g60
(dp4563
g87
g88
ssg69
g4552
sg62
(lp4564
S':'
asbag55
(g76
g57
NtRp4565
(dp4566
g60
(dp4567
sg69
g4552
sg62
(lp4568
g55
(g56
g57
NtRp4569
(dp4570
g60
(dp4571
g68
I3
ssg69
g4565
sg62
(lp4572
S''
asbasbasbag55
(g71
g57
NtRp4573
(dp4574
g60
(dp4575
sg69
g4417
sg62
(lp4576
g55
(g76
g57
NtRp4577
(dp4578
g60
(dp4579
g80
g81
ssg69
g4573
sg62
(lp4580
S'reset_password_key'
p4581
asbag55
(g76
g57
NtRp4582
(dp4583
g60
(dp4584
g87
g88
ssg69
g4573
sg62
(lp4585
S':'
asbag55
(g76
g57
NtRp4586
(dp4587
g60
(dp4588
sg69
g4573
sg62
(lp4589
g55
(g56
g57
NtRp4590
(dp4591
g60
(dp4592
g68
I3
ssg69
g4586
sg62
(lp4593
S''
asbasbasbasbasbasbasbasbasbasbasbasbasbsS'etype'
p4594
S"<type 'exceptions.AttributeError'>"
p4595
sS'date'
p4596
S'Sat Jan 21 19:08:22 2012'
p4597
sS'response'
p4598
g55
(g56
g57
NtRp4599
(dp4600
g60
(dp4601
sg62
(lp4602
g55
(g64
g57
NtRp4603
(dp4604
g60
(dp4605
g68
I5
ssg69
Nsg62
(lp4606
g55
(g71
g57
NtRp4607
(dp4608
g60
(dp4609
sg69
g4603
sg62
(lp4610
g55
(g76
g57
NtRp4611
(dp4612
g60
(dp4613
g80
g81
ssg69
g4607
sg62
(lp4614
g166
asbag55
(g76
g57
NtRp4615
(dp4616
g60
(dp4617
g87
g88
ssg69
g4607
sg62
(lp4618
S':'
asbag55
(g76
g57
NtRp4619
(dp4620
g60
(dp4621
sg69
g4607
sg62
(lp4622
g55
(g56
g57
NtRp4623
(dp4624
g60
(dp4625
g68
I5
ssg69
g4619
sg62
(lp4626
S'<cStringIO.StringO object at 0x3f77ca8>'
p4627
asbasbasbag55
(g71
g57
NtRp4628
(dp4629
g60
(dp4630
sg69
g4603
sg62
(lp4631
g55
(g76
g57
NtRp4632
(dp4633
g60
(dp4634
g80
g81
ssg69
g4628
sg62
(lp4635
g254
asbag55
(g76
g57
NtRp4636
(dp4637
g60
(dp4638
g87
g88
ssg69
g4628
sg62
(lp4639
S':'
asbag55
(g76
g57
NtRp4640
(dp4641
g60
(dp4642
sg69
g4628
sg62
(lp4643
g55
(g56
g57
NtRp4644
(dp4645
g60
(dp4646
g68
I5
ssg69
g4640
sg62
(lp4647
g55
(g64
g57
NtRp4648
(dp4649
g60
(dp4650
g68
I4
ssg69
Nsg62
(lp4651
g55
(g71
g57
NtRp4652
(dp4653
g60
(dp4654
sg69
g4648
sg62
(lp4655
g55
(g76
g57
NtRp4656
(dp4657
g60
(dp4658
g80
g81
ssg69
g4652
sg62
(lp4659
S'session_id_topoi'
p4660
asbag55
(g76
g57
NtRp4661
(dp4662
g60
(dp4663
g87
g88
ssg69
g4652
sg62
(lp4664
S':'
asbag55
(g76
g57
NtRp4665
(dp4666
g60
(dp4667
sg69
g4652
sg62
(lp4668
g55
(g56
g57
NtRp4669
(dp4670
g60
(dp4671
g68
I4
ssg69
g4665
sg62
(lp4672
g55
(g64
g57
NtRp4673
(dp4674
g60
(dp4675
g68
I3
ssg69
Nsg62
(lp4676
g55
(g71
g57
NtRp4677
(dp4678
g60
(dp4679
sg69
g4673
sg62
(lp4680
g55
(g76
g57
NtRp4681
(dp4682
g60
(dp4683
g80
g81
ssg69
g4677
sg62
(lp4684
g304
asbag55
(g76
g57
NtRp4685
(dp4686
g60
(dp4687
g87
g88
ssg69
g4677
sg62
(lp4688
S':'
asbag55
(g76
g57
NtRp4689
(dp4690
g60
(dp4691
sg69
g4677
sg62
(lp4692
g55
(g56
g57
NtRp4693
(dp4694
g60
(dp4695
g68
I3
ssg69
g4689
sg62
(lp4696
S''
asbasbasbag55
(g71
g57
NtRp4697
(dp4698
g60
(dp4699
sg69
g4673
sg62
(lp4700
g55
(g76
g57
NtRp4701
(dp4702
g60
(dp4703
g80
g81
ssg69
g4697
sg62
(lp4704
g325
asbag55
(g76
g57
NtRp4705
(dp4706
g60
(dp4707
g87
g88
ssg69
g4697
sg62
(lp4708
S':'
asbag55
(g76
g57
NtRp4709
(dp4710
g60
(dp4711
sg69
g4697
sg62
(lp4712
g55
(g56
g57
NtRp4713
(dp4714
g60
(dp4715
g68
I3
ssg69
g4709
sg62
(lp4716
S''
asbasbasbag55
(g71
g57
NtRp4717
(dp4718
g60
(dp4719
sg69
g4673
sg62
(lp4720
g55
(g76
g57
NtRp4721
(dp4722
g60
(dp4723
g80
g81
ssg69
g4717
sg62
(lp4724
g346
asbag55
(g76
g57
NtRp4725
(dp4726
g60
(dp4727
g87
g88
ssg69
g4717
sg62
(lp4728
S':'
asbag55
(g76
g57
NtRp4729
(dp4730
g60
(dp4731
sg69
g4717
sg62
(lp4732
g55
(g56
g57
NtRp4733
(dp4734
g60
(dp4735
g68
I3
ssg69
g4729
sg62
(lp4736
S'2592000'
p4737
asbasbasbag55
(g71
g57
NtRp4738
(dp4739
g60
(dp4740
sg69
g4673
sg62
(lp4741
g55
(g76
g57
NtRp4742
(dp4743
g60
(dp4744
g80
g81
ssg69
g4738
sg62
(lp4745
g367
asbag55
(g76
g57
NtRp4746
(dp4747
g60
(dp4748
g87
g88
ssg69
g4738
sg62
(lp4749
S':'
asbag55
(g76
g57
NtRp4750
(dp4751
g60
(dp4752
sg69
g4738
sg62
(lp4753
g55
(g56
g57
NtRp4754
(dp4755
g60
(dp4756
g68
I3
ssg69
g4750
sg62
(lp4757
S''
asbasbasbag55
(g71
g57
NtRp4758
(dp4759
g60
(dp4760
sg69
g4673
sg62
(lp4761
g55
(g76
g57
NtRp4762
(dp4763
g60
(dp4764
g80
g81
ssg69
g4758
sg62
(lp4765
g388
asbag55
(g76
g57
NtRp4766
(dp4767
g60
(dp4768
g87
g88
ssg69
g4758
sg62
(lp4769
S':'
asbag55
(g76
g57
NtRp4770
(dp4771
g60
(dp4772
sg69
g4758
sg62
(lp4773
g55
(g56
g57
NtRp4774
(dp4775
g60
(dp4776
g68
I3
ssg69
g4770
sg62
(lp4777
S''
asbasbasbag55
(g71
g57
NtRp4778
(dp4779
g60
(dp4780
sg69
g4673
sg62
(lp4781
g55
(g76
g57
NtRp4782
(dp4783
g60
(dp4784
g80
g81
ssg69
g4778
sg62
(lp4785
g409
asbag55
(g76
g57
NtRp4786
(dp4787
g60
(dp4788
g87
g88
ssg69
g4778
sg62
(lp4789
S':'
asbag55
(g76
g57
NtRp4790
(dp4791
g60
(dp4792
sg69
g4778
sg62
(lp4793
g55
(g56
g57
NtRp4794
(dp4795
g60
(dp4796
g68
I3
ssg69
g4790
sg62
(lp4797
S'/'
asbasbasbag55
(g71
g57
NtRp4798
(dp4799
g60
(dp4800
sg69
g4673
sg62
(lp4801
g55
(g76
g57
NtRp4802
(dp4803
g60
(dp4804
g80
g81
ssg69
g4798
sg62
(lp4805
g430
asbag55
(g76
g57
NtRp4806
(dp4807
g60
(dp4808
g87
g88
ssg69
g4798
sg62
(lp4809
S':'
asbag55
(g76
g57
NtRp4810
(dp4811
g60
(dp4812
sg69
g4798
sg62
(lp4813
g55
(g56
g57
NtRp4814
(dp4815
g60
(dp4816
g68
I3
ssg69
g4810
sg62
(lp4817
S''
asbasbasbag55
(g71
g57
NtRp4818
(dp4819
g60
(dp4820
sg69
g4673
sg62
(lp4821
g55
(g76
g57
NtRp4822
(dp4823
g60
(dp4824
g80
g81
ssg69
g4818
sg62
(lp4825
g451
asbag55
(g76
g57
NtRp4826
(dp4827
g60
(dp4828
g87
g88
ssg69
g4818
sg62
(lp4829
S':'
asbag55
(g76
g57
NtRp4830
(dp4831
g60
(dp4832
sg69
g4818
sg62
(lp4833
g55
(g56
g57
NtRp4834
(dp4835
g60
(dp4836
g68
I3
ssg69
g4830
sg62
(lp4837
S''
asbasbasbasbasbasbasbasbasbasbasbag55
(g71
g57
NtRp4838
(dp4839
g60
(dp4840
sg69
g4603
sg62
(lp4841
g55
(g76
g57
NtRp4842
(dp4843
g60
(dp4844
g80
g81
ssg69
g4838
sg62
(lp4845
S'files'
p4846
asbag55
(g76
g57
NtRp4847
(dp4848
g60
(dp4849
g87
g88
ssg69
g4838
sg62
(lp4850
S':'
asbag55
(g76
g57
NtRp4851
(dp4852
g60
(dp4853
sg69
g4838
sg62
(lp4854
g55
(g56
g57
NtRp4855
(dp4856
g60
(dp4857
g68
I5
ssg69
g4851
sg62
(lp4858
g55
(g64
g57
NtRp4859
(dp4860
g60
(dp4861
g68
I4
ssg69
Nsg62
(lp4862
sbasbasbasbag55
(g71
g57
NtRp4863
(dp4864
g60
(dp4865
sg69
g4603
sg62
(lp4866
g55
(g76
g57
NtRp4867
(dp4868
g60
(dp4869
g80
g81
ssg69
g4863
sg62
(lp4870
S'flash'
p4871
asbag55
(g76
g57
NtRp4872
(dp4873
g60
(dp4874
g87
g88
ssg69
g4863
sg62
(lp4875
S':'
asbag55
(g76
g57
NtRp4876
(dp4877
g60
(dp4878
sg69
g4863
sg62
(lp4879
g55
(g56
g57
NtRp4880
(dp4881
g60
(dp4882
g68
I5
ssg69
g4876
sg62
(lp4883
S'New record successfully created.'
p4884
asbasbasbag55
(g71
g57
NtRp4885
(dp4886
g60
(dp4887
sg69
g4603
sg62
(lp4888
g55
(g76
g57
NtRp4889
(dp4890
g60
(dp4891
g80
g81
ssg69
g4885
sg62
(lp4892
S'generic_patterns'
p4893
asbag55
(g76
g57
NtRp4894
(dp4895
g60
(dp4896
g87
g88
ssg69
g4885
sg62
(lp4897
S':'
asbag55
(g76
g57
NtRp4898
(dp4899
g60
(dp4900
sg69
g4885
sg62
(lp4901
g55
(g56
g57
NtRp4902
(dp4903
g60
(dp4904
g68
I5
ssg69
g4898
sg62
(lp4905
g55
(g64
g57
NtRp4906
(dp4907
g60
(dp4908
g68
I4
ssg69
Nsg62
(lp4909
g55
(g71
g57
NtRp4910
(dp4911
g60
(dp4912
sg69
g4906
sg62
(lp4913
g55
(g76
g57
NtRp4914
(dp4915
g60
(dp4916
sg69
g4910
sg62
(lp4917
g55
(g56
g57
NtRp4918
(dp4919
g60
(dp4920
g68
I4
ssg69
g4914
sg62
(lp4921
S'*'
asbasbasbasbasbasbasbag55
(g71
g57
NtRp4922
(dp4923
g60
(dp4924
sg69
g4603
sg62
(lp4925
g55
(g76
g57
NtRp4926
(dp4927
g60
(dp4928
g80
g81
ssg69
g4922
sg62
(lp4929
S'headers'
p4930
asbag55
(g76
g57
NtRp4931
(dp4932
g60
(dp4933
g87
g88
ssg69
g4922
sg62
(lp4934
S':'
asbag55
(g76
g57
NtRp4935
(dp4936
g60
(dp4937
sg69
g4922
sg62
(lp4938
g55
(g56
g57
NtRp4939
(dp4940
g60
(dp4941
g68
I5
ssg69
g4935
sg62
(lp4942
g55
(g64
g57
NtRp4943
(dp4944
g60
(dp4945
g68
I4
ssg69
Nsg62
(lp4946
g55
(g71
g57
NtRp4947
(dp4948
g60
(dp4949
sg69
g4943
sg62
(lp4950
g55
(g76
g57
NtRp4951
(dp4952
g60
(dp4953
g80
g81
ssg69
g4947
sg62
(lp4954
S'Cache-Control'
p4955
asbag55
(g76
g57
NtRp4956
(dp4957
g60
(dp4958
g87
g88
ssg69
g4947
sg62
(lp4959
S':'
asbag55
(g76
g57
NtRp4960
(dp4961
g60
(dp4962
sg69
g4947
sg62
(lp4963
g55
(g56
g57
NtRp4964
(dp4965
g60
(dp4966
g68
I4
ssg69
g4960
sg62
(lp4967
S'no-store, no-cache, must-revalidate, post-check=0, pre-check=0'
p4968
asbasbasbag55
(g71
g57
NtRp4969
(dp4970
g60
(dp4971
sg69
g4943
sg62
(lp4972
g55
(g76
g57
NtRp4973
(dp4974
g60
(dp4975
g80
g81
ssg69
g4969
sg62
(lp4976
S'Content-Type'
p4977
asbag55
(g76
g57
NtRp4978
(dp4979
g60
(dp4980
g87
g88
ssg69
g4969
sg62
(lp4981
S':'
asbag55
(g76
g57
NtRp4982
(dp4983
g60
(dp4984
sg69
g4969
sg62
(lp4985
g55
(g56
g57
NtRp4986
(dp4987
g60
(dp4988
g68
I4
ssg69
g4982
sg62
(lp4989
S'text/html; charset=utf-8'
p4990
asbasbasbag55
(g71
g57
NtRp4991
(dp4992
g60
(dp4993
sg69
g4943
sg62
(lp4994
g55
(g76
g57
NtRp4995
(dp4996
g60
(dp4997
g80
g81
ssg69
g4991
sg62
(lp4998
S'Expires'
p4999
asbag55
(g76
g57
NtRp5000
(dp5001
g60
(dp5002
g87
g88
ssg69
g4991
sg62
(lp5003
S':'
asbag55
(g76
g57
NtRp5004
(dp5005
g60
(dp5006
sg69
g4991
sg62
(lp5007
g55
(g56
g57
NtRp5008
(dp5009
g60
(dp5010
g68
I4
ssg69
g5004
sg62
(lp5011
S'Sun, 22 Jan 2012 00:08:22 GMT'
p5012
asbasbasbag55
(g71
g57
NtRp5013
(dp5014
g60
(dp5015
sg69
g4943
sg62
(lp5016
g55
(g76
g57
NtRp5017
(dp5018
g60
(dp5019
g80
g81
ssg69
g5013
sg62
(lp5020
S'Pragma'
p5021
asbag55
(g76
g57
NtRp5022
(dp5023
g60
(dp5024
g87
g88
ssg69
g5013
sg62
(lp5025
S':'
asbag55
(g76
g57
NtRp5026
(dp5027
g60
(dp5028
sg69
g5013
sg62
(lp5029
g55
(g56
g57
NtRp5030
(dp5031
g60
(dp5032
g68
I4
ssg69
g5026
sg62
(lp5033
S'no-cache'
p5034
asbasbasbag55
(g71
g57
NtRp5035
(dp5036
g60
(dp5037
sg69
g4943
sg62
(lp5038
g55
(g76
g57
NtRp5039
(dp5040
g60
(dp5041
g80
g81
ssg69
g5035
sg62
(lp5042
S'X-Powered-By'
p5043
asbag55
(g76
g57
NtRp5044
(dp5045
g60
(dp5046
g87
g88
ssg69
g5035
sg62
(lp5047
S':'
asbag55
(g76
g57
NtRp5048
(dp5049
g60
(dp5050
sg69
g5035
sg62
(lp5051
g55
(g56
g57
NtRp5052
(dp5053
g60
(dp5054
g68
I4
ssg69
g5048
sg62
(lp5055
S'web2py'
p5056
asbasbasbasbasbasbasbag55
(g71
g57
NtRp5057
(dp5058
g60
(dp5059
sg69
g4603
sg62
(lp5060
g55
(g76
g57
NtRp5061
(dp5062
g60
(dp5063
g80
g81
ssg69
g5057
sg62
(lp5064
S'js'
p5065
asbag55
(g76
g57
NtRp5066
(dp5067
g60
(dp5068
g87
g88
ssg69
g5057
sg62
(lp5069
S':'
asbag55
(g76
g57
NtRp5070
(dp5071
g60
(dp5072
sg69
g5057
sg62
(lp5073
g55
(g56
g57
NtRp5074
(dp5075
g60
(dp5076
g68
I5
ssg69
g5070
sg62
(lp5077
g55
(g64
g57
NtRp5078
(dp5079
g60
(dp5080
g68
I4
ssg69
Nsg62
(lp5081
g55
(g71
g57
NtRp5082
(dp5083
g60
(dp5084
sg69
g5078
sg62
(lp5085
g55
(g76
g57
NtRp5086
(dp5087
g60
(dp5088
sg69
g5082
sg62
(lp5089
g55
(g56
g57
NtRp5090
(dp5091
g60
(dp5092
g68
I4
ssg69
g5086
sg62
(lp5093
S'web2py_component('
p5094
asbasbasbag55
(g71
g57
NtRp5095
(dp5096
g60
(dp5097
sg69
g5078
sg62
(lp5098
g55
(g76
g57
NtRp5099
(dp5100
g60
(dp5101
sg69
g5095
sg62
(lp5102
g55
(g56
g57
NtRp5103
(dp5104
g60
(dp5105
g68
I4
ssg69
g5099
sg62
(lp5106
S'/topoi/plugin_listandedit/list.load'
p5107
asbasbasbag55
(g71
g57
NtRp5108
(dp5109
g60
(dp5110
sg69
g5078
sg62
(lp5111
g55
(g76
g57
NtRp5112
(dp5113
g60
(dp5114
sg69
g5108
sg62
(lp5115
g55
(g56
g57
NtRp5116
(dp5117
g60
(dp5118
g68
I4
ssg69
g5112
sg62
(lp5119
S", 'listpane');"
p5120
asbasbasbasbasbasbasbag55
(g71
g57
NtRp5121
(dp5122
g60
(dp5123
sg69
g4603
sg62
(lp5124
g55
(g76
g57
NtRp5125
(dp5126
g60
(dp5127
g80
g81
ssg69
g5121
sg62
(lp5128
S'menu'
p5129
asbag55
(g76
g57
NtRp5130
(dp5131
g60
(dp5132
g87
g88
ssg69
g5121
sg62
(lp5133
S':'
asbag55
(g76
g57
NtRp5134
(dp5135
g60
(dp5136
sg69
g5121
sg62
(lp5137
g55
(g56
g57
NtRp5138
(dp5139
g60
(dp5140
g68
I5
ssg69
g5134
sg62
(lp5141
g55
(g64
g57
NtRp5142
(dp5143
g60
(dp5144
g68
I4
ssg69
Nsg62
(lp5145
g55
(g71
g57
NtRp5146
(dp5147
g60
(dp5148
sg69
g5142
sg62
(lp5149
g55
(g76
g57
NtRp5150
(dp5151
g60
(dp5152
sg69
g5146
sg62
(lp5153
g55
(g56
g57
NtRp5154
(dp5155
g60
(dp5156
g68
I4
ssg69
g5150
sg62
(lp5157
g55
(g64
g57
NtRp5158
(dp5159
g60
(dp5160
g68
I3
ssg69
Nsg62
(lp5161
g55
(g71
g57
NtRp5162
(dp5163
g60
(dp5164
sg69
g5158
sg62
(lp5165
g55
(g76
g57
NtRp5166
(dp5167
g60
(dp5168
sg69
g5162
sg62
(lp5169
g55
(g56
g57
NtRp5170
(dp5171
g60
(dp5172
g68
I3
ssg69
g5166
sg62
(lp5173
cgluon.languages
lazyT_unpickle
p5174
(S't\x04\x00\x00\x00Home'
tRp5175
asbasbasbag55
(g71
g57
NtRp5176
(dp5177
g60
(dp5178
sg69
g5158
sg62
(lp5179
g55
(g76
g57
NtRp5180
(dp5181
g60
(dp5182
sg69
g5176
sg62
(lp5183
g55
(g56
g57
NtRp5184
(dp5185
g60
(dp5186
g68
I3
ssg69
g5180
sg62
(lp5187
g1407
asbasbasbag55
(g71
g57
NtRp5188
(dp5189
g60
(dp5190
sg69
g5158
sg62
(lp5191
g55
(g76
g57
NtRp5192
(dp5193
g60
(dp5194
sg69
g5188
sg62
(lp5195
g55
(g56
g57
NtRp5196
(dp5197
g60
(dp5198
g68
I3
ssg69
g5192
sg62
(lp5199
S'/topoi/default/index.load'
p5200
asbasbasbag55
(g71
g57
NtRp5201
(dp5202
g60
(dp5203
sg69
g5158
sg62
(lp5204
g55
(g76
g57
NtRp5205
(dp5206
g60
(dp5207
sg69
g5201
sg62
(lp5208
g55
(g56
g57
NtRp5209
(dp5210
g60
(dp5211
g68
I3
ssg69
g5205
sg62
(lp5212
g55
(g64
g57
NtRp5213
(dp5214
g60
(dp5215
g68
I2
ssg69
Nsg62
(lp5216
sbasbasbasbasbasbasbasbag55
(g71
g57
NtRp5217
(dp5218
g60
(dp5219
sg69
g5142
sg62
(lp5220
g55
(g76
g57
NtRp5221
(dp5222
g60
(dp5223
sg69
g5217
sg62
(lp5224
g55
(g56
g57
NtRp5225
(dp5226
g60
(dp5227
g68
I4
ssg69
g5221
sg62
(lp5228
g55
(g64
g57
NtRp5229
(dp5230
g60
(dp5231
g68
I3
ssg69
Nsg62
(lp5232
g55
(g71
g57
NtRp5233
(dp5234
g60
(dp5235
sg69
g5229
sg62
(lp5236
g55
(g76
g57
NtRp5237
(dp5238
g60
(dp5239
sg69
g5233
sg62
(lp5240
g55
(g56
g57
NtRp5241
(dp5242
g60
(dp5243
g68
I3
ssg69
g5237
sg62
(lp5244
g5174
(S't\x01\x00\x00\x00S'
tRp5245
asbasbasbag55
(g71
g57
NtRp5246
(dp5247
g60
(dp5248
sg69
g5229
sg62
(lp5249
g55
(g76
g57
NtRp5250
(dp5251
g60
(dp5252
sg69
g5246
sg62
(lp5253
g55
(g56
g57
NtRp5254
(dp5255
g60
(dp5256
g68
I3
ssg69
g5250
sg62
(lp5257
g1407
asbasbasbag55
(g71
g57
NtRp5258
(dp5259
g60
(dp5260
sg69
g5229
sg62
(lp5261
g55
(g76
g57
NtRp5262
(dp5263
g60
(dp5264
sg69
g5258
sg62
(lp5265
g55
(g56
g57
NtRp5266
(dp5267
g60
(dp5268
g68
I3
ssg69
g5262
sg62
(lp5269
S'/admin/default/design/topoi.load'
p5270
asbasbasbag55
(g71
g57
NtRp5271
(dp5272
g60
(dp5273
sg69
g5229
sg62
(lp5274
g55
(g76
g57
NtRp5275
(dp5276
g60
(dp5277
sg69
g5271
sg62
(lp5278
g55
(g56
g57
NtRp5279
(dp5280
g60
(dp5281
g68
I3
ssg69
g5275
sg62
(lp5282
g55
(g64
g57
NtRp5283
(dp5284
g60
(dp5285
g68
I2
ssg69
Nsg62
(lp5286
g55
(g71
g57
NtRp5287
(dp5288
g60
(dp5289
sg69
g5283
sg62
(lp5290
g55
(g76
g57
NtRp5291
(dp5292
g60
(dp5293
sg69
g5287
sg62
(lp5294
g55
(g56
g57
NtRp5295
(dp5296
g60
(dp5297
g68
I2
ssg69
g5291
sg62
(lp5298
g55
(g64
g57
NtRp5299
(dp5300
g60
(dp5301
g68
I1
ssg69
Nsg62
(lp5302
g55
(g71
g57
NtRp5303
(dp5304
g60
(dp5305
sg69
g5299
sg62
(lp5306
g55
(g76
g57
NtRp5307
(dp5308
g60
(dp5309
sg69
g5303
sg62
(lp5310
g55
(g56
g57
NtRp5311
(dp5312
g60
(dp5313
g68
I1
ssg69
g5307
sg62
(lp5314
g5174
(S't\n\x00\x00\x00Controller'
tRp5315
asbasbasbag55
(g71
g57
NtRp5316
(dp5317
g60
(dp5318
sg69
g5299
sg62
(lp5319
g55
(g76
g57
NtRp5320
(dp5321
g60
(dp5322
sg69
g5316
sg62
(lp5323
g55
(g56
g57
NtRp5324
(dp5325
g60
(dp5326
g68
I1
ssg69
g5320
sg62
(lp5327
I00
asbasbasbag55
(g71
g57
NtRp5328
(dp5329
g60
(dp5330
sg69
g5299
sg62
(lp5331
g55
(g76
g57
NtRp5332
(dp5333
g60
(dp5334
sg69
g5328
sg62
(lp5335
g55
(g56
g57
NtRp5336
(dp5337
g60
(dp5338
g68
I1
ssg69
g5332
sg62
(lp5339
S'/admin/default/edit/topoi/controllers/plugin_listandedit.py'
p5340
asbasbasbasbasbasbasbag55
(g71
g57
NtRp5341
(dp5342
g60
(dp5343
sg69
g5283
sg62
(lp5344
g55
(g76
g57
NtRp5345
(dp5346
g60
(dp5347
sg69
g5341
sg62
(lp5348
g55
(g56
g57
NtRp5349
(dp5350
g60
(dp5351
g68
I2
ssg69
g5345
sg62
(lp5352
g55
(g64
g57
NtRp5353
(dp5354
g60
(dp5355
g68
I1
ssg69
Nsg62
(lp5356
g55
(g71
g57
NtRp5357
(dp5358
g60
(dp5359
sg69
g5353
sg62
(lp5360
g55
(g76
g57
NtRp5361
(dp5362
g60
(dp5363
sg69
g5357
sg62
(lp5364
g55
(g56
g57
NtRp5365
(dp5366
g60
(dp5367
g68
I1
ssg69
g5361
sg62
(lp5368
g5174
(S't\x04\x00\x00\x00View'
tRp5369
asbasbasbag55
(g71
g57
NtRp5370
(dp5371
g60
(dp5372
sg69
g5353
sg62
(lp5373
g55
(g76
g57
NtRp5374
(dp5375
g60
(dp5376
sg69
g5370
sg62
(lp5377
g55
(g56
g57
NtRp5378
(dp5379
g60
(dp5380
g68
I1
ssg69
g5374
sg62
(lp5381
I00
asbasbasbag55
(g71
g57
NtRp5382
(dp5383
g60
(dp5384
sg69
g5353
sg62
(lp5385
g55
(g76
g57
NtRp5386
(dp5387
g60
(dp5388
sg69
g5382
sg62
(lp5389
g55
(g56
g57
NtRp5390
(dp5391
g60
(dp5392
g68
I1
ssg69
g5386
sg62
(lp5393
S'/admin/default/edit/topoi/views/plugin_listandedit/edit.load'
p5394
asbasbasbasbasbasbasbag55
(g71
g57
NtRp5395
(dp5396
g60
(dp5397
sg69
g5283
sg62
(lp5398
g55
(g76
g57
NtRp5399
(dp5400
g60
(dp5401
sg69
g5395
sg62
(lp5402
g55
(g56
g57
NtRp5403
(dp5404
g60
(dp5405
g68
I2
ssg69
g5399
sg62
(lp5406
g55
(g64
g57
NtRp5407
(dp5408
g60
(dp5409
g68
I1
ssg69
Nsg62
(lp5410
g55
(g71
g57
NtRp5411
(dp5412
g60
(dp5413
sg69
g5407
sg62
(lp5414
g55
(g76
g57
NtRp5415
(dp5416
g60
(dp5417
sg69
g5411
sg62
(lp5418
g55
(g56
g57
NtRp5419
(dp5420
g60
(dp5421
g68
I1
ssg69
g5415
sg62
(lp5422
g5174
(S't\x06\x00\x00\x00Layout'
tRp5423
asbasbasbag55
(g71
g57
NtRp5424
(dp5425
g60
(dp5426
sg69
g5407
sg62
(lp5427
g55
(g76
g57
NtRp5428
(dp5429
g60
(dp5430
sg69
g5424
sg62
(lp5431
g55
(g56
g57
NtRp5432
(dp5433
g60
(dp5434
g68
I1
ssg69
g5428
sg62
(lp5435
I00
asbasbasbag55
(g71
g57
NtRp5436
(dp5437
g60
(dp5438
sg69
g5407
sg62
(lp5439
g55
(g76
g57
NtRp5440
(dp5441
g60
(dp5442
sg69
g5436
sg62
(lp5443
g55
(g56
g57
NtRp5444
(dp5445
g60
(dp5446
g68
I1
ssg69
g5440
sg62
(lp5447
S'/admin/default/edit/topoi/views/layout.html'
p5448
asbasbasbasbasbasbasbag55
(g71
g57
NtRp5449
(dp5450
g60
(dp5451
sg69
g5283
sg62
(lp5452
g55
(g76
g57
NtRp5453
(dp5454
g60
(dp5455
sg69
g5449
sg62
(lp5456
g55
(g56
g57
NtRp5457
(dp5458
g60
(dp5459
g68
I2
ssg69
g5453
sg62
(lp5460
g55
(g64
g57
NtRp5461
(dp5462
g60
(dp5463
g68
I1
ssg69
Nsg62
(lp5464
g55
(g71
g57
NtRp5465
(dp5466
g60
(dp5467
sg69
g5461
sg62
(lp5468
g55
(g76
g57
NtRp5469
(dp5470
g60
(dp5471
sg69
g5465
sg62
(lp5472
g55
(g56
g57
NtRp5473
(dp5474
g60
(dp5475
g68
I1
ssg69
g5469
sg62
(lp5476
g5174
(S't\n\x00\x00\x00Stylesheet'
tRp5477
asbasbasbag55
(g71
g57
NtRp5478
(dp5479
g60
(dp5480
sg69
g5461
sg62
(lp5481
g55
(g76
g57
NtRp5482
(dp5483
g60
(dp5484
sg69
g5478
sg62
(lp5485
g55
(g56
g57
NtRp5486
(dp5487
g60
(dp5488
g68
I1
ssg69
g5482
sg62
(lp5489
I00
asbasbasbag55
(g71
g57
NtRp5490
(dp5491
g60
(dp5492
sg69
g5461
sg62
(lp5493
g55
(g76
g57
NtRp5494
(dp5495
g60
(dp5496
sg69
g5490
sg62
(lp5497
g55
(g56
g57
NtRp5498
(dp5499
g60
(dp5500
g68
I1
ssg69
g5494
sg62
(lp5501
S'/admin/default/edit/topoi/static/base.css'
p5502
asbasbasbasbasbasbasbag55
(g71
g57
NtRp5503
(dp5504
g60
(dp5505
sg69
g5283
sg62
(lp5506
g55
(g76
g57
NtRp5507
(dp5508
g60
(dp5509
sg69
g5503
sg62
(lp5510
g55
(g56
g57
NtRp5511
(dp5512
g60
(dp5513
g68
I2
ssg69
g5507
sg62
(lp5514
g55
(g64
g57
NtRp5515
(dp5516
g60
(dp5517
g68
I1
ssg69
Nsg62
(lp5518
g55
(g71
g57
NtRp5519
(dp5520
g60
(dp5521
sg69
g5515
sg62
(lp5522
g55
(g76
g57
NtRp5523
(dp5524
g60
(dp5525
sg69
g5519
sg62
(lp5526
g55
(g56
g57
NtRp5527
(dp5528
g60
(dp5529
g68
I1
ssg69
g5523
sg62
(lp5530
g5174
(S's\x08\x00\x00\x00DB Model'
tRp5531
asbasbasbag55
(g71
g57
NtRp5532
(dp5533
g60
(dp5534
sg69
g5515
sg62
(lp5535
g55
(g76
g57
NtRp5536
(dp5537
g60
(dp5538
sg69
g5532
sg62
(lp5539
g55
(g56
g57
NtRp5540
(dp5541
g60
(dp5542
g68
I1
ssg69
g5536
sg62
(lp5543
I00
asbasbasbag55
(g71
g57
NtRp5544
(dp5545
g60
(dp5546
sg69
g5515
sg62
(lp5547
g55
(g76
g57
NtRp5548
(dp5549
g60
(dp5550
sg69
g5544
sg62
(lp5551
g55
(g56
g57
NtRp5552
(dp5553
g60
(dp5554
g68
I1
ssg69
g5548
sg62
(lp5555
S'/admin/default/edit/topoi/models/db.py'
p5556
asbasbasbasbasbasbasbag55
(g71
g57
NtRp5557
(dp5558
g60
(dp5559
sg69
g5283
sg62
(lp5560
g55
(g76
g57
NtRp5561
(dp5562
g60
(dp5563
sg69
g5557
sg62
(lp5564
g55
(g56
g57
NtRp5565
(dp5566
g60
(dp5567
g68
I2
ssg69
g5561
sg62
(lp5568
g55
(g64
g57
NtRp5569
(dp5570
g60
(dp5571
g68
I1
ssg69
Nsg62
(lp5572
g55
(g71
g57
NtRp5573
(dp5574
g60
(dp5575
sg69
g5569
sg62
(lp5576
g55
(g76
g57
NtRp5577
(dp5578
g60
(dp5579
sg69
g5573
sg62
(lp5580
g55
(g56
g57
NtRp5581
(dp5582
g60
(dp5583
g68
I1
ssg69
g5577
sg62
(lp5584
g5174
(S's\n\x00\x00\x00Menu Model'
tRp5585
asbasbasbag55
(g71
g57
NtRp5586
(dp5587
g60
(dp5588
sg69
g5569
sg62
(lp5589
g55
(g76
g57
NtRp5590
(dp5591
g60
(dp5592
sg69
g5586
sg62
(lp5593
g55
(g56
g57
NtRp5594
(dp5595
g60
(dp5596
g68
I1
ssg69
g5590
sg62
(lp5597
I00
asbasbasbag55
(g71
g57
NtRp5598
(dp5599
g60
(dp5600
sg69
g5569
sg62
(lp5601
g55
(g76
g57
NtRp5602
(dp5603
g60
(dp5604
sg69
g5598
sg62
(lp5605
g55
(g56
g57
NtRp5606
(dp5607
g60
(dp5608
g68
I1
ssg69
g5602
sg62
(lp5609
S'/admin/default/edit/topoi/models/menu.py'
p5610
asbasbasbasbasbasbasbag55
(g71
g57
NtRp5611
(dp5612
g60
(dp5613
sg69
g5283
sg62
(lp5614
g55
(g76
g57
NtRp5615
(dp5616
g60
(dp5617
sg69
g5611
sg62
(lp5618
g55
(g56
g57
NtRp5619
(dp5620
g60
(dp5621
g68
I2
ssg69
g5615
sg62
(lp5622
g55
(g64
g57
NtRp5623
(dp5624
g60
(dp5625
g68
I1
ssg69
Nsg62
(lp5626
g55
(g71
g57
NtRp5627
(dp5628
g60
(dp5629
sg69
g5623
sg62
(lp5630
g55
(g76
g57
NtRp5631
(dp5632
g60
(dp5633
sg69
g5627
sg62
(lp5634
g55
(g56
g57
NtRp5635
(dp5636
g60
(dp5637
g68
I1
ssg69
g5631
sg62
(lp5638
g5174
(S't\x08\x00\x00\x00Database'
tRp5639
asbasbasbag55
(g71
g57
NtRp5640
(dp5641
g60
(dp5642
sg69
g5623
sg62
(lp5643
g55
(g76
g57
NtRp5644
(dp5645
g60
(dp5646
sg69
g5640
sg62
(lp5647
g55
(g56
g57
NtRp5648
(dp5649
g60
(dp5650
g68
I1
ssg69
g5644
sg62
(lp5651
I00
asbasbasbag55
(g71
g57
NtRp5652
(dp5653
g60
(dp5654
sg69
g5623
sg62
(lp5655
g55
(g76
g57
NtRp5656
(dp5657
g60
(dp5658
sg69
g5652
sg62
(lp5659
g55
(g56
g57
NtRp5660
(dp5661
g60
(dp5662
g68
I1
ssg69
g5656
sg62
(lp5663
S'/topoi/appadmin/index.load'
p5664
asbasbasbasbasbasbasbag55
(g71
g57
NtRp5665
(dp5666
g60
(dp5667
sg69
g5283
sg62
(lp5668
g55
(g76
g57
NtRp5669
(dp5670
g60
(dp5671
sg69
g5665
sg62
(lp5672
g55
(g56
g57
NtRp5673
(dp5674
g60
(dp5675
g68
I2
ssg69
g5669
sg62
(lp5676
g55
(g64
g57
NtRp5677
(dp5678
g60
(dp5679
g68
I1
ssg69
Nsg62
(lp5680
g55
(g71
g57
NtRp5681
(dp5682
g60
(dp5683
sg69
g5677
sg62
(lp5684
g55
(g76
g57
NtRp5685
(dp5686
g60
(dp5687
sg69
g5681
sg62
(lp5688
g55
(g56
g57
NtRp5689
(dp5690
g60
(dp5691
g68
I1
ssg69
g5685
sg62
(lp5692
g5174
(S't\x06\x00\x00\x00Errors'
tRp5693
asbasbasbag55
(g71
g57
NtRp5694
(dp5695
g60
(dp5696
sg69
g5677
sg62
(lp5697
g55
(g76
g57
NtRp5698
(dp5699
g60
(dp5700
sg69
g5694
sg62
(lp5701
g55
(g56
g57
NtRp5702
(dp5703
g60
(dp5704
g68
I1
ssg69
g5698
sg62
(lp5705
I00
asbasbasbag55
(g71
g57
NtRp5706
(dp5707
g60
(dp5708
sg69
g5677
sg62
(lp5709
g55
(g76
g57
NtRp5710
(dp5711
g60
(dp5712
sg69
g5706
sg62
(lp5713
g55
(g56
g57
NtRp5714
(dp5715
g60
(dp5716
g68
I1
ssg69
g5710
sg62
(lp5717
S'/admin/default/errors/topoi.load'
p5718
asbasbasbasbasbasbasbag55
(g71
g57
NtRp5719
(dp5720
g60
(dp5721
sg69
g5283
sg62
(lp5722
g55
(g76
g57
NtRp5723
(dp5724
g60
(dp5725
sg69
g5719
sg62
(lp5726
g55
(g56
g57
NtRp5727
(dp5728
g60
(dp5729
g68
I2
ssg69
g5723
sg62
(lp5730
g55
(g64
g57
NtRp5731
(dp5732
g60
(dp5733
g68
I1
ssg69
Nsg62
(lp5734
g55
(g71
g57
NtRp5735
(dp5736
g60
(dp5737
sg69
g5731
sg62
(lp5738
g55
(g76
g57
NtRp5739
(dp5740
g60
(dp5741
sg69
g5735
sg62
(lp5742
g55
(g56
g57
NtRp5743
(dp5744
g60
(dp5745
g68
I1
ssg69
g5739
sg62
(lp5746
g5174
(S't\x05\x00\x00\x00About'
tRp5747
asbasbasbag55
(g71
g57
NtRp5748
(dp5749
g60
(dp5750
sg69
g5731
sg62
(lp5751
g55
(g76
g57
NtRp5752
(dp5753
g60
(dp5754
sg69
g5748
sg62
(lp5755
g55
(g56
g57
NtRp5756
(dp5757
g60
(dp5758
g68
I1
ssg69
g5752
sg62
(lp5759
I00
asbasbasbag55
(g71
g57
NtRp5760
(dp5761
g60
(dp5762
sg69
g5731
sg62
(lp5763
g55
(g76
g57
NtRp5764
(dp5765
g60
(dp5766
sg69
g5760
sg62
(lp5767
g55
(g56
g57
NtRp5768
(dp5769
g60
(dp5770
g68
I1
ssg69
g5764
sg62
(lp5771
S'/admin/default/about/topoi.load'
p5772
asbasbasbasbasbasbasbasbasbasbasbasbasbasbasbasbasbasbasbag55
(g71
g57
NtRp5773
(dp5774
g60
(dp5775
sg69
g4603
sg62
(lp5776
g55
(g76
g57
NtRp5777
(dp5778
g60
(dp5779
g80
g81
ssg69
g5773
sg62
(lp5780
S'meta'
p5781
asbag55
(g76
g57
NtRp5782
(dp5783
g60
(dp5784
g87
g88
ssg69
g5773
sg62
(lp5785
S':'
asbag55
(g76
g57
NtRp5786
(dp5787
g60
(dp5788
sg69
g5773
sg62
(lp5789
g55
(g56
g57
NtRp5790
(dp5791
g60
(dp5792
g68
I5
ssg69
g5786
sg62
(lp5793
g55
(g64
g57
NtRp5794
(dp5795
g60
(dp5796
g68
I4
ssg69
Nsg62
(lp5797
g55
(g71
g57
NtRp5798
(dp5799
g60
(dp5800
sg69
g5794
sg62
(lp5801
g55
(g76
g57
NtRp5802
(dp5803
g60
(dp5804
g80
g81
ssg69
g5798
sg62
(lp5805
S'author'
p5806
asbag55
(g76
g57
NtRp5807
(dp5808
g60
(dp5809
g87
g88
ssg69
g5798
sg62
(lp5810
S':'
asbag55
(g76
g57
NtRp5811
(dp5812
g60
(dp5813
sg69
g5798
sg62
(lp5814
g55
(g56
g57
NtRp5815
(dp5816
g60
(dp5817
g68
I4
ssg69
g5811
sg62
(lp5818
S'Ian W. Scott'
p5819
asbasbasbag55
(g71
g57
NtRp5820
(dp5821
g60
(dp5822
sg69
g5794
sg62
(lp5823
g55
(g76
g57
NtRp5824
(dp5825
g60
(dp5826
g80
g81
ssg69
g5820
sg62
(lp5827
S'copyright'
p5828
asbag55
(g76
g57
NtRp5829
(dp5830
g60
(dp5831
g87
g88
ssg69
g5820
sg62
(lp5832
S':'
asbag55
(g76
g57
NtRp5833
(dp5834
g60
(dp5835
sg69
g5820
sg62
(lp5836
g55
(g56
g57
NtRp5837
(dp5838
g60
(dp5839
g68
I4
ssg69
g5833
sg62
(lp5840
S'Copyright 2011'
p5841
asbasbasbag55
(g71
g57
NtRp5842
(dp5843
g60
(dp5844
sg69
g5794
sg62
(lp5845
g55
(g76
g57
NtRp5846
(dp5847
g60
(dp5848
g80
g81
ssg69
g5842
sg62
(lp5849
S'description'
p5850
asbag55
(g76
g57
NtRp5851
(dp5852
g60
(dp5853
g87
g88
ssg69
g5842
sg62
(lp5854
S':'
asbag55
(g76
g57
NtRp5855
(dp5856
g60
(dp5857
sg69
g5842
sg62
(lp5858
g55
(g56
g57
NtRp5859
(dp5860
g60
(dp5861
g68
I4
ssg69
g5855
sg62
(lp5862
S'A web-app for managing primary-text research in the humanities.'
p5863
asbasbasbag55
(g71
g57
NtRp5864
(dp5865
g60
(dp5866
sg69
g5794
sg62
(lp5867
g55
(g76
g57
NtRp5868
(dp5869
g60
(dp5870
g80
g81
ssg69
g5864
sg62
(lp5871
S'generator'
p5872
asbag55
(g76
g57
NtRp5873
(dp5874
g60
(dp5875
g87
g88
ssg69
g5864
sg62
(lp5876
S':'
asbag55
(g76
g57
NtRp5877
(dp5878
g60
(dp5879
sg69
g5864
sg62
(lp5880
g55
(g56
g57
NtRp5881
(dp5882
g60
(dp5883
g68
I4
ssg69
g5877
sg62
(lp5884
S'Web2py Enterprise Framework'
p5885
asbasbasbag55
(g71
g57
NtRp5886
(dp5887
g60
(dp5888
sg69
g5794
sg62
(lp5889
g55
(g76
g57
NtRp5890
(dp5891
g60
(dp5892
g80
g81
ssg69
g5886
sg62
(lp5893
S'keywords'
p5894
asbag55
(g76
g57
NtRp5895
(dp5896
g60
(dp5897
g87
g88
ssg69
g5886
sg62
(lp5898
S':'
asbag55
(g76
g57
NtRp5899
(dp5900
g60
(dp5901
sg69
g5886
sg62
(lp5902
g55
(g56
g57
NtRp5903
(dp5904
g60
(dp5905
g68
I4
ssg69
g5899
sg62
(lp5906
S'research, humanities, biblical'
p5907
asbasbasbasbasbasbasbag55
(g71
g57
NtRp5908
(dp5909
g60
(dp5910
sg69
g4603
sg62
(lp5911
g55
(g76
g57
NtRp5912
(dp5913
g60
(dp5914
g80
g81
ssg69
g5908
sg62
(lp5915
S'postprocessing'
p5916
asbag55
(g76
g57
NtRp5917
(dp5918
g60
(dp5919
g87
g88
ssg69
g5908
sg62
(lp5920
S':'
asbag55
(g76
g57
NtRp5921
(dp5922
g60
(dp5923
sg69
g5908
sg62
(lp5924
g55
(g56
g57
NtRp5925
(dp5926
g60
(dp5927
g68
I5
ssg69
g5921
sg62
(lp5928
g55
(g64
g57
NtRp5929
(dp5930
g60
(dp5931
g68
I4
ssg69
Nsg62
(lp5932
sbasbasbasbag55
(g71
g57
NtRp5933
(dp5934
g60
(dp5935
sg69
g4603
sg62
(lp5936
g55
(g76
g57
NtRp5937
(dp5938
g60
(dp5939
g80
g81
ssg69
g5933
sg62
(lp5940
S'session_filename'
p5941
asbag55
(g76
g57
NtRp5942
(dp5943
g60
(dp5944
g87
g88
ssg69
g5933
sg62
(lp5945
S':'
asbag55
(g76
g57
NtRp5946
(dp5947
g60
(dp5948
sg69
g5933
sg62
(lp5949
g55
(g56
g57
NtRp5950
(dp5951
g60
(dp5952
g68
I5
ssg69
g5946
sg62
(lp5953
S'/home/ian/web2py/applications/topoi/sessions/127.0.0.1-36a47132-9f63-403c-93e8-4b961484278b'
p5954
asbasbasbag55
(g71
g57
NtRp5955
(dp5956
g60
(dp5957
sg69
g4603
sg62
(lp5958
g55
(g76
g57
NtRp5959
(dp5960
g60
(dp5961
g80
g81
ssg69
g5955
sg62
(lp5962
S'session_id'
p5963
asbag55
(g76
g57
NtRp5964
(dp5965
g60
(dp5966
g87
g88
ssg69
g5955
sg62
(lp5967
S':'
asbag55
(g76
g57
NtRp5968
(dp5969
g60
(dp5970
sg69
g5955
sg62
(lp5971
g55
(g56
g57
NtRp5972
(dp5973
g60
(dp5974
g68
I5
ssg69
g5968
sg62
(lp5975
S'127.0.0.1-36a47132-9f63-403c-93e8-4b961484278b'
p5976
asbasbasbag55
(g71
g57
NtRp5977
(dp5978
g60
(dp5979
sg69
g4603
sg62
(lp5980
g55
(g76
g57
NtRp5981
(dp5982
g60
(dp5983
g80
g81
ssg69
g5977
sg62
(lp5984
S'session_id_name'
p5985
asbag55
(g76
g57
NtRp5986
(dp5987
g60
(dp5988
g87
g88
ssg69
g5977
sg62
(lp5989
S':'
asbag55
(g76
g57
NtRp5990
(dp5991
g60
(dp5992
sg69
g5977
sg62
(lp5993
g55
(g56
g57
NtRp5994
(dp5995
g60
(dp5996
g68
I5
ssg69
g5990
sg62
(lp5997
g4660
asbasbasbag55
(g71
g57
NtRp5998
(dp5999
g60
(dp6000
sg69
g4603
sg62
(lp6001
g55
(g76
g57
NtRp6002
(dp6003
g60
(dp6004
g80
g81
ssg69
g5998
sg62
(lp6005
S'session_locked'
p6006
asbag55
(g76
g57
NtRp6007
(dp6008
g60
(dp6009
g87
g88
ssg69
g5998
sg62
(lp6010
S':'
asbag55
(g76
g57
NtRp6011
(dp6012
g60
(dp6013
sg69
g5998
sg62
(lp6014
g55
(g56
g57
NtRp6015
(dp6016
g60
(dp6017
g68
I5
ssg69
g6011
sg62
(lp6018
g1407
asbasbasbag55
(g71
g57
NtRp6019
(dp6020
g60
(dp6021
sg69
g4603
sg62
(lp6022
g55
(g76
g57
NtRp6023
(dp6024
g60
(dp6025
g80
g81
ssg69
g6019
sg62
(lp6026
S'session_new'
p6027
asbag55
(g76
g57
NtRp6028
(dp6029
g60
(dp6030
g87
g88
ssg69
g6019
sg62
(lp6031
S':'
asbag55
(g76
g57
NtRp6032
(dp6033
g60
(dp6034
sg69
g6019
sg62
(lp6035
g55
(g56
g57
NtRp6036
(dp6037
g60
(dp6038
g68
I5
ssg69
g6032
sg62
(lp6039
g1407
asbasbasbag55
(g71
g57
NtRp6040
(dp6041
g60
(dp6042
sg69
g4603
sg62
(lp6043
g55
(g76
g57
NtRp6044
(dp6045
g60
(dp6046
g80
g81
ssg69
g6040
sg62
(lp6047
S'status'
p6048
asbag55
(g76
g57
NtRp6049
(dp6050
g60
(dp6051
g87
g88
ssg69
g6040
sg62
(lp6052
S':'
asbag55
(g76
g57
NtRp6053
(dp6054
g60
(dp6055
sg69
g6040
sg62
(lp6056
g55
(g56
g57
NtRp6057
(dp6058
g60
(dp6059
g68
I5
ssg69
g6053
sg62
(lp6060
S'200'
p6061
asbasbasbag55
(g71
g57
NtRp6062
(dp6063
g60
(dp6064
sg69
g4603
sg62
(lp6065
g55
(g76
g57
NtRp6066
(dp6067
g60
(dp6068
g80
g81
ssg69
g6062
sg62
(lp6069
S'subtitle'
p6070
asbag55
(g76
g57
NtRp6071
(dp6072
g60
(dp6073
g87
g88
ssg69
g6062
sg62
(lp6074
S':'
asbag55
(g76
g57
NtRp6075
(dp6076
g60
(dp6077
sg69
g6062
sg62
(lp6078
g55
(g56
g57
NtRp6079
(dp6080
g60
(dp6081
g68
I5
ssg69
g6075
sg62
(lp6082
g5174
(S's;\x00\x00\x00A tool for managing primary-text research in the humanities'
tRp6083
asbasbasbag55
(g71
g57
NtRp6084
(dp6085
g60
(dp6086
sg69
g4603
sg62
(lp6087
g55
(g76
g57
NtRp6088
(dp6089
g60
(dp6090
g80
g81
ssg69
g6084
sg62
(lp6091
S'title'
p6092
asbag55
(g76
g57
NtRp6093
(dp6094
g60
(dp6095
g87
g88
ssg69
g6084
sg62
(lp6096
S':'
asbag55
(g76
g57
NtRp6097
(dp6098
g60
(dp6099
sg69
g6084
sg62
(lp6100
g55
(g56
g57
NtRp6101
(dp6102
g60
(dp6103
g68
I5
ssg69
g6097
sg62
(lp6104
g120
asbasbasbag55
(g71
g57
NtRp6105
(dp6106
g60
(dp6107
sg69
g4603
sg62
(lp6108
g55
(g76
g57
NtRp6109
(dp6110
g60
(dp6111
g80
g81
ssg69
g6105
sg62
(lp6112
g3195
asbag55
(g76
g57
NtRp6113
(dp6114
g60
(dp6115
g87
g88
ssg69
g6105
sg62
(lp6116
S':'
asbag55
(g76
g57
NtRp6117
(dp6118
g60
(dp6119
sg69
g6105
sg62
(lp6120
g55
(g56
g57
NtRp6121
(dp6122
g60
(dp6123
g68
I5
ssg69
g6117
sg62
(lp6124
g3208
asbasbasbag55
(g71
g57
NtRp6125
(dp6126
g60
(dp6127
sg69
g4603
sg62
(lp6128
g55
(g76
g57
NtRp6129
(dp6130
g60
(dp6131
g80
g81
ssg69
g6125
sg62
(lp6132
S'view'
p6133
asbag55
(g76
g57
NtRp6134
(dp6135
g60
(dp6136
g87
g88
ssg69
g6125
sg62
(lp6137
S':'
asbag55
(g76
g57
NtRp6138
(dp6139
g60
(dp6140
sg69
g6125
sg62
(lp6141
g55
(g56
g57
NtRp6142
(dp6143
g60
(dp6144
g68
I5
ssg69
g6138
sg62
(lp6145
S'plugin_listandedit/edit.load'
p6146
asbasbasbasbasbsS'locals'
p6147
(dp6148
S'local_hosts'
p6149
S"['127.0.0.1', '::1', '127.0.0.1', '::ffff:127.0.0.1', 'Ariel-ubuntu', '127.0.0.1']"
p6150
sg54
S"<Storage {'body': <closed file '<fdopen>', mode ...d4-4cc56062d4ad', '_formname': 'notes/create'}>}>"
p6151
sS'responder'
p6152
S'<function responder2>'
p6153
sS'static_file'
p6154
S'None'
p6155
sS'x_req_with'
p6156
S"'xmlhttprequest'"
p6157
sg4275
S"<Storage {'_formkey[notes/3]': '9055e7d5-adbf-4c...login]': '4ad6360b-e9ad-4ba9-9bfd-e110bf4ce800'}>"
p6158
sS'http_host'
p6159
S"'127.0.0.1'"
p6160
sg3467
S"{'CONTENT_LENGTH': '182', 'CONTENT_TYPE': 'application/x-www-form-urlencoded; charset=UTF-8', 'HTTP_ACCEPT': '*/*', 'HTTP_ACCEPT_CHARSET': 'ISO-8859-1,utf-8;q=0.7,*;q=0.7', 'HTTP_ACCEPT_ENCODING': 'gzip, deflate', 'HTTP_ACCEPT_LANGUAGE': 'en-us,en;q=0.5', 'HTTP_CACHE_CONTROL': 'no-cache', 'HTTP_CONNECTION': 'keep-alive', 'HTTP_CONTENT_LENGTH': '182', 'HTTP_CONTENT_TYPE': 'application/x-www-form-urlencoded; charset=UTF-8', ...}"
p6161
sg4598
S"<Storage {'body': <cStringIO.StringO object at 0...67b848>, 'view': 'plugin_listandedit/edit.load'}>"
p6162
sS'http_response'
p6163
S'HTTP()'
p6164
sssS'traceback'
p6165
S'Traceback (most recent call last):\n  File "/home/ian/web2py/gluon/main.py", line 536, in wsgibase\n    response.js.replace(\'\\n\',\'\')\nAttributeError: \'tuple\' object has no attribute \'replace\'\n'
p6166
s.