(dp1
S'output'
p2
S''
sS'layer'
p3
S'/home/ian/web2py/applications/topoi/models/topoi.py'
p4
sS'code'
p5
S'# coding: utf8\nfrom plugin_selectoradd import SELECT_OR_ADD_OPTION\nfrom plugin_multiselect_widget import hmultiselect_widget, vmultiselect_widget\nimport datetime\n\nadd_option = SELECT_OR_ADD_OPTION(form_title="Add new", controller="plugin_selectoradd", function="add", button_text = "Add New", dialog_width=500)\n\ndb.define_table(\'locations\',\n    Field(\'location\', \'string\'),\n    format=\'%(location)s\')\n\ndb.define_table(\'authors\', \n    Field(\'name\', \'string\', default=\'anonymous\'),\n    Field(\'location\', db.locations),\n    Field(\'lived\', \'string\'), \n    format=\'%(name)s\')\ndb.authors.location.widget = add_option.widget \n        \ndb.define_table(\'works\',\n    Field(\'title\', \'string\'),\n    Field(\'author\', db.authors),\n    Field(\'date_earliest\'),\n    Field(\'date_latest\'),\n    Field(\'date_likely\'),\n    Field(\'genre\'),\n    Field(\'source\'),\n    Field(\'comments\'),\n    format=\'%(title)s\')\n\ndb.define_table(\'projects\',\n    Field(\'projectname\', \'string\'),\n    Field(\'owner\', db.auth_user, default=auth.user_id),\n    Field(\'description\', \'text\'),\n    format=\'%(projectname)s\')\n\ndb.define_table(\'tags\',\n    Field(\'tagname\', \'string\'),\n    Field(\'creator\', db.auth_user, default=auth.user_id),\n    Field(\'project\', db.projects),\n    format=\'%(tagname)s\')\n    \ndb.define_table(\'notes\',\n    Field(\'label\', \'string\'),\n    Field(\'user\', db.auth_user, default=auth.user_id),\n    Field(\'author\', db.authors),\n    Field(\'work\', db.works),\n    Field(\'reference\'),\n    Field(\'excerpt\'),\n    Field(\'body\', \'text\'),\n    Field(\'tags\', \'list:reference db.tags\'),\n    Field(\'last_edited\', \'datetime\', default=datetime.datetime.utcnow()),\n    Field(\'project\', db.projects),\n    format=\'%(label)s\')\n#Initialize the add-or-select widget\ndb.notes.author.widget = add_option.widget\ndb.notes.work.widget = add_option.widget\ndb.notes.tags.requires = IS_IN_DB(db, \'tags.id\', db.tags._format, multiple = True)\ndb.notes.tags.widget = hmultiselect_widget\ndb.notes.project.widget = add_option.widget\n'
p6
sS'snapshot'
p7
(dp8
S'exception'
p9
(dp10
S'__hash__'
p11
S"<method-wrapper '__hash__' of exceptions.ImportError object>"
p12
sS'__setattr__'
p13
S"<method-wrapper '__setattr__' of exceptions.ImportError object>"
p14
sS'__reduce_ex__'
p15
S'<built-in method __reduce_ex__ of exceptions.ImportError object>'
p16
sS'__getslice__'
p17
S"<method-wrapper '__getslice__' of exceptions.ImportError object>"
p18
sS'__getitem__'
p19
S"<method-wrapper '__getitem__' of exceptions.ImportError object>"
p20
sS'__setstate__'
p21
S'<built-in method __setstate__ of exceptions.ImportError object>'
p22
sS'args'
p23
S"('No module named plugin_selectoradd',)"
p24
sS'__reduce__'
p25
S'<built-in method __reduce__ of exceptions.ImportError object>'
p26
sS'__str__'
p27
S"<method-wrapper '__str__' of exceptions.ImportError object>"
p28
sS'__format__'
p29
S'<built-in method __format__ of exceptions.ImportError object>'
p30
sS'__getattribute__'
p31
S"<method-wrapper '__getattribute__' of exceptions.ImportError object>"
p32
sS'__class__'
p33
S"<type 'exceptions.ImportError'>"
p34
sS'__unicode__'
p35
S'<built-in method __unicode__ of exceptions.ImportError object>'
p36
sS'__delattr__'
p37
S"<method-wrapper '__delattr__' of exceptions.ImportError object>"
p38
sS'__subclasshook__'
p39
S'<built-in method __subclasshook__ of type object>'
p40
sS'__repr__'
p41
S"<method-wrapper '__repr__' of exceptions.ImportError object>"
p42
sS'__dict__'
p43
S'{}'
p44
sS'__sizeof__'
p45
S'<built-in method __sizeof__ of exceptions.ImportError object>'
p46
sS'__doc__'
p47
S'"Import can\'t find module, or can\'t find name in module."'
p48
sS'__init__'
p49
S"<method-wrapper '__init__' of exceptions.ImportError object>"
p50
sS'__new__'
p51
S'<built-in method __new__ of type object>'
p52
ssS'evalue'
p53
S'No module named plugin_selectoradd'
p54
sS'request'
p55
ccopy_reg
_reconstructor
p56
(cgluon.html
BEAUTIFY
p57
c__builtin__
object
p58
NtRp59
(dp60
S'attributes'
p61
(dp62
sS'components'
p63
(lp64
g56
(cgluon.html
TABLE
p65
g58
NtRp66
(dp67
g61
(dp68
S'level'
p69
I5
ssS'parent'
p70
Nsg63
(lp71
g56
(cgluon.html
TR
p72
g58
NtRp73
(dp74
g61
(dp75
sg70
g66
sg63
(lp76
g56
(cgluon.html
TD
p77
g58
NtRp78
(dp79
g61
(dp80
S'_style'
p81
S'font-weight:bold;'
p82
ssg70
g73
sg63
(lp83
S'ajax'
p84
asbag56
(g77
g58
NtRp85
(dp86
g61
(dp87
S'_valign'
p88
S'top'
p89
ssg70
g73
sg63
(lp90
S':'
asbag56
(g77
g58
NtRp91
(dp92
g61
(dp93
sg70
g73
sg63
(lp94
g56
(g57
g58
NtRp95
(dp96
g61
(dp97
g69
I5
ssg70
g91
sg63
(lp98
S'False'
p99
asbasbasbag56
(g72
g58
NtRp100
(dp101
g61
(dp102
sg70
g66
sg63
(lp103
g56
(g77
g58
NtRp104
(dp105
g61
(dp106
g81
g82
ssg70
g100
sg63
(lp107
S'application'
p108
asbag56
(g77
g58
NtRp109
(dp110
g61
(dp111
g88
g89
ssg70
g100
sg63
(lp112
S':'
asbag56
(g77
g58
NtRp113
(dp114
g61
(dp115
sg70
g100
sg63
(lp116
g56
(g57
g58
NtRp117
(dp118
g61
(dp119
g69
I5
ssg70
g113
sg63
(lp120
S'topoi'
p121
asbasbasbag56
(g72
g58
NtRp122
(dp123
g61
(dp124
sg70
g66
sg63
(lp125
g56
(g77
g58
NtRp126
(dp127
g61
(dp128
g81
g82
ssg70
g122
sg63
(lp129
g23
asbag56
(g77
g58
NtRp130
(dp131
g61
(dp132
g88
g89
ssg70
g122
sg63
(lp133
S':'
asbag56
(g77
g58
NtRp134
(dp135
g61
(dp136
sg70
g122
sg63
(lp137
g56
(g57
g58
NtRp138
(dp139
g61
(dp140
g69
I5
ssg70
g134
sg63
(lp141
g56
(g65
g58
NtRp142
(dp143
g61
(dp144
g69
I4
ssg70
Nsg63
(lp145
g56
(g72
g58
NtRp146
(dp147
g61
(dp148
sg70
g142
sg63
(lp149
g56
(g77
g58
NtRp150
(dp151
g61
(dp152
sg70
g146
sg63
(lp153
g56
(g57
g58
NtRp154
(dp155
g61
(dp156
g69
I4
ssg70
g150
sg63
(lp157
S'note'
p158
asbasbasbag56
(g72
g58
NtRp159
(dp160
g61
(dp161
sg70
g142
sg63
(lp162
g56
(g77
g58
NtRp163
(dp164
g61
(dp165
sg70
g159
sg63
(lp166
g56
(g57
g58
NtRp167
(dp168
g61
(dp169
g69
I4
ssg70
g163
sg63
(lp170
S'1'
asbasbasbasbasbasbasbag56
(g72
g58
NtRp171
(dp172
g61
(dp173
sg70
g66
sg63
(lp174
g56
(g77
g58
NtRp175
(dp176
g61
(dp177
g81
g82
ssg70
g171
sg63
(lp178
S'body'
p179
asbag56
(g77
g58
NtRp180
(dp181
g61
(dp182
g88
g89
ssg70
g171
sg63
(lp183
S':'
asbag56
(g77
g58
NtRp184
(dp185
g61
(dp186
sg70
g171
sg63
(lp187
g56
(g57
g58
NtRp188
(dp189
g61
(dp190
g69
I5
ssg70
g184
sg63
(lp191
S'<cStringIO.StringO object at 0x7ffcec28b420>'
p192
asbasbasbag56
(g72
g58
NtRp193
(dp194
g61
(dp195
sg70
g66
sg63
(lp196
g56
(g77
g58
NtRp197
(dp198
g61
(dp199
g81
g82
ssg70
g193
sg63
(lp200
S'client'
p201
asbag56
(g77
g58
NtRp202
(dp203
g61
(dp204
g88
g89
ssg70
g193
sg63
(lp205
S':'
asbag56
(g77
g58
NtRp206
(dp207
g61
(dp208
sg70
g193
sg63
(lp209
g56
(g57
g58
NtRp210
(dp211
g61
(dp212
g69
I5
ssg70
g206
sg63
(lp213
S'127.0.0.1'
p214
asbasbasbag56
(g72
g58
NtRp215
(dp216
g61
(dp217
sg70
g66
sg63
(lp218
g56
(g77
g58
NtRp219
(dp220
g61
(dp221
g81
g82
ssg70
g215
sg63
(lp222
S'controller'
p223
asbag56
(g77
g58
NtRp224
(dp225
g61
(dp226
g88
g89
ssg70
g215
sg63
(lp227
S':'
asbag56
(g77
g58
NtRp228
(dp229
g61
(dp230
sg70
g215
sg63
(lp231
g56
(g57
g58
NtRp232
(dp233
g61
(dp234
g69
I5
ssg70
g228
sg63
(lp235
S'plugin_listandedit'
p236
asbasbasbag56
(g72
g58
NtRp237
(dp238
g61
(dp239
sg70
g66
sg63
(lp240
g56
(g77
g58
NtRp241
(dp242
g61
(dp243
g81
g82
ssg70
g237
sg63
(lp244
S'cookies'
p245
asbag56
(g77
g58
NtRp246
(dp247
g61
(dp248
g88
g89
ssg70
g237
sg63
(lp249
S':'
asbag56
(g77
g58
NtRp250
(dp251
g61
(dp252
sg70
g237
sg63
(lp253
g56
(g57
g58
NtRp254
(dp255
g61
(dp256
g69
I5
ssg70
g250
sg63
(lp257
g56
(g65
g58
NtRp258
(dp259
g61
(dp260
g69
I4
ssg70
Nsg63
(lp261
g56
(g72
g58
NtRp262
(dp263
g61
(dp264
sg70
g258
sg63
(lp265
g56
(g77
g58
NtRp266
(dp267
g61
(dp268
g81
g82
ssg70
g262
sg63
(lp269
S'session_id_admin'
p270
asbag56
(g77
g58
NtRp271
(dp272
g61
(dp273
g88
g89
ssg70
g262
sg63
(lp274
S':'
asbag56
(g77
g58
NtRp275
(dp276
g61
(dp277
sg70
g262
sg63
(lp278
g56
(g57
g58
NtRp279
(dp280
g61
(dp281
g69
I4
ssg70
g275
sg63
(lp282
g56
(g65
g58
NtRp283
(dp284
g61
(dp285
g69
I3
ssg70
Nsg63
(lp286
g56
(g72
g58
NtRp287
(dp288
g61
(dp289
sg70
g283
sg63
(lp290
g56
(g77
g58
NtRp291
(dp292
g61
(dp293
g81
g82
ssg70
g287
sg63
(lp294
S'comment'
p295
asbag56
(g77
g58
NtRp296
(dp297
g61
(dp298
g88
g89
ssg70
g287
sg63
(lp299
S':'
asbag56
(g77
g58
NtRp300
(dp301
g61
(dp302
sg70
g287
sg63
(lp303
g56
(g57
g58
NtRp304
(dp305
g61
(dp306
g69
I3
ssg70
g300
sg63
(lp307
S''
asbasbasbag56
(g72
g58
NtRp308
(dp309
g61
(dp310
sg70
g283
sg63
(lp311
g56
(g77
g58
NtRp312
(dp313
g61
(dp314
g81
g82
ssg70
g308
sg63
(lp315
S'domain'
p316
asbag56
(g77
g58
NtRp317
(dp318
g61
(dp319
g88
g89
ssg70
g308
sg63
(lp320
S':'
asbag56
(g77
g58
NtRp321
(dp322
g61
(dp323
sg70
g308
sg63
(lp324
g56
(g57
g58
NtRp325
(dp326
g61
(dp327
g69
I3
ssg70
g321
sg63
(lp328
S''
asbasbasbag56
(g72
g58
NtRp329
(dp330
g61
(dp331
sg70
g283
sg63
(lp332
g56
(g77
g58
NtRp333
(dp334
g61
(dp335
g81
g82
ssg70
g329
sg63
(lp336
S'expires'
p337
asbag56
(g77
g58
NtRp338
(dp339
g61
(dp340
g88
g89
ssg70
g329
sg63
(lp341
S':'
asbag56
(g77
g58
NtRp342
(dp343
g61
(dp344
sg70
g329
sg63
(lp345
g56
(g57
g58
NtRp346
(dp347
g61
(dp348
g69
I3
ssg70
g342
sg63
(lp349
S''
asbasbasbag56
(g72
g58
NtRp350
(dp351
g61
(dp352
sg70
g283
sg63
(lp353
g56
(g77
g58
NtRp354
(dp355
g61
(dp356
g81
g82
ssg70
g350
sg63
(lp357
S'httponly'
p358
asbag56
(g77
g58
NtRp359
(dp360
g61
(dp361
g88
g89
ssg70
g350
sg63
(lp362
S':'
asbag56
(g77
g58
NtRp363
(dp364
g61
(dp365
sg70
g350
sg63
(lp366
g56
(g57
g58
NtRp367
(dp368
g61
(dp369
g69
I3
ssg70
g363
sg63
(lp370
S''
asbasbasbag56
(g72
g58
NtRp371
(dp372
g61
(dp373
sg70
g283
sg63
(lp374
g56
(g77
g58
NtRp375
(dp376
g61
(dp377
g81
g82
ssg70
g371
sg63
(lp378
S'max-age'
p379
asbag56
(g77
g58
NtRp380
(dp381
g61
(dp382
g88
g89
ssg70
g371
sg63
(lp383
S':'
asbag56
(g77
g58
NtRp384
(dp385
g61
(dp386
sg70
g371
sg63
(lp387
g56
(g57
g58
NtRp388
(dp389
g61
(dp390
g69
I3
ssg70
g384
sg63
(lp391
S''
asbasbasbag56
(g72
g58
NtRp392
(dp393
g61
(dp394
sg70
g283
sg63
(lp395
g56
(g77
g58
NtRp396
(dp397
g61
(dp398
g81
g82
ssg70
g392
sg63
(lp399
S'path'
p400
asbag56
(g77
g58
NtRp401
(dp402
g61
(dp403
g88
g89
ssg70
g392
sg63
(lp404
S':'
asbag56
(g77
g58
NtRp405
(dp406
g61
(dp407
sg70
g392
sg63
(lp408
g56
(g57
g58
NtRp409
(dp410
g61
(dp411
g69
I3
ssg70
g405
sg63
(lp412
S''
asbasbasbag56
(g72
g58
NtRp413
(dp414
g61
(dp415
sg70
g283
sg63
(lp416
g56
(g77
g58
NtRp417
(dp418
g61
(dp419
g81
g82
ssg70
g413
sg63
(lp420
S'secure'
p421
asbag56
(g77
g58
NtRp422
(dp423
g61
(dp424
g88
g89
ssg70
g413
sg63
(lp425
S':'
asbag56
(g77
g58
NtRp426
(dp427
g61
(dp428
sg70
g413
sg63
(lp429
g56
(g57
g58
NtRp430
(dp431
g61
(dp432
g69
I3
ssg70
g426
sg63
(lp433
S''
asbasbasbag56
(g72
g58
NtRp434
(dp435
g61
(dp436
sg70
g283
sg63
(lp437
g56
(g77
g58
NtRp438
(dp439
g61
(dp440
g81
g82
ssg70
g434
sg63
(lp441
S'version'
p442
asbag56
(g77
g58
NtRp443
(dp444
g61
(dp445
g88
g89
ssg70
g434
sg63
(lp446
S':'
asbag56
(g77
g58
NtRp447
(dp448
g61
(dp449
sg70
g434
sg63
(lp450
g56
(g57
g58
NtRp451
(dp452
g61
(dp453
g69
I3
ssg70
g447
sg63
(lp454
S''
asbasbasbasbasbasbasbag56
(g72
g58
NtRp455
(dp456
g61
(dp457
sg70
g258
sg63
(lp458
g56
(g77
g58
NtRp459
(dp460
g61
(dp461
g81
g82
ssg70
g455
sg63
(lp462
S'session_id_topoi'
p463
asbag56
(g77
g58
NtRp464
(dp465
g61
(dp466
g88
g89
ssg70
g455
sg63
(lp467
S':'
asbag56
(g77
g58
NtRp468
(dp469
g61
(dp470
sg70
g455
sg63
(lp471
g56
(g57
g58
NtRp472
(dp473
g61
(dp474
g69
I4
ssg70
g468
sg63
(lp475
g56
(g65
g58
NtRp476
(dp477
g61
(dp478
g69
I3
ssg70
Nsg63
(lp479
g56
(g72
g58
NtRp480
(dp481
g61
(dp482
sg70
g476
sg63
(lp483
g56
(g77
g58
NtRp484
(dp485
g61
(dp486
g81
g82
ssg70
g480
sg63
(lp487
g295
asbag56
(g77
g58
NtRp488
(dp489
g61
(dp490
g88
g89
ssg70
g480
sg63
(lp491
S':'
asbag56
(g77
g58
NtRp492
(dp493
g61
(dp494
sg70
g480
sg63
(lp495
g56
(g57
g58
NtRp496
(dp497
g61
(dp498
g69
I3
ssg70
g492
sg63
(lp499
S''
asbasbasbag56
(g72
g58
NtRp500
(dp501
g61
(dp502
sg70
g476
sg63
(lp503
g56
(g77
g58
NtRp504
(dp505
g61
(dp506
g81
g82
ssg70
g500
sg63
(lp507
g316
asbag56
(g77
g58
NtRp508
(dp509
g61
(dp510
g88
g89
ssg70
g500
sg63
(lp511
S':'
asbag56
(g77
g58
NtRp512
(dp513
g61
(dp514
sg70
g500
sg63
(lp515
g56
(g57
g58
NtRp516
(dp517
g61
(dp518
g69
I3
ssg70
g512
sg63
(lp519
S''
asbasbasbag56
(g72
g58
NtRp520
(dp521
g61
(dp522
sg70
g476
sg63
(lp523
g56
(g77
g58
NtRp524
(dp525
g61
(dp526
g81
g82
ssg70
g520
sg63
(lp527
g337
asbag56
(g77
g58
NtRp528
(dp529
g61
(dp530
g88
g89
ssg70
g520
sg63
(lp531
S':'
asbag56
(g77
g58
NtRp532
(dp533
g61
(dp534
sg70
g520
sg63
(lp535
g56
(g57
g58
NtRp536
(dp537
g61
(dp538
g69
I3
ssg70
g532
sg63
(lp539
S''
asbasbasbag56
(g72
g58
NtRp540
(dp541
g61
(dp542
sg70
g476
sg63
(lp543
g56
(g77
g58
NtRp544
(dp545
g61
(dp546
g81
g82
ssg70
g540
sg63
(lp547
g358
asbag56
(g77
g58
NtRp548
(dp549
g61
(dp550
g88
g89
ssg70
g540
sg63
(lp551
S':'
asbag56
(g77
g58
NtRp552
(dp553
g61
(dp554
sg70
g540
sg63
(lp555
g56
(g57
g58
NtRp556
(dp557
g61
(dp558
g69
I3
ssg70
g552
sg63
(lp559
S''
asbasbasbag56
(g72
g58
NtRp560
(dp561
g61
(dp562
sg70
g476
sg63
(lp563
g56
(g77
g58
NtRp564
(dp565
g61
(dp566
g81
g82
ssg70
g560
sg63
(lp567
g379
asbag56
(g77
g58
NtRp568
(dp569
g61
(dp570
g88
g89
ssg70
g560
sg63
(lp571
S':'
asbag56
(g77
g58
NtRp572
(dp573
g61
(dp574
sg70
g560
sg63
(lp575
g56
(g57
g58
NtRp576
(dp577
g61
(dp578
g69
I3
ssg70
g572
sg63
(lp579
S''
asbasbasbag56
(g72
g58
NtRp580
(dp581
g61
(dp582
sg70
g476
sg63
(lp583
g56
(g77
g58
NtRp584
(dp585
g61
(dp586
g81
g82
ssg70
g580
sg63
(lp587
g400
asbag56
(g77
g58
NtRp588
(dp589
g61
(dp590
g88
g89
ssg70
g580
sg63
(lp591
S':'
asbag56
(g77
g58
NtRp592
(dp593
g61
(dp594
sg70
g580
sg63
(lp595
g56
(g57
g58
NtRp596
(dp597
g61
(dp598
g69
I3
ssg70
g592
sg63
(lp599
S''
asbasbasbag56
(g72
g58
NtRp600
(dp601
g61
(dp602
sg70
g476
sg63
(lp603
g56
(g77
g58
NtRp604
(dp605
g61
(dp606
g81
g82
ssg70
g600
sg63
(lp607
g421
asbag56
(g77
g58
NtRp608
(dp609
g61
(dp610
g88
g89
ssg70
g600
sg63
(lp611
S':'
asbag56
(g77
g58
NtRp612
(dp613
g61
(dp614
sg70
g600
sg63
(lp615
g56
(g57
g58
NtRp616
(dp617
g61
(dp618
g69
I3
ssg70
g612
sg63
(lp619
S''
asbasbasbag56
(g72
g58
NtRp620
(dp621
g61
(dp622
sg70
g476
sg63
(lp623
g56
(g77
g58
NtRp624
(dp625
g61
(dp626
g81
g82
ssg70
g620
sg63
(lp627
g442
asbag56
(g77
g58
NtRp628
(dp629
g61
(dp630
g88
g89
ssg70
g620
sg63
(lp631
S':'
asbag56
(g77
g58
NtRp632
(dp633
g61
(dp634
sg70
g620
sg63
(lp635
g56
(g57
g58
NtRp636
(dp637
g61
(dp638
g69
I3
ssg70
g632
sg63
(lp639
S''
asbasbasbasbasbasbasbag56
(g72
g58
NtRp640
(dp641
g61
(dp642
sg70
g258
sg63
(lp643
g56
(g77
g58
NtRp644
(dp645
g61
(dp646
g81
g82
ssg70
g640
sg63
(lp647
S'session_id_welcome'
p648
asbag56
(g77
g58
NtRp649
(dp650
g61
(dp651
g88
g89
ssg70
g640
sg63
(lp652
S':'
asbag56
(g77
g58
NtRp653
(dp654
g61
(dp655
sg70
g640
sg63
(lp656
g56
(g57
g58
NtRp657
(dp658
g61
(dp659
g69
I4
ssg70
g653
sg63
(lp660
g56
(g65
g58
NtRp661
(dp662
g61
(dp663
g69
I3
ssg70
Nsg63
(lp664
g56
(g72
g58
NtRp665
(dp666
g61
(dp667
sg70
g661
sg63
(lp668
g56
(g77
g58
NtRp669
(dp670
g61
(dp671
g81
g82
ssg70
g665
sg63
(lp672
g295
asbag56
(g77
g58
NtRp673
(dp674
g61
(dp675
g88
g89
ssg70
g665
sg63
(lp676
S':'
asbag56
(g77
g58
NtRp677
(dp678
g61
(dp679
sg70
g665
sg63
(lp680
g56
(g57
g58
NtRp681
(dp682
g61
(dp683
g69
I3
ssg70
g677
sg63
(lp684
S''
asbasbasbag56
(g72
g58
NtRp685
(dp686
g61
(dp687
sg70
g661
sg63
(lp688
g56
(g77
g58
NtRp689
(dp690
g61
(dp691
g81
g82
ssg70
g685
sg63
(lp692
g316
asbag56
(g77
g58
NtRp693
(dp694
g61
(dp695
g88
g89
ssg70
g685
sg63
(lp696
S':'
asbag56
(g77
g58
NtRp697
(dp698
g61
(dp699
sg70
g685
sg63
(lp700
g56
(g57
g58
NtRp701
(dp702
g61
(dp703
g69
I3
ssg70
g697
sg63
(lp704
S''
asbasbasbag56
(g72
g58
NtRp705
(dp706
g61
(dp707
sg70
g661
sg63
(lp708
g56
(g77
g58
NtRp709
(dp710
g61
(dp711
g81
g82
ssg70
g705
sg63
(lp712
g337
asbag56
(g77
g58
NtRp713
(dp714
g61
(dp715
g88
g89
ssg70
g705
sg63
(lp716
S':'
asbag56
(g77
g58
NtRp717
(dp718
g61
(dp719
sg70
g705
sg63
(lp720
g56
(g57
g58
NtRp721
(dp722
g61
(dp723
g69
I3
ssg70
g717
sg63
(lp724
S''
asbasbasbag56
(g72
g58
NtRp725
(dp726
g61
(dp727
sg70
g661
sg63
(lp728
g56
(g77
g58
NtRp729
(dp730
g61
(dp731
g81
g82
ssg70
g725
sg63
(lp732
g358
asbag56
(g77
g58
NtRp733
(dp734
g61
(dp735
g88
g89
ssg70
g725
sg63
(lp736
S':'
asbag56
(g77
g58
NtRp737
(dp738
g61
(dp739
sg70
g725
sg63
(lp740
g56
(g57
g58
NtRp741
(dp742
g61
(dp743
g69
I3
ssg70
g737
sg63
(lp744
S''
asbasbasbag56
(g72
g58
NtRp745
(dp746
g61
(dp747
sg70
g661
sg63
(lp748
g56
(g77
g58
NtRp749
(dp750
g61
(dp751
g81
g82
ssg70
g745
sg63
(lp752
g379
asbag56
(g77
g58
NtRp753
(dp754
g61
(dp755
g88
g89
ssg70
g745
sg63
(lp756
S':'
asbag56
(g77
g58
NtRp757
(dp758
g61
(dp759
sg70
g745
sg63
(lp760
g56
(g57
g58
NtRp761
(dp762
g61
(dp763
g69
I3
ssg70
g757
sg63
(lp764
S''
asbasbasbag56
(g72
g58
NtRp765
(dp766
g61
(dp767
sg70
g661
sg63
(lp768
g56
(g77
g58
NtRp769
(dp770
g61
(dp771
g81
g82
ssg70
g765
sg63
(lp772
g400
asbag56
(g77
g58
NtRp773
(dp774
g61
(dp775
g88
g89
ssg70
g765
sg63
(lp776
S':'
asbag56
(g77
g58
NtRp777
(dp778
g61
(dp779
sg70
g765
sg63
(lp780
g56
(g57
g58
NtRp781
(dp782
g61
(dp783
g69
I3
ssg70
g777
sg63
(lp784
S''
asbasbasbag56
(g72
g58
NtRp785
(dp786
g61
(dp787
sg70
g661
sg63
(lp788
g56
(g77
g58
NtRp789
(dp790
g61
(dp791
g81
g82
ssg70
g785
sg63
(lp792
g421
asbag56
(g77
g58
NtRp793
(dp794
g61
(dp795
g88
g89
ssg70
g785
sg63
(lp796
S':'
asbag56
(g77
g58
NtRp797
(dp798
g61
(dp799
sg70
g785
sg63
(lp800
g56
(g57
g58
NtRp801
(dp802
g61
(dp803
g69
I3
ssg70
g797
sg63
(lp804
S''
asbasbasbag56
(g72
g58
NtRp805
(dp806
g61
(dp807
sg70
g661
sg63
(lp808
g56
(g77
g58
NtRp809
(dp810
g61
(dp811
g81
g82
ssg70
g805
sg63
(lp812
g442
asbag56
(g77
g58
NtRp813
(dp814
g61
(dp815
g88
g89
ssg70
g805
sg63
(lp816
S':'
asbag56
(g77
g58
NtRp817
(dp818
g61
(dp819
sg70
g805
sg63
(lp820
g56
(g57
g58
NtRp821
(dp822
g61
(dp823
g69
I3
ssg70
g817
sg63
(lp824
S''
asbasbasbasbasbasbasbasbasbasbasbag56
(g72
g58
NtRp825
(dp826
g61
(dp827
sg70
g66
sg63
(lp828
g56
(g77
g58
NtRp829
(dp830
g61
(dp831
g81
g82
ssg70
g825
sg63
(lp832
S'env'
p833
asbag56
(g77
g58
NtRp834
(dp835
g61
(dp836
g88
g89
ssg70
g825
sg63
(lp837
S':'
asbag56
(g77
g58
NtRp838
(dp839
g61
(dp840
sg70
g825
sg63
(lp841
g56
(g57
g58
NtRp842
(dp843
g61
(dp844
g69
I5
ssg70
g838
sg63
(lp845
g56
(g65
g58
NtRp846
(dp847
g61
(dp848
g69
I4
ssg70
Nsg63
(lp849
g56
(g72
g58
NtRp850
(dp851
g61
(dp852
sg70
g846
sg63
(lp853
g56
(g77
g58
NtRp854
(dp855
g61
(dp856
g81
g82
ssg70
g850
sg63
(lp857
S'app_folders'
p858
asbag56
(g77
g58
NtRp859
(dp860
g61
(dp861
g88
g89
ssg70
g850
sg63
(lp862
S':'
asbag56
(g77
g58
NtRp863
(dp864
g61
(dp865
sg70
g850
sg63
(lp866
g56
(g57
g58
NtRp867
(dp868
g61
(dp869
g69
I4
ssg70
g863
sg63
(lp870
S"set(['/home/ian/web2py/applications/topoi/', '/home/ian/web2py/applications/welcome/', '/home/ian/web2py/applications/admin/'])"
p871
asbasbasbag56
(g72
g58
NtRp872
(dp873
g61
(dp874
sg70
g846
sg63
(lp875
g56
(g77
g58
NtRp876
(dp877
g61
(dp878
g81
g82
ssg70
g872
sg63
(lp879
S'applications_parent'
p880
asbag56
(g77
g58
NtRp881
(dp882
g61
(dp883
g88
g89
ssg70
g872
sg63
(lp884
S':'
asbag56
(g77
g58
NtRp885
(dp886
g61
(dp887
sg70
g872
sg63
(lp888
g56
(g57
g58
NtRp889
(dp890
g61
(dp891
g69
I4
ssg70
g885
sg63
(lp892
S'/home/ian/web2py'
p893
asbasbasbag56
(g72
g58
NtRp894
(dp895
g61
(dp896
sg70
g846
sg63
(lp897
g56
(g77
g58
NtRp898
(dp899
g61
(dp900
g81
g82
ssg70
g894
sg63
(lp901
S'cmd_args'
p902
asbag56
(g77
g58
NtRp903
(dp904
g61
(dp905
g88
g89
ssg70
g894
sg63
(lp906
S':'
asbag56
(g77
g58
NtRp907
(dp908
g61
(dp909
sg70
g894
sg63
(lp910
g56
(g57
g58
NtRp911
(dp912
g61
(dp913
g69
I4
ssg70
g907
sg63
(lp914
g56
(g65
g58
NtRp915
(dp916
g61
(dp917
g69
I3
ssg70
Nsg63
(lp918
sbasbasbasbag56
(g72
g58
NtRp919
(dp920
g61
(dp921
sg70
g846
sg63
(lp922
g56
(g77
g58
NtRp923
(dp924
g61
(dp925
g81
g82
ssg70
g919
sg63
(lp926
S'cmd_options'
p927
asbag56
(g77
g58
NtRp928
(dp929
g61
(dp930
g88
g89
ssg70
g919
sg63
(lp931
S':'
asbag56
(g77
g58
NtRp932
(dp933
g61
(dp934
sg70
g919
sg63
(lp935
g56
(g57
g58
NtRp936
(dp937
g61
(dp938
g69
I4
ssg70
g932
sg63
(lp939
S"<Values at 0x23c17e8: {'verbose': False, 'ip': '127.0.0.1', 'shutdown_timeout': 5, 'taskbar': False, 'nocron': False, 'pid_filename': 'httpserver.pid', 'maxthreads': None, 'softcron': False, 'server_name': 'Ariel-ubuntu', 'bpython': False, 'nogui': False, 'port': 8000, 'extcron': False, 'debuglevel': 30, 'test': None, 'folder': '/home/ian/web2py', 'config': '', 'import_models': False, 'winservice': '', 'shell': None, 'run': '', 'log_filename': 'httpserver.log', 'args': [''], 'ssl_ca_certificate': None, 'scheduler': None, 'profiler_filename': None, 'ssl_private_key': '', 'password': '<ask>', 'request_queue_size': 5, 'ssl_certificate': '', 'cronjob': False, 'plain': False, 'quiet': False, 'interfaces': None, 'minthreads': None, 'timeout': 10, 'numthreads': None, 'nobanner': False}>"
p940
asbasbasbag56
(g72
g58
NtRp941
(dp942
g61
(dp943
sg70
g846
sg63
(lp944
g56
(g77
g58
NtRp945
(dp946
g61
(dp947
g81
g82
ssg70
g941
sg63
(lp948
S'db_sessions'
p949
asbag56
(g77
g58
NtRp950
(dp951
g61
(dp952
g88
g89
ssg70
g941
sg63
(lp953
S':'
asbag56
(g77
g58
NtRp954
(dp955
g61
(dp956
sg70
g941
sg63
(lp957
g56
(g57
g58
NtRp958
(dp959
g61
(dp960
g69
I4
ssg70
g954
sg63
(lp961
S'set([])'
p962
asbasbasbag56
(g72
g58
NtRp963
(dp964
g61
(dp965
sg70
g846
sg63
(lp966
g56
(g77
g58
NtRp967
(dp968
g61
(dp969
g81
g82
ssg70
g963
sg63
(lp970
S'debugging'
p971
asbag56
(g77
g58
NtRp972
(dp973
g61
(dp974
g88
g89
ssg70
g963
sg63
(lp975
S':'
asbag56
(g77
g58
NtRp976
(dp977
g61
(dp978
sg70
g963
sg63
(lp979
g56
(g57
g58
NtRp980
(dp981
g61
(dp982
g69
I4
ssg70
g976
sg63
(lp983
g99
asbasbasbag56
(g72
g58
NtRp984
(dp985
g61
(dp986
sg70
g846
sg63
(lp987
g56
(g77
g58
NtRp988
(dp989
g61
(dp990
g81
g82
ssg70
g984
sg63
(lp991
S'gluon_parent'
p992
asbag56
(g77
g58
NtRp993
(dp994
g61
(dp995
g88
g89
ssg70
g984
sg63
(lp996
S':'
asbag56
(g77
g58
NtRp997
(dp998
g61
(dp999
sg70
g984
sg63
(lp1000
g56
(g57
g58
NtRp1001
(dp1002
g61
(dp1003
g69
I4
ssg70
g997
sg63
(lp1004
S'/home/ian/web2py'
p1005
asbasbasbag56
(g72
g58
NtRp1006
(dp1007
g61
(dp1008
sg70
g846
sg63
(lp1009
g56
(g77
g58
NtRp1010
(dp1011
g61
(dp1012
g81
g82
ssg70
g1006
sg63
(lp1013
S'http_accept'
p1014
asbag56
(g77
g58
NtRp1015
(dp1016
g61
(dp1017
g88
g89
ssg70
g1006
sg63
(lp1018
S':'
asbag56
(g77
g58
NtRp1019
(dp1020
g61
(dp1021
sg70
g1006
sg63
(lp1022
g56
(g57
g58
NtRp1023
(dp1024
g61
(dp1025
g69
I4
ssg70
g1019
sg63
(lp1026
S'text/html,application/xhtml+xml,application/xml;q=0.9,*/*;q=0.8'
p1027
asbasbasbag56
(g72
g58
NtRp1028
(dp1029
g61
(dp1030
sg70
g846
sg63
(lp1031
g56
(g77
g58
NtRp1032
(dp1033
g61
(dp1034
g81
g82
ssg70
g1028
sg63
(lp1035
S'http_accept_charset'
p1036
asbag56
(g77
g58
NtRp1037
(dp1038
g61
(dp1039
g88
g89
ssg70
g1028
sg63
(lp1040
S':'
asbag56
(g77
g58
NtRp1041
(dp1042
g61
(dp1043
sg70
g1028
sg63
(lp1044
g56
(g57
g58
NtRp1045
(dp1046
g61
(dp1047
g69
I4
ssg70
g1041
sg63
(lp1048
S'ISO-8859-1,utf-8;q=0.7,*;q=0.7'
p1049
asbasbasbag56
(g72
g58
NtRp1050
(dp1051
g61
(dp1052
sg70
g846
sg63
(lp1053
g56
(g77
g58
NtRp1054
(dp1055
g61
(dp1056
g81
g82
ssg70
g1050
sg63
(lp1057
S'http_accept_encoding'
p1058
asbag56
(g77
g58
NtRp1059
(dp1060
g61
(dp1061
g88
g89
ssg70
g1050
sg63
(lp1062
S':'
asbag56
(g77
g58
NtRp1063
(dp1064
g61
(dp1065
sg70
g1050
sg63
(lp1066
g56
(g57
g58
NtRp1067
(dp1068
g61
(dp1069
g69
I4
ssg70
g1063
sg63
(lp1070
S'gzip, deflate'
p1071
asbasbasbag56
(g72
g58
NtRp1072
(dp1073
g61
(dp1074
sg70
g846
sg63
(lp1075
g56
(g77
g58
NtRp1076
(dp1077
g61
(dp1078
g81
g82
ssg70
g1072
sg63
(lp1079
S'http_accept_language'
p1080
asbag56
(g77
g58
NtRp1081
(dp1082
g61
(dp1083
g88
g89
ssg70
g1072
sg63
(lp1084
S':'
asbag56
(g77
g58
NtRp1085
(dp1086
g61
(dp1087
sg70
g1072
sg63
(lp1088
g56
(g57
g58
NtRp1089
(dp1090
g61
(dp1091
g69
I4
ssg70
g1085
sg63
(lp1092
S'en-us,en;q=0.5'
p1093
asbasbasbag56
(g72
g58
NtRp1094
(dp1095
g61
(dp1096
sg70
g846
sg63
(lp1097
g56
(g77
g58
NtRp1098
(dp1099
g61
(dp1100
g81
g82
ssg70
g1094
sg63
(lp1101
S'http_cache_control'
p1102
asbag56
(g77
g58
NtRp1103
(dp1104
g61
(dp1105
g88
g89
ssg70
g1094
sg63
(lp1106
S':'
asbag56
(g77
g58
NtRp1107
(dp1108
g61
(dp1109
sg70
g1094
sg63
(lp1110
g56
(g57
g58
NtRp1111
(dp1112
g61
(dp1113
g69
I4
ssg70
g1107
sg63
(lp1114
S'max-age=0'
p1115
asbasbasbag56
(g72
g58
NtRp1116
(dp1117
g61
(dp1118
sg70
g846
sg63
(lp1119
g56
(g77
g58
NtRp1120
(dp1121
g61
(dp1122
g81
g82
ssg70
g1116
sg63
(lp1123
S'http_connection'
p1124
asbag56
(g77
g58
NtRp1125
(dp1126
g61
(dp1127
g88
g89
ssg70
g1116
sg63
(lp1128
S':'
asbag56
(g77
g58
NtRp1129
(dp1130
g61
(dp1131
sg70
g1116
sg63
(lp1132
g56
(g57
g58
NtRp1133
(dp1134
g61
(dp1135
g69
I4
ssg70
g1129
sg63
(lp1136
S'keep-alive'
p1137
asbasbasbag56
(g72
g58
NtRp1138
(dp1139
g61
(dp1140
sg70
g846
sg63
(lp1141
g56
(g77
g58
NtRp1142
(dp1143
g61
(dp1144
g81
g82
ssg70
g1138
sg63
(lp1145
S'http_cookie'
p1146
asbag56
(g77
g58
NtRp1147
(dp1148
g61
(dp1149
g88
g89
ssg70
g1138
sg63
(lp1150
S':'
asbag56
(g77
g58
NtRp1151
(dp1152
g61
(dp1153
sg70
g1138
sg63
(lp1154
g56
(g57
g58
NtRp1155
(dp1156
g61
(dp1157
g69
I4
ssg70
g1151
sg63
(lp1158
S'__utma_a2a=9789918665.1351576430.1320019504.1320019504.1320019504.1; session_id_welcome=127.0.0.1-b72b105e-a012-4e2a-9a28-31e570cfcd49; session_id_topoi=127.0.0.1-3903e238-370c-4c43-9950-e51fe4d387e6; session_id_admin=127.0.0.1-7f2e3fc8-1364-4dfb-b356-76e4726e60da'
p1159
asbasbasbag56
(g72
g58
NtRp1160
(dp1161
g61
(dp1162
sg70
g846
sg63
(lp1163
g56
(g77
g58
NtRp1164
(dp1165
g61
(dp1166
g81
g82
ssg70
g1160
sg63
(lp1167
S'http_host'
p1168
asbag56
(g77
g58
NtRp1169
(dp1170
g61
(dp1171
g88
g89
ssg70
g1160
sg63
(lp1172
S':'
asbag56
(g77
g58
NtRp1173
(dp1174
g61
(dp1175
sg70
g1160
sg63
(lp1176
g56
(g57
g58
NtRp1177
(dp1178
g61
(dp1179
g69
I4
ssg70
g1173
sg63
(lp1180
S'127.0.0.1:8000'
p1181
asbasbasbag56
(g72
g58
NtRp1182
(dp1183
g61
(dp1184
sg70
g846
sg63
(lp1185
g56
(g77
g58
NtRp1186
(dp1187
g61
(dp1188
g81
g82
ssg70
g1182
sg63
(lp1189
S'http_referer'
p1190
asbag56
(g77
g58
NtRp1191
(dp1192
g61
(dp1193
g88
g89
ssg70
g1182
sg63
(lp1194
S':'
asbag56
(g77
g58
NtRp1195
(dp1196
g61
(dp1197
sg70
g1182
sg63
(lp1198
g56
(g57
g58
NtRp1199
(dp1200
g61
(dp1201
g69
I4
ssg70
g1195
sg63
(lp1202
S'http://127.0.0.1:8000/topoi'
p1203
asbasbasbag56
(g72
g58
NtRp1204
(dp1205
g61
(dp1206
sg70
g846
sg63
(lp1207
g56
(g77
g58
NtRp1208
(dp1209
g61
(dp1210
g81
g82
ssg70
g1204
sg63
(lp1211
S'http_user_agent'
p1212
asbag56
(g77
g58
NtRp1213
(dp1214
g61
(dp1215
g88
g89
ssg70
g1204
sg63
(lp1216
S':'
asbag56
(g77
g58
NtRp1217
(dp1218
g61
(dp1219
sg70
g1204
sg63
(lp1220
g56
(g57
g58
NtRp1221
(dp1222
g61
(dp1223
g69
I4
ssg70
g1217
sg63
(lp1224
S'Mozilla/5.0 (Ubuntu; X11; Linux x86_64; rv:8.0) Gecko/20100101 Firefox/8.0 FirePHP/0.6'
p1225
asbasbasbag56
(g72
g58
NtRp1226
(dp1227
g61
(dp1228
sg70
g846
sg63
(lp1229
g56
(g77
g58
NtRp1230
(dp1231
g61
(dp1232
g81
g82
ssg70
g1226
sg63
(lp1233
S'http_x_insight'
p1234
asbag56
(g77
g58
NtRp1235
(dp1236
g61
(dp1237
g88
g89
ssg70
g1226
sg63
(lp1238
S':'
asbag56
(g77
g58
NtRp1239
(dp1240
g61
(dp1241
sg70
g1226
sg63
(lp1242
g56
(g57
g58
NtRp1243
(dp1244
g61
(dp1245
g69
I4
ssg70
g1239
sg63
(lp1246
S'activate'
p1247
asbasbasbag56
(g72
g58
NtRp1248
(dp1249
g61
(dp1250
sg70
g846
sg63
(lp1251
g56
(g77
g58
NtRp1252
(dp1253
g61
(dp1254
g81
g82
ssg70
g1248
sg63
(lp1255
S'is_jython'
p1256
asbag56
(g77
g58
NtRp1257
(dp1258
g61
(dp1259
g88
g89
ssg70
g1248
sg63
(lp1260
S':'
asbag56
(g77
g58
NtRp1261
(dp1262
g61
(dp1263
sg70
g1248
sg63
(lp1264
g56
(g57
g58
NtRp1265
(dp1266
g61
(dp1267
g69
I4
ssg70
g1261
sg63
(lp1268
g99
asbasbasbag56
(g72
g58
NtRp1269
(dp1270
g61
(dp1271
sg70
g846
sg63
(lp1272
g56
(g77
g58
NtRp1273
(dp1274
g61
(dp1275
g81
g82
ssg70
g1269
sg63
(lp1276
S'path_info'
p1277
asbag56
(g77
g58
NtRp1278
(dp1279
g61
(dp1280
g88
g89
ssg70
g1269
sg63
(lp1281
S':'
asbag56
(g77
g58
NtRp1282
(dp1283
g61
(dp1284
sg70
g1269
sg63
(lp1285
g56
(g57
g58
NtRp1286
(dp1287
g61
(dp1288
g69
I4
ssg70
g1282
sg63
(lp1289
S'/topoi/plugin_listandedit/list/note/1'
p1290
asbasbasbag56
(g72
g58
NtRp1291
(dp1292
g61
(dp1293
sg70
g846
sg63
(lp1294
g56
(g77
g58
NtRp1295
(dp1296
g61
(dp1297
g81
g82
ssg70
g1291
sg63
(lp1298
S'query_string'
p1299
asbag56
(g77
g58
NtRp1300
(dp1301
g61
(dp1302
g88
g89
ssg70
g1291
sg63
(lp1303
S':'
asbag56
(g77
g58
NtRp1304
(dp1305
g61
(dp1306
sg70
g1291
sg63
(lp1307
g56
(g57
g58
NtRp1308
(dp1309
g61
(dp1310
g69
I4
ssg70
g1304
sg63
(lp1311
S''
asbasbasbag56
(g72
g58
NtRp1312
(dp1313
g61
(dp1314
sg70
g846
sg63
(lp1315
g56
(g77
g58
NtRp1316
(dp1317
g61
(dp1318
g81
g82
ssg70
g1312
sg63
(lp1319
S'remote_addr'
p1320
asbag56
(g77
g58
NtRp1321
(dp1322
g61
(dp1323
g88
g89
ssg70
g1312
sg63
(lp1324
S':'
asbag56
(g77
g58
NtRp1325
(dp1326
g61
(dp1327
sg70
g1312
sg63
(lp1328
g56
(g57
g58
NtRp1329
(dp1330
g61
(dp1331
g69
I4
ssg70
g1325
sg63
(lp1332
g214
asbasbasbag56
(g72
g58
NtRp1333
(dp1334
g61
(dp1335
sg70
g846
sg63
(lp1336
g56
(g77
g58
NtRp1337
(dp1338
g61
(dp1339
g81
g82
ssg70
g1333
sg63
(lp1340
S'remote_port'
p1341
asbag56
(g77
g58
NtRp1342
(dp1343
g61
(dp1344
g88
g89
ssg70
g1333
sg63
(lp1345
S':'
asbag56
(g77
g58
NtRp1346
(dp1347
g61
(dp1348
sg70
g1333
sg63
(lp1349
g56
(g57
g58
NtRp1350
(dp1351
g61
(dp1352
g69
I4
ssg70
g1346
sg63
(lp1353
S'54500'
p1354
asbasbasbag56
(g72
g58
NtRp1355
(dp1356
g61
(dp1357
sg70
g846
sg63
(lp1358
g56
(g77
g58
NtRp1359
(dp1360
g61
(dp1361
g81
g82
ssg70
g1355
sg63
(lp1362
S'request_method'
p1363
asbag56
(g77
g58
NtRp1364
(dp1365
g61
(dp1366
g88
g89
ssg70
g1355
sg63
(lp1367
S':'
asbag56
(g77
g58
NtRp1368
(dp1369
g61
(dp1370
sg70
g1355
sg63
(lp1371
g56
(g57
g58
NtRp1372
(dp1373
g61
(dp1374
g69
I4
ssg70
g1368
sg63
(lp1375
S'GET'
p1376
asbasbasbag56
(g72
g58
NtRp1377
(dp1378
g61
(dp1379
sg70
g846
sg63
(lp1380
g56
(g77
g58
NtRp1381
(dp1382
g61
(dp1383
g81
g82
ssg70
g1377
sg63
(lp1384
S'script_name'
p1385
asbag56
(g77
g58
NtRp1386
(dp1387
g61
(dp1388
g88
g89
ssg70
g1377
sg63
(lp1389
S':'
asbag56
(g77
g58
NtRp1390
(dp1391
g61
(dp1392
sg70
g1377
sg63
(lp1393
g56
(g57
g58
NtRp1394
(dp1395
g61
(dp1396
g69
I4
ssg70
g1390
sg63
(lp1397
S''
asbasbasbag56
(g72
g58
NtRp1398
(dp1399
g61
(dp1400
sg70
g846
sg63
(lp1401
g56
(g77
g58
NtRp1402
(dp1403
g61
(dp1404
g81
g82
ssg70
g1398
sg63
(lp1405
S'server_name'
p1406
asbag56
(g77
g58
NtRp1407
(dp1408
g61
(dp1409
g88
g89
ssg70
g1398
sg63
(lp1410
S':'
asbag56
(g77
g58
NtRp1411
(dp1412
g61
(dp1413
sg70
g1398
sg63
(lp1414
g56
(g57
g58
NtRp1415
(dp1416
g61
(dp1417
g69
I4
ssg70
g1411
sg63
(lp1418
S'Ariel-ubuntu'
p1419
asbasbasbag56
(g72
g58
NtRp1420
(dp1421
g61
(dp1422
sg70
g846
sg63
(lp1423
g56
(g77
g58
NtRp1424
(dp1425
g61
(dp1426
g81
g82
ssg70
g1420
sg63
(lp1427
S'server_port'
p1428
asbag56
(g77
g58
NtRp1429
(dp1430
g61
(dp1431
g88
g89
ssg70
g1420
sg63
(lp1432
S':'
asbag56
(g77
g58
NtRp1433
(dp1434
g61
(dp1435
sg70
g1420
sg63
(lp1436
g56
(g57
g58
NtRp1437
(dp1438
g61
(dp1439
g69
I4
ssg70
g1433
sg63
(lp1440
S'8000'
p1441
asbasbasbag56
(g72
g58
NtRp1442
(dp1443
g61
(dp1444
sg70
g846
sg63
(lp1445
g56
(g77
g58
NtRp1446
(dp1447
g61
(dp1448
g81
g82
ssg70
g1442
sg63
(lp1449
S'server_protocol'
p1450
asbag56
(g77
g58
NtRp1451
(dp1452
g61
(dp1453
g88
g89
ssg70
g1442
sg63
(lp1454
S':'
asbag56
(g77
g58
NtRp1455
(dp1456
g61
(dp1457
sg70
g1442
sg63
(lp1458
g56
(g57
g58
NtRp1459
(dp1460
g61
(dp1461
g69
I4
ssg70
g1455
sg63
(lp1462
S'HTTP/1.1'
p1463
asbasbasbag56
(g72
g58
NtRp1464
(dp1465
g61
(dp1466
sg70
g846
sg63
(lp1467
g56
(g77
g58
NtRp1468
(dp1469
g61
(dp1470
g81
g82
ssg70
g1464
sg63
(lp1471
S'server_software'
p1472
asbag56
(g77
g58
NtRp1473
(dp1474
g61
(dp1475
g88
g89
ssg70
g1464
sg63
(lp1476
S':'
asbag56
(g77
g58
NtRp1477
(dp1478
g61
(dp1479
sg70
g1464
sg63
(lp1480
g56
(g57
g58
NtRp1481
(dp1482
g61
(dp1483
g69
I4
ssg70
g1477
sg63
(lp1484
S'Rocket 1.2.4'
p1485
asbasbasbag56
(g72
g58
NtRp1486
(dp1487
g61
(dp1488
sg70
g846
sg63
(lp1489
g56
(g77
g58
NtRp1490
(dp1491
g61
(dp1492
g81
g82
ssg70
g1486
sg63
(lp1493
S'web2py_crontype'
p1494
asbag56
(g77
g58
NtRp1495
(dp1496
g61
(dp1497
g88
g89
ssg70
g1486
sg63
(lp1498
S':'
asbag56
(g77
g58
NtRp1499
(dp1500
g61
(dp1501
sg70
g1486
sg63
(lp1502
g56
(g57
g58
NtRp1503
(dp1504
g61
(dp1505
g69
I4
ssg70
g1499
sg63
(lp1506
S'hard'
p1507
asbasbasbag56
(g72
g58
NtRp1508
(dp1509
g61
(dp1510
sg70
g846
sg63
(lp1511
g56
(g77
g58
NtRp1512
(dp1513
g61
(dp1514
g81
g82
ssg70
g1508
sg63
(lp1515
S'web2py_path'
p1516
asbag56
(g77
g58
NtRp1517
(dp1518
g61
(dp1519
g88
g89
ssg70
g1508
sg63
(lp1520
S':'
asbag56
(g77
g58
NtRp1521
(dp1522
g61
(dp1523
sg70
g1508
sg63
(lp1524
g56
(g57
g58
NtRp1525
(dp1526
g61
(dp1527
g69
I4
ssg70
g1521
sg63
(lp1528
g893
asbasbasbag56
(g72
g58
NtRp1529
(dp1530
g61
(dp1531
sg70
g846
sg63
(lp1532
g56
(g77
g58
NtRp1533
(dp1534
g61
(dp1535
g81
g82
ssg70
g1529
sg63
(lp1536
S'web2py_version'
p1537
asbag56
(g77
g58
NtRp1538
(dp1539
g61
(dp1540
g88
g89
ssg70
g1529
sg63
(lp1541
S':'
asbag56
(g77
g58
NtRp1542
(dp1543
g61
(dp1544
sg70
g1529
sg63
(lp1545
g56
(g57
g58
NtRp1546
(dp1547
g61
(dp1548
g69
I4
ssg70
g1542
sg63
(lp1549
g56
(g65
g58
NtRp1550
(dp1551
g61
(dp1552
g69
I3
ssg70
Nsg63
(lp1553
g56
(g72
g58
NtRp1554
(dp1555
g61
(dp1556
sg70
g1550
sg63
(lp1557
g56
(g77
g58
NtRp1558
(dp1559
g61
(dp1560
sg70
g1554
sg63
(lp1561
g56
(g57
g58
NtRp1562
(dp1563
g61
(dp1564
g69
I3
ssg70
g1558
sg63
(lp1565
S'1'
asbasbasbag56
(g72
g58
NtRp1566
(dp1567
g61
(dp1568
sg70
g1550
sg63
(lp1569
g56
(g77
g58
NtRp1570
(dp1571
g61
(dp1572
sg70
g1566
sg63
(lp1573
g56
(g57
g58
NtRp1574
(dp1575
g61
(dp1576
g69
I3
ssg70
g1570
sg63
(lp1577
S'99'
p1578
asbasbasbag56
(g72
g58
NtRp1579
(dp1580
g61
(dp1581
sg70
g1550
sg63
(lp1582
g56
(g77
g58
NtRp1583
(dp1584
g61
(dp1585
sg70
g1579
sg63
(lp1586
g56
(g57
g58
NtRp1587
(dp1588
g61
(dp1589
g69
I3
ssg70
g1583
sg63
(lp1590
S'2'
asbasbasbag56
(g72
g58
NtRp1591
(dp1592
g61
(dp1593
sg70
g1550
sg63
(lp1594
g56
(g77
g58
NtRp1595
(dp1596
g61
(dp1597
sg70
g1591
sg63
(lp1598
g56
(g57
g58
NtRp1599
(dp1600
g61
(dp1601
g69
I3
ssg70
g1595
sg63
(lp1602
S'datetime.datetime(2011, 9, 26, 6, 55, 33)'
p1603
asbasbasbag56
(g72
g58
NtRp1604
(dp1605
g61
(dp1606
sg70
g1550
sg63
(lp1607
g56
(g77
g58
NtRp1608
(dp1609
g61
(dp1610
sg70
g1604
sg63
(lp1611
g56
(g57
g58
NtRp1612
(dp1613
g61
(dp1614
g69
I3
ssg70
g1608
sg63
(lp1615
S'stable'
p1616
asbasbasbasbasbasbasbag56
(g72
g58
NtRp1617
(dp1618
g61
(dp1619
sg70
g846
sg63
(lp1620
g56
(g77
g58
NtRp1621
(dp1622
g61
(dp1623
g81
g82
ssg70
g1617
sg63
(lp1624
S'wsgi_errors'
p1625
asbag56
(g77
g58
NtRp1626
(dp1627
g61
(dp1628
g88
g89
ssg70
g1617
sg63
(lp1629
S':'
asbag56
(g77
g58
NtRp1630
(dp1631
g61
(dp1632
sg70
g1617
sg63
(lp1633
g56
(g57
g58
NtRp1634
(dp1635
g61
(dp1636
g69
I4
ssg70
g1630
sg63
(lp1637
S"<open file '<stderr>', mode 'w' at 0x7ffcfbcc0270>"
p1638
asbasbasbag56
(g72
g58
NtRp1639
(dp1640
g61
(dp1641
sg70
g846
sg63
(lp1642
g56
(g77
g58
NtRp1643
(dp1644
g61
(dp1645
g81
g82
ssg70
g1639
sg63
(lp1646
S'wsgi_file_wrapper'
p1647
asbag56
(g77
g58
NtRp1648
(dp1649
g61
(dp1650
g88
g89
ssg70
g1639
sg63
(lp1651
S':'
asbag56
(g77
g58
NtRp1652
(dp1653
g61
(dp1654
sg70
g1639
sg63
(lp1655
g56
(g57
g58
NtRp1656
(dp1657
g61
(dp1658
g69
I4
ssg70
g1652
sg63
(lp1659
S'<class wsgiref.util.FileWrapper at 0x228a808>'
p1660
asbasbasbag56
(g72
g58
NtRp1661
(dp1662
g61
(dp1663
sg70
g846
sg63
(lp1664
g56
(g77
g58
NtRp1665
(dp1666
g61
(dp1667
g81
g82
ssg70
g1661
sg63
(lp1668
S'wsgi_input'
p1669
asbag56
(g77
g58
NtRp1670
(dp1671
g61
(dp1672
g88
g89
ssg70
g1661
sg63
(lp1673
S':'
asbag56
(g77
g58
NtRp1674
(dp1675
g61
(dp1676
sg70
g1661
sg63
(lp1677
g56
(g57
g58
NtRp1678
(dp1679
g61
(dp1680
g69
I4
ssg70
g1674
sg63
(lp1681
S'<socket._fileobject object at 0x3c970d0>'
p1682
asbasbasbag56
(g72
g58
NtRp1683
(dp1684
g61
(dp1685
sg70
g846
sg63
(lp1686
g56
(g77
g58
NtRp1687
(dp1688
g61
(dp1689
g81
g82
ssg70
g1683
sg63
(lp1690
S'wsgi_multiprocess'
p1691
asbag56
(g77
g58
NtRp1692
(dp1693
g61
(dp1694
g88
g89
ssg70
g1683
sg63
(lp1695
S':'
asbag56
(g77
g58
NtRp1696
(dp1697
g61
(dp1698
sg70
g1683
sg63
(lp1699
g56
(g57
g58
NtRp1700
(dp1701
g61
(dp1702
g69
I4
ssg70
g1696
sg63
(lp1703
g99
asbasbasbag56
(g72
g58
NtRp1704
(dp1705
g61
(dp1706
sg70
g846
sg63
(lp1707
g56
(g77
g58
NtRp1708
(dp1709
g61
(dp1710
g81
g82
ssg70
g1704
sg63
(lp1711
S'wsgi_multithread'
p1712
asbag56
(g77
g58
NtRp1713
(dp1714
g61
(dp1715
g88
g89
ssg70
g1704
sg63
(lp1716
S':'
asbag56
(g77
g58
NtRp1717
(dp1718
g61
(dp1719
sg70
g1704
sg63
(lp1720
g56
(g57
g58
NtRp1721
(dp1722
g61
(dp1723
g69
I4
ssg70
g1717
sg63
(lp1724
S'True'
p1725
asbasbasbag56
(g72
g58
NtRp1726
(dp1727
g61
(dp1728
sg70
g846
sg63
(lp1729
g56
(g77
g58
NtRp1730
(dp1731
g61
(dp1732
g81
g82
ssg70
g1726
sg63
(lp1733
S'wsgi_run_once'
p1734
asbag56
(g77
g58
NtRp1735
(dp1736
g61
(dp1737
g88
g89
ssg70
g1726
sg63
(lp1738
S':'
asbag56
(g77
g58
NtRp1739
(dp1740
g61
(dp1741
sg70
g1726
sg63
(lp1742
g56
(g57
g58
NtRp1743
(dp1744
g61
(dp1745
g69
I4
ssg70
g1739
sg63
(lp1746
g99
asbasbasbag56
(g72
g58
NtRp1747
(dp1748
g61
(dp1749
sg70
g846
sg63
(lp1750
g56
(g77
g58
NtRp1751
(dp1752
g61
(dp1753
g81
g82
ssg70
g1747
sg63
(lp1754
S'wsgi_url_scheme'
p1755
asbag56
(g77
g58
NtRp1756
(dp1757
g61
(dp1758
g88
g89
ssg70
g1747
sg63
(lp1759
S':'
asbag56
(g77
g58
NtRp1760
(dp1761
g61
(dp1762
sg70
g1747
sg63
(lp1763
g56
(g57
g58
NtRp1764
(dp1765
g61
(dp1766
g69
I4
ssg70
g1760
sg63
(lp1767
S'http'
p1768
asbasbasbag56
(g72
g58
NtRp1769
(dp1770
g61
(dp1771
sg70
g846
sg63
(lp1772
g56
(g77
g58
NtRp1773
(dp1774
g61
(dp1775
g81
g82
ssg70
g1769
sg63
(lp1776
S'wsgi_version'
p1777
asbag56
(g77
g58
NtRp1778
(dp1779
g61
(dp1780
g88
g89
ssg70
g1769
sg63
(lp1781
S':'
asbag56
(g77
g58
NtRp1782
(dp1783
g61
(dp1784
sg70
g1769
sg63
(lp1785
g56
(g57
g58
NtRp1786
(dp1787
g61
(dp1788
g69
I4
ssg70
g1782
sg63
(lp1789
g56
(g65
g58
NtRp1790
(dp1791
g61
(dp1792
g69
I3
ssg70
Nsg63
(lp1793
g56
(g72
g58
NtRp1794
(dp1795
g61
(dp1796
sg70
g1790
sg63
(lp1797
g56
(g77
g58
NtRp1798
(dp1799
g61
(dp1800
sg70
g1794
sg63
(lp1801
g56
(g57
g58
NtRp1802
(dp1803
g61
(dp1804
g69
I3
ssg70
g1798
sg63
(lp1805
S'1'
asbasbasbag56
(g72
g58
NtRp1806
(dp1807
g61
(dp1808
sg70
g1790
sg63
(lp1809
g56
(g77
g58
NtRp1810
(dp1811
g61
(dp1812
sg70
g1806
sg63
(lp1813
g56
(g57
g58
NtRp1814
(dp1815
g61
(dp1816
g69
I3
ssg70
g1810
sg63
(lp1817
S'0'
asbasbasbasbasbasbasbasbasbasbasbag56
(g72
g58
NtRp1818
(dp1819
g61
(dp1820
sg70
g66
sg63
(lp1821
g56
(g77
g58
NtRp1822
(dp1823
g61
(dp1824
g81
g82
ssg70
g1818
sg63
(lp1825
S'extension'
p1826
asbag56
(g77
g58
NtRp1827
(dp1828
g61
(dp1829
g88
g89
ssg70
g1818
sg63
(lp1830
S':'
asbag56
(g77
g58
NtRp1831
(dp1832
g61
(dp1833
sg70
g1818
sg63
(lp1834
g56
(g57
g58
NtRp1835
(dp1836
g61
(dp1837
g69
I5
ssg70
g1831
sg63
(lp1838
S'html'
p1839
asbasbasbag56
(g72
g58
NtRp1840
(dp1841
g61
(dp1842
sg70
g66
sg63
(lp1843
g56
(g77
g58
NtRp1844
(dp1845
g61
(dp1846
g81
g82
ssg70
g1840
sg63
(lp1847
S'folder'
p1848
asbag56
(g77
g58
NtRp1849
(dp1850
g61
(dp1851
g88
g89
ssg70
g1840
sg63
(lp1852
S':'
asbag56
(g77
g58
NtRp1853
(dp1854
g61
(dp1855
sg70
g1840
sg63
(lp1856
g56
(g57
g58
NtRp1857
(dp1858
g61
(dp1859
g69
I5
ssg70
g1853
sg63
(lp1860
S'/home/ian/web2py/applications/topoi/'
p1861
asbasbasbag56
(g72
g58
NtRp1862
(dp1863
g61
(dp1864
sg70
g66
sg63
(lp1865
g56
(g77
g58
NtRp1866
(dp1867
g61
(dp1868
g81
g82
ssg70
g1862
sg63
(lp1869
S'function'
p1870
asbag56
(g77
g58
NtRp1871
(dp1872
g61
(dp1873
g88
g89
ssg70
g1862
sg63
(lp1874
S':'
asbag56
(g77
g58
NtRp1875
(dp1876
g61
(dp1877
sg70
g1862
sg63
(lp1878
g56
(g57
g58
NtRp1879
(dp1880
g61
(dp1881
g69
I5
ssg70
g1875
sg63
(lp1882
S'list'
p1883
asbasbasbag56
(g72
g58
NtRp1884
(dp1885
g61
(dp1886
sg70
g66
sg63
(lp1887
g56
(g77
g58
NtRp1888
(dp1889
g61
(dp1890
g81
g82
ssg70
g1884
sg63
(lp1891
S'get_vars'
p1892
asbag56
(g77
g58
NtRp1893
(dp1894
g61
(dp1895
g88
g89
ssg70
g1884
sg63
(lp1896
S':'
asbag56
(g77
g58
NtRp1897
(dp1898
g61
(dp1899
sg70
g1884
sg63
(lp1900
g56
(g57
g58
NtRp1901
(dp1902
g61
(dp1903
g69
I5
ssg70
g1897
sg63
(lp1904
g56
(g65
g58
NtRp1905
(dp1906
g61
(dp1907
g69
I4
ssg70
Nsg63
(lp1908
sbasbasbasbag56
(g72
g58
NtRp1909
(dp1910
g61
(dp1911
sg70
g66
sg63
(lp1912
g56
(g77
g58
NtRp1913
(dp1914
g61
(dp1915
g81
g82
ssg70
g1909
sg63
(lp1916
S'global_settings'
p1917
asbag56
(g77
g58
NtRp1918
(dp1919
g61
(dp1920
g88
g89
ssg70
g1909
sg63
(lp1921
S':'
asbag56
(g77
g58
NtRp1922
(dp1923
g61
(dp1924
sg70
g1909
sg63
(lp1925
g56
(g57
g58
NtRp1926
(dp1927
g61
(dp1928
g69
I5
ssg70
g1922
sg63
(lp1929
g56
(g65
g58
NtRp1930
(dp1931
g61
(dp1932
g69
I4
ssg70
Nsg63
(lp1933
g56
(g72
g58
NtRp1934
(dp1935
g61
(dp1936
sg70
g1930
sg63
(lp1937
g56
(g77
g58
NtRp1938
(dp1939
g61
(dp1940
g81
g82
ssg70
g1934
sg63
(lp1941
g858
asbag56
(g77
g58
NtRp1942
(dp1943
g61
(dp1944
g88
g89
ssg70
g1934
sg63
(lp1945
S':'
asbag56
(g77
g58
NtRp1946
(dp1947
g61
(dp1948
sg70
g1934
sg63
(lp1949
g56
(g57
g58
NtRp1950
(dp1951
g61
(dp1952
g69
I4
ssg70
g1946
sg63
(lp1953
S"set(['/home/ian/web2py/applications/topoi/', '/home/ian/web2py/applications/welcome/', '/home/ian/web2py/applications/admin/'])"
p1954
asbasbasbag56
(g72
g58
NtRp1955
(dp1956
g61
(dp1957
sg70
g1930
sg63
(lp1958
g56
(g77
g58
NtRp1959
(dp1960
g61
(dp1961
g81
g82
ssg70
g1955
sg63
(lp1962
g880
asbag56
(g77
g58
NtRp1963
(dp1964
g61
(dp1965
g88
g89
ssg70
g1955
sg63
(lp1966
S':'
asbag56
(g77
g58
NtRp1967
(dp1968
g61
(dp1969
sg70
g1955
sg63
(lp1970
g56
(g57
g58
NtRp1971
(dp1972
g61
(dp1973
g69
I4
ssg70
g1967
sg63
(lp1974
g893
asbasbasbag56
(g72
g58
NtRp1975
(dp1976
g61
(dp1977
sg70
g1930
sg63
(lp1978
g56
(g77
g58
NtRp1979
(dp1980
g61
(dp1981
g81
g82
ssg70
g1975
sg63
(lp1982
g902
asbag56
(g77
g58
NtRp1983
(dp1984
g61
(dp1985
g88
g89
ssg70
g1975
sg63
(lp1986
S':'
asbag56
(g77
g58
NtRp1987
(dp1988
g61
(dp1989
sg70
g1975
sg63
(lp1990
g56
(g57
g58
NtRp1991
(dp1992
g61
(dp1993
g69
I4
ssg70
g1987
sg63
(lp1994
g56
(g65
g58
NtRp1995
(dp1996
g61
(dp1997
g69
I3
ssg70
Nsg63
(lp1998
sbasbasbasbag56
(g72
g58
NtRp1999
(dp2000
g61
(dp2001
sg70
g1930
sg63
(lp2002
g56
(g77
g58
NtRp2003
(dp2004
g61
(dp2005
g81
g82
ssg70
g1999
sg63
(lp2006
g927
asbag56
(g77
g58
NtRp2007
(dp2008
g61
(dp2009
g88
g89
ssg70
g1999
sg63
(lp2010
S':'
asbag56
(g77
g58
NtRp2011
(dp2012
g61
(dp2013
sg70
g1999
sg63
(lp2014
g56
(g57
g58
NtRp2015
(dp2016
g61
(dp2017
g69
I4
ssg70
g2011
sg63
(lp2018
S"<Values at 0x23c17e8: {'verbose': False, 'ip': '127.0.0.1', 'shutdown_timeout': 5, 'taskbar': False, 'nocron': False, 'pid_filename': 'httpserver.pid', 'maxthreads': None, 'softcron': False, 'server_name': 'Ariel-ubuntu', 'bpython': False, 'nogui': False, 'port': 8000, 'extcron': False, 'debuglevel': 30, 'test': None, 'folder': '/home/ian/web2py', 'config': '', 'import_models': False, 'winservice': '', 'shell': None, 'run': '', 'log_filename': 'httpserver.log', 'args': [''], 'ssl_ca_certificate': None, 'scheduler': None, 'profiler_filename': None, 'ssl_private_key': '', 'password': '<ask>', 'request_queue_size': 5, 'ssl_certificate': '', 'cronjob': False, 'plain': False, 'quiet': False, 'interfaces': None, 'minthreads': None, 'timeout': 10, 'numthreads': None, 'nobanner': False}>"
p2019
asbasbasbag56
(g72
g58
NtRp2020
(dp2021
g61
(dp2022
sg70
g1930
sg63
(lp2023
g56
(g77
g58
NtRp2024
(dp2025
g61
(dp2026
g81
g82
ssg70
g2020
sg63
(lp2027
g949
asbag56
(g77
g58
NtRp2028
(dp2029
g61
(dp2030
g88
g89
ssg70
g2020
sg63
(lp2031
S':'
asbag56
(g77
g58
NtRp2032
(dp2033
g61
(dp2034
sg70
g2020
sg63
(lp2035
g56
(g57
g58
NtRp2036
(dp2037
g61
(dp2038
g69
I4
ssg70
g2032
sg63
(lp2039
S'set([])'
p2040
asbasbasbag56
(g72
g58
NtRp2041
(dp2042
g61
(dp2043
sg70
g1930
sg63
(lp2044
g56
(g77
g58
NtRp2045
(dp2046
g61
(dp2047
g81
g82
ssg70
g2041
sg63
(lp2048
g971
asbag56
(g77
g58
NtRp2049
(dp2050
g61
(dp2051
g88
g89
ssg70
g2041
sg63
(lp2052
S':'
asbag56
(g77
g58
NtRp2053
(dp2054
g61
(dp2055
sg70
g2041
sg63
(lp2056
g56
(g57
g58
NtRp2057
(dp2058
g61
(dp2059
g69
I4
ssg70
g2053
sg63
(lp2060
g99
asbasbasbag56
(g72
g58
NtRp2061
(dp2062
g61
(dp2063
sg70
g1930
sg63
(lp2064
g56
(g77
g58
NtRp2065
(dp2066
g61
(dp2067
g81
g82
ssg70
g2061
sg63
(lp2068
g992
asbag56
(g77
g58
NtRp2069
(dp2070
g61
(dp2071
g88
g89
ssg70
g2061
sg63
(lp2072
S':'
asbag56
(g77
g58
NtRp2073
(dp2074
g61
(dp2075
sg70
g2061
sg63
(lp2076
g56
(g57
g58
NtRp2077
(dp2078
g61
(dp2079
g69
I4
ssg70
g2073
sg63
(lp2080
g1005
asbasbasbag56
(g72
g58
NtRp2081
(dp2082
g61
(dp2083
sg70
g1930
sg63
(lp2084
g56
(g77
g58
NtRp2085
(dp2086
g61
(dp2087
g81
g82
ssg70
g2081
sg63
(lp2088
g1256
asbag56
(g77
g58
NtRp2089
(dp2090
g61
(dp2091
g88
g89
ssg70
g2081
sg63
(lp2092
S':'
asbag56
(g77
g58
NtRp2093
(dp2094
g61
(dp2095
sg70
g2081
sg63
(lp2096
g56
(g57
g58
NtRp2097
(dp2098
g61
(dp2099
g69
I4
ssg70
g2093
sg63
(lp2100
g99
asbasbasbag56
(g72
g58
NtRp2101
(dp2102
g61
(dp2103
sg70
g1930
sg63
(lp2104
g56
(g77
g58
NtRp2105
(dp2106
g61
(dp2107
g81
g82
ssg70
g2101
sg63
(lp2108
g1494
asbag56
(g77
g58
NtRp2109
(dp2110
g61
(dp2111
g88
g89
ssg70
g2101
sg63
(lp2112
S':'
asbag56
(g77
g58
NtRp2113
(dp2114
g61
(dp2115
sg70
g2101
sg63
(lp2116
g56
(g57
g58
NtRp2117
(dp2118
g61
(dp2119
g69
I4
ssg70
g2113
sg63
(lp2120
g1507
asbasbasbag56
(g72
g58
NtRp2121
(dp2122
g61
(dp2123
sg70
g1930
sg63
(lp2124
g56
(g77
g58
NtRp2125
(dp2126
g61
(dp2127
g81
g82
ssg70
g2121
sg63
(lp2128
g1537
asbag56
(g77
g58
NtRp2129
(dp2130
g61
(dp2131
g88
g89
ssg70
g2121
sg63
(lp2132
S':'
asbag56
(g77
g58
NtRp2133
(dp2134
g61
(dp2135
sg70
g2121
sg63
(lp2136
g56
(g57
g58
NtRp2137
(dp2138
g61
(dp2139
g69
I4
ssg70
g2133
sg63
(lp2140
g56
(g65
g58
NtRp2141
(dp2142
g61
(dp2143
g69
I3
ssg70
Nsg63
(lp2144
g56
(g72
g58
NtRp2145
(dp2146
g61
(dp2147
sg70
g2141
sg63
(lp2148
g56
(g77
g58
NtRp2149
(dp2150
g61
(dp2151
sg70
g2145
sg63
(lp2152
g56
(g57
g58
NtRp2153
(dp2154
g61
(dp2155
g69
I3
ssg70
g2149
sg63
(lp2156
S'1'
asbasbasbag56
(g72
g58
NtRp2157
(dp2158
g61
(dp2159
sg70
g2141
sg63
(lp2160
g56
(g77
g58
NtRp2161
(dp2162
g61
(dp2163
sg70
g2157
sg63
(lp2164
g56
(g57
g58
NtRp2165
(dp2166
g61
(dp2167
g69
I3
ssg70
g2161
sg63
(lp2168
S'99'
p2169
asbasbasbag56
(g72
g58
NtRp2170
(dp2171
g61
(dp2172
sg70
g2141
sg63
(lp2173
g56
(g77
g58
NtRp2174
(dp2175
g61
(dp2176
sg70
g2170
sg63
(lp2177
g56
(g57
g58
NtRp2178
(dp2179
g61
(dp2180
g69
I3
ssg70
g2174
sg63
(lp2181
S'2'
asbasbasbag56
(g72
g58
NtRp2182
(dp2183
g61
(dp2184
sg70
g2141
sg63
(lp2185
g56
(g77
g58
NtRp2186
(dp2187
g61
(dp2188
sg70
g2182
sg63
(lp2189
g56
(g57
g58
NtRp2190
(dp2191
g61
(dp2192
g69
I3
ssg70
g2186
sg63
(lp2193
S'datetime.datetime(2011, 9, 26, 6, 55, 33)'
p2194
asbasbasbag56
(g72
g58
NtRp2195
(dp2196
g61
(dp2197
sg70
g2141
sg63
(lp2198
g56
(g77
g58
NtRp2199
(dp2200
g61
(dp2201
sg70
g2195
sg63
(lp2202
g56
(g57
g58
NtRp2203
(dp2204
g61
(dp2205
g69
I3
ssg70
g2199
sg63
(lp2206
g1616
asbasbasbasbasbasbasbasbasbasbasbag56
(g72
g58
NtRp2207
(dp2208
g61
(dp2209
sg70
g66
sg63
(lp2210
g56
(g77
g58
NtRp2211
(dp2212
g61
(dp2213
g81
g82
ssg70
g2207
sg63
(lp2214
S'is_https'
p2215
asbag56
(g77
g58
NtRp2216
(dp2217
g61
(dp2218
g88
g89
ssg70
g2207
sg63
(lp2219
S':'
asbag56
(g77
g58
NtRp2220
(dp2221
g61
(dp2222
sg70
g2207
sg63
(lp2223
g56
(g57
g58
NtRp2224
(dp2225
g61
(dp2226
g69
I5
ssg70
g2220
sg63
(lp2227
g99
asbasbasbag56
(g72
g58
NtRp2228
(dp2229
g61
(dp2230
sg70
g66
sg63
(lp2231
g56
(g77
g58
NtRp2232
(dp2233
g61
(dp2234
g81
g82
ssg70
g2228
sg63
(lp2235
S'is_local'
p2236
asbag56
(g77
g58
NtRp2237
(dp2238
g61
(dp2239
g88
g89
ssg70
g2228
sg63
(lp2240
S':'
asbag56
(g77
g58
NtRp2241
(dp2242
g61
(dp2243
sg70
g2228
sg63
(lp2244
g56
(g57
g58
NtRp2245
(dp2246
g61
(dp2247
g69
I5
ssg70
g2241
sg63
(lp2248
g1725
asbasbasbag56
(g72
g58
NtRp2249
(dp2250
g61
(dp2251
sg70
g66
sg63
(lp2252
g56
(g77
g58
NtRp2253
(dp2254
g61
(dp2255
g81
g82
ssg70
g2249
sg63
(lp2256
S'is_restful'
p2257
asbag56
(g77
g58
NtRp2258
(dp2259
g61
(dp2260
g88
g89
ssg70
g2249
sg63
(lp2261
S':'
asbag56
(g77
g58
NtRp2262
(dp2263
g61
(dp2264
sg70
g2249
sg63
(lp2265
g56
(g57
g58
NtRp2266
(dp2267
g61
(dp2268
g69
I5
ssg70
g2262
sg63
(lp2269
g99
asbasbasbag56
(g72
g58
NtRp2270
(dp2271
g61
(dp2272
sg70
g66
sg63
(lp2273
g56
(g77
g58
NtRp2274
(dp2275
g61
(dp2276
g81
g82
ssg70
g2270
sg63
(lp2277
S'now'
p2278
asbag56
(g77
g58
NtRp2279
(dp2280
g61
(dp2281
g88
g89
ssg70
g2270
sg63
(lp2282
S':'
asbag56
(g77
g58
NtRp2283
(dp2284
g61
(dp2285
sg70
g2270
sg63
(lp2286
g56
(g57
g58
NtRp2287
(dp2288
g61
(dp2289
g69
I5
ssg70
g2283
sg63
(lp2290
S'datetime.datetime(2011, 11, 24, 14, 33, 43, 92855)'
p2291
asbasbasbag56
(g72
g58
NtRp2292
(dp2293
g61
(dp2294
sg70
g66
sg63
(lp2295
g56
(g77
g58
NtRp2296
(dp2297
g61
(dp2298
g81
g82
ssg70
g2292
sg63
(lp2299
S'post_vars'
p2300
asbag56
(g77
g58
NtRp2301
(dp2302
g61
(dp2303
g88
g89
ssg70
g2292
sg63
(lp2304
S':'
asbag56
(g77
g58
NtRp2305
(dp2306
g61
(dp2307
sg70
g2292
sg63
(lp2308
g56
(g57
g58
NtRp2309
(dp2310
g61
(dp2311
g69
I5
ssg70
g2305
sg63
(lp2312
g56
(g65
g58
NtRp2313
(dp2314
g61
(dp2315
g69
I4
ssg70
Nsg63
(lp2316
sbasbasbasbag56
(g72
g58
NtRp2317
(dp2318
g61
(dp2319
sg70
g66
sg63
(lp2320
g56
(g77
g58
NtRp2321
(dp2322
g61
(dp2323
g81
g82
ssg70
g2317
sg63
(lp2324
S'raw_args'
p2325
asbag56
(g77
g58
NtRp2326
(dp2327
g61
(dp2328
g88
g89
ssg70
g2317
sg63
(lp2329
S':'
asbag56
(g77
g58
NtRp2330
(dp2331
g61
(dp2332
sg70
g2317
sg63
(lp2333
g56
(g57
g58
NtRp2334
(dp2335
g61
(dp2336
g69
I5
ssg70
g2330
sg63
(lp2337
S'note/1'
p2338
asbasbasbag56
(g72
g58
NtRp2339
(dp2340
g61
(dp2341
sg70
g66
sg63
(lp2342
g56
(g77
g58
NtRp2343
(dp2344
g61
(dp2345
g81
g82
ssg70
g2339
sg63
(lp2346
S'url'
p2347
asbag56
(g77
g58
NtRp2348
(dp2349
g61
(dp2350
g88
g89
ssg70
g2339
sg63
(lp2351
S':'
asbag56
(g77
g58
NtRp2352
(dp2353
g61
(dp2354
sg70
g2339
sg63
(lp2355
g56
(g57
g58
NtRp2356
(dp2357
g61
(dp2358
g69
I5
ssg70
g2352
sg63
(lp2359
S'/topoi/plugin_listandedit/list/note/1'
p2360
asbasbasbag56
(g72
g58
NtRp2361
(dp2362
g61
(dp2363
sg70
g66
sg63
(lp2364
g56
(g77
g58
NtRp2365
(dp2366
g61
(dp2367
g81
g82
ssg70
g2361
sg63
(lp2368
S'utcnow'
p2369
asbag56
(g77
g58
NtRp2370
(dp2371
g61
(dp2372
g88
g89
ssg70
g2361
sg63
(lp2373
S':'
asbag56
(g77
g58
NtRp2374
(dp2375
g61
(dp2376
sg70
g2361
sg63
(lp2377
g56
(g57
g58
NtRp2378
(dp2379
g61
(dp2380
g69
I5
ssg70
g2374
sg63
(lp2381
S'datetime.datetime(2011, 11, 24, 19, 33, 43, 92919)'
p2382
asbasbasbag56
(g72
g58
NtRp2383
(dp2384
g61
(dp2385
sg70
g66
sg63
(lp2386
g56
(g77
g58
NtRp2387
(dp2388
g61
(dp2389
g81
g82
ssg70
g2383
sg63
(lp2390
S'uuid'
p2391
asbag56
(g77
g58
NtRp2392
(dp2393
g61
(dp2394
g88
g89
ssg70
g2383
sg63
(lp2395
S':'
asbag56
(g77
g58
NtRp2396
(dp2397
g61
(dp2398
sg70
g2383
sg63
(lp2399
g56
(g57
g58
NtRp2400
(dp2401
g61
(dp2402
g69
I5
ssg70
g2396
sg63
(lp2403
S'topoi/127.0.0.1.2011-11-24.14-33-43.80c3a691-6d7b-4f04-99be-d508581ed37c'
p2404
asbasbasbag56
(g72
g58
NtRp2405
(dp2406
g61
(dp2407
sg70
g66
sg63
(lp2408
g56
(g77
g58
NtRp2409
(dp2410
g61
(dp2411
g81
g82
ssg70
g2405
sg63
(lp2412
S'vars'
p2413
asbag56
(g77
g58
NtRp2414
(dp2415
g61
(dp2416
g88
g89
ssg70
g2405
sg63
(lp2417
S':'
asbag56
(g77
g58
NtRp2418
(dp2419
g61
(dp2420
sg70
g2405
sg63
(lp2421
g56
(g57
g58
NtRp2422
(dp2423
g61
(dp2424
g69
I5
ssg70
g2418
sg63
(lp2425
g56
(g65
g58
NtRp2426
(dp2427
g61
(dp2428
g69
I4
ssg70
Nsg63
(lp2429
sbasbasbasbag56
(g72
g58
NtRp2430
(dp2431
g61
(dp2432
sg70
g66
sg63
(lp2433
g56
(g77
g58
NtRp2434
(dp2435
g61
(dp2436
g81
g82
ssg70
g2430
sg63
(lp2437
S'wsgi'
p2438
asbag56
(g77
g58
NtRp2439
(dp2440
g61
(dp2441
g88
g89
ssg70
g2430
sg63
(lp2442
S':'
asbag56
(g77
g58
NtRp2443
(dp2444
g61
(dp2445
sg70
g2430
sg63
(lp2446
g56
(g57
g58
NtRp2447
(dp2448
g61
(dp2449
g69
I5
ssg70
g2443
sg63
(lp2450
g56
(g65
g58
NtRp2451
(dp2452
g61
(dp2453
g69
I4
ssg70
Nsg63
(lp2454
g56
(g72
g58
NtRp2455
(dp2456
g61
(dp2457
sg70
g2451
sg63
(lp2458
g56
(g77
g58
NtRp2459
(dp2460
g61
(dp2461
g81
g82
ssg70
g2455
sg63
(lp2462
S'environ'
p2463
asbag56
(g77
g58
NtRp2464
(dp2465
g61
(dp2466
g88
g89
ssg70
g2455
sg63
(lp2467
S':'
asbag56
(g77
g58
NtRp2468
(dp2469
g61
(dp2470
sg70
g2455
sg63
(lp2471
g56
(g57
g58
NtRp2472
(dp2473
g61
(dp2474
g69
I4
ssg70
g2468
sg63
(lp2475
g56
(g65
g58
NtRp2476
(dp2477
g61
(dp2478
g69
I3
ssg70
Nsg63
(lp2479
g56
(g72
g58
NtRp2480
(dp2481
g61
(dp2482
sg70
g2476
sg63
(lp2483
g56
(g77
g58
NtRp2484
(dp2485
g61
(dp2486
g81
g82
ssg70
g2480
sg63
(lp2487
S'HTTP_ACCEPT'
p2488
asbag56
(g77
g58
NtRp2489
(dp2490
g61
(dp2491
g88
g89
ssg70
g2480
sg63
(lp2492
S':'
asbag56
(g77
g58
NtRp2493
(dp2494
g61
(dp2495
sg70
g2480
sg63
(lp2496
g56
(g57
g58
NtRp2497
(dp2498
g61
(dp2499
g69
I3
ssg70
g2493
sg63
(lp2500
g1027
asbasbasbag56
(g72
g58
NtRp2501
(dp2502
g61
(dp2503
sg70
g2476
sg63
(lp2504
g56
(g77
g58
NtRp2505
(dp2506
g61
(dp2507
g81
g82
ssg70
g2501
sg63
(lp2508
S'HTTP_ACCEPT_CHARSET'
p2509
asbag56
(g77
g58
NtRp2510
(dp2511
g61
(dp2512
g88
g89
ssg70
g2501
sg63
(lp2513
S':'
asbag56
(g77
g58
NtRp2514
(dp2515
g61
(dp2516
sg70
g2501
sg63
(lp2517
g56
(g57
g58
NtRp2518
(dp2519
g61
(dp2520
g69
I3
ssg70
g2514
sg63
(lp2521
g1049
asbasbasbag56
(g72
g58
NtRp2522
(dp2523
g61
(dp2524
sg70
g2476
sg63
(lp2525
g56
(g77
g58
NtRp2526
(dp2527
g61
(dp2528
g81
g82
ssg70
g2522
sg63
(lp2529
S'HTTP_ACCEPT_ENCODING'
p2530
asbag56
(g77
g58
NtRp2531
(dp2532
g61
(dp2533
g88
g89
ssg70
g2522
sg63
(lp2534
S':'
asbag56
(g77
g58
NtRp2535
(dp2536
g61
(dp2537
sg70
g2522
sg63
(lp2538
g56
(g57
g58
NtRp2539
(dp2540
g61
(dp2541
g69
I3
ssg70
g2535
sg63
(lp2542
g1071
asbasbasbag56
(g72
g58
NtRp2543
(dp2544
g61
(dp2545
sg70
g2476
sg63
(lp2546
g56
(g77
g58
NtRp2547
(dp2548
g61
(dp2549
g81
g82
ssg70
g2543
sg63
(lp2550
S'HTTP_ACCEPT_LANGUAGE'
p2551
asbag56
(g77
g58
NtRp2552
(dp2553
g61
(dp2554
g88
g89
ssg70
g2543
sg63
(lp2555
S':'
asbag56
(g77
g58
NtRp2556
(dp2557
g61
(dp2558
sg70
g2543
sg63
(lp2559
g56
(g57
g58
NtRp2560
(dp2561
g61
(dp2562
g69
I3
ssg70
g2556
sg63
(lp2563
g1093
asbasbasbag56
(g72
g58
NtRp2564
(dp2565
g61
(dp2566
sg70
g2476
sg63
(lp2567
g56
(g77
g58
NtRp2568
(dp2569
g61
(dp2570
g81
g82
ssg70
g2564
sg63
(lp2571
S'HTTP_CACHE_CONTROL'
p2572
asbag56
(g77
g58
NtRp2573
(dp2574
g61
(dp2575
g88
g89
ssg70
g2564
sg63
(lp2576
S':'
asbag56
(g77
g58
NtRp2577
(dp2578
g61
(dp2579
sg70
g2564
sg63
(lp2580
g56
(g57
g58
NtRp2581
(dp2582
g61
(dp2583
g69
I3
ssg70
g2577
sg63
(lp2584
g1115
asbasbasbag56
(g72
g58
NtRp2585
(dp2586
g61
(dp2587
sg70
g2476
sg63
(lp2588
g56
(g77
g58
NtRp2589
(dp2590
g61
(dp2591
g81
g82
ssg70
g2585
sg63
(lp2592
S'HTTP_CONNECTION'
p2593
asbag56
(g77
g58
NtRp2594
(dp2595
g61
(dp2596
g88
g89
ssg70
g2585
sg63
(lp2597
S':'
asbag56
(g77
g58
NtRp2598
(dp2599
g61
(dp2600
sg70
g2585
sg63
(lp2601
g56
(g57
g58
NtRp2602
(dp2603
g61
(dp2604
g69
I3
ssg70
g2598
sg63
(lp2605
g1137
asbasbasbag56
(g72
g58
NtRp2606
(dp2607
g61
(dp2608
sg70
g2476
sg63
(lp2609
g56
(g77
g58
NtRp2610
(dp2611
g61
(dp2612
g81
g82
ssg70
g2606
sg63
(lp2613
S'HTTP_COOKIE'
p2614
asbag56
(g77
g58
NtRp2615
(dp2616
g61
(dp2617
g88
g89
ssg70
g2606
sg63
(lp2618
S':'
asbag56
(g77
g58
NtRp2619
(dp2620
g61
(dp2621
sg70
g2606
sg63
(lp2622
g56
(g57
g58
NtRp2623
(dp2624
g61
(dp2625
g69
I3
ssg70
g2619
sg63
(lp2626
g1159
asbasbasbag56
(g72
g58
NtRp2627
(dp2628
g61
(dp2629
sg70
g2476
sg63
(lp2630
g56
(g77
g58
NtRp2631
(dp2632
g61
(dp2633
g81
g82
ssg70
g2627
sg63
(lp2634
S'HTTP_HOST'
p2635
asbag56
(g77
g58
NtRp2636
(dp2637
g61
(dp2638
g88
g89
ssg70
g2627
sg63
(lp2639
S':'
asbag56
(g77
g58
NtRp2640
(dp2641
g61
(dp2642
sg70
g2627
sg63
(lp2643
g56
(g57
g58
NtRp2644
(dp2645
g61
(dp2646
g69
I3
ssg70
g2640
sg63
(lp2647
g1181
asbasbasbag56
(g72
g58
NtRp2648
(dp2649
g61
(dp2650
sg70
g2476
sg63
(lp2651
g56
(g77
g58
NtRp2652
(dp2653
g61
(dp2654
g81
g82
ssg70
g2648
sg63
(lp2655
S'HTTP_REFERER'
p2656
asbag56
(g77
g58
NtRp2657
(dp2658
g61
(dp2659
g88
g89
ssg70
g2648
sg63
(lp2660
S':'
asbag56
(g77
g58
NtRp2661
(dp2662
g61
(dp2663
sg70
g2648
sg63
(lp2664
g56
(g57
g58
NtRp2665
(dp2666
g61
(dp2667
g69
I3
ssg70
g2661
sg63
(lp2668
g1203
asbasbasbag56
(g72
g58
NtRp2669
(dp2670
g61
(dp2671
sg70
g2476
sg63
(lp2672
g56
(g77
g58
NtRp2673
(dp2674
g61
(dp2675
g81
g82
ssg70
g2669
sg63
(lp2676
S'HTTP_USER_AGENT'
p2677
asbag56
(g77
g58
NtRp2678
(dp2679
g61
(dp2680
g88
g89
ssg70
g2669
sg63
(lp2681
S':'
asbag56
(g77
g58
NtRp2682
(dp2683
g61
(dp2684
sg70
g2669
sg63
(lp2685
g56
(g57
g58
NtRp2686
(dp2687
g61
(dp2688
g69
I3
ssg70
g2682
sg63
(lp2689
g1225
asbasbasbag56
(g72
g58
NtRp2690
(dp2691
g61
(dp2692
sg70
g2476
sg63
(lp2693
g56
(g77
g58
NtRp2694
(dp2695
g61
(dp2696
g81
g82
ssg70
g2690
sg63
(lp2697
S'HTTP_X_INSIGHT'
p2698
asbag56
(g77
g58
NtRp2699
(dp2700
g61
(dp2701
g88
g89
ssg70
g2690
sg63
(lp2702
S':'
asbag56
(g77
g58
NtRp2703
(dp2704
g61
(dp2705
sg70
g2690
sg63
(lp2706
g56
(g57
g58
NtRp2707
(dp2708
g61
(dp2709
g69
I3
ssg70
g2703
sg63
(lp2710
g1247
asbasbasbag56
(g72
g58
NtRp2711
(dp2712
g61
(dp2713
sg70
g2476
sg63
(lp2714
g56
(g77
g58
NtRp2715
(dp2716
g61
(dp2717
g81
g82
ssg70
g2711
sg63
(lp2718
S'PATH_INFO'
p2719
asbag56
(g77
g58
NtRp2720
(dp2721
g61
(dp2722
g88
g89
ssg70
g2711
sg63
(lp2723
S':'
asbag56
(g77
g58
NtRp2724
(dp2725
g61
(dp2726
sg70
g2711
sg63
(lp2727
g56
(g57
g58
NtRp2728
(dp2729
g61
(dp2730
g69
I3
ssg70
g2724
sg63
(lp2731
g1290
asbasbasbag56
(g72
g58
NtRp2732
(dp2733
g61
(dp2734
sg70
g2476
sg63
(lp2735
g56
(g77
g58
NtRp2736
(dp2737
g61
(dp2738
g81
g82
ssg70
g2732
sg63
(lp2739
S'QUERY_STRING'
p2740
asbag56
(g77
g58
NtRp2741
(dp2742
g61
(dp2743
g88
g89
ssg70
g2732
sg63
(lp2744
S':'
asbag56
(g77
g58
NtRp2745
(dp2746
g61
(dp2747
sg70
g2732
sg63
(lp2748
g56
(g57
g58
NtRp2749
(dp2750
g61
(dp2751
g69
I3
ssg70
g2745
sg63
(lp2752
S''
asbasbasbag56
(g72
g58
NtRp2753
(dp2754
g61
(dp2755
sg70
g2476
sg63
(lp2756
g56
(g77
g58
NtRp2757
(dp2758
g61
(dp2759
g81
g82
ssg70
g2753
sg63
(lp2760
S'REMOTE_ADDR'
p2761
asbag56
(g77
g58
NtRp2762
(dp2763
g61
(dp2764
g88
g89
ssg70
g2753
sg63
(lp2765
S':'
asbag56
(g77
g58
NtRp2766
(dp2767
g61
(dp2768
sg70
g2753
sg63
(lp2769
g56
(g57
g58
NtRp2770
(dp2771
g61
(dp2772
g69
I3
ssg70
g2766
sg63
(lp2773
g214
asbasbasbag56
(g72
g58
NtRp2774
(dp2775
g61
(dp2776
sg70
g2476
sg63
(lp2777
g56
(g77
g58
NtRp2778
(dp2779
g61
(dp2780
g81
g82
ssg70
g2774
sg63
(lp2781
S'REMOTE_PORT'
p2782
asbag56
(g77
g58
NtRp2783
(dp2784
g61
(dp2785
g88
g89
ssg70
g2774
sg63
(lp2786
S':'
asbag56
(g77
g58
NtRp2787
(dp2788
g61
(dp2789
sg70
g2774
sg63
(lp2790
g56
(g57
g58
NtRp2791
(dp2792
g61
(dp2793
g69
I3
ssg70
g2787
sg63
(lp2794
g1354
asbasbasbag56
(g72
g58
NtRp2795
(dp2796
g61
(dp2797
sg70
g2476
sg63
(lp2798
g56
(g77
g58
NtRp2799
(dp2800
g61
(dp2801
g81
g82
ssg70
g2795
sg63
(lp2802
S'REQUEST_METHOD'
p2803
asbag56
(g77
g58
NtRp2804
(dp2805
g61
(dp2806
g88
g89
ssg70
g2795
sg63
(lp2807
S':'
asbag56
(g77
g58
NtRp2808
(dp2809
g61
(dp2810
sg70
g2795
sg63
(lp2811
g56
(g57
g58
NtRp2812
(dp2813
g61
(dp2814
g69
I3
ssg70
g2808
sg63
(lp2815
g1376
asbasbasbag56
(g72
g58
NtRp2816
(dp2817
g61
(dp2818
sg70
g2476
sg63
(lp2819
g56
(g77
g58
NtRp2820
(dp2821
g61
(dp2822
g81
g82
ssg70
g2816
sg63
(lp2823
S'SCRIPT_NAME'
p2824
asbag56
(g77
g58
NtRp2825
(dp2826
g61
(dp2827
g88
g89
ssg70
g2816
sg63
(lp2828
S':'
asbag56
(g77
g58
NtRp2829
(dp2830
g61
(dp2831
sg70
g2816
sg63
(lp2832
g56
(g57
g58
NtRp2833
(dp2834
g61
(dp2835
g69
I3
ssg70
g2829
sg63
(lp2836
S''
asbasbasbag56
(g72
g58
NtRp2837
(dp2838
g61
(dp2839
sg70
g2476
sg63
(lp2840
g56
(g77
g58
NtRp2841
(dp2842
g61
(dp2843
g81
g82
ssg70
g2837
sg63
(lp2844
S'SERVER_NAME'
p2845
asbag56
(g77
g58
NtRp2846
(dp2847
g61
(dp2848
g88
g89
ssg70
g2837
sg63
(lp2849
S':'
asbag56
(g77
g58
NtRp2850
(dp2851
g61
(dp2852
sg70
g2837
sg63
(lp2853
g56
(g57
g58
NtRp2854
(dp2855
g61
(dp2856
g69
I3
ssg70
g2850
sg63
(lp2857
g1419
asbasbasbag56
(g72
g58
NtRp2858
(dp2859
g61
(dp2860
sg70
g2476
sg63
(lp2861
g56
(g77
g58
NtRp2862
(dp2863
g61
(dp2864
g81
g82
ssg70
g2858
sg63
(lp2865
S'SERVER_PORT'
p2866
asbag56
(g77
g58
NtRp2867
(dp2868
g61
(dp2869
g88
g89
ssg70
g2858
sg63
(lp2870
S':'
asbag56
(g77
g58
NtRp2871
(dp2872
g61
(dp2873
sg70
g2858
sg63
(lp2874
g56
(g57
g58
NtRp2875
(dp2876
g61
(dp2877
g69
I3
ssg70
g2871
sg63
(lp2878
g1441
asbasbasbag56
(g72
g58
NtRp2879
(dp2880
g61
(dp2881
sg70
g2476
sg63
(lp2882
g56
(g77
g58
NtRp2883
(dp2884
g61
(dp2885
g81
g82
ssg70
g2879
sg63
(lp2886
S'SERVER_PROTOCOL'
p2887
asbag56
(g77
g58
NtRp2888
(dp2889
g61
(dp2890
g88
g89
ssg70
g2879
sg63
(lp2891
S':'
asbag56
(g77
g58
NtRp2892
(dp2893
g61
(dp2894
sg70
g2879
sg63
(lp2895
g56
(g57
g58
NtRp2896
(dp2897
g61
(dp2898
g69
I3
ssg70
g2892
sg63
(lp2899
g1463
asbasbasbag56
(g72
g58
NtRp2900
(dp2901
g61
(dp2902
sg70
g2476
sg63
(lp2903
g56
(g77
g58
NtRp2904
(dp2905
g61
(dp2906
g81
g82
ssg70
g2900
sg63
(lp2907
S'SERVER_SOFTWARE'
p2908
asbag56
(g77
g58
NtRp2909
(dp2910
g61
(dp2911
g88
g89
ssg70
g2900
sg63
(lp2912
S':'
asbag56
(g77
g58
NtRp2913
(dp2914
g61
(dp2915
sg70
g2900
sg63
(lp2916
g56
(g57
g58
NtRp2917
(dp2918
g61
(dp2919
g69
I3
ssg70
g2913
sg63
(lp2920
g1485
asbasbasbag56
(g72
g58
NtRp2921
(dp2922
g61
(dp2923
sg70
g2476
sg63
(lp2924
g56
(g77
g58
NtRp2925
(dp2926
g61
(dp2927
g81
g82
ssg70
g2921
sg63
(lp2928
S'wsgi.errors'
p2929
asbag56
(g77
g58
NtRp2930
(dp2931
g61
(dp2932
g88
g89
ssg70
g2921
sg63
(lp2933
S':'
asbag56
(g77
g58
NtRp2934
(dp2935
g61
(dp2936
sg70
g2921
sg63
(lp2937
g56
(g57
g58
NtRp2938
(dp2939
g61
(dp2940
g69
I3
ssg70
g2934
sg63
(lp2941
S"<open file '<stderr>', mode 'w' at 0x7ffcfbcc0270>"
p2942
asbasbasbag56
(g72
g58
NtRp2943
(dp2944
g61
(dp2945
sg70
g2476
sg63
(lp2946
g56
(g77
g58
NtRp2947
(dp2948
g61
(dp2949
g81
g82
ssg70
g2943
sg63
(lp2950
S'wsgi.file_wrapper'
p2951
asbag56
(g77
g58
NtRp2952
(dp2953
g61
(dp2954
g88
g89
ssg70
g2943
sg63
(lp2955
S':'
asbag56
(g77
g58
NtRp2956
(dp2957
g61
(dp2958
sg70
g2943
sg63
(lp2959
g56
(g57
g58
NtRp2960
(dp2961
g61
(dp2962
g69
I3
ssg70
g2956
sg63
(lp2963
S'<class wsgiref.util.FileWrapper at 0x228a808>'
p2964
asbasbasbag56
(g72
g58
NtRp2965
(dp2966
g61
(dp2967
sg70
g2476
sg63
(lp2968
g56
(g77
g58
NtRp2969
(dp2970
g61
(dp2971
g81
g82
ssg70
g2965
sg63
(lp2972
S'wsgi.input'
p2973
asbag56
(g77
g58
NtRp2974
(dp2975
g61
(dp2976
g88
g89
ssg70
g2965
sg63
(lp2977
S':'
asbag56
(g77
g58
NtRp2978
(dp2979
g61
(dp2980
sg70
g2965
sg63
(lp2981
g56
(g57
g58
NtRp2982
(dp2983
g61
(dp2984
g69
I3
ssg70
g2978
sg63
(lp2985
S'<cStringIO.StringO object at 0x7ffcec28b420>'
p2986
asbasbasbag56
(g72
g58
NtRp2987
(dp2988
g61
(dp2989
sg70
g2476
sg63
(lp2990
g56
(g77
g58
NtRp2991
(dp2992
g61
(dp2993
g81
g82
ssg70
g2987
sg63
(lp2994
S'wsgi.multiprocess'
p2995
asbag56
(g77
g58
NtRp2996
(dp2997
g61
(dp2998
g88
g89
ssg70
g2987
sg63
(lp2999
S':'
asbag56
(g77
g58
NtRp3000
(dp3001
g61
(dp3002
sg70
g2987
sg63
(lp3003
g56
(g57
g58
NtRp3004
(dp3005
g61
(dp3006
g69
I3
ssg70
g3000
sg63
(lp3007
g99
asbasbasbag56
(g72
g58
NtRp3008
(dp3009
g61
(dp3010
sg70
g2476
sg63
(lp3011
g56
(g77
g58
NtRp3012
(dp3013
g61
(dp3014
g81
g82
ssg70
g3008
sg63
(lp3015
S'wsgi.multithread'
p3016
asbag56
(g77
g58
NtRp3017
(dp3018
g61
(dp3019
g88
g89
ssg70
g3008
sg63
(lp3020
S':'
asbag56
(g77
g58
NtRp3021
(dp3022
g61
(dp3023
sg70
g3008
sg63
(lp3024
g56
(g57
g58
NtRp3025
(dp3026
g61
(dp3027
g69
I3
ssg70
g3021
sg63
(lp3028
g1725
asbasbasbag56
(g72
g58
NtRp3029
(dp3030
g61
(dp3031
sg70
g2476
sg63
(lp3032
g56
(g77
g58
NtRp3033
(dp3034
g61
(dp3035
g81
g82
ssg70
g3029
sg63
(lp3036
S'wsgi.run_once'
p3037
asbag56
(g77
g58
NtRp3038
(dp3039
g61
(dp3040
g88
g89
ssg70
g3029
sg63
(lp3041
S':'
asbag56
(g77
g58
NtRp3042
(dp3043
g61
(dp3044
sg70
g3029
sg63
(lp3045
g56
(g57
g58
NtRp3046
(dp3047
g61
(dp3048
g69
I3
ssg70
g3042
sg63
(lp3049
g99
asbasbasbag56
(g72
g58
NtRp3050
(dp3051
g61
(dp3052
sg70
g2476
sg63
(lp3053
g56
(g77
g58
NtRp3054
(dp3055
g61
(dp3056
g81
g82
ssg70
g3050
sg63
(lp3057
S'wsgi.url_scheme'
p3058
asbag56
(g77
g58
NtRp3059
(dp3060
g61
(dp3061
g88
g89
ssg70
g3050
sg63
(lp3062
S':'
asbag56
(g77
g58
NtRp3063
(dp3064
g61
(dp3065
sg70
g3050
sg63
(lp3066
g56
(g57
g58
NtRp3067
(dp3068
g61
(dp3069
g69
I3
ssg70
g3063
sg63
(lp3070
g1768
asbasbasbag56
(g72
g58
NtRp3071
(dp3072
g61
(dp3073
sg70
g2476
sg63
(lp3074
g56
(g77
g58
NtRp3075
(dp3076
g61
(dp3077
g81
g82
ssg70
g3071
sg63
(lp3078
S'wsgi.version'
p3079
asbag56
(g77
g58
NtRp3080
(dp3081
g61
(dp3082
g88
g89
ssg70
g3071
sg63
(lp3083
S':'
asbag56
(g77
g58
NtRp3084
(dp3085
g61
(dp3086
sg70
g3071
sg63
(lp3087
g56
(g57
g58
NtRp3088
(dp3089
g61
(dp3090
g69
I3
ssg70
g3084
sg63
(lp3091
S'1'
asbasbasbasbasbasbasbasbasbasbasbasbasbsS'frames'
p3092
(lp3093
(dp3094
S'file'
p3095
S'/home/ian/web2py/gluon/restricted.py'
p3096
sS'dump'
p3097
(dp3098
S'environment'
p3099
S"{'A': <class 'gluon.html.A'>, 'Auth': <class 'gluon.tools.Auth'>, 'B': <class 'gluon.html.B'>, 'BEAUTIFY': <class 'gluon.html.BEAUTIFY'>, 'BODY': <class 'gluon.html.BODY'>, 'BR': <class 'gluon.html.BR'>, 'BUTTON': <class 'gluon.html.BUTTON'>, 'CAT': <class 'gluon.html.CAT'>, 'CENTER': <class 'gluon.html.CENTER'>, 'CLEANUP': <class 'gluon.validators.CLEANUP'>, ...}"
p3100
sS'ccode'
p3101
S'<code object <module> at 0x3c97030, file "/home/...b2py/applications/topoi/models/topoi.py", line 2>'
p3102
ssS'lnum'
p3103
I194
sS'lines'
p3104
(dp3105
I192
S'        else:'
p3106
sI193
S'            ccode = compile2(code,layer)'
p3107
sI194
S'        exec ccode in environment'
p3108
sI195
S'    except HTTP:'
p3109
sI196
S'        raise'
p3110
sI197
S'    except Exception, error:'
p3111
sI198
S'        # XXX Show exception in Wing IDE if running in debugger'
p3112
sI189
S'    try:'
p3113
sI190
S'        if type(code) == types.CodeType:'
p3114
sI191
S'            ccode = code'
p3115
ssS'call'
p3116
S"(code='# coding: utf8\\nfrom plugin_selectoradd import SE...dget\\ndb.notes.project.widget = add_option.widget\\n', environment={'A': <class 'gluon.html.A'>, 'Auth': <class 'gluon.tools.Auth'>, 'B': <class 'gluon.html.B'>, 'BEAUTIFY': <class 'gluon.html.BEAUTIFY'>, 'BODY': <class 'gluon.html.BODY'>, 'BR': <class 'gluon.html.BR'>, 'BUTTON': <class 'gluon.html.BUTTON'>, 'CAT': <class 'gluon.html.CAT'>, 'CENTER': <class 'gluon.html.CENTER'>, 'CLEANUP': <class 'gluon.validators.CLEANUP'>, ...}, layer='/home/ian/web2py/applications/topoi/models/topoi.py')"
p3117
sS'func'
p3118
S'restricted'
p3119
sa(dp3120
g3095
S'/home/ian/web2py/applications/topoi/models/topoi.py'
p3121
sg3097
(dp3122
S'SELECT_OR_ADD_OPTION'
p3123
S'undefined'
p3124
sS'plugin_selectoradd'
p3125
g3124
ssg3103
I2
sg3104
(dp3126
I2
S'from plugin_selectoradd import SELECT_OR_ADD_OPTION'
p3127
sI3
S'from plugin_multiselect_widget import hmultiselect_widget, vmultiselect_widget'
p3128
sI4
S'import datetime'
p3129
sI5
S''
sI6
S'add_option = SELECT_OR_ADD_OPTION(form_title="Add new", controller="plugin_selectoradd", function="add", button_text = "Add New", dialog_width=500)'
p3130
sI7
S''
sI8
S"db.define_table('locations',"
p3131
sI9
S"    Field('location', 'string'),"
p3132
sI10
S"    format='%(location)s')"
p3133
sI11
S''
ssg3116
S'()'
p3134
sg3118
S'<module>'
p3135
sa(dp3136
g3095
S'/home/ian/web2py/gluon/custom_import.py'
p3137
sg3097
(dp3138
S'fromlist'
p3139
S"('SELECT_OR_ADD_OPTION',)"
p3140
sS'level'
p3141
S'-1'
p3142
ssg3103
I294
sg3104
(dp3143
I289
S'                            .__call__(modules_prefix+"."+name,'
p3144
sI290
S'                                    globals, locals, fromlist, level)'
p3145
sI291
S'                except ImportError:'
p3146
sI292
S'                    pass'
p3147
sI293
S'        return super(_Web2pyImporter, self).__call__(name, globals, locals,'
p3148
sI294
S'                                                    fromlist, level)'
p3149
sI295
S'        #except Exception, e:'
p3150
sI296
S"        #    raise e  # Don't hide something that went wrong"
p3151
sI297
S'        #finally:'
p3152
sI298
S'        self.end()'
p3153
ssg3116
S"(self=<gluon.custom_import._Web2pyDateTrackerImporter object>, name='plugin_selectoradd', globals={'A': <class 'gluon.html.A'>, 'Auth': <class 'gluon.tools.Auth'>, 'B': <class 'gluon.html.B'>, 'BEAUTIFY': <class 'gluon.html.BEAUTIFY'>, 'BODY': <class 'gluon.html.BODY'>, 'BR': <class 'gluon.html.BR'>, 'BUTTON': <class 'gluon.html.BUTTON'>, 'CAT': <class 'gluon.html.CAT'>, 'CENTER': <class 'gluon.html.CENTER'>, 'CLEANUP': <class 'gluon.validators.CLEANUP'>, ...}, locals={'A': <class 'gluon.html.A'>, 'Auth': <class 'gluon.tools.Auth'>, 'B': <class 'gluon.html.B'>, 'BEAUTIFY': <class 'gluon.html.BEAUTIFY'>, 'BODY': <class 'gluon.html.BODY'>, 'BR': <class 'gluon.html.BR'>, 'BUTTON': <class 'gluon.html.BUTTON'>, 'CAT': <class 'gluon.html.CAT'>, 'CENTER': <class 'gluon.html.CENTER'>, 'CLEANUP': <class 'gluon.validators.CLEANUP'>, ...}, fromlist=('SELECT_OR_ADD_OPTION',), level=-1)"
p3154
sg3118
S'__call__'
p3155
sa(dp3156
g3095
S'/home/ian/web2py/gluon/custom_import.py'
p3157
sg3097
(dp3158
S'e'
S"ImportError('No module named plugin_selectoradd',)"
p3159
ssg3103
I133
sg3104
(dp3160
I128
S'              .__call__(name, globals, locals, fromlist, level)'
p3161
sI129
S'            # Module maybe loaded for the 1st time so we need to set the date'
p3162
sI130
S'            self._update_dates(name, fromlist)'
p3163
sI131
S'            return result'
p3164
sI132
S'        except Exception, e:'
p3165
sI133
S"            raise e  # Don't hide something that went wrong"
p3166
sI134
S'        finally:'
p3167
sI135
S'            if call_begin_end:'
p3168
sI136
S'                self.end()'
p3169
sI137
S''
ssg3116
S"(self=<gluon.custom_import._Web2pyDateTrackerImporter object>, name='plugin_selectoradd', globals={'A': <class 'gluon.html.A'>, 'Auth': <class 'gluon.tools.Auth'>, 'B': <class 'gluon.html.B'>, 'BEAUTIFY': <class 'gluon.html.BEAUTIFY'>, 'BODY': <class 'gluon.html.BODY'>, 'BR': <class 'gluon.html.BR'>, 'BUTTON': <class 'gluon.html.BUTTON'>, 'CAT': <class 'gluon.html.CAT'>, 'CENTER': <class 'gluon.html.CENTER'>, 'CLEANUP': <class 'gluon.validators.CLEANUP'>, ...}, locals={'A': <class 'gluon.html.A'>, 'Auth': <class 'gluon.tools.Auth'>, 'B': <class 'gluon.html.B'>, 'BEAUTIFY': <class 'gluon.html.BEAUTIFY'>, 'BODY': <class 'gluon.html.BODY'>, 'BR': <class 'gluon.html.BR'>, 'BUTTON': <class 'gluon.html.BUTTON'>, 'CAT': <class 'gluon.html.CAT'>, 'CENTER': <class 'gluon.html.CENTER'>, 'CLEANUP': <class 'gluon.validators.CLEANUP'>, ...}, fromlist=('SELECT_OR_ADD_OPTION',), level=-1)"
p3170
sg3118
g3155
sasS'pyver'
p3171
S'Python 2.7.2+: /usr/bin/python2.7'
p3172
sS'session'
p3173
g56
(g57
g58
NtRp3174
(dp3175
g61
(dp3176
sg63
(lp3177
g56
(g65
g58
NtRp3178
(dp3179
g61
(dp3180
g69
I5
ssg70
Nsg63
(lp3181
sbasbsS'etype'
p3182
S"<type 'exceptions.ImportError'>"
p3183
sS'date'
p3184
S'Thu Nov 24 14:33:43 2011'
p3185
sS'response'
p3186
g56
(g57
g58
NtRp3187
(dp3188
g61
(dp3189
sg63
(lp3190
g56
(g65
g58
NtRp3191
(dp3192
g61
(dp3193
g69
I5
ssg70
Nsg63
(lp3194
g56
(g72
g58
NtRp3195
(dp3196
g61
(dp3197
sg70
g3191
sg63
(lp3198
g56
(g77
g58
NtRp3199
(dp3200
g61
(dp3201
g81
g82
ssg70
g3195
sg63
(lp3202
g179
asbag56
(g77
g58
NtRp3203
(dp3204
g61
(dp3205
g88
g89
ssg70
g3195
sg63
(lp3206
S':'
asbag56
(g77
g58
NtRp3207
(dp3208
g61
(dp3209
sg70
g3195
sg63
(lp3210
g56
(g57
g58
NtRp3211
(dp3212
g61
(dp3213
g69
I5
ssg70
g3207
sg63
(lp3214
S'<cStringIO.StringO object at 0x3dba688>'
p3215
asbasbasbag56
(g72
g58
NtRp3216
(dp3217
g61
(dp3218
sg70
g3191
sg63
(lp3219
g56
(g77
g58
NtRp3220
(dp3221
g61
(dp3222
g81
g82
ssg70
g3216
sg63
(lp3223
g245
asbag56
(g77
g58
NtRp3224
(dp3225
g61
(dp3226
g88
g89
ssg70
g3216
sg63
(lp3227
S':'
asbag56
(g77
g58
NtRp3228
(dp3229
g61
(dp3230
sg70
g3216
sg63
(lp3231
g56
(g57
g58
NtRp3232
(dp3233
g61
(dp3234
g69
I5
ssg70
g3228
sg63
(lp3235
g56
(g65
g58
NtRp3236
(dp3237
g61
(dp3238
g69
I4
ssg70
Nsg63
(lp3239
g56
(g72
g58
NtRp3240
(dp3241
g61
(dp3242
sg70
g3236
sg63
(lp3243
g56
(g77
g58
NtRp3244
(dp3245
g61
(dp3246
g81
g82
ssg70
g3240
sg63
(lp3247
S'session_id_topoi'
p3248
asbag56
(g77
g58
NtRp3249
(dp3250
g61
(dp3251
g88
g89
ssg70
g3240
sg63
(lp3252
S':'
asbag56
(g77
g58
NtRp3253
(dp3254
g61
(dp3255
sg70
g3240
sg63
(lp3256
g56
(g57
g58
NtRp3257
(dp3258
g61
(dp3259
g69
I4
ssg70
g3253
sg63
(lp3260
g56
(g65
g58
NtRp3261
(dp3262
g61
(dp3263
g69
I3
ssg70
Nsg63
(lp3264
g56
(g72
g58
NtRp3265
(dp3266
g61
(dp3267
sg70
g3261
sg63
(lp3268
g56
(g77
g58
NtRp3269
(dp3270
g61
(dp3271
g81
g82
ssg70
g3265
sg63
(lp3272
g295
asbag56
(g77
g58
NtRp3273
(dp3274
g61
(dp3275
g88
g89
ssg70
g3265
sg63
(lp3276
S':'
asbag56
(g77
g58
NtRp3277
(dp3278
g61
(dp3279
sg70
g3265
sg63
(lp3280
g56
(g57
g58
NtRp3281
(dp3282
g61
(dp3283
g69
I3
ssg70
g3277
sg63
(lp3284
S''
asbasbasbag56
(g72
g58
NtRp3285
(dp3286
g61
(dp3287
sg70
g3261
sg63
(lp3288
g56
(g77
g58
NtRp3289
(dp3290
g61
(dp3291
g81
g82
ssg70
g3285
sg63
(lp3292
g316
asbag56
(g77
g58
NtRp3293
(dp3294
g61
(dp3295
g88
g89
ssg70
g3285
sg63
(lp3296
S':'
asbag56
(g77
g58
NtRp3297
(dp3298
g61
(dp3299
sg70
g3285
sg63
(lp3300
g56
(g57
g58
NtRp3301
(dp3302
g61
(dp3303
g69
I3
ssg70
g3297
sg63
(lp3304
S''
asbasbasbag56
(g72
g58
NtRp3305
(dp3306
g61
(dp3307
sg70
g3261
sg63
(lp3308
g56
(g77
g58
NtRp3309
(dp3310
g61
(dp3311
g81
g82
ssg70
g3305
sg63
(lp3312
g337
asbag56
(g77
g58
NtRp3313
(dp3314
g61
(dp3315
g88
g89
ssg70
g3305
sg63
(lp3316
S':'
asbag56
(g77
g58
NtRp3317
(dp3318
g61
(dp3319
sg70
g3305
sg63
(lp3320
g56
(g57
g58
NtRp3321
(dp3322
g61
(dp3323
g69
I3
ssg70
g3317
sg63
(lp3324
S''
asbasbasbag56
(g72
g58
NtRp3325
(dp3326
g61
(dp3327
sg70
g3261
sg63
(lp3328
g56
(g77
g58
NtRp3329
(dp3330
g61
(dp3331
g81
g82
ssg70
g3325
sg63
(lp3332
g358
asbag56
(g77
g58
NtRp3333
(dp3334
g61
(dp3335
g88
g89
ssg70
g3325
sg63
(lp3336
S':'
asbag56
(g77
g58
NtRp3337
(dp3338
g61
(dp3339
sg70
g3325
sg63
(lp3340
g56
(g57
g58
NtRp3341
(dp3342
g61
(dp3343
g69
I3
ssg70
g3337
sg63
(lp3344
S''
asbasbasbag56
(g72
g58
NtRp3345
(dp3346
g61
(dp3347
sg70
g3261
sg63
(lp3348
g56
(g77
g58
NtRp3349
(dp3350
g61
(dp3351
g81
g82
ssg70
g3345
sg63
(lp3352
g379
asbag56
(g77
g58
NtRp3353
(dp3354
g61
(dp3355
g88
g89
ssg70
g3345
sg63
(lp3356
S':'
asbag56
(g77
g58
NtRp3357
(dp3358
g61
(dp3359
sg70
g3345
sg63
(lp3360
g56
(g57
g58
NtRp3361
(dp3362
g61
(dp3363
g69
I3
ssg70
g3357
sg63
(lp3364
S''
asbasbasbag56
(g72
g58
NtRp3365
(dp3366
g61
(dp3367
sg70
g3261
sg63
(lp3368
g56
(g77
g58
NtRp3369
(dp3370
g61
(dp3371
g81
g82
ssg70
g3365
sg63
(lp3372
g400
asbag56
(g77
g58
NtRp3373
(dp3374
g61
(dp3375
g88
g89
ssg70
g3365
sg63
(lp3376
S':'
asbag56
(g77
g58
NtRp3377
(dp3378
g61
(dp3379
sg70
g3365
sg63
(lp3380
g56
(g57
g58
NtRp3381
(dp3382
g61
(dp3383
g69
I3
ssg70
g3377
sg63
(lp3384
S'/'
asbasbasbag56
(g72
g58
NtRp3385
(dp3386
g61
(dp3387
sg70
g3261
sg63
(lp3388
g56
(g77
g58
NtRp3389
(dp3390
g61
(dp3391
g81
g82
ssg70
g3385
sg63
(lp3392
g421
asbag56
(g77
g58
NtRp3393
(dp3394
g61
(dp3395
g88
g89
ssg70
g3385
sg63
(lp3396
S':'
asbag56
(g77
g58
NtRp3397
(dp3398
g61
(dp3399
sg70
g3385
sg63
(lp3400
g56
(g57
g58
NtRp3401
(dp3402
g61
(dp3403
g69
I3
ssg70
g3397
sg63
(lp3404
S''
asbasbasbag56
(g72
g58
NtRp3405
(dp3406
g61
(dp3407
sg70
g3261
sg63
(lp3408
g56
(g77
g58
NtRp3409
(dp3410
g61
(dp3411
g81
g82
ssg70
g3405
sg63
(lp3412
g442
asbag56
(g77
g58
NtRp3413
(dp3414
g61
(dp3415
g88
g89
ssg70
g3405
sg63
(lp3416
S':'
asbag56
(g77
g58
NtRp3417
(dp3418
g61
(dp3419
sg70
g3405
sg63
(lp3420
g56
(g57
g58
NtRp3421
(dp3422
g61
(dp3423
g69
I3
ssg70
g3417
sg63
(lp3424
S''
asbasbasbasbasbasbasbasbasbasbasbag56
(g72
g58
NtRp3425
(dp3426
g61
(dp3427
sg70
g3191
sg63
(lp3428
g56
(g77
g58
NtRp3429
(dp3430
g61
(dp3431
g81
g82
ssg70
g3425
sg63
(lp3432
S'files'
p3433
asbag56
(g77
g58
NtRp3434
(dp3435
g61
(dp3436
g88
g89
ssg70
g3425
sg63
(lp3437
S':'
asbag56
(g77
g58
NtRp3438
(dp3439
g61
(dp3440
sg70
g3425
sg63
(lp3441
g56
(g57
g58
NtRp3442
(dp3443
g61
(dp3444
g69
I5
ssg70
g3438
sg63
(lp3445
g56
(g65
g58
NtRp3446
(dp3447
g61
(dp3448
g69
I4
ssg70
Nsg63
(lp3449
sbasbasbasbag56
(g72
g58
NtRp3450
(dp3451
g61
(dp3452
sg70
g3191
sg63
(lp3453
g56
(g77
g58
NtRp3454
(dp3455
g61
(dp3456
g81
g82
ssg70
g3450
sg63
(lp3457
S'flash'
p3458
asbag56
(g77
g58
NtRp3459
(dp3460
g61
(dp3461
g88
g89
ssg70
g3450
sg63
(lp3462
S':'
asbag56
(g77
g58
NtRp3463
(dp3464
g61
(dp3465
sg70
g3450
sg63
(lp3466
g56
(g57
g58
NtRp3467
(dp3468
g61
(dp3469
g69
I5
ssg70
g3463
sg63
(lp3470
S''
asbasbasbag56
(g72
g58
NtRp3471
(dp3472
g61
(dp3473
sg70
g3191
sg63
(lp3474
g56
(g77
g58
NtRp3475
(dp3476
g61
(dp3477
g81
g82
ssg70
g3471
sg63
(lp3478
S'generic_patterns'
p3479
asbag56
(g77
g58
NtRp3480
(dp3481
g61
(dp3482
g88
g89
ssg70
g3471
sg63
(lp3483
S':'
asbag56
(g77
g58
NtRp3484
(dp3485
g61
(dp3486
sg70
g3471
sg63
(lp3487
g56
(g57
g58
NtRp3488
(dp3489
g61
(dp3490
g69
I5
ssg70
g3484
sg63
(lp3491
g56
(g65
g58
NtRp3492
(dp3493
g61
(dp3494
g69
I4
ssg70
Nsg63
(lp3495
g56
(g72
g58
NtRp3496
(dp3497
g61
(dp3498
sg70
g3492
sg63
(lp3499
g56
(g77
g58
NtRp3500
(dp3501
g61
(dp3502
sg70
g3496
sg63
(lp3503
g56
(g57
g58
NtRp3504
(dp3505
g61
(dp3506
g69
I4
ssg70
g3500
sg63
(lp3507
S'*'
asbasbasbasbasbasbasbag56
(g72
g58
NtRp3508
(dp3509
g61
(dp3510
sg70
g3191
sg63
(lp3511
g56
(g77
g58
NtRp3512
(dp3513
g61
(dp3514
g81
g82
ssg70
g3508
sg63
(lp3515
S'headers'
p3516
asbag56
(g77
g58
NtRp3517
(dp3518
g61
(dp3519
g88
g89
ssg70
g3508
sg63
(lp3520
S':'
asbag56
(g77
g58
NtRp3521
(dp3522
g61
(dp3523
sg70
g3508
sg63
(lp3524
g56
(g57
g58
NtRp3525
(dp3526
g61
(dp3527
g69
I5
ssg70
g3521
sg63
(lp3528
g56
(g65
g58
NtRp3529
(dp3530
g61
(dp3531
g69
I4
ssg70
Nsg63
(lp3532
g56
(g72
g58
NtRp3533
(dp3534
g61
(dp3535
sg70
g3529
sg63
(lp3536
g56
(g77
g58
NtRp3537
(dp3538
g61
(dp3539
g81
g82
ssg70
g3533
sg63
(lp3540
S'Cache-Control'
p3541
asbag56
(g77
g58
NtRp3542
(dp3543
g61
(dp3544
g88
g89
ssg70
g3533
sg63
(lp3545
S':'
asbag56
(g77
g58
NtRp3546
(dp3547
g61
(dp3548
sg70
g3533
sg63
(lp3549
g56
(g57
g58
NtRp3550
(dp3551
g61
(dp3552
g69
I4
ssg70
g3546
sg63
(lp3553
S'no-store, no-cache, must-revalidate, post-check=0, pre-check=0'
p3554
asbasbasbag56
(g72
g58
NtRp3555
(dp3556
g61
(dp3557
sg70
g3529
sg63
(lp3558
g56
(g77
g58
NtRp3559
(dp3560
g61
(dp3561
g81
g82
ssg70
g3555
sg63
(lp3562
S'Content-Type'
p3563
asbag56
(g77
g58
NtRp3564
(dp3565
g61
(dp3566
g88
g89
ssg70
g3555
sg63
(lp3567
S':'
asbag56
(g77
g58
NtRp3568
(dp3569
g61
(dp3570
sg70
g3555
sg63
(lp3571
g56
(g57
g58
NtRp3572
(dp3573
g61
(dp3574
g69
I4
ssg70
g3568
sg63
(lp3575
S'text/html; charset=utf-8'
p3576
asbasbasbag56
(g72
g58
NtRp3577
(dp3578
g61
(dp3579
sg70
g3529
sg63
(lp3580
g56
(g77
g58
NtRp3581
(dp3582
g61
(dp3583
g81
g82
ssg70
g3577
sg63
(lp3584
S'Expires'
p3585
asbag56
(g77
g58
NtRp3586
(dp3587
g61
(dp3588
g88
g89
ssg70
g3577
sg63
(lp3589
S':'
asbag56
(g77
g58
NtRp3590
(dp3591
g61
(dp3592
sg70
g3577
sg63
(lp3593
g56
(g57
g58
NtRp3594
(dp3595
g61
(dp3596
g69
I4
ssg70
g3590
sg63
(lp3597
S'Thu, 24 Nov 2011 19:33:43 GMT'
p3598
asbasbasbag56
(g72
g58
NtRp3599
(dp3600
g61
(dp3601
sg70
g3529
sg63
(lp3602
g56
(g77
g58
NtRp3603
(dp3604
g61
(dp3605
g81
g82
ssg70
g3599
sg63
(lp3606
S'Pragma'
p3607
asbag56
(g77
g58
NtRp3608
(dp3609
g61
(dp3610
g88
g89
ssg70
g3599
sg63
(lp3611
S':'
asbag56
(g77
g58
NtRp3612
(dp3613
g61
(dp3614
sg70
g3599
sg63
(lp3615
g56
(g57
g58
NtRp3616
(dp3617
g61
(dp3618
g69
I4
ssg70
g3612
sg63
(lp3619
S'no-cache'
p3620
asbasbasbag56
(g72
g58
NtRp3621
(dp3622
g61
(dp3623
sg70
g3529
sg63
(lp3624
g56
(g77
g58
NtRp3625
(dp3626
g61
(dp3627
g81
g82
ssg70
g3621
sg63
(lp3628
S'X-Powered-By'
p3629
asbag56
(g77
g58
NtRp3630
(dp3631
g61
(dp3632
g88
g89
ssg70
g3621
sg63
(lp3633
S':'
asbag56
(g77
g58
NtRp3634
(dp3635
g61
(dp3636
sg70
g3621
sg63
(lp3637
g56
(g57
g58
NtRp3638
(dp3639
g61
(dp3640
g69
I4
ssg70
g3634
sg63
(lp3641
S'web2py'
p3642
asbasbasbasbasbasbasbag56
(g72
g58
NtRp3643
(dp3644
g61
(dp3645
sg70
g3191
sg63
(lp3646
g56
(g77
g58
NtRp3647
(dp3648
g61
(dp3649
g81
g82
ssg70
g3643
sg63
(lp3650
S'menu'
p3651
asbag56
(g77
g58
NtRp3652
(dp3653
g61
(dp3654
g88
g89
ssg70
g3643
sg63
(lp3655
S':'
asbag56
(g77
g58
NtRp3656
(dp3657
g61
(dp3658
sg70
g3643
sg63
(lp3659
g56
(g57
g58
NtRp3660
(dp3661
g61
(dp3662
g69
I5
ssg70
g3656
sg63
(lp3663
g56
(g65
g58
NtRp3664
(dp3665
g61
(dp3666
g69
I4
ssg70
Nsg63
(lp3667
g56
(g72
g58
NtRp3668
(dp3669
g61
(dp3670
sg70
g3664
sg63
(lp3671
g56
(g77
g58
NtRp3672
(dp3673
g61
(dp3674
sg70
g3668
sg63
(lp3675
g56
(g57
g58
NtRp3676
(dp3677
g61
(dp3678
g69
I4
ssg70
g3672
sg63
(lp3679
g56
(g65
g58
NtRp3680
(dp3681
g61
(dp3682
g69
I3
ssg70
Nsg63
(lp3683
g56
(g72
g58
NtRp3684
(dp3685
g61
(dp3686
sg70
g3680
sg63
(lp3687
g56
(g77
g58
NtRp3688
(dp3689
g61
(dp3690
sg70
g3684
sg63
(lp3691
g56
(g57
g58
NtRp3692
(dp3693
g61
(dp3694
g69
I3
ssg70
g3688
sg63
(lp3695
cgluon.languages
lazyT_unpickle
p3696
(S't\x04\x00\x00\x00Home'
tRp3697
asbasbasbag56
(g72
g58
NtRp3698
(dp3699
g61
(dp3700
sg70
g3680
sg63
(lp3701
g56
(g77
g58
NtRp3702
(dp3703
g61
(dp3704
sg70
g3698
sg63
(lp3705
g56
(g57
g58
NtRp3706
(dp3707
g61
(dp3708
g69
I3
ssg70
g3702
sg63
(lp3709
g99
asbasbasbag56
(g72
g58
NtRp3710
(dp3711
g61
(dp3712
sg70
g3680
sg63
(lp3713
g56
(g77
g58
NtRp3714
(dp3715
g61
(dp3716
sg70
g3710
sg63
(lp3717
g56
(g57
g58
NtRp3718
(dp3719
g61
(dp3720
g69
I3
ssg70
g3714
sg63
(lp3721
S'/topoi/default/index'
p3722
asbasbasbag56
(g72
g58
NtRp3723
(dp3724
g61
(dp3725
sg70
g3680
sg63
(lp3726
g56
(g77
g58
NtRp3727
(dp3728
g61
(dp3729
sg70
g3723
sg63
(lp3730
g56
(g57
g58
NtRp3731
(dp3732
g61
(dp3733
g69
I3
ssg70
g3727
sg63
(lp3734
g56
(g65
g58
NtRp3735
(dp3736
g61
(dp3737
g69
I2
ssg70
Nsg63
(lp3738
sbasbasbasbasbasbasbasbag56
(g72
g58
NtRp3739
(dp3740
g61
(dp3741
sg70
g3664
sg63
(lp3742
g56
(g77
g58
NtRp3743
(dp3744
g61
(dp3745
sg70
g3739
sg63
(lp3746
g56
(g57
g58
NtRp3747
(dp3748
g61
(dp3749
g69
I4
ssg70
g3743
sg63
(lp3750
g56
(g65
g58
NtRp3751
(dp3752
g61
(dp3753
g69
I3
ssg70
Nsg63
(lp3754
g56
(g72
g58
NtRp3755
(dp3756
g61
(dp3757
sg70
g3751
sg63
(lp3758
g56
(g77
g58
NtRp3759
(dp3760
g61
(dp3761
sg70
g3755
sg63
(lp3762
g56
(g57
g58
NtRp3763
(dp3764
g61
(dp3765
g69
I3
ssg70
g3759
sg63
(lp3766
g3696
(S's\x08\x00\x00\x00This App'
tRp3767
asbasbasbag56
(g72
g58
NtRp3768
(dp3769
g61
(dp3770
sg70
g3751
sg63
(lp3771
g56
(g77
g58
NtRp3772
(dp3773
g61
(dp3774
sg70
g3768
sg63
(lp3775
g56
(g57
g58
NtRp3776
(dp3777
g61
(dp3778
g69
I3
ssg70
g3772
sg63
(lp3779
g99
asbasbasbag56
(g72
g58
NtRp3780
(dp3781
g61
(dp3782
sg70
g3751
sg63
(lp3783
g56
(g77
g58
NtRp3784
(dp3785
g61
(dp3786
sg70
g3780
sg63
(lp3787
g56
(g57
g58
NtRp3788
(dp3789
g61
(dp3790
g69
I3
ssg70
g3784
sg63
(lp3791
S'/admin/default/design/topoi'
p3792
asbasbasbag56
(g72
g58
NtRp3793
(dp3794
g61
(dp3795
sg70
g3751
sg63
(lp3796
g56
(g77
g58
NtRp3797
(dp3798
g61
(dp3799
sg70
g3793
sg63
(lp3800
g56
(g57
g58
NtRp3801
(dp3802
g61
(dp3803
g69
I3
ssg70
g3797
sg63
(lp3804
g56
(g65
g58
NtRp3805
(dp3806
g61
(dp3807
g69
I2
ssg70
Nsg63
(lp3808
g56
(g72
g58
NtRp3809
(dp3810
g61
(dp3811
sg70
g3805
sg63
(lp3812
g56
(g77
g58
NtRp3813
(dp3814
g61
(dp3815
sg70
g3809
sg63
(lp3816
g56
(g57
g58
NtRp3817
(dp3818
g61
(dp3819
g69
I2
ssg70
g3813
sg63
(lp3820
g56
(g65
g58
NtRp3821
(dp3822
g61
(dp3823
g69
I1
ssg70
Nsg63
(lp3824
g56
(g72
g58
NtRp3825
(dp3826
g61
(dp3827
sg70
g3821
sg63
(lp3828
g56
(g77
g58
NtRp3829
(dp3830
g61
(dp3831
sg70
g3825
sg63
(lp3832
g56
(g57
g58
NtRp3833
(dp3834
g61
(dp3835
g69
I1
ssg70
g3829
sg63
(lp3836
g3696
(S't\n\x00\x00\x00Controller'
tRp3837
asbasbasbag56
(g72
g58
NtRp3838
(dp3839
g61
(dp3840
sg70
g3821
sg63
(lp3841
g56
(g77
g58
NtRp3842
(dp3843
g61
(dp3844
sg70
g3838
sg63
(lp3845
g56
(g57
g58
NtRp3846
(dp3847
g61
(dp3848
g69
I1
ssg70
g3842
sg63
(lp3849
I00
asbasbasbag56
(g72
g58
NtRp3850
(dp3851
g61
(dp3852
sg70
g3821
sg63
(lp3853
g56
(g77
g58
NtRp3854
(dp3855
g61
(dp3856
sg70
g3850
sg63
(lp3857
g56
(g57
g58
NtRp3858
(dp3859
g61
(dp3860
g69
I1
ssg70
g3854
sg63
(lp3861
S'/admin/default/edit/topoi/controllers/plugin_listandedit.py'
p3862
asbasbasbasbasbasbasbag56
(g72
g58
NtRp3863
(dp3864
g61
(dp3865
sg70
g3805
sg63
(lp3866
g56
(g77
g58
NtRp3867
(dp3868
g61
(dp3869
sg70
g3863
sg63
(lp3870
g56
(g57
g58
NtRp3871
(dp3872
g61
(dp3873
g69
I2
ssg70
g3867
sg63
(lp3874
g56
(g65
g58
NtRp3875
(dp3876
g61
(dp3877
g69
I1
ssg70
Nsg63
(lp3878
g56
(g72
g58
NtRp3879
(dp3880
g61
(dp3881
sg70
g3875
sg63
(lp3882
g56
(g77
g58
NtRp3883
(dp3884
g61
(dp3885
sg70
g3879
sg63
(lp3886
g56
(g57
g58
NtRp3887
(dp3888
g61
(dp3889
g69
I1
ssg70
g3883
sg63
(lp3890
g3696
(S't\x04\x00\x00\x00View'
tRp3891
asbasbasbag56
(g72
g58
NtRp3892
(dp3893
g61
(dp3894
sg70
g3875
sg63
(lp3895
g56
(g77
g58
NtRp3896
(dp3897
g61
(dp3898
sg70
g3892
sg63
(lp3899
g56
(g57
g58
NtRp3900
(dp3901
g61
(dp3902
g69
I1
ssg70
g3896
sg63
(lp3903
I00
asbasbasbag56
(g72
g58
NtRp3904
(dp3905
g61
(dp3906
sg70
g3875
sg63
(lp3907
g56
(g77
g58
NtRp3908
(dp3909
g61
(dp3910
sg70
g3904
sg63
(lp3911
g56
(g57
g58
NtRp3912
(dp3913
g61
(dp3914
g69
I1
ssg70
g3908
sg63
(lp3915
S'/admin/default/edit/topoi/views/plugin_listandedit/list.html'
p3916
asbasbasbasbasbasbasbag56
(g72
g58
NtRp3917
(dp3918
g61
(dp3919
sg70
g3805
sg63
(lp3920
g56
(g77
g58
NtRp3921
(dp3922
g61
(dp3923
sg70
g3917
sg63
(lp3924
g56
(g57
g58
NtRp3925
(dp3926
g61
(dp3927
g69
I2
ssg70
g3921
sg63
(lp3928
g56
(g65
g58
NtRp3929
(dp3930
g61
(dp3931
g69
I1
ssg70
Nsg63
(lp3932
g56
(g72
g58
NtRp3933
(dp3934
g61
(dp3935
sg70
g3929
sg63
(lp3936
g56
(g77
g58
NtRp3937
(dp3938
g61
(dp3939
sg70
g3933
sg63
(lp3940
g56
(g57
g58
NtRp3941
(dp3942
g61
(dp3943
g69
I1
ssg70
g3937
sg63
(lp3944
g3696
(S't\x06\x00\x00\x00Layout'
tRp3945
asbasbasbag56
(g72
g58
NtRp3946
(dp3947
g61
(dp3948
sg70
g3929
sg63
(lp3949
g56
(g77
g58
NtRp3950
(dp3951
g61
(dp3952
sg70
g3946
sg63
(lp3953
g56
(g57
g58
NtRp3954
(dp3955
g61
(dp3956
g69
I1
ssg70
g3950
sg63
(lp3957
I00
asbasbasbag56
(g72
g58
NtRp3958
(dp3959
g61
(dp3960
sg70
g3929
sg63
(lp3961
g56
(g77
g58
NtRp3962
(dp3963
g61
(dp3964
sg70
g3958
sg63
(lp3965
g56
(g57
g58
NtRp3966
(dp3967
g61
(dp3968
g69
I1
ssg70
g3962
sg63
(lp3969
S'/admin/default/edit/topoi/views/layout.html'
p3970
asbasbasbasbasbasbasbag56
(g72
g58
NtRp3971
(dp3972
g61
(dp3973
sg70
g3805
sg63
(lp3974
g56
(g77
g58
NtRp3975
(dp3976
g61
(dp3977
sg70
g3971
sg63
(lp3978
g56
(g57
g58
NtRp3979
(dp3980
g61
(dp3981
g69
I2
ssg70
g3975
sg63
(lp3982
g56
(g65
g58
NtRp3983
(dp3984
g61
(dp3985
g69
I1
ssg70
Nsg63
(lp3986
g56
(g72
g58
NtRp3987
(dp3988
g61
(dp3989
sg70
g3983
sg63
(lp3990
g56
(g77
g58
NtRp3991
(dp3992
g61
(dp3993
sg70
g3987
sg63
(lp3994
g56
(g57
g58
NtRp3995
(dp3996
g61
(dp3997
g69
I1
ssg70
g3991
sg63
(lp3998
g3696
(S't\n\x00\x00\x00Stylesheet'
tRp3999
asbasbasbag56
(g72
g58
NtRp4000
(dp4001
g61
(dp4002
sg70
g3983
sg63
(lp4003
g56
(g77
g58
NtRp4004
(dp4005
g61
(dp4006
sg70
g4000
sg63
(lp4007
g56
(g57
g58
NtRp4008
(dp4009
g61
(dp4010
g69
I1
ssg70
g4004
sg63
(lp4011
I00
asbasbasbag56
(g72
g58
NtRp4012
(dp4013
g61
(dp4014
sg70
g3983
sg63
(lp4015
g56
(g77
g58
NtRp4016
(dp4017
g61
(dp4018
sg70
g4012
sg63
(lp4019
g56
(g57
g58
NtRp4020
(dp4021
g61
(dp4022
g69
I1
ssg70
g4016
sg63
(lp4023
S'/admin/default/edit/topoi/static/base.css'
p4024
asbasbasbasbasbasbasbag56
(g72
g58
NtRp4025
(dp4026
g61
(dp4027
sg70
g3805
sg63
(lp4028
g56
(g77
g58
NtRp4029
(dp4030
g61
(dp4031
sg70
g4025
sg63
(lp4032
g56
(g57
g58
NtRp4033
(dp4034
g61
(dp4035
g69
I2
ssg70
g4029
sg63
(lp4036
g56
(g65
g58
NtRp4037
(dp4038
g61
(dp4039
g69
I1
ssg70
Nsg63
(lp4040
g56
(g72
g58
NtRp4041
(dp4042
g61
(dp4043
sg70
g4037
sg63
(lp4044
g56
(g77
g58
NtRp4045
(dp4046
g61
(dp4047
sg70
g4041
sg63
(lp4048
g56
(g57
g58
NtRp4049
(dp4050
g61
(dp4051
g69
I1
ssg70
g4045
sg63
(lp4052
g3696
(S's\x08\x00\x00\x00DB Model'
tRp4053
asbasbasbag56
(g72
g58
NtRp4054
(dp4055
g61
(dp4056
sg70
g4037
sg63
(lp4057
g56
(g77
g58
NtRp4058
(dp4059
g61
(dp4060
sg70
g4054
sg63
(lp4061
g56
(g57
g58
NtRp4062
(dp4063
g61
(dp4064
g69
I1
ssg70
g4058
sg63
(lp4065
I00
asbasbasbag56
(g72
g58
NtRp4066
(dp4067
g61
(dp4068
sg70
g4037
sg63
(lp4069
g56
(g77
g58
NtRp4070
(dp4071
g61
(dp4072
sg70
g4066
sg63
(lp4073
g56
(g57
g58
NtRp4074
(dp4075
g61
(dp4076
g69
I1
ssg70
g4070
sg63
(lp4077
S'/admin/default/edit/topoi/models/db.py'
p4078
asbasbasbasbasbasbasbag56
(g72
g58
NtRp4079
(dp4080
g61
(dp4081
sg70
g3805
sg63
(lp4082
g56
(g77
g58
NtRp4083
(dp4084
g61
(dp4085
sg70
g4079
sg63
(lp4086
g56
(g57
g58
NtRp4087
(dp4088
g61
(dp4089
g69
I2
ssg70
g4083
sg63
(lp4090
g56
(g65
g58
NtRp4091
(dp4092
g61
(dp4093
g69
I1
ssg70
Nsg63
(lp4094
g56
(g72
g58
NtRp4095
(dp4096
g61
(dp4097
sg70
g4091
sg63
(lp4098
g56
(g77
g58
NtRp4099
(dp4100
g61
(dp4101
sg70
g4095
sg63
(lp4102
g56
(g57
g58
NtRp4103
(dp4104
g61
(dp4105
g69
I1
ssg70
g4099
sg63
(lp4106
g3696
(S's\n\x00\x00\x00Menu Model'
tRp4107
asbasbasbag56
(g72
g58
NtRp4108
(dp4109
g61
(dp4110
sg70
g4091
sg63
(lp4111
g56
(g77
g58
NtRp4112
(dp4113
g61
(dp4114
sg70
g4108
sg63
(lp4115
g56
(g57
g58
NtRp4116
(dp4117
g61
(dp4118
g69
I1
ssg70
g4112
sg63
(lp4119
I00
asbasbasbag56
(g72
g58
NtRp4120
(dp4121
g61
(dp4122
sg70
g4091
sg63
(lp4123
g56
(g77
g58
NtRp4124
(dp4125
g61
(dp4126
sg70
g4120
sg63
(lp4127
g56
(g57
g58
NtRp4128
(dp4129
g61
(dp4130
g69
I1
ssg70
g4124
sg63
(lp4131
S'/admin/default/edit/topoi/models/menu.py'
p4132
asbasbasbasbasbasbasbag56
(g72
g58
NtRp4133
(dp4134
g61
(dp4135
sg70
g3805
sg63
(lp4136
g56
(g77
g58
NtRp4137
(dp4138
g61
(dp4139
sg70
g4133
sg63
(lp4140
g56
(g57
g58
NtRp4141
(dp4142
g61
(dp4143
g69
I2
ssg70
g4137
sg63
(lp4144
g56
(g65
g58
NtRp4145
(dp4146
g61
(dp4147
g69
I1
ssg70
Nsg63
(lp4148
g56
(g72
g58
NtRp4149
(dp4150
g61
(dp4151
sg70
g4145
sg63
(lp4152
g56
(g77
g58
NtRp4153
(dp4154
g61
(dp4155
sg70
g4149
sg63
(lp4156
g56
(g57
g58
NtRp4157
(dp4158
g61
(dp4159
g69
I1
ssg70
g4153
sg63
(lp4160
g3696
(S't\x08\x00\x00\x00Database'
tRp4161
asbasbasbag56
(g72
g58
NtRp4162
(dp4163
g61
(dp4164
sg70
g4145
sg63
(lp4165
g56
(g77
g58
NtRp4166
(dp4167
g61
(dp4168
sg70
g4162
sg63
(lp4169
g56
(g57
g58
NtRp4170
(dp4171
g61
(dp4172
g69
I1
ssg70
g4166
sg63
(lp4173
I00
asbasbasbag56
(g72
g58
NtRp4174
(dp4175
g61
(dp4176
sg70
g4145
sg63
(lp4177
g56
(g77
g58
NtRp4178
(dp4179
g61
(dp4180
sg70
g4174
sg63
(lp4181
g56
(g57
g58
NtRp4182
(dp4183
g61
(dp4184
g69
I1
ssg70
g4178
sg63
(lp4185
S'/topoi/appadmin/index'
p4186
asbasbasbasbasbasbasbag56
(g72
g58
NtRp4187
(dp4188
g61
(dp4189
sg70
g3805
sg63
(lp4190
g56
(g77
g58
NtRp4191
(dp4192
g61
(dp4193
sg70
g4187
sg63
(lp4194
g56
(g57
g58
NtRp4195
(dp4196
g61
(dp4197
g69
I2
ssg70
g4191
sg63
(lp4198
g56
(g65
g58
NtRp4199
(dp4200
g61
(dp4201
g69
I1
ssg70
Nsg63
(lp4202
g56
(g72
g58
NtRp4203
(dp4204
g61
(dp4205
sg70
g4199
sg63
(lp4206
g56
(g77
g58
NtRp4207
(dp4208
g61
(dp4209
sg70
g4203
sg63
(lp4210
g56
(g57
g58
NtRp4211
(dp4212
g61
(dp4213
g69
I1
ssg70
g4207
sg63
(lp4214
g3696
(S't\x06\x00\x00\x00Errors'
tRp4215
asbasbasbag56
(g72
g58
NtRp4216
(dp4217
g61
(dp4218
sg70
g4199
sg63
(lp4219
g56
(g77
g58
NtRp4220
(dp4221
g61
(dp4222
sg70
g4216
sg63
(lp4223
g56
(g57
g58
NtRp4224
(dp4225
g61
(dp4226
g69
I1
ssg70
g4220
sg63
(lp4227
I00
asbasbasbag56
(g72
g58
NtRp4228
(dp4229
g61
(dp4230
sg70
g4199
sg63
(lp4231
g56
(g77
g58
NtRp4232
(dp4233
g61
(dp4234
sg70
g4228
sg63
(lp4235
g56
(g57
g58
NtRp4236
(dp4237
g61
(dp4238
g69
I1
ssg70
g4232
sg63
(lp4239
S'/admin/default/errors/topoi'
p4240
asbasbasbasbasbasbasbag56
(g72
g58
NtRp4241
(dp4242
g61
(dp4243
sg70
g3805
sg63
(lp4244
g56
(g77
g58
NtRp4245
(dp4246
g61
(dp4247
sg70
g4241
sg63
(lp4248
g56
(g57
g58
NtRp4249
(dp4250
g61
(dp4251
g69
I2
ssg70
g4245
sg63
(lp4252
g56
(g65
g58
NtRp4253
(dp4254
g61
(dp4255
g69
I1
ssg70
Nsg63
(lp4256
g56
(g72
g58
NtRp4257
(dp4258
g61
(dp4259
sg70
g4253
sg63
(lp4260
g56
(g77
g58
NtRp4261
(dp4262
g61
(dp4263
sg70
g4257
sg63
(lp4264
g56
(g57
g58
NtRp4265
(dp4266
g61
(dp4267
g69
I1
ssg70
g4261
sg63
(lp4268
g3696
(S't\x05\x00\x00\x00About'
tRp4269
asbasbasbag56
(g72
g58
NtRp4270
(dp4271
g61
(dp4272
sg70
g4253
sg63
(lp4273
g56
(g77
g58
NtRp4274
(dp4275
g61
(dp4276
sg70
g4270
sg63
(lp4277
g56
(g57
g58
NtRp4278
(dp4279
g61
(dp4280
g69
I1
ssg70
g4274
sg63
(lp4281
I00
asbasbasbag56
(g72
g58
NtRp4282
(dp4283
g61
(dp4284
sg70
g4253
sg63
(lp4285
g56
(g77
g58
NtRp4286
(dp4287
g61
(dp4288
sg70
g4282
sg63
(lp4289
g56
(g57
g58
NtRp4290
(dp4291
g61
(dp4292
g69
I1
ssg70
g4286
sg63
(lp4293
S'/admin/default/about/topoi'
p4294
asbasbasbasbasbasbasbasbasbasbasbasbasbasbasbasbasbasbasbag56
(g72
g58
NtRp4295
(dp4296
g61
(dp4297
sg70
g3191
sg63
(lp4298
g56
(g77
g58
NtRp4299
(dp4300
g61
(dp4301
g81
g82
ssg70
g4295
sg63
(lp4302
S'meta'
p4303
asbag56
(g77
g58
NtRp4304
(dp4305
g61
(dp4306
g88
g89
ssg70
g4295
sg63
(lp4307
S':'
asbag56
(g77
g58
NtRp4308
(dp4309
g61
(dp4310
sg70
g4295
sg63
(lp4311
g56
(g57
g58
NtRp4312
(dp4313
g61
(dp4314
g69
I5
ssg70
g4308
sg63
(lp4315
g56
(g65
g58
NtRp4316
(dp4317
g61
(dp4318
g69
I4
ssg70
Nsg63
(lp4319
g56
(g72
g58
NtRp4320
(dp4321
g61
(dp4322
sg70
g4316
sg63
(lp4323
g56
(g77
g58
NtRp4324
(dp4325
g61
(dp4326
g81
g82
ssg70
g4320
sg63
(lp4327
S'author'
p4328
asbag56
(g77
g58
NtRp4329
(dp4330
g61
(dp4331
g88
g89
ssg70
g4320
sg63
(lp4332
S':'
asbag56
(g77
g58
NtRp4333
(dp4334
g61
(dp4335
sg70
g4320
sg63
(lp4336
g56
(g57
g58
NtRp4337
(dp4338
g61
(dp4339
g69
I4
ssg70
g4333
sg63
(lp4340
S'Ian W. Scott'
p4341
asbasbasbag56
(g72
g58
NtRp4342
(dp4343
g61
(dp4344
sg70
g4316
sg63
(lp4345
g56
(g77
g58
NtRp4346
(dp4347
g61
(dp4348
g81
g82
ssg70
g4342
sg63
(lp4349
S'copyright'
p4350
asbag56
(g77
g58
NtRp4351
(dp4352
g61
(dp4353
g88
g89
ssg70
g4342
sg63
(lp4354
S':'
asbag56
(g77
g58
NtRp4355
(dp4356
g61
(dp4357
sg70
g4342
sg63
(lp4358
g56
(g57
g58
NtRp4359
(dp4360
g61
(dp4361
g69
I4
ssg70
g4355
sg63
(lp4362
S'Copyright 2011'
p4363
asbasbasbag56
(g72
g58
NtRp4364
(dp4365
g61
(dp4366
sg70
g4316
sg63
(lp4367
g56
(g77
g58
NtRp4368
(dp4369
g61
(dp4370
g81
g82
ssg70
g4364
sg63
(lp4371
S'description'
p4372
asbag56
(g77
g58
NtRp4373
(dp4374
g61
(dp4375
g88
g89
ssg70
g4364
sg63
(lp4376
S':'
asbag56
(g77
g58
NtRp4377
(dp4378
g61
(dp4379
sg70
g4364
sg63
(lp4380
g56
(g57
g58
NtRp4381
(dp4382
g61
(dp4383
g69
I4
ssg70
g4377
sg63
(lp4384
S'A web-app for managing primary-text research in the humanities.'
p4385
asbasbasbag56
(g72
g58
NtRp4386
(dp4387
g61
(dp4388
sg70
g4316
sg63
(lp4389
g56
(g77
g58
NtRp4390
(dp4391
g61
(dp4392
g81
g82
ssg70
g4386
sg63
(lp4393
S'generator'
p4394
asbag56
(g77
g58
NtRp4395
(dp4396
g61
(dp4397
g88
g89
ssg70
g4386
sg63
(lp4398
S':'
asbag56
(g77
g58
NtRp4399
(dp4400
g61
(dp4401
sg70
g4386
sg63
(lp4402
g56
(g57
g58
NtRp4403
(dp4404
g61
(dp4405
g69
I4
ssg70
g4399
sg63
(lp4406
S'Web2py Enterprise Framework'
p4407
asbasbasbag56
(g72
g58
NtRp4408
(dp4409
g61
(dp4410
sg70
g4316
sg63
(lp4411
g56
(g77
g58
NtRp4412
(dp4413
g61
(dp4414
g81
g82
ssg70
g4408
sg63
(lp4415
S'keywords'
p4416
asbag56
(g77
g58
NtRp4417
(dp4418
g61
(dp4419
g88
g89
ssg70
g4408
sg63
(lp4420
S':'
asbag56
(g77
g58
NtRp4421
(dp4422
g61
(dp4423
sg70
g4408
sg63
(lp4424
g56
(g57
g58
NtRp4425
(dp4426
g61
(dp4427
g69
I4
ssg70
g4421
sg63
(lp4428
S'research, humanities, biblical'
p4429
asbasbasbasbasbasbasbag56
(g72
g58
NtRp4430
(dp4431
g61
(dp4432
sg70
g3191
sg63
(lp4433
g56
(g77
g58
NtRp4434
(dp4435
g61
(dp4436
g81
g82
ssg70
g4430
sg63
(lp4437
S'postprocessing'
p4438
asbag56
(g77
g58
NtRp4439
(dp4440
g61
(dp4441
g88
g89
ssg70
g4430
sg63
(lp4442
S':'
asbag56
(g77
g58
NtRp4443
(dp4444
g61
(dp4445
sg70
g4430
sg63
(lp4446
g56
(g57
g58
NtRp4447
(dp4448
g61
(dp4449
g69
I5
ssg70
g4443
sg63
(lp4450
g56
(g65
g58
NtRp4451
(dp4452
g61
(dp4453
g69
I4
ssg70
Nsg63
(lp4454
sbasbasbasbag56
(g72
g58
NtRp4455
(dp4456
g61
(dp4457
sg70
g3191
sg63
(lp4458
g56
(g77
g58
NtRp4459
(dp4460
g61
(dp4461
g81
g82
ssg70
g4455
sg63
(lp4462
S'session_filename'
p4463
asbag56
(g77
g58
NtRp4464
(dp4465
g61
(dp4466
g88
g89
ssg70
g4455
sg63
(lp4467
S':'
asbag56
(g77
g58
NtRp4468
(dp4469
g61
(dp4470
sg70
g4455
sg63
(lp4471
g56
(g57
g58
NtRp4472
(dp4473
g61
(dp4474
g69
I5
ssg70
g4468
sg63
(lp4475
S'/home/ian/web2py/applications/topoi/sessions/127.0.0.1-29bc99ab-295e-4bc3-b93d-1a2b0152991b'
p4476
asbasbasbag56
(g72
g58
NtRp4477
(dp4478
g61
(dp4479
sg70
g3191
sg63
(lp4480
g56
(g77
g58
NtRp4481
(dp4482
g61
(dp4483
g81
g82
ssg70
g4477
sg63
(lp4484
S'session_id'
p4485
asbag56
(g77
g58
NtRp4486
(dp4487
g61
(dp4488
g88
g89
ssg70
g4477
sg63
(lp4489
S':'
asbag56
(g77
g58
NtRp4490
(dp4491
g61
(dp4492
sg70
g4477
sg63
(lp4493
g56
(g57
g58
NtRp4494
(dp4495
g61
(dp4496
g69
I5
ssg70
g4490
sg63
(lp4497
S'127.0.0.1-29bc99ab-295e-4bc3-b93d-1a2b0152991b'
p4498
asbasbasbag56
(g72
g58
NtRp4499
(dp4500
g61
(dp4501
sg70
g3191
sg63
(lp4502
g56
(g77
g58
NtRp4503
(dp4504
g61
(dp4505
g81
g82
ssg70
g4499
sg63
(lp4506
S'session_id_name'
p4507
asbag56
(g77
g58
NtRp4508
(dp4509
g61
(dp4510
g88
g89
ssg70
g4499
sg63
(lp4511
S':'
asbag56
(g77
g58
NtRp4512
(dp4513
g61
(dp4514
sg70
g4499
sg63
(lp4515
g56
(g57
g58
NtRp4516
(dp4517
g61
(dp4518
g69
I5
ssg70
g4512
sg63
(lp4519
g3248
asbasbasbag56
(g72
g58
NtRp4520
(dp4521
g61
(dp4522
sg70
g3191
sg63
(lp4523
g56
(g77
g58
NtRp4524
(dp4525
g61
(dp4526
g81
g82
ssg70
g4520
sg63
(lp4527
S'session_new'
p4528
asbag56
(g77
g58
NtRp4529
(dp4530
g61
(dp4531
g88
g89
ssg70
g4520
sg63
(lp4532
S':'
asbag56
(g77
g58
NtRp4533
(dp4534
g61
(dp4535
sg70
g4520
sg63
(lp4536
g56
(g57
g58
NtRp4537
(dp4538
g61
(dp4539
g69
I5
ssg70
g4533
sg63
(lp4540
g1725
asbasbasbag56
(g72
g58
NtRp4541
(dp4542
g61
(dp4543
sg70
g3191
sg63
(lp4544
g56
(g77
g58
NtRp4545
(dp4546
g61
(dp4547
g81
g82
ssg70
g4541
sg63
(lp4548
S'status'
p4549
asbag56
(g77
g58
NtRp4550
(dp4551
g61
(dp4552
g88
g89
ssg70
g4541
sg63
(lp4553
S':'
asbag56
(g77
g58
NtRp4554
(dp4555
g61
(dp4556
sg70
g4541
sg63
(lp4557
g56
(g57
g58
NtRp4558
(dp4559
g61
(dp4560
g69
I5
ssg70
g4554
sg63
(lp4561
S'200'
p4562
asbasbasbag56
(g72
g58
NtRp4563
(dp4564
g61
(dp4565
sg70
g3191
sg63
(lp4566
g56
(g77
g58
NtRp4567
(dp4568
g61
(dp4569
g81
g82
ssg70
g4563
sg63
(lp4570
S'subtitle'
p4571
asbag56
(g77
g58
NtRp4572
(dp4573
g61
(dp4574
g88
g89
ssg70
g4563
sg63
(lp4575
S':'
asbag56
(g77
g58
NtRp4576
(dp4577
g61
(dp4578
sg70
g4563
sg63
(lp4579
g56
(g57
g58
NtRp4580
(dp4581
g61
(dp4582
g69
I5
ssg70
g4576
sg63
(lp4583
g3696
(S's;\x00\x00\x00A tool for managing primary-text research in the humanities'
tRp4584
asbasbasbag56
(g72
g58
NtRp4585
(dp4586
g61
(dp4587
sg70
g3191
sg63
(lp4588
g56
(g77
g58
NtRp4589
(dp4590
g61
(dp4591
g81
g82
ssg70
g4585
sg63
(lp4592
S'title'
p4593
asbag56
(g77
g58
NtRp4594
(dp4595
g61
(dp4596
g88
g89
ssg70
g4585
sg63
(lp4597
S':'
asbag56
(g77
g58
NtRp4598
(dp4599
g61
(dp4600
sg70
g4585
sg63
(lp4601
g56
(g57
g58
NtRp4602
(dp4603
g61
(dp4604
g69
I5
ssg70
g4598
sg63
(lp4605
g121
asbasbasbag56
(g72
g58
NtRp4606
(dp4607
g61
(dp4608
sg70
g3191
sg63
(lp4609
g56
(g77
g58
NtRp4610
(dp4611
g61
(dp4612
g81
g82
ssg70
g4606
sg63
(lp4613
g2391
asbag56
(g77
g58
NtRp4614
(dp4615
g61
(dp4616
g88
g89
ssg70
g4606
sg63
(lp4617
S':'
asbag56
(g77
g58
NtRp4618
(dp4619
g61
(dp4620
sg70
g4606
sg63
(lp4621
g56
(g57
g58
NtRp4622
(dp4623
g61
(dp4624
g69
I5
ssg70
g4618
sg63
(lp4625
g2404
asbasbasbag56
(g72
g58
NtRp4626
(dp4627
g61
(dp4628
sg70
g3191
sg63
(lp4629
g56
(g77
g58
NtRp4630
(dp4631
g61
(dp4632
g81
g82
ssg70
g4626
sg63
(lp4633
S'view'
p4634
asbag56
(g77
g58
NtRp4635
(dp4636
g61
(dp4637
g88
g89
ssg70
g4626
sg63
(lp4638
S':'
asbag56
(g77
g58
NtRp4639
(dp4640
g61
(dp4641
sg70
g4626
sg63
(lp4642
g56
(g57
g58
NtRp4643
(dp4644
g61
(dp4645
g69
I5
ssg70
g4639
sg63
(lp4646
S'plugin_listandedit/list.html'
p4647
asbasbasbasbasbsS'locals'
p4648
(dp4649
S'fromlist'
p4650
S"('SELECT_OR_ADD_OPTION',)"
p4651
sS'e'
S"ImportError('No module named plugin_selectoradd',)"
p4652
sS'name'
p4653
S"'plugin_selectoradd'"
p4654
sg69
S'-1'
p4655
sS'self'
p4656
S'<gluon.custom_import._Web2pyDateTrackerImporter object>'
p4657
sS'globals'
p4658
S"{'A': <class 'gluon.html.A'>, 'Auth': <class 'gluon.tools.Auth'>, 'B': <class 'gluon.html.B'>, 'BEAUTIFY': <class 'gluon.html.BEAUTIFY'>, 'BODY': <class 'gluon.html.BODY'>, 'BR': <class 'gluon.html.BR'>, 'BUTTON': <class 'gluon.html.BUTTON'>, 'CAT': <class 'gluon.html.CAT'>, 'CENTER': <class 'gluon.html.CENTER'>, 'CLEANUP': <class 'gluon.validators.CLEANUP'>, ...}"
p4659
sS'call_begin_end'
p4660
g99
sg4648
S"{'A': <class 'gluon.html.A'>, 'Auth': <class 'gluon.tools.Auth'>, 'B': <class 'gluon.html.B'>, 'BEAUTIFY': <class 'gluon.html.BEAUTIFY'>, 'BODY': <class 'gluon.html.BODY'>, 'BR': <class 'gluon.html.BR'>, 'BUTTON': <class 'gluon.html.BUTTON'>, 'CAT': <class 'gluon.html.CAT'>, 'CENTER': <class 'gluon.html.CENTER'>, 'CLEANUP': <class 'gluon.validators.CLEANUP'>, ...}"
p4661
sssS'traceback'
p4662
S'Traceback (most recent call last):\n  File "/home/ian/web2py/gluon/restricted.py", line 194, in restricted\n    exec ccode in environment\n  File "/home/ian/web2py/applications/topoi/models/topoi.py", line 2, in <module>\n    from plugin_selectoradd import SELECT_OR_ADD_OPTION\n  File "/home/ian/web2py/gluon/custom_import.py", line 294, in __call__\n    fromlist, level)\n  File "/home/ian/web2py/gluon/custom_import.py", line 133, in __call__\n    raise e  # Don\'t hide something that went wrong\nImportError: No module named plugin_selectoradd\n'
p4663
s.