(dp1
S'output'
p2
S''
sS'layer'
p3
S'/home/ian/web2py/applications/topoi/controllers/plugin_ajaxselect.py'
p4
sS'code'
p5
S'from gluon.sqlhtml import OptionsWidget\n\n\ndef set_widget():\n    """\n    creates an instance of the OptionsWidget class defined in gluon.sqlhtml and returns the result to populate the ajax LOAD field\n    """\n\n    #get variables to build widget for the proper field, with proper current value\n    table = request.args[0]\n    field = request.args[1]\n    value = request.args[2]\n    linktable = request.args[3]\n    wrappername = request.args[4]\n\n    the_table = db[table]\n    the_field = the_table[field]\n    the_linktable = db[linktable]\n\n    """\n    formname = \'%s/create\' % (linktable)\n\n    form = SQLFORM(the_linktable)\n    if form.accepts(request, session, formname = formname):\n        response.flash = \'form accepted\'\n        response.js = "web2py_component(\'%\', \'%\');" % (comp_url, wrappername)\n    else:\n        response.error = \'form was not processed\'\n    """\n\n    w = OptionsWidget.widget(the_field, value)\n\n    return dict(widget = w, wrappername = wrappername, form = form),\n\nresponse._vars=response._caller(set_widget)\n'
p6
sS'snapshot'
p7
(dp8
S'exception'
p9
(dp10
S'__hash__'
p11
S"<method-wrapper '__hash__' of exceptions.NameError object>"
p12
sS'__setattr__'
p13
S"<method-wrapper '__setattr__' of exceptions.NameError object>"
p14
sS'__reduce_ex__'
p15
S'<built-in method __reduce_ex__ of exceptions.NameError object>'
p16
sS'__getslice__'
p17
S"<method-wrapper '__getslice__' of exceptions.NameError object>"
p18
sS'__getitem__'
p19
S"<method-wrapper '__getitem__' of exceptions.NameError object>"
p20
sS'__setstate__'
p21
S'<built-in method __setstate__ of exceptions.NameError object>'
p22
sS'args'
p23
S'("global name \'form\' is not defined",)'
p24
sS'__reduce__'
p25
S'<built-in method __reduce__ of exceptions.NameError object>'
p26
sS'__str__'
p27
S"<method-wrapper '__str__' of exceptions.NameError object>"
p28
sS'__format__'
p29
S'<built-in method __format__ of exceptions.NameError object>'
p30
sS'__getattribute__'
p31
S"<method-wrapper '__getattribute__' of exceptions.NameError object>"
p32
sS'__class__'
p33
S"<type 'exceptions.NameError'>"
p34
sS'__unicode__'
p35
S'<built-in method __unicode__ of exceptions.NameError object>'
p36
sS'__delattr__'
p37
S"<method-wrapper '__delattr__' of exceptions.NameError object>"
p38
sS'__subclasshook__'
p39
S'<built-in method __subclasshook__ of type object>'
p40
sS'__repr__'
p41
S"<method-wrapper '__repr__' of exceptions.NameError object>"
p42
sS'__dict__'
p43
S'{}'
p44
sS'__sizeof__'
p45
S'<built-in method __sizeof__ of exceptions.NameError object>'
p46
sS'__doc__'
p47
S"'Name not found globally.'"
p48
sS'__init__'
p49
S"<method-wrapper '__init__' of exceptions.NameError object>"
p50
sS'__new__'
p51
S'<built-in method __new__ of type object>'
p52
ssS'evalue'
p53
S"global name 'form' is not defined"
p54
sS'request'
p55
ccopy_reg
_reconstructor
p56
(cgluon.html
BEAUTIFY
p57
c__builtin__
object
p58
NtRp59
(dp60
S'attributes'
p61
(dp62
sS'components'
p63
(lp64
g56
(cgluon.html
TABLE
p65
g58
NtRp66
(dp67
g61
(dp68
S'level'
p69
I5
ssS'parent'
p70
Nsg63
(lp71
g56
(cgluon.html
TR
p72
g58
NtRp73
(dp74
g61
(dp75
sg70
g66
sg63
(lp76
g56
(cgluon.html
TD
p77
g58
NtRp78
(dp79
g61
(dp80
S'_style'
p81
S'font-weight:bold;'
p82
ssg70
g73
sg63
(lp83
S'ajax'
p84
asbag56
(g77
g58
NtRp85
(dp86
g61
(dp87
S'_valign'
p88
S'top'
p89
ssg70
g73
sg63
(lp90
S':'
asbag56
(g77
g58
NtRp91
(dp92
g61
(dp93
sg70
g73
sg63
(lp94
g56
(g57
g58
NtRp95
(dp96
g61
(dp97
g69
I5
ssg70
g91
sg63
(lp98
S'True'
p99
asbasbasbag56
(g72
g58
NtRp100
(dp101
g61
(dp102
sg70
g66
sg63
(lp103
g56
(g77
g58
NtRp104
(dp105
g61
(dp106
g81
g82
ssg70
g100
sg63
(lp107
S'application'
p108
asbag56
(g77
g58
NtRp109
(dp110
g61
(dp111
g88
g89
ssg70
g100
sg63
(lp112
S':'
asbag56
(g77
g58
NtRp113
(dp114
g61
(dp115
sg70
g100
sg63
(lp116
g56
(g57
g58
NtRp117
(dp118
g61
(dp119
g69
I5
ssg70
g113
sg63
(lp120
S'topoi'
p121
asbasbasbag56
(g72
g58
NtRp122
(dp123
g61
(dp124
sg70
g66
sg63
(lp125
g56
(g77
g58
NtRp126
(dp127
g61
(dp128
g81
g82
ssg70
g122
sg63
(lp129
g23
asbag56
(g77
g58
NtRp130
(dp131
g61
(dp132
g88
g89
ssg70
g122
sg63
(lp133
S':'
asbag56
(g77
g58
NtRp134
(dp135
g61
(dp136
sg70
g122
sg63
(lp137
g56
(g57
g58
NtRp138
(dp139
g61
(dp140
g69
I5
ssg70
g134
sg63
(lp141
g56
(g65
g58
NtRp142
(dp143
g61
(dp144
g69
I4
ssg70
Nsg63
(lp145
g56
(g72
g58
NtRp146
(dp147
g61
(dp148
sg70
g142
sg63
(lp149
g56
(g77
g58
NtRp150
(dp151
g61
(dp152
sg70
g146
sg63
(lp153
g56
(g57
g58
NtRp154
(dp155
g61
(dp156
g69
I4
ssg70
g150
sg63
(lp157
S'notes'
p158
asbasbasbag56
(g72
g58
NtRp159
(dp160
g61
(dp161
sg70
g142
sg63
(lp162
g56
(g77
g58
NtRp163
(dp164
g61
(dp165
sg70
g159
sg63
(lp166
g56
(g57
g58
NtRp167
(dp168
g61
(dp169
g69
I4
ssg70
g163
sg63
(lp170
S'author'
p171
asbasbasbag56
(g72
g58
NtRp172
(dp173
g61
(dp174
sg70
g142
sg63
(lp175
g56
(g77
g58
NtRp176
(dp177
g61
(dp178
sg70
g172
sg63
(lp179
g56
(g57
g58
NtRp180
(dp181
g61
(dp182
g69
I4
ssg70
g176
sg63
(lp183
S'10'
p184
asbasbasbag56
(g72
g58
NtRp185
(dp186
g61
(dp187
sg70
g142
sg63
(lp188
g56
(g77
g58
NtRp189
(dp190
g61
(dp191
sg70
g185
sg63
(lp192
g56
(g57
g58
NtRp193
(dp194
g61
(dp195
g69
I4
ssg70
g189
sg63
(lp196
S'authors'
p197
asbasbasbag56
(g72
g58
NtRp198
(dp199
g61
(dp200
sg70
g142
sg63
(lp201
g56
(g77
g58
NtRp202
(dp203
g61
(dp204
sg70
g198
sg63
(lp205
g56
(g57
g58
NtRp206
(dp207
g61
(dp208
g69
I4
ssg70
g202
sg63
(lp209
S'notes_author_loader'
p210
asbasbasbasbasbasbasbag56
(g72
g58
NtRp211
(dp212
g61
(dp213
sg70
g66
sg63
(lp214
g56
(g77
g58
NtRp215
(dp216
g61
(dp217
g81
g82
ssg70
g211
sg63
(lp218
S'body'
p219
asbag56
(g77
g58
NtRp220
(dp221
g61
(dp222
g88
g89
ssg70
g211
sg63
(lp223
S':'
asbag56
(g77
g58
NtRp224
(dp225
g61
(dp226
sg70
g211
sg63
(lp227
g56
(g57
g58
NtRp228
(dp229
g61
(dp230
g69
I5
ssg70
g224
sg63
(lp231
S'<cStringIO.StringO object at 0x3403538>'
p232
asbasbasbag56
(g72
g58
NtRp233
(dp234
g61
(dp235
sg70
g66
sg63
(lp236
g56
(g77
g58
NtRp237
(dp238
g61
(dp239
g81
g82
ssg70
g233
sg63
(lp240
S'cid'
p241
asbag56
(g77
g58
NtRp242
(dp243
g61
(dp244
g88
g89
ssg70
g233
sg63
(lp245
S':'
asbag56
(g77
g58
NtRp246
(dp247
g61
(dp248
sg70
g233
sg63
(lp249
g56
(g57
g58
NtRp250
(dp251
g61
(dp252
g69
I5
ssg70
g246
sg63
(lp253
S'notes_author_loader'
p254
asbasbasbag56
(g72
g58
NtRp255
(dp256
g61
(dp257
sg70
g66
sg63
(lp258
g56
(g77
g58
NtRp259
(dp260
g61
(dp261
g81
g82
ssg70
g255
sg63
(lp262
S'client'
p263
asbag56
(g77
g58
NtRp264
(dp265
g61
(dp266
g88
g89
ssg70
g255
sg63
(lp267
S':'
asbag56
(g77
g58
NtRp268
(dp269
g61
(dp270
sg70
g255
sg63
(lp271
g56
(g57
g58
NtRp272
(dp273
g61
(dp274
g69
I5
ssg70
g268
sg63
(lp275
S'127.0.0.1'
p276
asbasbasbag56
(g72
g58
NtRp277
(dp278
g61
(dp279
sg70
g66
sg63
(lp280
g56
(g77
g58
NtRp281
(dp282
g61
(dp283
g81
g82
ssg70
g277
sg63
(lp284
S'controller'
p285
asbag56
(g77
g58
NtRp286
(dp287
g61
(dp288
g88
g89
ssg70
g277
sg63
(lp289
S':'
asbag56
(g77
g58
NtRp290
(dp291
g61
(dp292
sg70
g277
sg63
(lp293
g56
(g57
g58
NtRp294
(dp295
g61
(dp296
g69
I5
ssg70
g290
sg63
(lp297
S'plugin_ajaxselect'
p298
asbasbasbag56
(g72
g58
NtRp299
(dp300
g61
(dp301
sg70
g66
sg63
(lp302
g56
(g77
g58
NtRp303
(dp304
g61
(dp305
g81
g82
ssg70
g299
sg63
(lp306
S'cookies'
p307
asbag56
(g77
g58
NtRp308
(dp309
g61
(dp310
g88
g89
ssg70
g299
sg63
(lp311
S':'
asbag56
(g77
g58
NtRp312
(dp313
g61
(dp314
sg70
g299
sg63
(lp315
g56
(g57
g58
NtRp316
(dp317
g61
(dp318
g69
I5
ssg70
g312
sg63
(lp319
g56
(g65
g58
NtRp320
(dp321
g61
(dp322
g69
I4
ssg70
Nsg63
(lp323
g56
(g72
g58
NtRp324
(dp325
g61
(dp326
sg70
g320
sg63
(lp327
g56
(g77
g58
NtRp328
(dp329
g61
(dp330
g81
g82
ssg70
g324
sg63
(lp331
S'session_id_admin'
p332
asbag56
(g77
g58
NtRp333
(dp334
g61
(dp335
g88
g89
ssg70
g324
sg63
(lp336
S':'
asbag56
(g77
g58
NtRp337
(dp338
g61
(dp339
sg70
g324
sg63
(lp340
g56
(g57
g58
NtRp341
(dp342
g61
(dp343
g69
I4
ssg70
g337
sg63
(lp344
g56
(g65
g58
NtRp345
(dp346
g61
(dp347
g69
I3
ssg70
Nsg63
(lp348
g56
(g72
g58
NtRp349
(dp350
g61
(dp351
sg70
g345
sg63
(lp352
g56
(g77
g58
NtRp353
(dp354
g61
(dp355
g81
g82
ssg70
g349
sg63
(lp356
S'comment'
p357
asbag56
(g77
g58
NtRp358
(dp359
g61
(dp360
g88
g89
ssg70
g349
sg63
(lp361
S':'
asbag56
(g77
g58
NtRp362
(dp363
g61
(dp364
sg70
g349
sg63
(lp365
g56
(g57
g58
NtRp366
(dp367
g61
(dp368
g69
I3
ssg70
g362
sg63
(lp369
S''
asbasbasbag56
(g72
g58
NtRp370
(dp371
g61
(dp372
sg70
g345
sg63
(lp373
g56
(g77
g58
NtRp374
(dp375
g61
(dp376
g81
g82
ssg70
g370
sg63
(lp377
S'domain'
p378
asbag56
(g77
g58
NtRp379
(dp380
g61
(dp381
g88
g89
ssg70
g370
sg63
(lp382
S':'
asbag56
(g77
g58
NtRp383
(dp384
g61
(dp385
sg70
g370
sg63
(lp386
g56
(g57
g58
NtRp387
(dp388
g61
(dp389
g69
I3
ssg70
g383
sg63
(lp390
S''
asbasbasbag56
(g72
g58
NtRp391
(dp392
g61
(dp393
sg70
g345
sg63
(lp394
g56
(g77
g58
NtRp395
(dp396
g61
(dp397
g81
g82
ssg70
g391
sg63
(lp398
S'expires'
p399
asbag56
(g77
g58
NtRp400
(dp401
g61
(dp402
g88
g89
ssg70
g391
sg63
(lp403
S':'
asbag56
(g77
g58
NtRp404
(dp405
g61
(dp406
sg70
g391
sg63
(lp407
g56
(g57
g58
NtRp408
(dp409
g61
(dp410
g69
I3
ssg70
g404
sg63
(lp411
S''
asbasbasbag56
(g72
g58
NtRp412
(dp413
g61
(dp414
sg70
g345
sg63
(lp415
g56
(g77
g58
NtRp416
(dp417
g61
(dp418
g81
g82
ssg70
g412
sg63
(lp419
S'httponly'
p420
asbag56
(g77
g58
NtRp421
(dp422
g61
(dp423
g88
g89
ssg70
g412
sg63
(lp424
S':'
asbag56
(g77
g58
NtRp425
(dp426
g61
(dp427
sg70
g412
sg63
(lp428
g56
(g57
g58
NtRp429
(dp430
g61
(dp431
g69
I3
ssg70
g425
sg63
(lp432
S''
asbasbasbag56
(g72
g58
NtRp433
(dp434
g61
(dp435
sg70
g345
sg63
(lp436
g56
(g77
g58
NtRp437
(dp438
g61
(dp439
g81
g82
ssg70
g433
sg63
(lp440
S'max-age'
p441
asbag56
(g77
g58
NtRp442
(dp443
g61
(dp444
g88
g89
ssg70
g433
sg63
(lp445
S':'
asbag56
(g77
g58
NtRp446
(dp447
g61
(dp448
sg70
g433
sg63
(lp449
g56
(g57
g58
NtRp450
(dp451
g61
(dp452
g69
I3
ssg70
g446
sg63
(lp453
S''
asbasbasbag56
(g72
g58
NtRp454
(dp455
g61
(dp456
sg70
g345
sg63
(lp457
g56
(g77
g58
NtRp458
(dp459
g61
(dp460
g81
g82
ssg70
g454
sg63
(lp461
S'path'
p462
asbag56
(g77
g58
NtRp463
(dp464
g61
(dp465
g88
g89
ssg70
g454
sg63
(lp466
S':'
asbag56
(g77
g58
NtRp467
(dp468
g61
(dp469
sg70
g454
sg63
(lp470
g56
(g57
g58
NtRp471
(dp472
g61
(dp473
g69
I3
ssg70
g467
sg63
(lp474
S''
asbasbasbag56
(g72
g58
NtRp475
(dp476
g61
(dp477
sg70
g345
sg63
(lp478
g56
(g77
g58
NtRp479
(dp480
g61
(dp481
g81
g82
ssg70
g475
sg63
(lp482
S'secure'
p483
asbag56
(g77
g58
NtRp484
(dp485
g61
(dp486
g88
g89
ssg70
g475
sg63
(lp487
S':'
asbag56
(g77
g58
NtRp488
(dp489
g61
(dp490
sg70
g475
sg63
(lp491
g56
(g57
g58
NtRp492
(dp493
g61
(dp494
g69
I3
ssg70
g488
sg63
(lp495
S''
asbasbasbag56
(g72
g58
NtRp496
(dp497
g61
(dp498
sg70
g345
sg63
(lp499
g56
(g77
g58
NtRp500
(dp501
g61
(dp502
g81
g82
ssg70
g496
sg63
(lp503
S'version'
p504
asbag56
(g77
g58
NtRp505
(dp506
g61
(dp507
g88
g89
ssg70
g496
sg63
(lp508
S':'
asbag56
(g77
g58
NtRp509
(dp510
g61
(dp511
sg70
g496
sg63
(lp512
g56
(g57
g58
NtRp513
(dp514
g61
(dp515
g69
I3
ssg70
g509
sg63
(lp516
S''
asbasbasbasbasbasbasbag56
(g72
g58
NtRp517
(dp518
g61
(dp519
sg70
g320
sg63
(lp520
g56
(g77
g58
NtRp521
(dp522
g61
(dp523
g81
g82
ssg70
g517
sg63
(lp524
S'session_id_topoi'
p525
asbag56
(g77
g58
NtRp526
(dp527
g61
(dp528
g88
g89
ssg70
g517
sg63
(lp529
S':'
asbag56
(g77
g58
NtRp530
(dp531
g61
(dp532
sg70
g517
sg63
(lp533
g56
(g57
g58
NtRp534
(dp535
g61
(dp536
g69
I4
ssg70
g530
sg63
(lp537
g56
(g65
g58
NtRp538
(dp539
g61
(dp540
g69
I3
ssg70
Nsg63
(lp541
g56
(g72
g58
NtRp542
(dp543
g61
(dp544
sg70
g538
sg63
(lp545
g56
(g77
g58
NtRp546
(dp547
g61
(dp548
g81
g82
ssg70
g542
sg63
(lp549
g357
asbag56
(g77
g58
NtRp550
(dp551
g61
(dp552
g88
g89
ssg70
g542
sg63
(lp553
S':'
asbag56
(g77
g58
NtRp554
(dp555
g61
(dp556
sg70
g542
sg63
(lp557
g56
(g57
g58
NtRp558
(dp559
g61
(dp560
g69
I3
ssg70
g554
sg63
(lp561
S''
asbasbasbag56
(g72
g58
NtRp562
(dp563
g61
(dp564
sg70
g538
sg63
(lp565
g56
(g77
g58
NtRp566
(dp567
g61
(dp568
g81
g82
ssg70
g562
sg63
(lp569
g378
asbag56
(g77
g58
NtRp570
(dp571
g61
(dp572
g88
g89
ssg70
g562
sg63
(lp573
S':'
asbag56
(g77
g58
NtRp574
(dp575
g61
(dp576
sg70
g562
sg63
(lp577
g56
(g57
g58
NtRp578
(dp579
g61
(dp580
g69
I3
ssg70
g574
sg63
(lp581
S''
asbasbasbag56
(g72
g58
NtRp582
(dp583
g61
(dp584
sg70
g538
sg63
(lp585
g56
(g77
g58
NtRp586
(dp587
g61
(dp588
g81
g82
ssg70
g582
sg63
(lp589
g399
asbag56
(g77
g58
NtRp590
(dp591
g61
(dp592
g88
g89
ssg70
g582
sg63
(lp593
S':'
asbag56
(g77
g58
NtRp594
(dp595
g61
(dp596
sg70
g582
sg63
(lp597
g56
(g57
g58
NtRp598
(dp599
g61
(dp600
g69
I3
ssg70
g594
sg63
(lp601
S''
asbasbasbag56
(g72
g58
NtRp602
(dp603
g61
(dp604
sg70
g538
sg63
(lp605
g56
(g77
g58
NtRp606
(dp607
g61
(dp608
g81
g82
ssg70
g602
sg63
(lp609
g420
asbag56
(g77
g58
NtRp610
(dp611
g61
(dp612
g88
g89
ssg70
g602
sg63
(lp613
S':'
asbag56
(g77
g58
NtRp614
(dp615
g61
(dp616
sg70
g602
sg63
(lp617
g56
(g57
g58
NtRp618
(dp619
g61
(dp620
g69
I3
ssg70
g614
sg63
(lp621
S''
asbasbasbag56
(g72
g58
NtRp622
(dp623
g61
(dp624
sg70
g538
sg63
(lp625
g56
(g77
g58
NtRp626
(dp627
g61
(dp628
g81
g82
ssg70
g622
sg63
(lp629
g441
asbag56
(g77
g58
NtRp630
(dp631
g61
(dp632
g88
g89
ssg70
g622
sg63
(lp633
S':'
asbag56
(g77
g58
NtRp634
(dp635
g61
(dp636
sg70
g622
sg63
(lp637
g56
(g57
g58
NtRp638
(dp639
g61
(dp640
g69
I3
ssg70
g634
sg63
(lp641
S''
asbasbasbag56
(g72
g58
NtRp642
(dp643
g61
(dp644
sg70
g538
sg63
(lp645
g56
(g77
g58
NtRp646
(dp647
g61
(dp648
g81
g82
ssg70
g642
sg63
(lp649
g462
asbag56
(g77
g58
NtRp650
(dp651
g61
(dp652
g88
g89
ssg70
g642
sg63
(lp653
S':'
asbag56
(g77
g58
NtRp654
(dp655
g61
(dp656
sg70
g642
sg63
(lp657
g56
(g57
g58
NtRp658
(dp659
g61
(dp660
g69
I3
ssg70
g654
sg63
(lp661
S''
asbasbasbag56
(g72
g58
NtRp662
(dp663
g61
(dp664
sg70
g538
sg63
(lp665
g56
(g77
g58
NtRp666
(dp667
g61
(dp668
g81
g82
ssg70
g662
sg63
(lp669
g483
asbag56
(g77
g58
NtRp670
(dp671
g61
(dp672
g88
g89
ssg70
g662
sg63
(lp673
S':'
asbag56
(g77
g58
NtRp674
(dp675
g61
(dp676
sg70
g662
sg63
(lp677
g56
(g57
g58
NtRp678
(dp679
g61
(dp680
g69
I3
ssg70
g674
sg63
(lp681
S''
asbasbasbag56
(g72
g58
NtRp682
(dp683
g61
(dp684
sg70
g538
sg63
(lp685
g56
(g77
g58
NtRp686
(dp687
g61
(dp688
g81
g82
ssg70
g682
sg63
(lp689
g504
asbag56
(g77
g58
NtRp690
(dp691
g61
(dp692
g88
g89
ssg70
g682
sg63
(lp693
S':'
asbag56
(g77
g58
NtRp694
(dp695
g61
(dp696
sg70
g682
sg63
(lp697
g56
(g57
g58
NtRp698
(dp699
g61
(dp700
g69
I3
ssg70
g694
sg63
(lp701
S''
asbasbasbasbasbasbasbag56
(g72
g58
NtRp702
(dp703
g61
(dp704
sg70
g320
sg63
(lp705
g56
(g77
g58
NtRp706
(dp707
g61
(dp708
g81
g82
ssg70
g702
sg63
(lp709
S'session_id_welcome'
p710
asbag56
(g77
g58
NtRp711
(dp712
g61
(dp713
g88
g89
ssg70
g702
sg63
(lp714
S':'
asbag56
(g77
g58
NtRp715
(dp716
g61
(dp717
sg70
g702
sg63
(lp718
g56
(g57
g58
NtRp719
(dp720
g61
(dp721
g69
I4
ssg70
g715
sg63
(lp722
g56
(g65
g58
NtRp723
(dp724
g61
(dp725
g69
I3
ssg70
Nsg63
(lp726
g56
(g72
g58
NtRp727
(dp728
g61
(dp729
sg70
g723
sg63
(lp730
g56
(g77
g58
NtRp731
(dp732
g61
(dp733
g81
g82
ssg70
g727
sg63
(lp734
g357
asbag56
(g77
g58
NtRp735
(dp736
g61
(dp737
g88
g89
ssg70
g727
sg63
(lp738
S':'
asbag56
(g77
g58
NtRp739
(dp740
g61
(dp741
sg70
g727
sg63
(lp742
g56
(g57
g58
NtRp743
(dp744
g61
(dp745
g69
I3
ssg70
g739
sg63
(lp746
S''
asbasbasbag56
(g72
g58
NtRp747
(dp748
g61
(dp749
sg70
g723
sg63
(lp750
g56
(g77
g58
NtRp751
(dp752
g61
(dp753
g81
g82
ssg70
g747
sg63
(lp754
g378
asbag56
(g77
g58
NtRp755
(dp756
g61
(dp757
g88
g89
ssg70
g747
sg63
(lp758
S':'
asbag56
(g77
g58
NtRp759
(dp760
g61
(dp761
sg70
g747
sg63
(lp762
g56
(g57
g58
NtRp763
(dp764
g61
(dp765
g69
I3
ssg70
g759
sg63
(lp766
S''
asbasbasbag56
(g72
g58
NtRp767
(dp768
g61
(dp769
sg70
g723
sg63
(lp770
g56
(g77
g58
NtRp771
(dp772
g61
(dp773
g81
g82
ssg70
g767
sg63
(lp774
g399
asbag56
(g77
g58
NtRp775
(dp776
g61
(dp777
g88
g89
ssg70
g767
sg63
(lp778
S':'
asbag56
(g77
g58
NtRp779
(dp780
g61
(dp781
sg70
g767
sg63
(lp782
g56
(g57
g58
NtRp783
(dp784
g61
(dp785
g69
I3
ssg70
g779
sg63
(lp786
S''
asbasbasbag56
(g72
g58
NtRp787
(dp788
g61
(dp789
sg70
g723
sg63
(lp790
g56
(g77
g58
NtRp791
(dp792
g61
(dp793
g81
g82
ssg70
g787
sg63
(lp794
g420
asbag56
(g77
g58
NtRp795
(dp796
g61
(dp797
g88
g89
ssg70
g787
sg63
(lp798
S':'
asbag56
(g77
g58
NtRp799
(dp800
g61
(dp801
sg70
g787
sg63
(lp802
g56
(g57
g58
NtRp803
(dp804
g61
(dp805
g69
I3
ssg70
g799
sg63
(lp806
S''
asbasbasbag56
(g72
g58
NtRp807
(dp808
g61
(dp809
sg70
g723
sg63
(lp810
g56
(g77
g58
NtRp811
(dp812
g61
(dp813
g81
g82
ssg70
g807
sg63
(lp814
g441
asbag56
(g77
g58
NtRp815
(dp816
g61
(dp817
g88
g89
ssg70
g807
sg63
(lp818
S':'
asbag56
(g77
g58
NtRp819
(dp820
g61
(dp821
sg70
g807
sg63
(lp822
g56
(g57
g58
NtRp823
(dp824
g61
(dp825
g69
I3
ssg70
g819
sg63
(lp826
S''
asbasbasbag56
(g72
g58
NtRp827
(dp828
g61
(dp829
sg70
g723
sg63
(lp830
g56
(g77
g58
NtRp831
(dp832
g61
(dp833
g81
g82
ssg70
g827
sg63
(lp834
g462
asbag56
(g77
g58
NtRp835
(dp836
g61
(dp837
g88
g89
ssg70
g827
sg63
(lp838
S':'
asbag56
(g77
g58
NtRp839
(dp840
g61
(dp841
sg70
g827
sg63
(lp842
g56
(g57
g58
NtRp843
(dp844
g61
(dp845
g69
I3
ssg70
g839
sg63
(lp846
S''
asbasbasbag56
(g72
g58
NtRp847
(dp848
g61
(dp849
sg70
g723
sg63
(lp850
g56
(g77
g58
NtRp851
(dp852
g61
(dp853
g81
g82
ssg70
g847
sg63
(lp854
g483
asbag56
(g77
g58
NtRp855
(dp856
g61
(dp857
g88
g89
ssg70
g847
sg63
(lp858
S':'
asbag56
(g77
g58
NtRp859
(dp860
g61
(dp861
sg70
g847
sg63
(lp862
g56
(g57
g58
NtRp863
(dp864
g61
(dp865
g69
I3
ssg70
g859
sg63
(lp866
S''
asbasbasbag56
(g72
g58
NtRp867
(dp868
g61
(dp869
sg70
g723
sg63
(lp870
g56
(g77
g58
NtRp871
(dp872
g61
(dp873
g81
g82
ssg70
g867
sg63
(lp874
g504
asbag56
(g77
g58
NtRp875
(dp876
g61
(dp877
g88
g89
ssg70
g867
sg63
(lp878
S':'
asbag56
(g77
g58
NtRp879
(dp880
g61
(dp881
sg70
g867
sg63
(lp882
g56
(g57
g58
NtRp883
(dp884
g61
(dp885
g69
I3
ssg70
g879
sg63
(lp886
S''
asbasbasbasbasbasbasbasbasbasbasbag56
(g72
g58
NtRp887
(dp888
g61
(dp889
sg70
g66
sg63
(lp890
g56
(g77
g58
NtRp891
(dp892
g61
(dp893
g81
g82
ssg70
g887
sg63
(lp894
S'env'
p895
asbag56
(g77
g58
NtRp896
(dp897
g61
(dp898
g88
g89
ssg70
g887
sg63
(lp899
S':'
asbag56
(g77
g58
NtRp900
(dp901
g61
(dp902
sg70
g887
sg63
(lp903
g56
(g57
g58
NtRp904
(dp905
g61
(dp906
g69
I5
ssg70
g900
sg63
(lp907
g56
(g65
g58
NtRp908
(dp909
g61
(dp910
g69
I4
ssg70
Nsg63
(lp911
g56
(g72
g58
NtRp912
(dp913
g61
(dp914
sg70
g908
sg63
(lp915
g56
(g77
g58
NtRp916
(dp917
g61
(dp918
g81
g82
ssg70
g912
sg63
(lp919
S'app_folders'
p920
asbag56
(g77
g58
NtRp921
(dp922
g61
(dp923
g88
g89
ssg70
g912
sg63
(lp924
S':'
asbag56
(g77
g58
NtRp925
(dp926
g61
(dp927
sg70
g912
sg63
(lp928
g56
(g57
g58
NtRp929
(dp930
g61
(dp931
g69
I4
ssg70
g925
sg63
(lp932
S"set(['/home/ian/web2py/applications/topoi/', '/home/ian/web2py/applications/welcome/', '/home/ian/web2py/applications/admin/'])"
p933
asbasbasbag56
(g72
g58
NtRp934
(dp935
g61
(dp936
sg70
g908
sg63
(lp937
g56
(g77
g58
NtRp938
(dp939
g61
(dp940
g81
g82
ssg70
g934
sg63
(lp941
S'applications_parent'
p942
asbag56
(g77
g58
NtRp943
(dp944
g61
(dp945
g88
g89
ssg70
g934
sg63
(lp946
S':'
asbag56
(g77
g58
NtRp947
(dp948
g61
(dp949
sg70
g934
sg63
(lp950
g56
(g57
g58
NtRp951
(dp952
g61
(dp953
g69
I4
ssg70
g947
sg63
(lp954
S'/home/ian/web2py'
p955
asbasbasbag56
(g72
g58
NtRp956
(dp957
g61
(dp958
sg70
g908
sg63
(lp959
g56
(g77
g58
NtRp960
(dp961
g61
(dp962
g81
g82
ssg70
g956
sg63
(lp963
S'cmd_args'
p964
asbag56
(g77
g58
NtRp965
(dp966
g61
(dp967
g88
g89
ssg70
g956
sg63
(lp968
S':'
asbag56
(g77
g58
NtRp969
(dp970
g61
(dp971
sg70
g956
sg63
(lp972
g56
(g57
g58
NtRp973
(dp974
g61
(dp975
g69
I4
ssg70
g969
sg63
(lp976
g56
(g65
g58
NtRp977
(dp978
g61
(dp979
g69
I3
ssg70
Nsg63
(lp980
sbasbasbasbag56
(g72
g58
NtRp981
(dp982
g61
(dp983
sg70
g908
sg63
(lp984
g56
(g77
g58
NtRp985
(dp986
g61
(dp987
g81
g82
ssg70
g981
sg63
(lp988
S'cmd_options'
p989
asbag56
(g77
g58
NtRp990
(dp991
g61
(dp992
g88
g89
ssg70
g981
sg63
(lp993
S':'
asbag56
(g77
g58
NtRp994
(dp995
g61
(dp996
sg70
g981
sg63
(lp997
g56
(g57
g58
NtRp998
(dp999
g61
(dp1000
g69
I4
ssg70
g994
sg63
(lp1001
S"<Values at 0x2bbf758: {'verbose': False, 'ip': '127.0.0.1', 'shutdown_timeout': 5, 'taskbar': False, 'nocron': False, 'pid_filename': 'httpserver.pid', 'maxthreads': None, 'softcron': False, 'server_name': 'uriel', 'bpython': False, 'nogui': False, 'port': 8000, 'extcron': False, 'debuglevel': 30, 'test': None, 'folder': '/home/ian/web2py', 'config': '', 'import_models': False, 'winservice': '', 'shell': None, 'run': '', 'log_filename': 'httpserver.log', 'args': [''], 'ssl_ca_certificate': None, 'scheduler': None, 'profiler_filename': None, 'ssl_private_key': '', 'password': '<ask>', 'request_queue_size': 5, 'ssl_certificate': '', 'cronjob': False, 'plain': False, 'quiet': False, 'interfaces': None, 'minthreads': None, 'timeout': 10, 'numthreads': None, 'nobanner': False}>"
p1002
asbasbasbag56
(g72
g58
NtRp1003
(dp1004
g61
(dp1005
sg70
g908
sg63
(lp1006
g56
(g77
g58
NtRp1007
(dp1008
g61
(dp1009
g81
g82
ssg70
g1003
sg63
(lp1010
S'db_sessions'
p1011
asbag56
(g77
g58
NtRp1012
(dp1013
g61
(dp1014
g88
g89
ssg70
g1003
sg63
(lp1015
S':'
asbag56
(g77
g58
NtRp1016
(dp1017
g61
(dp1018
sg70
g1003
sg63
(lp1019
g56
(g57
g58
NtRp1020
(dp1021
g61
(dp1022
g69
I4
ssg70
g1016
sg63
(lp1023
S'set([])'
p1024
asbasbasbag56
(g72
g58
NtRp1025
(dp1026
g61
(dp1027
sg70
g908
sg63
(lp1028
g56
(g77
g58
NtRp1029
(dp1030
g61
(dp1031
g81
g82
ssg70
g1025
sg63
(lp1032
S'debugging'
p1033
asbag56
(g77
g58
NtRp1034
(dp1035
g61
(dp1036
g88
g89
ssg70
g1025
sg63
(lp1037
S':'
asbag56
(g77
g58
NtRp1038
(dp1039
g61
(dp1040
sg70
g1025
sg63
(lp1041
g56
(g57
g58
NtRp1042
(dp1043
g61
(dp1044
g69
I4
ssg70
g1038
sg63
(lp1045
S'False'
p1046
asbasbasbag56
(g72
g58
NtRp1047
(dp1048
g61
(dp1049
sg70
g908
sg63
(lp1050
g56
(g77
g58
NtRp1051
(dp1052
g61
(dp1053
g81
g82
ssg70
g1047
sg63
(lp1054
S'gluon_parent'
p1055
asbag56
(g77
g58
NtRp1056
(dp1057
g61
(dp1058
g88
g89
ssg70
g1047
sg63
(lp1059
S':'
asbag56
(g77
g58
NtRp1060
(dp1061
g61
(dp1062
sg70
g1047
sg63
(lp1063
g56
(g57
g58
NtRp1064
(dp1065
g61
(dp1066
g69
I4
ssg70
g1060
sg63
(lp1067
S'/home/ian/web2py'
p1068
asbasbasbag56
(g72
g58
NtRp1069
(dp1070
g61
(dp1071
sg70
g908
sg63
(lp1072
g56
(g77
g58
NtRp1073
(dp1074
g61
(dp1075
g81
g82
ssg70
g1069
sg63
(lp1076
S'http_accept'
p1077
asbag56
(g77
g58
NtRp1078
(dp1079
g61
(dp1080
g88
g89
ssg70
g1069
sg63
(lp1081
S':'
asbag56
(g77
g58
NtRp1082
(dp1083
g61
(dp1084
sg70
g1069
sg63
(lp1085
g56
(g57
g58
NtRp1086
(dp1087
g61
(dp1088
g69
I4
ssg70
g1082
sg63
(lp1089
S'*/*'
p1090
asbasbasbag56
(g72
g58
NtRp1091
(dp1092
g61
(dp1093
sg70
g908
sg63
(lp1094
g56
(g77
g58
NtRp1095
(dp1096
g61
(dp1097
g81
g82
ssg70
g1091
sg63
(lp1098
S'http_accept_charset'
p1099
asbag56
(g77
g58
NtRp1100
(dp1101
g61
(dp1102
g88
g89
ssg70
g1091
sg63
(lp1103
S':'
asbag56
(g77
g58
NtRp1104
(dp1105
g61
(dp1106
sg70
g1091
sg63
(lp1107
g56
(g57
g58
NtRp1108
(dp1109
g61
(dp1110
g69
I4
ssg70
g1104
sg63
(lp1111
S'UTF-8,*'
p1112
asbasbasbag56
(g72
g58
NtRp1113
(dp1114
g61
(dp1115
sg70
g908
sg63
(lp1116
g56
(g77
g58
NtRp1117
(dp1118
g61
(dp1119
g81
g82
ssg70
g1113
sg63
(lp1120
S'http_accept_encoding'
p1121
asbag56
(g77
g58
NtRp1122
(dp1123
g61
(dp1124
g88
g89
ssg70
g1113
sg63
(lp1125
S':'
asbag56
(g77
g58
NtRp1126
(dp1127
g61
(dp1128
sg70
g1113
sg63
(lp1129
g56
(g57
g58
NtRp1130
(dp1131
g61
(dp1132
g69
I4
ssg70
g1126
sg63
(lp1133
S'gzip, deflate'
p1134
asbasbasbag56
(g72
g58
NtRp1135
(dp1136
g61
(dp1137
sg70
g908
sg63
(lp1138
g56
(g77
g58
NtRp1139
(dp1140
g61
(dp1141
g81
g82
ssg70
g1135
sg63
(lp1142
S'http_accept_language'
p1143
asbag56
(g77
g58
NtRp1144
(dp1145
g61
(dp1146
g88
g89
ssg70
g1135
sg63
(lp1147
S':'
asbag56
(g77
g58
NtRp1148
(dp1149
g61
(dp1150
sg70
g1135
sg63
(lp1151
g56
(g57
g58
NtRp1152
(dp1153
g61
(dp1154
g69
I4
ssg70
g1148
sg63
(lp1155
S'en-us,en;q=0.5'
p1156
asbasbasbag56
(g72
g58
NtRp1157
(dp1158
g61
(dp1159
sg70
g908
sg63
(lp1160
g56
(g77
g58
NtRp1161
(dp1162
g61
(dp1163
g81
g82
ssg70
g1157
sg63
(lp1164
S'http_connection'
p1165
asbag56
(g77
g58
NtRp1166
(dp1167
g61
(dp1168
g88
g89
ssg70
g1157
sg63
(lp1169
S':'
asbag56
(g77
g58
NtRp1170
(dp1171
g61
(dp1172
sg70
g1157
sg63
(lp1173
g56
(g57
g58
NtRp1174
(dp1175
g61
(dp1176
g69
I4
ssg70
g1170
sg63
(lp1177
S'keep-alive'
p1178
asbasbasbag56
(g72
g58
NtRp1179
(dp1180
g61
(dp1181
sg70
g908
sg63
(lp1182
g56
(g77
g58
NtRp1183
(dp1184
g61
(dp1185
g81
g82
ssg70
g1179
sg63
(lp1186
S'http_cookie'
p1187
asbag56
(g77
g58
NtRp1188
(dp1189
g61
(dp1190
g88
g89
ssg70
g1179
sg63
(lp1191
S':'
asbag56
(g77
g58
NtRp1192
(dp1193
g61
(dp1194
sg70
g1179
sg63
(lp1195
g56
(g57
g58
NtRp1196
(dp1197
g61
(dp1198
g69
I4
ssg70
g1192
sg63
(lp1199
S'session_id_topoi=127.0.0.1-fbfd7fa3-57f5-4d42-8f08-594178070e93; session_id_admin=127.0.0.1-ff4950da-4dbe-41f9-a5ad-137fd658c4a2; session_id_welcome=127.0.0.1-90b0a4b8-a263-4e03-8dbf-8f65a376c941'
p1200
asbasbasbag56
(g72
g58
NtRp1201
(dp1202
g61
(dp1203
sg70
g908
sg63
(lp1204
g56
(g77
g58
NtRp1205
(dp1206
g61
(dp1207
g81
g82
ssg70
g1201
sg63
(lp1208
S'http_host'
p1209
asbag56
(g77
g58
NtRp1210
(dp1211
g61
(dp1212
g88
g89
ssg70
g1201
sg63
(lp1213
S':'
asbag56
(g77
g58
NtRp1214
(dp1215
g61
(dp1216
sg70
g1201
sg63
(lp1217
g56
(g57
g58
NtRp1218
(dp1219
g61
(dp1220
g69
I4
ssg70
g1214
sg63
(lp1221
S'127.0.0.1:8000'
p1222
asbasbasbag56
(g72
g58
NtRp1223
(dp1224
g61
(dp1225
sg70
g908
sg63
(lp1226
g56
(g77
g58
NtRp1227
(dp1228
g61
(dp1229
g81
g82
ssg70
g1223
sg63
(lp1230
S'http_referer'
p1231
asbag56
(g77
g58
NtRp1232
(dp1233
g61
(dp1234
g88
g89
ssg70
g1223
sg63
(lp1235
S':'
asbag56
(g77
g58
NtRp1236
(dp1237
g61
(dp1238
sg70
g1223
sg63
(lp1239
g56
(g57
g58
NtRp1240
(dp1241
g61
(dp1242
g69
I4
ssg70
g1236
sg63
(lp1243
S'http://127.0.0.1:8000/topoi/plugin_listandedit/list/notes/1?fields=author&fields=work&fields=reference'
p1244
asbasbasbag56
(g72
g58
NtRp1245
(dp1246
g61
(dp1247
sg70
g908
sg63
(lp1248
g56
(g77
g58
NtRp1249
(dp1250
g61
(dp1251
g81
g82
ssg70
g1245
sg63
(lp1252
S'http_user_agent'
p1253
asbag56
(g77
g58
NtRp1254
(dp1255
g61
(dp1256
g88
g89
ssg70
g1245
sg63
(lp1257
S':'
asbag56
(g77
g58
NtRp1258
(dp1259
g61
(dp1260
sg70
g1245
sg63
(lp1261
g56
(g57
g58
NtRp1262
(dp1263
g61
(dp1264
g69
I4
ssg70
g1258
sg63
(lp1265
S'Mozilla/5.0 (Ubuntu; X11; Linux x86_64; rv:8.0) Gecko/20100101 Firefox/8.0'
p1266
asbasbasbag56
(g72
g58
NtRp1267
(dp1268
g61
(dp1269
sg70
g908
sg63
(lp1270
g56
(g77
g58
NtRp1271
(dp1272
g61
(dp1273
g81
g82
ssg70
g1267
sg63
(lp1274
S'http_web2py_component_element'
p1275
asbag56
(g77
g58
NtRp1276
(dp1277
g61
(dp1278
g88
g89
ssg70
g1267
sg63
(lp1279
S':'
asbag56
(g77
g58
NtRp1280
(dp1281
g61
(dp1282
sg70
g1267
sg63
(lp1283
g56
(g57
g58
NtRp1284
(dp1285
g61
(dp1286
g69
I4
ssg70
g1280
sg63
(lp1287
g254
asbasbasbag56
(g72
g58
NtRp1288
(dp1289
g61
(dp1290
sg70
g908
sg63
(lp1291
g56
(g77
g58
NtRp1292
(dp1293
g61
(dp1294
g81
g82
ssg70
g1288
sg63
(lp1295
S'http_web2py_component_location'
p1296
asbag56
(g77
g58
NtRp1297
(dp1298
g61
(dp1299
g88
g89
ssg70
g1288
sg63
(lp1300
S':'
asbag56
(g77
g58
NtRp1301
(dp1302
g61
(dp1303
sg70
g1288
sg63
(lp1304
g56
(g57
g58
NtRp1305
(dp1306
g61
(dp1307
g69
I4
ssg70
g1301
sg63
(lp1308
S'http://127.0.0.1:8000/topoi/plugin_listandedit/list/notes/1?fields=author&fields=work&fields=reference#'
p1309
asbasbasbag56
(g72
g58
NtRp1310
(dp1311
g61
(dp1312
sg70
g908
sg63
(lp1313
g56
(g77
g58
NtRp1314
(dp1315
g61
(dp1316
g81
g82
ssg70
g1310
sg63
(lp1317
S'http_x_requested_with'
p1318
asbag56
(g77
g58
NtRp1319
(dp1320
g61
(dp1321
g88
g89
ssg70
g1310
sg63
(lp1322
S':'
asbag56
(g77
g58
NtRp1323
(dp1324
g61
(dp1325
sg70
g1310
sg63
(lp1326
g56
(g57
g58
NtRp1327
(dp1328
g61
(dp1329
g69
I4
ssg70
g1323
sg63
(lp1330
S'XMLHttpRequest'
p1331
asbasbasbag56
(g72
g58
NtRp1332
(dp1333
g61
(dp1334
sg70
g908
sg63
(lp1335
g56
(g77
g58
NtRp1336
(dp1337
g61
(dp1338
g81
g82
ssg70
g1332
sg63
(lp1339
S'is_jython'
p1340
asbag56
(g77
g58
NtRp1341
(dp1342
g61
(dp1343
g88
g89
ssg70
g1332
sg63
(lp1344
S':'
asbag56
(g77
g58
NtRp1345
(dp1346
g61
(dp1347
sg70
g1332
sg63
(lp1348
g56
(g57
g58
NtRp1349
(dp1350
g61
(dp1351
g69
I4
ssg70
g1345
sg63
(lp1352
g1046
asbasbasbag56
(g72
g58
NtRp1353
(dp1354
g61
(dp1355
sg70
g908
sg63
(lp1356
g56
(g77
g58
NtRp1357
(dp1358
g61
(dp1359
g81
g82
ssg70
g1353
sg63
(lp1360
S'path_info'
p1361
asbag56
(g77
g58
NtRp1362
(dp1363
g61
(dp1364
g88
g89
ssg70
g1353
sg63
(lp1365
S':'
asbag56
(g77
g58
NtRp1366
(dp1367
g61
(dp1368
sg70
g1353
sg63
(lp1369
g56
(g57
g58
NtRp1370
(dp1371
g61
(dp1372
g69
I4
ssg70
g1366
sg63
(lp1373
S'/topoi/plugin_ajaxselect/set_widget.load/notes/author/10/authors/notes_author_loader'
p1374
asbasbasbag56
(g72
g58
NtRp1375
(dp1376
g61
(dp1377
sg70
g908
sg63
(lp1378
g56
(g77
g58
NtRp1379
(dp1380
g61
(dp1381
g81
g82
ssg70
g1375
sg63
(lp1382
S'query_string'
p1383
asbag56
(g77
g58
NtRp1384
(dp1385
g61
(dp1386
g88
g89
ssg70
g1375
sg63
(lp1387
S':'
asbag56
(g77
g58
NtRp1388
(dp1389
g61
(dp1390
sg70
g1375
sg63
(lp1391
g56
(g57
g58
NtRp1392
(dp1393
g61
(dp1394
g69
I4
ssg70
g1388
sg63
(lp1395
S''
asbasbasbag56
(g72
g58
NtRp1396
(dp1397
g61
(dp1398
sg70
g908
sg63
(lp1399
g56
(g77
g58
NtRp1400
(dp1401
g61
(dp1402
g81
g82
ssg70
g1396
sg63
(lp1403
S'remote_addr'
p1404
asbag56
(g77
g58
NtRp1405
(dp1406
g61
(dp1407
g88
g89
ssg70
g1396
sg63
(lp1408
S':'
asbag56
(g77
g58
NtRp1409
(dp1410
g61
(dp1411
sg70
g1396
sg63
(lp1412
g56
(g57
g58
NtRp1413
(dp1414
g61
(dp1415
g69
I4
ssg70
g1409
sg63
(lp1416
g276
asbasbasbag56
(g72
g58
NtRp1417
(dp1418
g61
(dp1419
sg70
g908
sg63
(lp1420
g56
(g77
g58
NtRp1421
(dp1422
g61
(dp1423
g81
g82
ssg70
g1417
sg63
(lp1424
S'remote_port'
p1425
asbag56
(g77
g58
NtRp1426
(dp1427
g61
(dp1428
g88
g89
ssg70
g1417
sg63
(lp1429
S':'
asbag56
(g77
g58
NtRp1430
(dp1431
g61
(dp1432
sg70
g1417
sg63
(lp1433
g56
(g57
g58
NtRp1434
(dp1435
g61
(dp1436
g69
I4
ssg70
g1430
sg63
(lp1437
S'60612'
p1438
asbasbasbag56
(g72
g58
NtRp1439
(dp1440
g61
(dp1441
sg70
g908
sg63
(lp1442
g56
(g77
g58
NtRp1443
(dp1444
g61
(dp1445
g81
g82
ssg70
g1439
sg63
(lp1446
S'request_method'
p1447
asbag56
(g77
g58
NtRp1448
(dp1449
g61
(dp1450
g88
g89
ssg70
g1439
sg63
(lp1451
S':'
asbag56
(g77
g58
NtRp1452
(dp1453
g61
(dp1454
sg70
g1439
sg63
(lp1455
g56
(g57
g58
NtRp1456
(dp1457
g61
(dp1458
g69
I4
ssg70
g1452
sg63
(lp1459
S'GET'
p1460
asbasbasbag56
(g72
g58
NtRp1461
(dp1462
g61
(dp1463
sg70
g908
sg63
(lp1464
g56
(g77
g58
NtRp1465
(dp1466
g61
(dp1467
g81
g82
ssg70
g1461
sg63
(lp1468
S'script_name'
p1469
asbag56
(g77
g58
NtRp1470
(dp1471
g61
(dp1472
g88
g89
ssg70
g1461
sg63
(lp1473
S':'
asbag56
(g77
g58
NtRp1474
(dp1475
g61
(dp1476
sg70
g1461
sg63
(lp1477
g56
(g57
g58
NtRp1478
(dp1479
g61
(dp1480
g69
I4
ssg70
g1474
sg63
(lp1481
S''
asbasbasbag56
(g72
g58
NtRp1482
(dp1483
g61
(dp1484
sg70
g908
sg63
(lp1485
g56
(g77
g58
NtRp1486
(dp1487
g61
(dp1488
g81
g82
ssg70
g1482
sg63
(lp1489
S'server_name'
p1490
asbag56
(g77
g58
NtRp1491
(dp1492
g61
(dp1493
g88
g89
ssg70
g1482
sg63
(lp1494
S':'
asbag56
(g77
g58
NtRp1495
(dp1496
g61
(dp1497
sg70
g1482
sg63
(lp1498
g56
(g57
g58
NtRp1499
(dp1500
g61
(dp1501
g69
I4
ssg70
g1495
sg63
(lp1502
S'uriel'
p1503
asbasbasbag56
(g72
g58
NtRp1504
(dp1505
g61
(dp1506
sg70
g908
sg63
(lp1507
g56
(g77
g58
NtRp1508
(dp1509
g61
(dp1510
g81
g82
ssg70
g1504
sg63
(lp1511
S'server_port'
p1512
asbag56
(g77
g58
NtRp1513
(dp1514
g61
(dp1515
g88
g89
ssg70
g1504
sg63
(lp1516
S':'
asbag56
(g77
g58
NtRp1517
(dp1518
g61
(dp1519
sg70
g1504
sg63
(lp1520
g56
(g57
g58
NtRp1521
(dp1522
g61
(dp1523
g69
I4
ssg70
g1517
sg63
(lp1524
S'8000'
p1525
asbasbasbag56
(g72
g58
NtRp1526
(dp1527
g61
(dp1528
sg70
g908
sg63
(lp1529
g56
(g77
g58
NtRp1530
(dp1531
g61
(dp1532
g81
g82
ssg70
g1526
sg63
(lp1533
S'server_protocol'
p1534
asbag56
(g77
g58
NtRp1535
(dp1536
g61
(dp1537
g88
g89
ssg70
g1526
sg63
(lp1538
S':'
asbag56
(g77
g58
NtRp1539
(dp1540
g61
(dp1541
sg70
g1526
sg63
(lp1542
g56
(g57
g58
NtRp1543
(dp1544
g61
(dp1545
g69
I4
ssg70
g1539
sg63
(lp1546
S'HTTP/1.1'
p1547
asbasbasbag56
(g72
g58
NtRp1548
(dp1549
g61
(dp1550
sg70
g908
sg63
(lp1551
g56
(g77
g58
NtRp1552
(dp1553
g61
(dp1554
g81
g82
ssg70
g1548
sg63
(lp1555
S'server_software'
p1556
asbag56
(g77
g58
NtRp1557
(dp1558
g61
(dp1559
g88
g89
ssg70
g1548
sg63
(lp1560
S':'
asbag56
(g77
g58
NtRp1561
(dp1562
g61
(dp1563
sg70
g1548
sg63
(lp1564
g56
(g57
g58
NtRp1565
(dp1566
g61
(dp1567
g69
I4
ssg70
g1561
sg63
(lp1568
S'Rocket 1.2.4'
p1569
asbasbasbag56
(g72
g58
NtRp1570
(dp1571
g61
(dp1572
sg70
g908
sg63
(lp1573
g56
(g77
g58
NtRp1574
(dp1575
g61
(dp1576
g81
g82
ssg70
g1570
sg63
(lp1577
S'web2py_crontype'
p1578
asbag56
(g77
g58
NtRp1579
(dp1580
g61
(dp1581
g88
g89
ssg70
g1570
sg63
(lp1582
S':'
asbag56
(g77
g58
NtRp1583
(dp1584
g61
(dp1585
sg70
g1570
sg63
(lp1586
g56
(g57
g58
NtRp1587
(dp1588
g61
(dp1589
g69
I4
ssg70
g1583
sg63
(lp1590
S'hard'
p1591
asbasbasbag56
(g72
g58
NtRp1592
(dp1593
g61
(dp1594
sg70
g908
sg63
(lp1595
g56
(g77
g58
NtRp1596
(dp1597
g61
(dp1598
g81
g82
ssg70
g1592
sg63
(lp1599
S'web2py_path'
p1600
asbag56
(g77
g58
NtRp1601
(dp1602
g61
(dp1603
g88
g89
ssg70
g1592
sg63
(lp1604
S':'
asbag56
(g77
g58
NtRp1605
(dp1606
g61
(dp1607
sg70
g1592
sg63
(lp1608
g56
(g57
g58
NtRp1609
(dp1610
g61
(dp1611
g69
I4
ssg70
g1605
sg63
(lp1612
g955
asbasbasbag56
(g72
g58
NtRp1613
(dp1614
g61
(dp1615
sg70
g908
sg63
(lp1616
g56
(g77
g58
NtRp1617
(dp1618
g61
(dp1619
g81
g82
ssg70
g1613
sg63
(lp1620
S'web2py_version'
p1621
asbag56
(g77
g58
NtRp1622
(dp1623
g61
(dp1624
g88
g89
ssg70
g1613
sg63
(lp1625
S':'
asbag56
(g77
g58
NtRp1626
(dp1627
g61
(dp1628
sg70
g1613
sg63
(lp1629
g56
(g57
g58
NtRp1630
(dp1631
g61
(dp1632
g69
I4
ssg70
g1626
sg63
(lp1633
g56
(g65
g58
NtRp1634
(dp1635
g61
(dp1636
g69
I3
ssg70
Nsg63
(lp1637
g56
(g72
g58
NtRp1638
(dp1639
g61
(dp1640
sg70
g1634
sg63
(lp1641
g56
(g77
g58
NtRp1642
(dp1643
g61
(dp1644
sg70
g1638
sg63
(lp1645
g56
(g57
g58
NtRp1646
(dp1647
g61
(dp1648
g69
I3
ssg70
g1642
sg63
(lp1649
S'1'
asbasbasbag56
(g72
g58
NtRp1650
(dp1651
g61
(dp1652
sg70
g1634
sg63
(lp1653
g56
(g77
g58
NtRp1654
(dp1655
g61
(dp1656
sg70
g1650
sg63
(lp1657
g56
(g57
g58
NtRp1658
(dp1659
g61
(dp1660
g69
I3
ssg70
g1654
sg63
(lp1661
S'99'
p1662
asbasbasbag56
(g72
g58
NtRp1663
(dp1664
g61
(dp1665
sg70
g1634
sg63
(lp1666
g56
(g77
g58
NtRp1667
(dp1668
g61
(dp1669
sg70
g1663
sg63
(lp1670
g56
(g57
g58
NtRp1671
(dp1672
g61
(dp1673
g69
I3
ssg70
g1667
sg63
(lp1674
S'2'
asbasbasbag56
(g72
g58
NtRp1675
(dp1676
g61
(dp1677
sg70
g1634
sg63
(lp1678
g56
(g77
g58
NtRp1679
(dp1680
g61
(dp1681
sg70
g1675
sg63
(lp1682
g56
(g57
g58
NtRp1683
(dp1684
g61
(dp1685
g69
I3
ssg70
g1679
sg63
(lp1686
S'datetime.datetime(2011, 9, 26, 6, 55, 33)'
p1687
asbasbasbag56
(g72
g58
NtRp1688
(dp1689
g61
(dp1690
sg70
g1634
sg63
(lp1691
g56
(g77
g58
NtRp1692
(dp1693
g61
(dp1694
sg70
g1688
sg63
(lp1695
g56
(g57
g58
NtRp1696
(dp1697
g61
(dp1698
g69
I3
ssg70
g1692
sg63
(lp1699
S'stable'
p1700
asbasbasbasbasbasbasbag56
(g72
g58
NtRp1701
(dp1702
g61
(dp1703
sg70
g908
sg63
(lp1704
g56
(g77
g58
NtRp1705
(dp1706
g61
(dp1707
g81
g82
ssg70
g1701
sg63
(lp1708
S'wsgi_errors'
p1709
asbag56
(g77
g58
NtRp1710
(dp1711
g61
(dp1712
g88
g89
ssg70
g1701
sg63
(lp1713
S':'
asbag56
(g77
g58
NtRp1714
(dp1715
g61
(dp1716
sg70
g1701
sg63
(lp1717
g56
(g57
g58
NtRp1718
(dp1719
g61
(dp1720
g69
I4
ssg70
g1714
sg63
(lp1721
S"<open file '<stderr>', mode 'w' at 0x7fe34af65270>"
p1722
asbasbasbag56
(g72
g58
NtRp1723
(dp1724
g61
(dp1725
sg70
g908
sg63
(lp1726
g56
(g77
g58
NtRp1727
(dp1728
g61
(dp1729
g81
g82
ssg70
g1723
sg63
(lp1730
S'wsgi_file_wrapper'
p1731
asbag56
(g77
g58
NtRp1732
(dp1733
g61
(dp1734
g88
g89
ssg70
g1723
sg63
(lp1735
S':'
asbag56
(g77
g58
NtRp1736
(dp1737
g61
(dp1738
sg70
g1723
sg63
(lp1739
g56
(g57
g58
NtRp1740
(dp1741
g61
(dp1742
g69
I4
ssg70
g1736
sg63
(lp1743
S'<class wsgiref.util.FileWrapper at 0x2a8a870>'
p1744
asbasbasbag56
(g72
g58
NtRp1745
(dp1746
g61
(dp1747
sg70
g908
sg63
(lp1748
g56
(g77
g58
NtRp1749
(dp1750
g61
(dp1751
g81
g82
ssg70
g1745
sg63
(lp1752
S'wsgi_input'
p1753
asbag56
(g77
g58
NtRp1754
(dp1755
g61
(dp1756
g88
g89
ssg70
g1745
sg63
(lp1757
S':'
asbag56
(g77
g58
NtRp1758
(dp1759
g61
(dp1760
sg70
g1745
sg63
(lp1761
g56
(g57
g58
NtRp1762
(dp1763
g61
(dp1764
g69
I4
ssg70
g1758
sg63
(lp1765
S'<socket._fileobject object at 0x32e69d0>'
p1766
asbasbasbag56
(g72
g58
NtRp1767
(dp1768
g61
(dp1769
sg70
g908
sg63
(lp1770
g56
(g77
g58
NtRp1771
(dp1772
g61
(dp1773
g81
g82
ssg70
g1767
sg63
(lp1774
S'wsgi_multiprocess'
p1775
asbag56
(g77
g58
NtRp1776
(dp1777
g61
(dp1778
g88
g89
ssg70
g1767
sg63
(lp1779
S':'
asbag56
(g77
g58
NtRp1780
(dp1781
g61
(dp1782
sg70
g1767
sg63
(lp1783
g56
(g57
g58
NtRp1784
(dp1785
g61
(dp1786
g69
I4
ssg70
g1780
sg63
(lp1787
g1046
asbasbasbag56
(g72
g58
NtRp1788
(dp1789
g61
(dp1790
sg70
g908
sg63
(lp1791
g56
(g77
g58
NtRp1792
(dp1793
g61
(dp1794
g81
g82
ssg70
g1788
sg63
(lp1795
S'wsgi_multithread'
p1796
asbag56
(g77
g58
NtRp1797
(dp1798
g61
(dp1799
g88
g89
ssg70
g1788
sg63
(lp1800
S':'
asbag56
(g77
g58
NtRp1801
(dp1802
g61
(dp1803
sg70
g1788
sg63
(lp1804
g56
(g57
g58
NtRp1805
(dp1806
g61
(dp1807
g69
I4
ssg70
g1801
sg63
(lp1808
g99
asbasbasbag56
(g72
g58
NtRp1809
(dp1810
g61
(dp1811
sg70
g908
sg63
(lp1812
g56
(g77
g58
NtRp1813
(dp1814
g61
(dp1815
g81
g82
ssg70
g1809
sg63
(lp1816
S'wsgi_run_once'
p1817
asbag56
(g77
g58
NtRp1818
(dp1819
g61
(dp1820
g88
g89
ssg70
g1809
sg63
(lp1821
S':'
asbag56
(g77
g58
NtRp1822
(dp1823
g61
(dp1824
sg70
g1809
sg63
(lp1825
g56
(g57
g58
NtRp1826
(dp1827
g61
(dp1828
g69
I4
ssg70
g1822
sg63
(lp1829
g1046
asbasbasbag56
(g72
g58
NtRp1830
(dp1831
g61
(dp1832
sg70
g908
sg63
(lp1833
g56
(g77
g58
NtRp1834
(dp1835
g61
(dp1836
g81
g82
ssg70
g1830
sg63
(lp1837
S'wsgi_url_scheme'
p1838
asbag56
(g77
g58
NtRp1839
(dp1840
g61
(dp1841
g88
g89
ssg70
g1830
sg63
(lp1842
S':'
asbag56
(g77
g58
NtRp1843
(dp1844
g61
(dp1845
sg70
g1830
sg63
(lp1846
g56
(g57
g58
NtRp1847
(dp1848
g61
(dp1849
g69
I4
ssg70
g1843
sg63
(lp1850
S'http'
p1851
asbasbasbag56
(g72
g58
NtRp1852
(dp1853
g61
(dp1854
sg70
g908
sg63
(lp1855
g56
(g77
g58
NtRp1856
(dp1857
g61
(dp1858
g81
g82
ssg70
g1852
sg63
(lp1859
S'wsgi_version'
p1860
asbag56
(g77
g58
NtRp1861
(dp1862
g61
(dp1863
g88
g89
ssg70
g1852
sg63
(lp1864
S':'
asbag56
(g77
g58
NtRp1865
(dp1866
g61
(dp1867
sg70
g1852
sg63
(lp1868
g56
(g57
g58
NtRp1869
(dp1870
g61
(dp1871
g69
I4
ssg70
g1865
sg63
(lp1872
g56
(g65
g58
NtRp1873
(dp1874
g61
(dp1875
g69
I3
ssg70
Nsg63
(lp1876
g56
(g72
g58
NtRp1877
(dp1878
g61
(dp1879
sg70
g1873
sg63
(lp1880
g56
(g77
g58
NtRp1881
(dp1882
g61
(dp1883
sg70
g1877
sg63
(lp1884
g56
(g57
g58
NtRp1885
(dp1886
g61
(dp1887
g69
I3
ssg70
g1881
sg63
(lp1888
S'1'
asbasbasbag56
(g72
g58
NtRp1889
(dp1890
g61
(dp1891
sg70
g1873
sg63
(lp1892
g56
(g77
g58
NtRp1893
(dp1894
g61
(dp1895
sg70
g1889
sg63
(lp1896
g56
(g57
g58
NtRp1897
(dp1898
g61
(dp1899
g69
I3
ssg70
g1893
sg63
(lp1900
S'0'
asbasbasbasbasbasbasbasbasbasbasbag56
(g72
g58
NtRp1901
(dp1902
g61
(dp1903
sg70
g66
sg63
(lp1904
g56
(g77
g58
NtRp1905
(dp1906
g61
(dp1907
g81
g82
ssg70
g1901
sg63
(lp1908
S'extension'
p1909
asbag56
(g77
g58
NtRp1910
(dp1911
g61
(dp1912
g88
g89
ssg70
g1901
sg63
(lp1913
S':'
asbag56
(g77
g58
NtRp1914
(dp1915
g61
(dp1916
sg70
g1901
sg63
(lp1917
g56
(g57
g58
NtRp1918
(dp1919
g61
(dp1920
g69
I5
ssg70
g1914
sg63
(lp1921
S'load'
p1922
asbasbasbag56
(g72
g58
NtRp1923
(dp1924
g61
(dp1925
sg70
g66
sg63
(lp1926
g56
(g77
g58
NtRp1927
(dp1928
g61
(dp1929
g81
g82
ssg70
g1923
sg63
(lp1930
S'folder'
p1931
asbag56
(g77
g58
NtRp1932
(dp1933
g61
(dp1934
g88
g89
ssg70
g1923
sg63
(lp1935
S':'
asbag56
(g77
g58
NtRp1936
(dp1937
g61
(dp1938
sg70
g1923
sg63
(lp1939
g56
(g57
g58
NtRp1940
(dp1941
g61
(dp1942
g69
I5
ssg70
g1936
sg63
(lp1943
S'/home/ian/web2py/applications/topoi/'
p1944
asbasbasbag56
(g72
g58
NtRp1945
(dp1946
g61
(dp1947
sg70
g66
sg63
(lp1948
g56
(g77
g58
NtRp1949
(dp1950
g61
(dp1951
g81
g82
ssg70
g1945
sg63
(lp1952
S'function'
p1953
asbag56
(g77
g58
NtRp1954
(dp1955
g61
(dp1956
g88
g89
ssg70
g1945
sg63
(lp1957
S':'
asbag56
(g77
g58
NtRp1958
(dp1959
g61
(dp1960
sg70
g1945
sg63
(lp1961
g56
(g57
g58
NtRp1962
(dp1963
g61
(dp1964
g69
I5
ssg70
g1958
sg63
(lp1965
S'set_widget'
p1966
asbasbasbag56
(g72
g58
NtRp1967
(dp1968
g61
(dp1969
sg70
g66
sg63
(lp1970
g56
(g77
g58
NtRp1971
(dp1972
g61
(dp1973
g81
g82
ssg70
g1967
sg63
(lp1974
S'get_vars'
p1975
asbag56
(g77
g58
NtRp1976
(dp1977
g61
(dp1978
g88
g89
ssg70
g1967
sg63
(lp1979
S':'
asbag56
(g77
g58
NtRp1980
(dp1981
g61
(dp1982
sg70
g1967
sg63
(lp1983
g56
(g57
g58
NtRp1984
(dp1985
g61
(dp1986
g69
I5
ssg70
g1980
sg63
(lp1987
g56
(g65
g58
NtRp1988
(dp1989
g61
(dp1990
g69
I4
ssg70
Nsg63
(lp1991
sbasbasbasbag56
(g72
g58
NtRp1992
(dp1993
g61
(dp1994
sg70
g66
sg63
(lp1995
g56
(g77
g58
NtRp1996
(dp1997
g61
(dp1998
g81
g82
ssg70
g1992
sg63
(lp1999
S'global_settings'
p2000
asbag56
(g77
g58
NtRp2001
(dp2002
g61
(dp2003
g88
g89
ssg70
g1992
sg63
(lp2004
S':'
asbag56
(g77
g58
NtRp2005
(dp2006
g61
(dp2007
sg70
g1992
sg63
(lp2008
g56
(g57
g58
NtRp2009
(dp2010
g61
(dp2011
g69
I5
ssg70
g2005
sg63
(lp2012
g56
(g65
g58
NtRp2013
(dp2014
g61
(dp2015
g69
I4
ssg70
Nsg63
(lp2016
g56
(g72
g58
NtRp2017
(dp2018
g61
(dp2019
sg70
g2013
sg63
(lp2020
g56
(g77
g58
NtRp2021
(dp2022
g61
(dp2023
g81
g82
ssg70
g2017
sg63
(lp2024
g920
asbag56
(g77
g58
NtRp2025
(dp2026
g61
(dp2027
g88
g89
ssg70
g2017
sg63
(lp2028
S':'
asbag56
(g77
g58
NtRp2029
(dp2030
g61
(dp2031
sg70
g2017
sg63
(lp2032
g56
(g57
g58
NtRp2033
(dp2034
g61
(dp2035
g69
I4
ssg70
g2029
sg63
(lp2036
S"set(['/home/ian/web2py/applications/topoi/', '/home/ian/web2py/applications/welcome/', '/home/ian/web2py/applications/admin/'])"
p2037
asbasbasbag56
(g72
g58
NtRp2038
(dp2039
g61
(dp2040
sg70
g2013
sg63
(lp2041
g56
(g77
g58
NtRp2042
(dp2043
g61
(dp2044
g81
g82
ssg70
g2038
sg63
(lp2045
g942
asbag56
(g77
g58
NtRp2046
(dp2047
g61
(dp2048
g88
g89
ssg70
g2038
sg63
(lp2049
S':'
asbag56
(g77
g58
NtRp2050
(dp2051
g61
(dp2052
sg70
g2038
sg63
(lp2053
g56
(g57
g58
NtRp2054
(dp2055
g61
(dp2056
g69
I4
ssg70
g2050
sg63
(lp2057
g955
asbasbasbag56
(g72
g58
NtRp2058
(dp2059
g61
(dp2060
sg70
g2013
sg63
(lp2061
g56
(g77
g58
NtRp2062
(dp2063
g61
(dp2064
g81
g82
ssg70
g2058
sg63
(lp2065
g964
asbag56
(g77
g58
NtRp2066
(dp2067
g61
(dp2068
g88
g89
ssg70
g2058
sg63
(lp2069
S':'
asbag56
(g77
g58
NtRp2070
(dp2071
g61
(dp2072
sg70
g2058
sg63
(lp2073
g56
(g57
g58
NtRp2074
(dp2075
g61
(dp2076
g69
I4
ssg70
g2070
sg63
(lp2077
g56
(g65
g58
NtRp2078
(dp2079
g61
(dp2080
g69
I3
ssg70
Nsg63
(lp2081
sbasbasbasbag56
(g72
g58
NtRp2082
(dp2083
g61
(dp2084
sg70
g2013
sg63
(lp2085
g56
(g77
g58
NtRp2086
(dp2087
g61
(dp2088
g81
g82
ssg70
g2082
sg63
(lp2089
g989
asbag56
(g77
g58
NtRp2090
(dp2091
g61
(dp2092
g88
g89
ssg70
g2082
sg63
(lp2093
S':'
asbag56
(g77
g58
NtRp2094
(dp2095
g61
(dp2096
sg70
g2082
sg63
(lp2097
g56
(g57
g58
NtRp2098
(dp2099
g61
(dp2100
g69
I4
ssg70
g2094
sg63
(lp2101
S"<Values at 0x2bbf758: {'verbose': False, 'ip': '127.0.0.1', 'shutdown_timeout': 5, 'taskbar': False, 'nocron': False, 'pid_filename': 'httpserver.pid', 'maxthreads': None, 'softcron': False, 'server_name': 'uriel', 'bpython': False, 'nogui': False, 'port': 8000, 'extcron': False, 'debuglevel': 30, 'test': None, 'folder': '/home/ian/web2py', 'config': '', 'import_models': False, 'winservice': '', 'shell': None, 'run': '', 'log_filename': 'httpserver.log', 'args': [''], 'ssl_ca_certificate': None, 'scheduler': None, 'profiler_filename': None, 'ssl_private_key': '', 'password': '<ask>', 'request_queue_size': 5, 'ssl_certificate': '', 'cronjob': False, 'plain': False, 'quiet': False, 'interfaces': None, 'minthreads': None, 'timeout': 10, 'numthreads': None, 'nobanner': False}>"
p2102
asbasbasbag56
(g72
g58
NtRp2103
(dp2104
g61
(dp2105
sg70
g2013
sg63
(lp2106
g56
(g77
g58
NtRp2107
(dp2108
g61
(dp2109
g81
g82
ssg70
g2103
sg63
(lp2110
g1011
asbag56
(g77
g58
NtRp2111
(dp2112
g61
(dp2113
g88
g89
ssg70
g2103
sg63
(lp2114
S':'
asbag56
(g77
g58
NtRp2115
(dp2116
g61
(dp2117
sg70
g2103
sg63
(lp2118
g56
(g57
g58
NtRp2119
(dp2120
g61
(dp2121
g69
I4
ssg70
g2115
sg63
(lp2122
S'set([])'
p2123
asbasbasbag56
(g72
g58
NtRp2124
(dp2125
g61
(dp2126
sg70
g2013
sg63
(lp2127
g56
(g77
g58
NtRp2128
(dp2129
g61
(dp2130
g81
g82
ssg70
g2124
sg63
(lp2131
g1033
asbag56
(g77
g58
NtRp2132
(dp2133
g61
(dp2134
g88
g89
ssg70
g2124
sg63
(lp2135
S':'
asbag56
(g77
g58
NtRp2136
(dp2137
g61
(dp2138
sg70
g2124
sg63
(lp2139
g56
(g57
g58
NtRp2140
(dp2141
g61
(dp2142
g69
I4
ssg70
g2136
sg63
(lp2143
g1046
asbasbasbag56
(g72
g58
NtRp2144
(dp2145
g61
(dp2146
sg70
g2013
sg63
(lp2147
g56
(g77
g58
NtRp2148
(dp2149
g61
(dp2150
g81
g82
ssg70
g2144
sg63
(lp2151
g1055
asbag56
(g77
g58
NtRp2152
(dp2153
g61
(dp2154
g88
g89
ssg70
g2144
sg63
(lp2155
S':'
asbag56
(g77
g58
NtRp2156
(dp2157
g61
(dp2158
sg70
g2144
sg63
(lp2159
g56
(g57
g58
NtRp2160
(dp2161
g61
(dp2162
g69
I4
ssg70
g2156
sg63
(lp2163
g1068
asbasbasbag56
(g72
g58
NtRp2164
(dp2165
g61
(dp2166
sg70
g2013
sg63
(lp2167
g56
(g77
g58
NtRp2168
(dp2169
g61
(dp2170
g81
g82
ssg70
g2164
sg63
(lp2171
g1340
asbag56
(g77
g58
NtRp2172
(dp2173
g61
(dp2174
g88
g89
ssg70
g2164
sg63
(lp2175
S':'
asbag56
(g77
g58
NtRp2176
(dp2177
g61
(dp2178
sg70
g2164
sg63
(lp2179
g56
(g57
g58
NtRp2180
(dp2181
g61
(dp2182
g69
I4
ssg70
g2176
sg63
(lp2183
g1046
asbasbasbag56
(g72
g58
NtRp2184
(dp2185
g61
(dp2186
sg70
g2013
sg63
(lp2187
g56
(g77
g58
NtRp2188
(dp2189
g61
(dp2190
g81
g82
ssg70
g2184
sg63
(lp2191
g1578
asbag56
(g77
g58
NtRp2192
(dp2193
g61
(dp2194
g88
g89
ssg70
g2184
sg63
(lp2195
S':'
asbag56
(g77
g58
NtRp2196
(dp2197
g61
(dp2198
sg70
g2184
sg63
(lp2199
g56
(g57
g58
NtRp2200
(dp2201
g61
(dp2202
g69
I4
ssg70
g2196
sg63
(lp2203
g1591
asbasbasbag56
(g72
g58
NtRp2204
(dp2205
g61
(dp2206
sg70
g2013
sg63
(lp2207
g56
(g77
g58
NtRp2208
(dp2209
g61
(dp2210
g81
g82
ssg70
g2204
sg63
(lp2211
g1621
asbag56
(g77
g58
NtRp2212
(dp2213
g61
(dp2214
g88
g89
ssg70
g2204
sg63
(lp2215
S':'
asbag56
(g77
g58
NtRp2216
(dp2217
g61
(dp2218
sg70
g2204
sg63
(lp2219
g56
(g57
g58
NtRp2220
(dp2221
g61
(dp2222
g69
I4
ssg70
g2216
sg63
(lp2223
g56
(g65
g58
NtRp2224
(dp2225
g61
(dp2226
g69
I3
ssg70
Nsg63
(lp2227
g56
(g72
g58
NtRp2228
(dp2229
g61
(dp2230
sg70
g2224
sg63
(lp2231
g56
(g77
g58
NtRp2232
(dp2233
g61
(dp2234
sg70
g2228
sg63
(lp2235
g56
(g57
g58
NtRp2236
(dp2237
g61
(dp2238
g69
I3
ssg70
g2232
sg63
(lp2239
S'1'
asbasbasbag56
(g72
g58
NtRp2240
(dp2241
g61
(dp2242
sg70
g2224
sg63
(lp2243
g56
(g77
g58
NtRp2244
(dp2245
g61
(dp2246
sg70
g2240
sg63
(lp2247
g56
(g57
g58
NtRp2248
(dp2249
g61
(dp2250
g69
I3
ssg70
g2244
sg63
(lp2251
S'99'
p2252
asbasbasbag56
(g72
g58
NtRp2253
(dp2254
g61
(dp2255
sg70
g2224
sg63
(lp2256
g56
(g77
g58
NtRp2257
(dp2258
g61
(dp2259
sg70
g2253
sg63
(lp2260
g56
(g57
g58
NtRp2261
(dp2262
g61
(dp2263
g69
I3
ssg70
g2257
sg63
(lp2264
S'2'
asbasbasbag56
(g72
g58
NtRp2265
(dp2266
g61
(dp2267
sg70
g2224
sg63
(lp2268
g56
(g77
g58
NtRp2269
(dp2270
g61
(dp2271
sg70
g2265
sg63
(lp2272
g56
(g57
g58
NtRp2273
(dp2274
g61
(dp2275
g69
I3
ssg70
g2269
sg63
(lp2276
S'datetime.datetime(2011, 9, 26, 6, 55, 33)'
p2277
asbasbasbag56
(g72
g58
NtRp2278
(dp2279
g61
(dp2280
sg70
g2224
sg63
(lp2281
g56
(g77
g58
NtRp2282
(dp2283
g61
(dp2284
sg70
g2278
sg63
(lp2285
g56
(g57
g58
NtRp2286
(dp2287
g61
(dp2288
g69
I3
ssg70
g2282
sg63
(lp2289
g1700
asbasbasbasbasbasbasbasbasbasbasbag56
(g72
g58
NtRp2290
(dp2291
g61
(dp2292
sg70
g66
sg63
(lp2293
g56
(g77
g58
NtRp2294
(dp2295
g61
(dp2296
g81
g82
ssg70
g2290
sg63
(lp2297
S'is_https'
p2298
asbag56
(g77
g58
NtRp2299
(dp2300
g61
(dp2301
g88
g89
ssg70
g2290
sg63
(lp2302
S':'
asbag56
(g77
g58
NtRp2303
(dp2304
g61
(dp2305
sg70
g2290
sg63
(lp2306
g56
(g57
g58
NtRp2307
(dp2308
g61
(dp2309
g69
I5
ssg70
g2303
sg63
(lp2310
g1046
asbasbasbag56
(g72
g58
NtRp2311
(dp2312
g61
(dp2313
sg70
g66
sg63
(lp2314
g56
(g77
g58
NtRp2315
(dp2316
g61
(dp2317
g81
g82
ssg70
g2311
sg63
(lp2318
S'is_local'
p2319
asbag56
(g77
g58
NtRp2320
(dp2321
g61
(dp2322
g88
g89
ssg70
g2311
sg63
(lp2323
S':'
asbag56
(g77
g58
NtRp2324
(dp2325
g61
(dp2326
sg70
g2311
sg63
(lp2327
g56
(g57
g58
NtRp2328
(dp2329
g61
(dp2330
g69
I5
ssg70
g2324
sg63
(lp2331
g99
asbasbasbag56
(g72
g58
NtRp2332
(dp2333
g61
(dp2334
sg70
g66
sg63
(lp2335
g56
(g77
g58
NtRp2336
(dp2337
g61
(dp2338
g81
g82
ssg70
g2332
sg63
(lp2339
S'is_restful'
p2340
asbag56
(g77
g58
NtRp2341
(dp2342
g61
(dp2343
g88
g89
ssg70
g2332
sg63
(lp2344
S':'
asbag56
(g77
g58
NtRp2345
(dp2346
g61
(dp2347
sg70
g2332
sg63
(lp2348
g56
(g57
g58
NtRp2349
(dp2350
g61
(dp2351
g69
I5
ssg70
g2345
sg63
(lp2352
g1046
asbasbasbag56
(g72
g58
NtRp2353
(dp2354
g61
(dp2355
sg70
g66
sg63
(lp2356
g56
(g77
g58
NtRp2357
(dp2358
g61
(dp2359
g81
g82
ssg70
g2353
sg63
(lp2360
S'now'
p2361
asbag56
(g77
g58
NtRp2362
(dp2363
g61
(dp2364
g88
g89
ssg70
g2353
sg63
(lp2365
S':'
asbag56
(g77
g58
NtRp2366
(dp2367
g61
(dp2368
sg70
g2353
sg63
(lp2369
g56
(g57
g58
NtRp2370
(dp2371
g61
(dp2372
g69
I5
ssg70
g2366
sg63
(lp2373
S'datetime.datetime(2011, 12, 18, 23, 12, 9, 627408)'
p2374
asbasbasbag56
(g72
g58
NtRp2375
(dp2376
g61
(dp2377
sg70
g66
sg63
(lp2378
g56
(g77
g58
NtRp2379
(dp2380
g61
(dp2381
g81
g82
ssg70
g2375
sg63
(lp2382
S'post_vars'
p2383
asbag56
(g77
g58
NtRp2384
(dp2385
g61
(dp2386
g88
g89
ssg70
g2375
sg63
(lp2387
S':'
asbag56
(g77
g58
NtRp2388
(dp2389
g61
(dp2390
sg70
g2375
sg63
(lp2391
g56
(g57
g58
NtRp2392
(dp2393
g61
(dp2394
g69
I5
ssg70
g2388
sg63
(lp2395
g56
(g65
g58
NtRp2396
(dp2397
g61
(dp2398
g69
I4
ssg70
Nsg63
(lp2399
sbasbasbasbag56
(g72
g58
NtRp2400
(dp2401
g61
(dp2402
sg70
g66
sg63
(lp2403
g56
(g77
g58
NtRp2404
(dp2405
g61
(dp2406
g81
g82
ssg70
g2400
sg63
(lp2407
S'raw_args'
p2408
asbag56
(g77
g58
NtRp2409
(dp2410
g61
(dp2411
g88
g89
ssg70
g2400
sg63
(lp2412
S':'
asbag56
(g77
g58
NtRp2413
(dp2414
g61
(dp2415
sg70
g2400
sg63
(lp2416
g56
(g57
g58
NtRp2417
(dp2418
g61
(dp2419
g69
I5
ssg70
g2413
sg63
(lp2420
S'notes/author/10/authors/notes_author_loader'
p2421
asbasbasbag56
(g72
g58
NtRp2422
(dp2423
g61
(dp2424
sg70
g66
sg63
(lp2425
g56
(g77
g58
NtRp2426
(dp2427
g61
(dp2428
g81
g82
ssg70
g2422
sg63
(lp2429
S'raw_extension'
p2430
asbag56
(g77
g58
NtRp2431
(dp2432
g61
(dp2433
g88
g89
ssg70
g2422
sg63
(lp2434
S':'
asbag56
(g77
g58
NtRp2435
(dp2436
g61
(dp2437
sg70
g2422
sg63
(lp2438
g56
(g57
g58
NtRp2439
(dp2440
g61
(dp2441
g69
I5
ssg70
g2435
sg63
(lp2442
g1922
asbasbasbag56
(g72
g58
NtRp2443
(dp2444
g61
(dp2445
sg70
g66
sg63
(lp2446
g56
(g77
g58
NtRp2447
(dp2448
g61
(dp2449
g81
g82
ssg70
g2443
sg63
(lp2450
S'url'
p2451
asbag56
(g77
g58
NtRp2452
(dp2453
g61
(dp2454
g88
g89
ssg70
g2443
sg63
(lp2455
S':'
asbag56
(g77
g58
NtRp2456
(dp2457
g61
(dp2458
sg70
g2443
sg63
(lp2459
g56
(g57
g58
NtRp2460
(dp2461
g61
(dp2462
g69
I5
ssg70
g2456
sg63
(lp2463
S'/topoi/plugin_ajaxselect/set_widget.load/notes/author/10/authors/notes_author_loader'
p2464
asbasbasbag56
(g72
g58
NtRp2465
(dp2466
g61
(dp2467
sg70
g66
sg63
(lp2468
g56
(g77
g58
NtRp2469
(dp2470
g61
(dp2471
g81
g82
ssg70
g2465
sg63
(lp2472
S'utcnow'
p2473
asbag56
(g77
g58
NtRp2474
(dp2475
g61
(dp2476
g88
g89
ssg70
g2465
sg63
(lp2477
S':'
asbag56
(g77
g58
NtRp2478
(dp2479
g61
(dp2480
sg70
g2465
sg63
(lp2481
g56
(g57
g58
NtRp2482
(dp2483
g61
(dp2484
g69
I5
ssg70
g2478
sg63
(lp2485
S'datetime.datetime(2011, 12, 19, 4, 12, 9, 627457)'
p2486
asbasbasbag56
(g72
g58
NtRp2487
(dp2488
g61
(dp2489
sg70
g66
sg63
(lp2490
g56
(g77
g58
NtRp2491
(dp2492
g61
(dp2493
g81
g82
ssg70
g2487
sg63
(lp2494
S'uuid'
p2495
asbag56
(g77
g58
NtRp2496
(dp2497
g61
(dp2498
g88
g89
ssg70
g2487
sg63
(lp2499
S':'
asbag56
(g77
g58
NtRp2500
(dp2501
g61
(dp2502
sg70
g2487
sg63
(lp2503
g56
(g57
g58
NtRp2504
(dp2505
g61
(dp2506
g69
I5
ssg70
g2500
sg63
(lp2507
S'topoi/127.0.0.1.2011-12-18.23-12-09.082ab31c-5538-4625-a2a1-febcfd302bbd'
p2508
asbasbasbag56
(g72
g58
NtRp2509
(dp2510
g61
(dp2511
sg70
g66
sg63
(lp2512
g56
(g77
g58
NtRp2513
(dp2514
g61
(dp2515
g81
g82
ssg70
g2509
sg63
(lp2516
S'vars'
p2517
asbag56
(g77
g58
NtRp2518
(dp2519
g61
(dp2520
g88
g89
ssg70
g2509
sg63
(lp2521
S':'
asbag56
(g77
g58
NtRp2522
(dp2523
g61
(dp2524
sg70
g2509
sg63
(lp2525
g56
(g57
g58
NtRp2526
(dp2527
g61
(dp2528
g69
I5
ssg70
g2522
sg63
(lp2529
g56
(g65
g58
NtRp2530
(dp2531
g61
(dp2532
g69
I4
ssg70
Nsg63
(lp2533
sbasbasbasbag56
(g72
g58
NtRp2534
(dp2535
g61
(dp2536
sg70
g66
sg63
(lp2537
g56
(g77
g58
NtRp2538
(dp2539
g61
(dp2540
g81
g82
ssg70
g2534
sg63
(lp2541
S'wsgi'
p2542
asbag56
(g77
g58
NtRp2543
(dp2544
g61
(dp2545
g88
g89
ssg70
g2534
sg63
(lp2546
S':'
asbag56
(g77
g58
NtRp2547
(dp2548
g61
(dp2549
sg70
g2534
sg63
(lp2550
g56
(g57
g58
NtRp2551
(dp2552
g61
(dp2553
g69
I5
ssg70
g2547
sg63
(lp2554
g56
(g65
g58
NtRp2555
(dp2556
g61
(dp2557
g69
I4
ssg70
Nsg63
(lp2558
g56
(g72
g58
NtRp2559
(dp2560
g61
(dp2561
sg70
g2555
sg63
(lp2562
g56
(g77
g58
NtRp2563
(dp2564
g61
(dp2565
g81
g82
ssg70
g2559
sg63
(lp2566
S'environ'
p2567
asbag56
(g77
g58
NtRp2568
(dp2569
g61
(dp2570
g88
g89
ssg70
g2559
sg63
(lp2571
S':'
asbag56
(g77
g58
NtRp2572
(dp2573
g61
(dp2574
sg70
g2559
sg63
(lp2575
g56
(g57
g58
NtRp2576
(dp2577
g61
(dp2578
g69
I4
ssg70
g2572
sg63
(lp2579
g56
(g65
g58
NtRp2580
(dp2581
g61
(dp2582
g69
I3
ssg70
Nsg63
(lp2583
g56
(g72
g58
NtRp2584
(dp2585
g61
(dp2586
sg70
g2580
sg63
(lp2587
g56
(g77
g58
NtRp2588
(dp2589
g61
(dp2590
g81
g82
ssg70
g2584
sg63
(lp2591
S'HTTP_ACCEPT'
p2592
asbag56
(g77
g58
NtRp2593
(dp2594
g61
(dp2595
g88
g89
ssg70
g2584
sg63
(lp2596
S':'
asbag56
(g77
g58
NtRp2597
(dp2598
g61
(dp2599
sg70
g2584
sg63
(lp2600
g56
(g57
g58
NtRp2601
(dp2602
g61
(dp2603
g69
I3
ssg70
g2597
sg63
(lp2604
g1090
asbasbasbag56
(g72
g58
NtRp2605
(dp2606
g61
(dp2607
sg70
g2580
sg63
(lp2608
g56
(g77
g58
NtRp2609
(dp2610
g61
(dp2611
g81
g82
ssg70
g2605
sg63
(lp2612
S'HTTP_ACCEPT_CHARSET'
p2613
asbag56
(g77
g58
NtRp2614
(dp2615
g61
(dp2616
g88
g89
ssg70
g2605
sg63
(lp2617
S':'
asbag56
(g77
g58
NtRp2618
(dp2619
g61
(dp2620
sg70
g2605
sg63
(lp2621
g56
(g57
g58
NtRp2622
(dp2623
g61
(dp2624
g69
I3
ssg70
g2618
sg63
(lp2625
g1112
asbasbasbag56
(g72
g58
NtRp2626
(dp2627
g61
(dp2628
sg70
g2580
sg63
(lp2629
g56
(g77
g58
NtRp2630
(dp2631
g61
(dp2632
g81
g82
ssg70
g2626
sg63
(lp2633
S'HTTP_ACCEPT_ENCODING'
p2634
asbag56
(g77
g58
NtRp2635
(dp2636
g61
(dp2637
g88
g89
ssg70
g2626
sg63
(lp2638
S':'
asbag56
(g77
g58
NtRp2639
(dp2640
g61
(dp2641
sg70
g2626
sg63
(lp2642
g56
(g57
g58
NtRp2643
(dp2644
g61
(dp2645
g69
I3
ssg70
g2639
sg63
(lp2646
g1134
asbasbasbag56
(g72
g58
NtRp2647
(dp2648
g61
(dp2649
sg70
g2580
sg63
(lp2650
g56
(g77
g58
NtRp2651
(dp2652
g61
(dp2653
g81
g82
ssg70
g2647
sg63
(lp2654
S'HTTP_ACCEPT_LANGUAGE'
p2655
asbag56
(g77
g58
NtRp2656
(dp2657
g61
(dp2658
g88
g89
ssg70
g2647
sg63
(lp2659
S':'
asbag56
(g77
g58
NtRp2660
(dp2661
g61
(dp2662
sg70
g2647
sg63
(lp2663
g56
(g57
g58
NtRp2664
(dp2665
g61
(dp2666
g69
I3
ssg70
g2660
sg63
(lp2667
g1156
asbasbasbag56
(g72
g58
NtRp2668
(dp2669
g61
(dp2670
sg70
g2580
sg63
(lp2671
g56
(g77
g58
NtRp2672
(dp2673
g61
(dp2674
g81
g82
ssg70
g2668
sg63
(lp2675
S'HTTP_CONNECTION'
p2676
asbag56
(g77
g58
NtRp2677
(dp2678
g61
(dp2679
g88
g89
ssg70
g2668
sg63
(lp2680
S':'
asbag56
(g77
g58
NtRp2681
(dp2682
g61
(dp2683
sg70
g2668
sg63
(lp2684
g56
(g57
g58
NtRp2685
(dp2686
g61
(dp2687
g69
I3
ssg70
g2681
sg63
(lp2688
g1178
asbasbasbag56
(g72
g58
NtRp2689
(dp2690
g61
(dp2691
sg70
g2580
sg63
(lp2692
g56
(g77
g58
NtRp2693
(dp2694
g61
(dp2695
g81
g82
ssg70
g2689
sg63
(lp2696
S'HTTP_COOKIE'
p2697
asbag56
(g77
g58
NtRp2698
(dp2699
g61
(dp2700
g88
g89
ssg70
g2689
sg63
(lp2701
S':'
asbag56
(g77
g58
NtRp2702
(dp2703
g61
(dp2704
sg70
g2689
sg63
(lp2705
g56
(g57
g58
NtRp2706
(dp2707
g61
(dp2708
g69
I3
ssg70
g2702
sg63
(lp2709
g1200
asbasbasbag56
(g72
g58
NtRp2710
(dp2711
g61
(dp2712
sg70
g2580
sg63
(lp2713
g56
(g77
g58
NtRp2714
(dp2715
g61
(dp2716
g81
g82
ssg70
g2710
sg63
(lp2717
S'HTTP_HOST'
p2718
asbag56
(g77
g58
NtRp2719
(dp2720
g61
(dp2721
g88
g89
ssg70
g2710
sg63
(lp2722
S':'
asbag56
(g77
g58
NtRp2723
(dp2724
g61
(dp2725
sg70
g2710
sg63
(lp2726
g56
(g57
g58
NtRp2727
(dp2728
g61
(dp2729
g69
I3
ssg70
g2723
sg63
(lp2730
g1222
asbasbasbag56
(g72
g58
NtRp2731
(dp2732
g61
(dp2733
sg70
g2580
sg63
(lp2734
g56
(g77
g58
NtRp2735
(dp2736
g61
(dp2737
g81
g82
ssg70
g2731
sg63
(lp2738
S'HTTP_REFERER'
p2739
asbag56
(g77
g58
NtRp2740
(dp2741
g61
(dp2742
g88
g89
ssg70
g2731
sg63
(lp2743
S':'
asbag56
(g77
g58
NtRp2744
(dp2745
g61
(dp2746
sg70
g2731
sg63
(lp2747
g56
(g57
g58
NtRp2748
(dp2749
g61
(dp2750
g69
I3
ssg70
g2744
sg63
(lp2751
g1244
asbasbasbag56
(g72
g58
NtRp2752
(dp2753
g61
(dp2754
sg70
g2580
sg63
(lp2755
g56
(g77
g58
NtRp2756
(dp2757
g61
(dp2758
g81
g82
ssg70
g2752
sg63
(lp2759
S'HTTP_USER_AGENT'
p2760
asbag56
(g77
g58
NtRp2761
(dp2762
g61
(dp2763
g88
g89
ssg70
g2752
sg63
(lp2764
S':'
asbag56
(g77
g58
NtRp2765
(dp2766
g61
(dp2767
sg70
g2752
sg63
(lp2768
g56
(g57
g58
NtRp2769
(dp2770
g61
(dp2771
g69
I3
ssg70
g2765
sg63
(lp2772
g1266
asbasbasbag56
(g72
g58
NtRp2773
(dp2774
g61
(dp2775
sg70
g2580
sg63
(lp2776
g56
(g77
g58
NtRp2777
(dp2778
g61
(dp2779
g81
g82
ssg70
g2773
sg63
(lp2780
S'HTTP_WEB2PY_COMPONENT_ELEMENT'
p2781
asbag56
(g77
g58
NtRp2782
(dp2783
g61
(dp2784
g88
g89
ssg70
g2773
sg63
(lp2785
S':'
asbag56
(g77
g58
NtRp2786
(dp2787
g61
(dp2788
sg70
g2773
sg63
(lp2789
g56
(g57
g58
NtRp2790
(dp2791
g61
(dp2792
g69
I3
ssg70
g2786
sg63
(lp2793
g254
asbasbasbag56
(g72
g58
NtRp2794
(dp2795
g61
(dp2796
sg70
g2580
sg63
(lp2797
g56
(g77
g58
NtRp2798
(dp2799
g61
(dp2800
g81
g82
ssg70
g2794
sg63
(lp2801
S'HTTP_WEB2PY_COMPONENT_LOCATION'
p2802
asbag56
(g77
g58
NtRp2803
(dp2804
g61
(dp2805
g88
g89
ssg70
g2794
sg63
(lp2806
S':'
asbag56
(g77
g58
NtRp2807
(dp2808
g61
(dp2809
sg70
g2794
sg63
(lp2810
g56
(g57
g58
NtRp2811
(dp2812
g61
(dp2813
g69
I3
ssg70
g2807
sg63
(lp2814
g1309
asbasbasbag56
(g72
g58
NtRp2815
(dp2816
g61
(dp2817
sg70
g2580
sg63
(lp2818
g56
(g77
g58
NtRp2819
(dp2820
g61
(dp2821
g81
g82
ssg70
g2815
sg63
(lp2822
S'HTTP_X_REQUESTED_WITH'
p2823
asbag56
(g77
g58
NtRp2824
(dp2825
g61
(dp2826
g88
g89
ssg70
g2815
sg63
(lp2827
S':'
asbag56
(g77
g58
NtRp2828
(dp2829
g61
(dp2830
sg70
g2815
sg63
(lp2831
g56
(g57
g58
NtRp2832
(dp2833
g61
(dp2834
g69
I3
ssg70
g2828
sg63
(lp2835
g1331
asbasbasbag56
(g72
g58
NtRp2836
(dp2837
g61
(dp2838
sg70
g2580
sg63
(lp2839
g56
(g77
g58
NtRp2840
(dp2841
g61
(dp2842
g81
g82
ssg70
g2836
sg63
(lp2843
S'PATH_INFO'
p2844
asbag56
(g77
g58
NtRp2845
(dp2846
g61
(dp2847
g88
g89
ssg70
g2836
sg63
(lp2848
S':'
asbag56
(g77
g58
NtRp2849
(dp2850
g61
(dp2851
sg70
g2836
sg63
(lp2852
g56
(g57
g58
NtRp2853
(dp2854
g61
(dp2855
g69
I3
ssg70
g2849
sg63
(lp2856
g1374
asbasbasbag56
(g72
g58
NtRp2857
(dp2858
g61
(dp2859
sg70
g2580
sg63
(lp2860
g56
(g77
g58
NtRp2861
(dp2862
g61
(dp2863
g81
g82
ssg70
g2857
sg63
(lp2864
S'QUERY_STRING'
p2865
asbag56
(g77
g58
NtRp2866
(dp2867
g61
(dp2868
g88
g89
ssg70
g2857
sg63
(lp2869
S':'
asbag56
(g77
g58
NtRp2870
(dp2871
g61
(dp2872
sg70
g2857
sg63
(lp2873
g56
(g57
g58
NtRp2874
(dp2875
g61
(dp2876
g69
I3
ssg70
g2870
sg63
(lp2877
S''
asbasbasbag56
(g72
g58
NtRp2878
(dp2879
g61
(dp2880
sg70
g2580
sg63
(lp2881
g56
(g77
g58
NtRp2882
(dp2883
g61
(dp2884
g81
g82
ssg70
g2878
sg63
(lp2885
S'REMOTE_ADDR'
p2886
asbag56
(g77
g58
NtRp2887
(dp2888
g61
(dp2889
g88
g89
ssg70
g2878
sg63
(lp2890
S':'
asbag56
(g77
g58
NtRp2891
(dp2892
g61
(dp2893
sg70
g2878
sg63
(lp2894
g56
(g57
g58
NtRp2895
(dp2896
g61
(dp2897
g69
I3
ssg70
g2891
sg63
(lp2898
g276
asbasbasbag56
(g72
g58
NtRp2899
(dp2900
g61
(dp2901
sg70
g2580
sg63
(lp2902
g56
(g77
g58
NtRp2903
(dp2904
g61
(dp2905
g81
g82
ssg70
g2899
sg63
(lp2906
S'REMOTE_PORT'
p2907
asbag56
(g77
g58
NtRp2908
(dp2909
g61
(dp2910
g88
g89
ssg70
g2899
sg63
(lp2911
S':'
asbag56
(g77
g58
NtRp2912
(dp2913
g61
(dp2914
sg70
g2899
sg63
(lp2915
g56
(g57
g58
NtRp2916
(dp2917
g61
(dp2918
g69
I3
ssg70
g2912
sg63
(lp2919
g1438
asbasbasbag56
(g72
g58
NtRp2920
(dp2921
g61
(dp2922
sg70
g2580
sg63
(lp2923
g56
(g77
g58
NtRp2924
(dp2925
g61
(dp2926
g81
g82
ssg70
g2920
sg63
(lp2927
S'REQUEST_METHOD'
p2928
asbag56
(g77
g58
NtRp2929
(dp2930
g61
(dp2931
g88
g89
ssg70
g2920
sg63
(lp2932
S':'
asbag56
(g77
g58
NtRp2933
(dp2934
g61
(dp2935
sg70
g2920
sg63
(lp2936
g56
(g57
g58
NtRp2937
(dp2938
g61
(dp2939
g69
I3
ssg70
g2933
sg63
(lp2940
g1460
asbasbasbag56
(g72
g58
NtRp2941
(dp2942
g61
(dp2943
sg70
g2580
sg63
(lp2944
g56
(g77
g58
NtRp2945
(dp2946
g61
(dp2947
g81
g82
ssg70
g2941
sg63
(lp2948
S'SCRIPT_NAME'
p2949
asbag56
(g77
g58
NtRp2950
(dp2951
g61
(dp2952
g88
g89
ssg70
g2941
sg63
(lp2953
S':'
asbag56
(g77
g58
NtRp2954
(dp2955
g61
(dp2956
sg70
g2941
sg63
(lp2957
g56
(g57
g58
NtRp2958
(dp2959
g61
(dp2960
g69
I3
ssg70
g2954
sg63
(lp2961
S''
asbasbasbag56
(g72
g58
NtRp2962
(dp2963
g61
(dp2964
sg70
g2580
sg63
(lp2965
g56
(g77
g58
NtRp2966
(dp2967
g61
(dp2968
g81
g82
ssg70
g2962
sg63
(lp2969
S'SERVER_NAME'
p2970
asbag56
(g77
g58
NtRp2971
(dp2972
g61
(dp2973
g88
g89
ssg70
g2962
sg63
(lp2974
S':'
asbag56
(g77
g58
NtRp2975
(dp2976
g61
(dp2977
sg70
g2962
sg63
(lp2978
g56
(g57
g58
NtRp2979
(dp2980
g61
(dp2981
g69
I3
ssg70
g2975
sg63
(lp2982
g1503
asbasbasbag56
(g72
g58
NtRp2983
(dp2984
g61
(dp2985
sg70
g2580
sg63
(lp2986
g56
(g77
g58
NtRp2987
(dp2988
g61
(dp2989
g81
g82
ssg70
g2983
sg63
(lp2990
S'SERVER_PORT'
p2991
asbag56
(g77
g58
NtRp2992
(dp2993
g61
(dp2994
g88
g89
ssg70
g2983
sg63
(lp2995
S':'
asbag56
(g77
g58
NtRp2996
(dp2997
g61
(dp2998
sg70
g2983
sg63
(lp2999
g56
(g57
g58
NtRp3000
(dp3001
g61
(dp3002
g69
I3
ssg70
g2996
sg63
(lp3003
g1525
asbasbasbag56
(g72
g58
NtRp3004
(dp3005
g61
(dp3006
sg70
g2580
sg63
(lp3007
g56
(g77
g58
NtRp3008
(dp3009
g61
(dp3010
g81
g82
ssg70
g3004
sg63
(lp3011
S'SERVER_PROTOCOL'
p3012
asbag56
(g77
g58
NtRp3013
(dp3014
g61
(dp3015
g88
g89
ssg70
g3004
sg63
(lp3016
S':'
asbag56
(g77
g58
NtRp3017
(dp3018
g61
(dp3019
sg70
g3004
sg63
(lp3020
g56
(g57
g58
NtRp3021
(dp3022
g61
(dp3023
g69
I3
ssg70
g3017
sg63
(lp3024
g1547
asbasbasbag56
(g72
g58
NtRp3025
(dp3026
g61
(dp3027
sg70
g2580
sg63
(lp3028
g56
(g77
g58
NtRp3029
(dp3030
g61
(dp3031
g81
g82
ssg70
g3025
sg63
(lp3032
S'SERVER_SOFTWARE'
p3033
asbag56
(g77
g58
NtRp3034
(dp3035
g61
(dp3036
g88
g89
ssg70
g3025
sg63
(lp3037
S':'
asbag56
(g77
g58
NtRp3038
(dp3039
g61
(dp3040
sg70
g3025
sg63
(lp3041
g56
(g57
g58
NtRp3042
(dp3043
g61
(dp3044
g69
I3
ssg70
g3038
sg63
(lp3045
g1569
asbasbasbag56
(g72
g58
NtRp3046
(dp3047
g61
(dp3048
sg70
g2580
sg63
(lp3049
g56
(g77
g58
NtRp3050
(dp3051
g61
(dp3052
g81
g82
ssg70
g3046
sg63
(lp3053
S'wsgi.errors'
p3054
asbag56
(g77
g58
NtRp3055
(dp3056
g61
(dp3057
g88
g89
ssg70
g3046
sg63
(lp3058
S':'
asbag56
(g77
g58
NtRp3059
(dp3060
g61
(dp3061
sg70
g3046
sg63
(lp3062
g56
(g57
g58
NtRp3063
(dp3064
g61
(dp3065
g69
I3
ssg70
g3059
sg63
(lp3066
S"<open file '<stderr>', mode 'w' at 0x7fe34af65270>"
p3067
asbasbasbag56
(g72
g58
NtRp3068
(dp3069
g61
(dp3070
sg70
g2580
sg63
(lp3071
g56
(g77
g58
NtRp3072
(dp3073
g61
(dp3074
g81
g82
ssg70
g3068
sg63
(lp3075
S'wsgi.file_wrapper'
p3076
asbag56
(g77
g58
NtRp3077
(dp3078
g61
(dp3079
g88
g89
ssg70
g3068
sg63
(lp3080
S':'
asbag56
(g77
g58
NtRp3081
(dp3082
g61
(dp3083
sg70
g3068
sg63
(lp3084
g56
(g57
g58
NtRp3085
(dp3086
g61
(dp3087
g69
I3
ssg70
g3081
sg63
(lp3088
S'<class wsgiref.util.FileWrapper at 0x2a8a870>'
p3089
asbasbasbag56
(g72
g58
NtRp3090
(dp3091
g61
(dp3092
sg70
g2580
sg63
(lp3093
g56
(g77
g58
NtRp3094
(dp3095
g61
(dp3096
g81
g82
ssg70
g3090
sg63
(lp3097
S'wsgi.input'
p3098
asbag56
(g77
g58
NtRp3099
(dp3100
g61
(dp3101
g88
g89
ssg70
g3090
sg63
(lp3102
S':'
asbag56
(g77
g58
NtRp3103
(dp3104
g61
(dp3105
sg70
g3090
sg63
(lp3106
g56
(g57
g58
NtRp3107
(dp3108
g61
(dp3109
g69
I3
ssg70
g3103
sg63
(lp3110
S'<cStringIO.StringO object at 0x3403538>'
p3111
asbasbasbag56
(g72
g58
NtRp3112
(dp3113
g61
(dp3114
sg70
g2580
sg63
(lp3115
g56
(g77
g58
NtRp3116
(dp3117
g61
(dp3118
g81
g82
ssg70
g3112
sg63
(lp3119
S'wsgi.multiprocess'
p3120
asbag56
(g77
g58
NtRp3121
(dp3122
g61
(dp3123
g88
g89
ssg70
g3112
sg63
(lp3124
S':'
asbag56
(g77
g58
NtRp3125
(dp3126
g61
(dp3127
sg70
g3112
sg63
(lp3128
g56
(g57
g58
NtRp3129
(dp3130
g61
(dp3131
g69
I3
ssg70
g3125
sg63
(lp3132
g1046
asbasbasbag56
(g72
g58
NtRp3133
(dp3134
g61
(dp3135
sg70
g2580
sg63
(lp3136
g56
(g77
g58
NtRp3137
(dp3138
g61
(dp3139
g81
g82
ssg70
g3133
sg63
(lp3140
S'wsgi.multithread'
p3141
asbag56
(g77
g58
NtRp3142
(dp3143
g61
(dp3144
g88
g89
ssg70
g3133
sg63
(lp3145
S':'
asbag56
(g77
g58
NtRp3146
(dp3147
g61
(dp3148
sg70
g3133
sg63
(lp3149
g56
(g57
g58
NtRp3150
(dp3151
g61
(dp3152
g69
I3
ssg70
g3146
sg63
(lp3153
g99
asbasbasbag56
(g72
g58
NtRp3154
(dp3155
g61
(dp3156
sg70
g2580
sg63
(lp3157
g56
(g77
g58
NtRp3158
(dp3159
g61
(dp3160
g81
g82
ssg70
g3154
sg63
(lp3161
S'wsgi.run_once'
p3162
asbag56
(g77
g58
NtRp3163
(dp3164
g61
(dp3165
g88
g89
ssg70
g3154
sg63
(lp3166
S':'
asbag56
(g77
g58
NtRp3167
(dp3168
g61
(dp3169
sg70
g3154
sg63
(lp3170
g56
(g57
g58
NtRp3171
(dp3172
g61
(dp3173
g69
I3
ssg70
g3167
sg63
(lp3174
g1046
asbasbasbag56
(g72
g58
NtRp3175
(dp3176
g61
(dp3177
sg70
g2580
sg63
(lp3178
g56
(g77
g58
NtRp3179
(dp3180
g61
(dp3181
g81
g82
ssg70
g3175
sg63
(lp3182
S'wsgi.url_scheme'
p3183
asbag56
(g77
g58
NtRp3184
(dp3185
g61
(dp3186
g88
g89
ssg70
g3175
sg63
(lp3187
S':'
asbag56
(g77
g58
NtRp3188
(dp3189
g61
(dp3190
sg70
g3175
sg63
(lp3191
g56
(g57
g58
NtRp3192
(dp3193
g61
(dp3194
g69
I3
ssg70
g3188
sg63
(lp3195
g1851
asbasbasbag56
(g72
g58
NtRp3196
(dp3197
g61
(dp3198
sg70
g2580
sg63
(lp3199
g56
(g77
g58
NtRp3200
(dp3201
g61
(dp3202
g81
g82
ssg70
g3196
sg63
(lp3203
S'wsgi.version'
p3204
asbag56
(g77
g58
NtRp3205
(dp3206
g61
(dp3207
g88
g89
ssg70
g3196
sg63
(lp3208
S':'
asbag56
(g77
g58
NtRp3209
(dp3210
g61
(dp3211
sg70
g3196
sg63
(lp3212
g56
(g57
g58
NtRp3213
(dp3214
g61
(dp3215
g69
I3
ssg70
g3209
sg63
(lp3216
S'1'
asbasbasbasbasbasbasbasbasbasbasbasbasbsS'frames'
p3217
(lp3218
(dp3219
S'file'
p3220
S'/home/ian/web2py/gluon/restricted.py'
p3221
sS'dump'
p3222
(dp3223
S'environment'
p3224
S"{'A': <class 'gluon.html.A'>, 'AjaxSelect': <class applications.topoi.modules.plugin_ajaxselect.AjaxSelect>, 'Auth': <class 'gluon.tools.Auth'>, 'B': <class 'gluon.html.B'>, 'BEAUTIFY': <class 'gluon.html.BEAUTIFY'>, 'BODY': <class 'gluon.html.BODY'>, 'BR': <class 'gluon.html.BR'>, 'BUTTON': <class 'gluon.html.BUTTON'>, 'CAT': <class 'gluon.html.CAT'>, 'CENTER': <class 'gluon.html.CENTER'>, ...}"
p3225
sS'ccode'
p3226
S'<code object <module> at 0x418ab30, file "/home/.../topoi/controllers/plugin_ajaxselect.py", line 1>'
p3227
ssS'lnum'
p3228
I194
sS'lines'
p3229
(dp3230
I192
S'        else:'
p3231
sI193
S'            ccode = compile2(code,layer)'
p3232
sI194
S'        exec ccode in environment'
p3233
sI195
S'    except HTTP:'
p3234
sI196
S'        raise'
p3235
sI197
S'    except Exception, error:'
p3236
sI198
S'        # XXX Show exception in Wing IDE if running in debugger'
p3237
sI189
S'    try:'
p3238
sI190
S'        if type(code) == types.CodeType:'
p3239
sI191
S'            ccode = code'
p3240
ssS'call'
p3241
S"(code='from gluon.sqlhtml import OptionsWidget\\n\\n\\ndef se...m),\\n\\nresponse._vars=response._caller(set_widget)\\n', environment={'A': <class 'gluon.html.A'>, 'AjaxSelect': <class applications.topoi.modules.plugin_ajaxselect.AjaxSelect>, 'Auth': <class 'gluon.tools.Auth'>, 'B': <class 'gluon.html.B'>, 'BEAUTIFY': <class 'gluon.html.BEAUTIFY'>, 'BODY': <class 'gluon.html.BODY'>, 'BR': <class 'gluon.html.BR'>, 'BUTTON': <class 'gluon.html.BUTTON'>, 'CAT': <class 'gluon.html.CAT'>, 'CENTER': <class 'gluon.html.CENTER'>, ...}, layer='/home/ian/web2py/applications/topoi/controllers/plugin_ajaxselect.py')"
p3242
sS'func'
p3243
S'restricted'
p3244
sa(dp3245
g3220
S'/home/ian/web2py/applications/topoi/controllers/plugin_ajaxselect.py'
p3246
sg3222
(dp3247
sg3228
I35
sg3229
(dp3248
I32
S''
sI33
S'    return dict(widget = w, wrappername = wrappername, form = form),'
p3249
sI24
S'    if form.accepts(request, session, formname = formname):'
p3250
sI25
S"        response.flash = 'form accepted'"
p3251
sI26
S'        response.js = "web2py_component(\'%\', \'%\');" % (comp_url, wrappername)'
p3252
sI27
S'    else:'
p3253
sI28
S"        response.error = 'form was not processed'"
p3254
sI29
S'    """'
p3255
sI30
S''
sI31
S'    w = OptionsWidget.widget(the_field, value)'
p3256
ssg3241
S'()'
p3257
sg3243
S'<module>'
p3258
sa(dp3259
g3220
S'/home/ian/web2py/gluon/globals.py'
p3260
sg3222
(dp3261
S'self'
p3262
S'undefined'
p3263
sS'f'
S'<function set_widget>'
p3264
ssg3228
I149
sg3229
(dp3265
I144
S'        self.meta = Storage()      # used by web2py_ajax.html'
p3266
sI145
S'        self.menu = []             # used by the default view layout'
p3267
sI146
S'        self.files = []            # used by web2py_ajax.html'
p3268
sI147
S'        self.generic_patterns = [] # patterns to allow generic views'
p3269
sI148
S'        self._vars = None'
p3270
sI149
S'        self._caller = lambda f: f()'
p3271
sI150
S'        self._view_environment = None'
p3272
sI151
S'        self._custom_commit = None'
p3273
sI152
S'        self._custom_rollback = None'
p3274
sI153
S''
ssg3241
S'(f=<function set_widget>)'
p3275
sg3243
S'<lambda>'
p3276
sa(dp3277
g3220
S'/home/ian/web2py/applications/topoi/controllers/plugin_ajaxselect.py'
p3278
sg3222
(dp3279
S'widget'
p3280
g3263
sS'wrappername'
p3281
S"'notes_author_loader'"
p3282
sS'form'
p3283
g3263
sS'w'
S'<gluon.html.SELECT object>'
p3284
sS'builtindict'
p3285
S"<type 'dict'>"
p3286
ssg3228
I33
sg3229
(dp3287
I32
S''
sI33
S'    return dict(widget = w, wrappername = wrappername, form = form),'
p3288
sI24
S'    if form.accepts(request, session, formname = formname):'
p3289
sI25
S"        response.flash = 'form accepted'"
p3290
sI26
S'        response.js = "web2py_component(\'%\', \'%\');" % (comp_url, wrappername)'
p3291
sI27
S'    else:'
p3292
sI28
S"        response.error = 'form was not processed'"
p3293
sI29
S'    """'
p3294
sI30
S''
sI31
S'    w = OptionsWidget.widget(the_field, value)'
p3295
ssg3241
S'()'
p3296
sg3243
S'set_widget'
p3297
sasS'pyver'
p3298
S'Python 2.7.2+: /usr/bin/python2.7'
p3299
sS'session'
p3300
g56
(g57
g58
NtRp3301
(dp3302
g61
(dp3303
sg63
(lp3304
g56
(g65
g58
NtRp3305
(dp3306
g61
(dp3307
g69
I5
ssg70
Nsg63
(lp3308
g56
(g72
g58
NtRp3309
(dp3310
g61
(dp3311
sg70
g3305
sg63
(lp3312
g56
(g77
g58
NtRp3313
(dp3314
g61
(dp3315
g81
g82
ssg70
g3309
sg63
(lp3316
S'auth'
p3317
asbag56
(g77
g58
NtRp3318
(dp3319
g61
(dp3320
g88
g89
ssg70
g3309
sg63
(lp3321
S':'
asbag56
(g77
g58
NtRp3322
(dp3323
g61
(dp3324
sg70
g3309
sg63
(lp3325
g56
(g57
g58
NtRp3326
(dp3327
g61
(dp3328
g69
I5
ssg70
g3322
sg63
(lp3329
g56
(g65
g58
NtRp3330
(dp3331
g61
(dp3332
g69
I4
ssg70
Nsg63
(lp3333
g56
(g72
g58
NtRp3334
(dp3335
g61
(dp3336
sg70
g3330
sg63
(lp3337
g56
(g77
g58
NtRp3338
(dp3339
g61
(dp3340
g81
g82
ssg70
g3334
sg63
(lp3341
S'expiration'
p3342
asbag56
(g77
g58
NtRp3343
(dp3344
g61
(dp3345
g88
g89
ssg70
g3334
sg63
(lp3346
S':'
asbag56
(g77
g58
NtRp3347
(dp3348
g61
(dp3349
sg70
g3334
sg63
(lp3350
g56
(g57
g58
NtRp3351
(dp3352
g61
(dp3353
g69
I4
ssg70
g3347
sg63
(lp3354
S'2592000'
p3355
asbasbasbag56
(g72
g58
NtRp3356
(dp3357
g61
(dp3358
sg70
g3330
sg63
(lp3359
g56
(g77
g58
NtRp3360
(dp3361
g61
(dp3362
g81
g82
ssg70
g3356
sg63
(lp3363
S'hmac_key'
p3364
asbag56
(g77
g58
NtRp3365
(dp3366
g61
(dp3367
g88
g89
ssg70
g3356
sg63
(lp3368
S':'
asbag56
(g77
g58
NtRp3369
(dp3370
g61
(dp3371
sg70
g3356
sg63
(lp3372
g56
(g57
g58
NtRp3373
(dp3374
g61
(dp3375
g69
I4
ssg70
g3369
sg63
(lp3376
S'20c8192d-156c-406c-9f7b-eade4cd34288'
p3377
asbasbasbag56
(g72
g58
NtRp3378
(dp3379
g61
(dp3380
sg70
g3330
sg63
(lp3381
g56
(g77
g58
NtRp3382
(dp3383
g61
(dp3384
g81
g82
ssg70
g3378
sg63
(lp3385
S'last_visit'
p3386
asbag56
(g77
g58
NtRp3387
(dp3388
g61
(dp3389
g88
g89
ssg70
g3378
sg63
(lp3390
S':'
asbag56
(g77
g58
NtRp3391
(dp3392
g61
(dp3393
sg70
g3378
sg63
(lp3394
g56
(g57
g58
NtRp3395
(dp3396
g61
(dp3397
g69
I4
ssg70
g3391
sg63
(lp3398
S'datetime.datetime(2011, 12, 15, 14, 27, 18, 112795)'
p3399
asbasbasbag56
(g72
g58
NtRp3400
(dp3401
g61
(dp3402
sg70
g3330
sg63
(lp3403
g56
(g77
g58
NtRp3404
(dp3405
g61
(dp3406
g81
g82
ssg70
g3400
sg63
(lp3407
S'remember'
p3408
asbag56
(g77
g58
NtRp3409
(dp3410
g61
(dp3411
g88
g89
ssg70
g3400
sg63
(lp3412
S':'
asbag56
(g77
g58
NtRp3413
(dp3414
g61
(dp3415
sg70
g3400
sg63
(lp3416
g56
(g57
g58
NtRp3417
(dp3418
g61
(dp3419
g69
I4
ssg70
g3413
sg63
(lp3420
g99
asbasbasbag56
(g72
g58
NtRp3421
(dp3422
g61
(dp3423
sg70
g3330
sg63
(lp3424
g56
(g77
g58
NtRp3425
(dp3426
g61
(dp3427
g81
g82
ssg70
g3421
sg63
(lp3428
S'user'
p3429
asbag56
(g77
g58
NtRp3430
(dp3431
g61
(dp3432
g88
g89
ssg70
g3421
sg63
(lp3433
S':'
asbag56
(g77
g58
NtRp3434
(dp3435
g61
(dp3436
sg70
g3421
sg63
(lp3437
g56
(g57
g58
NtRp3438
(dp3439
g61
(dp3440
g69
I4
ssg70
g3434
sg63
(lp3441
g56
(g65
g58
NtRp3442
(dp3443
g61
(dp3444
g69
I3
ssg70
Nsg63
(lp3445
g56
(g72
g58
NtRp3446
(dp3447
g61
(dp3448
sg70
g3442
sg63
(lp3449
g56
(g77
g58
NtRp3450
(dp3451
g61
(dp3452
g81
g82
ssg70
g3446
sg63
(lp3453
S'email'
p3454
asbag56
(g77
g58
NtRp3455
(dp3456
g61
(dp3457
g88
g89
ssg70
g3446
sg63
(lp3458
S':'
asbag56
(g77
g58
NtRp3459
(dp3460
g61
(dp3461
sg70
g3446
sg63
(lp3462
g56
(g57
g58
NtRp3463
(dp3464
g61
(dp3465
g69
I3
ssg70
g3459
sg63
(lp3466
S'scottianw@gmail.com'
p3467
asbasbasbag56
(g72
g58
NtRp3468
(dp3469
g61
(dp3470
sg70
g3442
sg63
(lp3471
g56
(g77
g58
NtRp3472
(dp3473
g61
(dp3474
g81
g82
ssg70
g3468
sg63
(lp3475
S'first_name'
p3476
asbag56
(g77
g58
NtRp3477
(dp3478
g61
(dp3479
g88
g89
ssg70
g3468
sg63
(lp3480
S':'
asbag56
(g77
g58
NtRp3481
(dp3482
g61
(dp3483
sg70
g3468
sg63
(lp3484
g56
(g57
g58
NtRp3485
(dp3486
g61
(dp3487
g69
I3
ssg70
g3481
sg63
(lp3488
S'Ian'
p3489
asbasbasbag56
(g72
g58
NtRp3490
(dp3491
g61
(dp3492
sg70
g3442
sg63
(lp3493
g56
(g77
g58
NtRp3494
(dp3495
g61
(dp3496
g81
g82
ssg70
g3490
sg63
(lp3497
S'id'
p3498
asbag56
(g77
g58
NtRp3499
(dp3500
g61
(dp3501
g88
g89
ssg70
g3490
sg63
(lp3502
S':'
asbag56
(g77
g58
NtRp3503
(dp3504
g61
(dp3505
sg70
g3490
sg63
(lp3506
g56
(g57
g58
NtRp3507
(dp3508
g61
(dp3509
g69
I3
ssg70
g3503
sg63
(lp3510
S'1'
asbasbasbag56
(g72
g58
NtRp3511
(dp3512
g61
(dp3513
sg70
g3442
sg63
(lp3514
g56
(g77
g58
NtRp3515
(dp3516
g61
(dp3517
g81
g82
ssg70
g3511
sg63
(lp3518
S'last_name'
p3519
asbag56
(g77
g58
NtRp3520
(dp3521
g61
(dp3522
g88
g89
ssg70
g3511
sg63
(lp3523
S':'
asbag56
(g77
g58
NtRp3524
(dp3525
g61
(dp3526
sg70
g3511
sg63
(lp3527
g56
(g57
g58
NtRp3528
(dp3529
g61
(dp3530
g69
I3
ssg70
g3524
sg63
(lp3531
S'Scott'
p3532
asbasbasbag56
(g72
g58
NtRp3533
(dp3534
g61
(dp3535
sg70
g3442
sg63
(lp3536
g56
(g77
g58
NtRp3537
(dp3538
g61
(dp3539
g81
g82
ssg70
g3533
sg63
(lp3540
S'password'
p3541
asbag56
(g77
g58
NtRp3542
(dp3543
g61
(dp3544
g88
g89
ssg70
g3533
sg63
(lp3545
S':'
asbag56
(g77
g58
NtRp3546
(dp3547
g61
(dp3548
sg70
g3533
sg63
(lp3549
g56
(g57
g58
NtRp3550
(dp3551
g61
(dp3552
g69
I3
ssg70
g3546
sg63
(lp3553
S'6fb48d01a3959846ba0fe062b1789f17d9cf3d34d3ec5aa948f598bbf4387cb10eb60c797988f41dfea97ee691b338dd77413d430229e401cf7c84e6cd9c4458'
p3554
asbasbasbag56
(g72
g58
NtRp3555
(dp3556
g61
(dp3557
sg70
g3442
sg63
(lp3558
g56
(g77
g58
NtRp3559
(dp3560
g61
(dp3561
g81
g82
ssg70
g3555
sg63
(lp3562
S'registration_key'
p3563
asbag56
(g77
g58
NtRp3564
(dp3565
g61
(dp3566
g88
g89
ssg70
g3555
sg63
(lp3567
S':'
asbag56
(g77
g58
NtRp3568
(dp3569
g61
(dp3570
sg70
g3555
sg63
(lp3571
g56
(g57
g58
NtRp3572
(dp3573
g61
(dp3574
g69
I3
ssg70
g3568
sg63
(lp3575
S''
asbasbasbag56
(g72
g58
NtRp3576
(dp3577
g61
(dp3578
sg70
g3442
sg63
(lp3579
g56
(g77
g58
NtRp3580
(dp3581
g61
(dp3582
g81
g82
ssg70
g3576
sg63
(lp3583
S'reset_password_key'
p3584
asbag56
(g77
g58
NtRp3585
(dp3586
g61
(dp3587
g88
g89
ssg70
g3576
sg63
(lp3588
S':'
asbag56
(g77
g58
NtRp3589
(dp3590
g61
(dp3591
sg70
g3576
sg63
(lp3592
g56
(g57
g58
NtRp3593
(dp3594
g61
(dp3595
g69
I3
ssg70
g3589
sg63
(lp3596
S''
asbasbasbasbasbasbasbasbasbasbasbag56
(g72
g58
NtRp3597
(dp3598
g61
(dp3599
sg70
g3305
sg63
(lp3600
g56
(g77
g58
NtRp3601
(dp3602
g61
(dp3603
g81
g82
ssg70
g3597
sg63
(lp3604
S'last_query'
p3605
asbag56
(g77
g58
NtRp3606
(dp3607
g61
(dp3608
g88
g89
ssg70
g3597
sg63
(lp3609
S':'
asbag56
(g77
g58
NtRp3610
(dp3611
g61
(dp3612
sg70
g3597
sg63
(lp3613
g56
(g57
g58
NtRp3614
(dp3615
g61
(dp3616
g69
I5
ssg70
g3610
sg63
(lp3617
S'db.auth_user.id>0'
p3618
asbasbasbasbasbsS'etype'
p3619
S"<type 'exceptions.NameError'>"
p3620
sS'date'
p3621
S'Sun Dec 18 23:12:09 2011'
p3622
sS'response'
p3623
g56
(g57
g58
NtRp3624
(dp3625
g61
(dp3626
sg63
(lp3627
g56
(g65
g58
NtRp3628
(dp3629
g61
(dp3630
g69
I5
ssg70
Nsg63
(lp3631
g56
(g72
g58
NtRp3632
(dp3633
g61
(dp3634
sg70
g3628
sg63
(lp3635
g56
(g77
g58
NtRp3636
(dp3637
g61
(dp3638
g81
g82
ssg70
g3632
sg63
(lp3639
g219
asbag56
(g77
g58
NtRp3640
(dp3641
g61
(dp3642
g88
g89
ssg70
g3632
sg63
(lp3643
S':'
asbag56
(g77
g58
NtRp3644
(dp3645
g61
(dp3646
sg70
g3632
sg63
(lp3647
g56
(g57
g58
NtRp3648
(dp3649
g61
(dp3650
g69
I5
ssg70
g3644
sg63
(lp3651
S'<cStringIO.StringO object at 0x3403ab0>'
p3652
asbasbasbag56
(g72
g58
NtRp3653
(dp3654
g61
(dp3655
sg70
g3628
sg63
(lp3656
g56
(g77
g58
NtRp3657
(dp3658
g61
(dp3659
g81
g82
ssg70
g3653
sg63
(lp3660
g307
asbag56
(g77
g58
NtRp3661
(dp3662
g61
(dp3663
g88
g89
ssg70
g3653
sg63
(lp3664
S':'
asbag56
(g77
g58
NtRp3665
(dp3666
g61
(dp3667
sg70
g3653
sg63
(lp3668
g56
(g57
g58
NtRp3669
(dp3670
g61
(dp3671
g69
I5
ssg70
g3665
sg63
(lp3672
g56
(g65
g58
NtRp3673
(dp3674
g61
(dp3675
g69
I4
ssg70
Nsg63
(lp3676
g56
(g72
g58
NtRp3677
(dp3678
g61
(dp3679
sg70
g3673
sg63
(lp3680
g56
(g77
g58
NtRp3681
(dp3682
g61
(dp3683
g81
g82
ssg70
g3677
sg63
(lp3684
S'session_id_topoi'
p3685
asbag56
(g77
g58
NtRp3686
(dp3687
g61
(dp3688
g88
g89
ssg70
g3677
sg63
(lp3689
S':'
asbag56
(g77
g58
NtRp3690
(dp3691
g61
(dp3692
sg70
g3677
sg63
(lp3693
g56
(g57
g58
NtRp3694
(dp3695
g61
(dp3696
g69
I4
ssg70
g3690
sg63
(lp3697
g56
(g65
g58
NtRp3698
(dp3699
g61
(dp3700
g69
I3
ssg70
Nsg63
(lp3701
g56
(g72
g58
NtRp3702
(dp3703
g61
(dp3704
sg70
g3698
sg63
(lp3705
g56
(g77
g58
NtRp3706
(dp3707
g61
(dp3708
g81
g82
ssg70
g3702
sg63
(lp3709
g357
asbag56
(g77
g58
NtRp3710
(dp3711
g61
(dp3712
g88
g89
ssg70
g3702
sg63
(lp3713
S':'
asbag56
(g77
g58
NtRp3714
(dp3715
g61
(dp3716
sg70
g3702
sg63
(lp3717
g56
(g57
g58
NtRp3718
(dp3719
g61
(dp3720
g69
I3
ssg70
g3714
sg63
(lp3721
S''
asbasbasbag56
(g72
g58
NtRp3722
(dp3723
g61
(dp3724
sg70
g3698
sg63
(lp3725
g56
(g77
g58
NtRp3726
(dp3727
g61
(dp3728
g81
g82
ssg70
g3722
sg63
(lp3729
g378
asbag56
(g77
g58
NtRp3730
(dp3731
g61
(dp3732
g88
g89
ssg70
g3722
sg63
(lp3733
S':'
asbag56
(g77
g58
NtRp3734
(dp3735
g61
(dp3736
sg70
g3722
sg63
(lp3737
g56
(g57
g58
NtRp3738
(dp3739
g61
(dp3740
g69
I3
ssg70
g3734
sg63
(lp3741
S''
asbasbasbag56
(g72
g58
NtRp3742
(dp3743
g61
(dp3744
sg70
g3698
sg63
(lp3745
g56
(g77
g58
NtRp3746
(dp3747
g61
(dp3748
g81
g82
ssg70
g3742
sg63
(lp3749
g399
asbag56
(g77
g58
NtRp3750
(dp3751
g61
(dp3752
g88
g89
ssg70
g3742
sg63
(lp3753
S':'
asbag56
(g77
g58
NtRp3754
(dp3755
g61
(dp3756
sg70
g3742
sg63
(lp3757
g56
(g57
g58
NtRp3758
(dp3759
g61
(dp3760
g69
I3
ssg70
g3754
sg63
(lp3761
S'2592000'
p3762
asbasbasbag56
(g72
g58
NtRp3763
(dp3764
g61
(dp3765
sg70
g3698
sg63
(lp3766
g56
(g77
g58
NtRp3767
(dp3768
g61
(dp3769
g81
g82
ssg70
g3763
sg63
(lp3770
g420
asbag56
(g77
g58
NtRp3771
(dp3772
g61
(dp3773
g88
g89
ssg70
g3763
sg63
(lp3774
S':'
asbag56
(g77
g58
NtRp3775
(dp3776
g61
(dp3777
sg70
g3763
sg63
(lp3778
g56
(g57
g58
NtRp3779
(dp3780
g61
(dp3781
g69
I3
ssg70
g3775
sg63
(lp3782
S''
asbasbasbag56
(g72
g58
NtRp3783
(dp3784
g61
(dp3785
sg70
g3698
sg63
(lp3786
g56
(g77
g58
NtRp3787
(dp3788
g61
(dp3789
g81
g82
ssg70
g3783
sg63
(lp3790
g441
asbag56
(g77
g58
NtRp3791
(dp3792
g61
(dp3793
g88
g89
ssg70
g3783
sg63
(lp3794
S':'
asbag56
(g77
g58
NtRp3795
(dp3796
g61
(dp3797
sg70
g3783
sg63
(lp3798
g56
(g57
g58
NtRp3799
(dp3800
g61
(dp3801
g69
I3
ssg70
g3795
sg63
(lp3802
S''
asbasbasbag56
(g72
g58
NtRp3803
(dp3804
g61
(dp3805
sg70
g3698
sg63
(lp3806
g56
(g77
g58
NtRp3807
(dp3808
g61
(dp3809
g81
g82
ssg70
g3803
sg63
(lp3810
g462
asbag56
(g77
g58
NtRp3811
(dp3812
g61
(dp3813
g88
g89
ssg70
g3803
sg63
(lp3814
S':'
asbag56
(g77
g58
NtRp3815
(dp3816
g61
(dp3817
sg70
g3803
sg63
(lp3818
g56
(g57
g58
NtRp3819
(dp3820
g61
(dp3821
g69
I3
ssg70
g3815
sg63
(lp3822
S'/'
asbasbasbag56
(g72
g58
NtRp3823
(dp3824
g61
(dp3825
sg70
g3698
sg63
(lp3826
g56
(g77
g58
NtRp3827
(dp3828
g61
(dp3829
g81
g82
ssg70
g3823
sg63
(lp3830
g483
asbag56
(g77
g58
NtRp3831
(dp3832
g61
(dp3833
g88
g89
ssg70
g3823
sg63
(lp3834
S':'
asbag56
(g77
g58
NtRp3835
(dp3836
g61
(dp3837
sg70
g3823
sg63
(lp3838
g56
(g57
g58
NtRp3839
(dp3840
g61
(dp3841
g69
I3
ssg70
g3835
sg63
(lp3842
S''
asbasbasbag56
(g72
g58
NtRp3843
(dp3844
g61
(dp3845
sg70
g3698
sg63
(lp3846
g56
(g77
g58
NtRp3847
(dp3848
g61
(dp3849
g81
g82
ssg70
g3843
sg63
(lp3850
g504
asbag56
(g77
g58
NtRp3851
(dp3852
g61
(dp3853
g88
g89
ssg70
g3843
sg63
(lp3854
S':'
asbag56
(g77
g58
NtRp3855
(dp3856
g61
(dp3857
sg70
g3843
sg63
(lp3858
g56
(g57
g58
NtRp3859
(dp3860
g61
(dp3861
g69
I3
ssg70
g3855
sg63
(lp3862
S''
asbasbasbasbasbasbasbasbasbasbasbag56
(g72
g58
NtRp3863
(dp3864
g61
(dp3865
sg70
g3628
sg63
(lp3866
g56
(g77
g58
NtRp3867
(dp3868
g61
(dp3869
g81
g82
ssg70
g3863
sg63
(lp3870
S'files'
p3871
asbag56
(g77
g58
NtRp3872
(dp3873
g61
(dp3874
g88
g89
ssg70
g3863
sg63
(lp3875
S':'
asbag56
(g77
g58
NtRp3876
(dp3877
g61
(dp3878
sg70
g3863
sg63
(lp3879
g56
(g57
g58
NtRp3880
(dp3881
g61
(dp3882
g69
I5
ssg70
g3876
sg63
(lp3883
g56
(g65
g58
NtRp3884
(dp3885
g61
(dp3886
g69
I4
ssg70
Nsg63
(lp3887
sbasbasbasbag56
(g72
g58
NtRp3888
(dp3889
g61
(dp3890
sg70
g3628
sg63
(lp3891
g56
(g77
g58
NtRp3892
(dp3893
g61
(dp3894
g81
g82
ssg70
g3888
sg63
(lp3895
S'flash'
p3896
asbag56
(g77
g58
NtRp3897
(dp3898
g61
(dp3899
g88
g89
ssg70
g3888
sg63
(lp3900
S':'
asbag56
(g77
g58
NtRp3901
(dp3902
g61
(dp3903
sg70
g3888
sg63
(lp3904
g56
(g57
g58
NtRp3905
(dp3906
g61
(dp3907
g69
I5
ssg70
g3901
sg63
(lp3908
S''
asbasbasbag56
(g72
g58
NtRp3909
(dp3910
g61
(dp3911
sg70
g3628
sg63
(lp3912
g56
(g77
g58
NtRp3913
(dp3914
g61
(dp3915
g81
g82
ssg70
g3909
sg63
(lp3916
S'generic_patterns'
p3917
asbag56
(g77
g58
NtRp3918
(dp3919
g61
(dp3920
g88
g89
ssg70
g3909
sg63
(lp3921
S':'
asbag56
(g77
g58
NtRp3922
(dp3923
g61
(dp3924
sg70
g3909
sg63
(lp3925
g56
(g57
g58
NtRp3926
(dp3927
g61
(dp3928
g69
I5
ssg70
g3922
sg63
(lp3929
g56
(g65
g58
NtRp3930
(dp3931
g61
(dp3932
g69
I4
ssg70
Nsg63
(lp3933
g56
(g72
g58
NtRp3934
(dp3935
g61
(dp3936
sg70
g3930
sg63
(lp3937
g56
(g77
g58
NtRp3938
(dp3939
g61
(dp3940
sg70
g3934
sg63
(lp3941
g56
(g57
g58
NtRp3942
(dp3943
g61
(dp3944
g69
I4
ssg70
g3938
sg63
(lp3945
S'*'
asbasbasbasbasbasbasbag56
(g72
g58
NtRp3946
(dp3947
g61
(dp3948
sg70
g3628
sg63
(lp3949
g56
(g77
g58
NtRp3950
(dp3951
g61
(dp3952
g81
g82
ssg70
g3946
sg63
(lp3953
S'headers'
p3954
asbag56
(g77
g58
NtRp3955
(dp3956
g61
(dp3957
g88
g89
ssg70
g3946
sg63
(lp3958
S':'
asbag56
(g77
g58
NtRp3959
(dp3960
g61
(dp3961
sg70
g3946
sg63
(lp3962
g56
(g57
g58
NtRp3963
(dp3964
g61
(dp3965
g69
I5
ssg70
g3959
sg63
(lp3966
g56
(g65
g58
NtRp3967
(dp3968
g61
(dp3969
g69
I4
ssg70
Nsg63
(lp3970
g56
(g72
g58
NtRp3971
(dp3972
g61
(dp3973
sg70
g3967
sg63
(lp3974
g56
(g77
g58
NtRp3975
(dp3976
g61
(dp3977
g81
g82
ssg70
g3971
sg63
(lp3978
S'Cache-Control'
p3979
asbag56
(g77
g58
NtRp3980
(dp3981
g61
(dp3982
g88
g89
ssg70
g3971
sg63
(lp3983
S':'
asbag56
(g77
g58
NtRp3984
(dp3985
g61
(dp3986
sg70
g3971
sg63
(lp3987
g56
(g57
g58
NtRp3988
(dp3989
g61
(dp3990
g69
I4
ssg70
g3984
sg63
(lp3991
S'no-store, no-cache, must-revalidate, post-check=0, pre-check=0'
p3992
asbasbasbag56
(g72
g58
NtRp3993
(dp3994
g61
(dp3995
sg70
g3967
sg63
(lp3996
g56
(g77
g58
NtRp3997
(dp3998
g61
(dp3999
g81
g82
ssg70
g3993
sg63
(lp4000
S'Content-Type'
p4001
asbag56
(g77
g58
NtRp4002
(dp4003
g61
(dp4004
g88
g89
ssg70
g3993
sg63
(lp4005
S':'
asbag56
(g77
g58
NtRp4006
(dp4007
g61
(dp4008
sg70
g3993
sg63
(lp4009
g56
(g57
g58
NtRp4010
(dp4011
g61
(dp4012
g69
I4
ssg70
g4006
sg63
(lp4013
S'text/html; charset=utf-8'
p4014
asbasbasbag56
(g72
g58
NtRp4015
(dp4016
g61
(dp4017
sg70
g3967
sg63
(lp4018
g56
(g77
g58
NtRp4019
(dp4020
g61
(dp4021
g81
g82
ssg70
g4015
sg63
(lp4022
S'Expires'
p4023
asbag56
(g77
g58
NtRp4024
(dp4025
g61
(dp4026
g88
g89
ssg70
g4015
sg63
(lp4027
S':'
asbag56
(g77
g58
NtRp4028
(dp4029
g61
(dp4030
sg70
g4015
sg63
(lp4031
g56
(g57
g58
NtRp4032
(dp4033
g61
(dp4034
g69
I4
ssg70
g4028
sg63
(lp4035
S'Mon, 19 Dec 2011 04:12:09 GMT'
p4036
asbasbasbag56
(g72
g58
NtRp4037
(dp4038
g61
(dp4039
sg70
g3967
sg63
(lp4040
g56
(g77
g58
NtRp4041
(dp4042
g61
(dp4043
g81
g82
ssg70
g4037
sg63
(lp4044
S'Pragma'
p4045
asbag56
(g77
g58
NtRp4046
(dp4047
g61
(dp4048
g88
g89
ssg70
g4037
sg63
(lp4049
S':'
asbag56
(g77
g58
NtRp4050
(dp4051
g61
(dp4052
sg70
g4037
sg63
(lp4053
g56
(g57
g58
NtRp4054
(dp4055
g61
(dp4056
g69
I4
ssg70
g4050
sg63
(lp4057
S'no-cache'
p4058
asbasbasbag56
(g72
g58
NtRp4059
(dp4060
g61
(dp4061
sg70
g3967
sg63
(lp4062
g56
(g77
g58
NtRp4063
(dp4064
g61
(dp4065
g81
g82
ssg70
g4059
sg63
(lp4066
S'X-Powered-By'
p4067
asbag56
(g77
g58
NtRp4068
(dp4069
g61
(dp4070
g88
g89
ssg70
g4059
sg63
(lp4071
S':'
asbag56
(g77
g58
NtRp4072
(dp4073
g61
(dp4074
sg70
g4059
sg63
(lp4075
g56
(g57
g58
NtRp4076
(dp4077
g61
(dp4078
g69
I4
ssg70
g4072
sg63
(lp4079
S'web2py'
p4080
asbasbasbasbasbasbasbag56
(g72
g58
NtRp4081
(dp4082
g61
(dp4083
sg70
g3628
sg63
(lp4084
g56
(g77
g58
NtRp4085
(dp4086
g61
(dp4087
g81
g82
ssg70
g4081
sg63
(lp4088
S'menu'
p4089
asbag56
(g77
g58
NtRp4090
(dp4091
g61
(dp4092
g88
g89
ssg70
g4081
sg63
(lp4093
S':'
asbag56
(g77
g58
NtRp4094
(dp4095
g61
(dp4096
sg70
g4081
sg63
(lp4097
g56
(g57
g58
NtRp4098
(dp4099
g61
(dp4100
g69
I5
ssg70
g4094
sg63
(lp4101
g56
(g65
g58
NtRp4102
(dp4103
g61
(dp4104
g69
I4
ssg70
Nsg63
(lp4105
g56
(g72
g58
NtRp4106
(dp4107
g61
(dp4108
sg70
g4102
sg63
(lp4109
g56
(g77
g58
NtRp4110
(dp4111
g61
(dp4112
sg70
g4106
sg63
(lp4113
g56
(g57
g58
NtRp4114
(dp4115
g61
(dp4116
g69
I4
ssg70
g4110
sg63
(lp4117
g56
(g65
g58
NtRp4118
(dp4119
g61
(dp4120
g69
I3
ssg70
Nsg63
(lp4121
g56
(g72
g58
NtRp4122
(dp4123
g61
(dp4124
sg70
g4118
sg63
(lp4125
g56
(g77
g58
NtRp4126
(dp4127
g61
(dp4128
sg70
g4122
sg63
(lp4129
g56
(g57
g58
NtRp4130
(dp4131
g61
(dp4132
g69
I3
ssg70
g4126
sg63
(lp4133
cgluon.languages
lazyT_unpickle
p4134
(S't\x04\x00\x00\x00Home'
tRp4135
asbasbasbag56
(g72
g58
NtRp4136
(dp4137
g61
(dp4138
sg70
g4118
sg63
(lp4139
g56
(g77
g58
NtRp4140
(dp4141
g61
(dp4142
sg70
g4136
sg63
(lp4143
g56
(g57
g58
NtRp4144
(dp4145
g61
(dp4146
g69
I3
ssg70
g4140
sg63
(lp4147
g1046
asbasbasbag56
(g72
g58
NtRp4148
(dp4149
g61
(dp4150
sg70
g4118
sg63
(lp4151
g56
(g77
g58
NtRp4152
(dp4153
g61
(dp4154
sg70
g4148
sg63
(lp4155
g56
(g57
g58
NtRp4156
(dp4157
g61
(dp4158
g69
I3
ssg70
g4152
sg63
(lp4159
S'/topoi/default/index.load'
p4160
asbasbasbag56
(g72
g58
NtRp4161
(dp4162
g61
(dp4163
sg70
g4118
sg63
(lp4164
g56
(g77
g58
NtRp4165
(dp4166
g61
(dp4167
sg70
g4161
sg63
(lp4168
g56
(g57
g58
NtRp4169
(dp4170
g61
(dp4171
g69
I3
ssg70
g4165
sg63
(lp4172
g56
(g65
g58
NtRp4173
(dp4174
g61
(dp4175
g69
I2
ssg70
Nsg63
(lp4176
sbasbasbasbasbasbasbasbag56
(g72
g58
NtRp4177
(dp4178
g61
(dp4179
sg70
g4102
sg63
(lp4180
g56
(g77
g58
NtRp4181
(dp4182
g61
(dp4183
sg70
g4177
sg63
(lp4184
g56
(g57
g58
NtRp4185
(dp4186
g61
(dp4187
g69
I4
ssg70
g4181
sg63
(lp4188
g56
(g65
g58
NtRp4189
(dp4190
g61
(dp4191
g69
I3
ssg70
Nsg63
(lp4192
g56
(g72
g58
NtRp4193
(dp4194
g61
(dp4195
sg70
g4189
sg63
(lp4196
g56
(g77
g58
NtRp4197
(dp4198
g61
(dp4199
sg70
g4193
sg63
(lp4200
g56
(g57
g58
NtRp4201
(dp4202
g61
(dp4203
g69
I3
ssg70
g4197
sg63
(lp4204
g4134
(S't\x01\x00\x00\x00S'
tRp4205
asbasbasbag56
(g72
g58
NtRp4206
(dp4207
g61
(dp4208
sg70
g4189
sg63
(lp4209
g56
(g77
g58
NtRp4210
(dp4211
g61
(dp4212
sg70
g4206
sg63
(lp4213
g56
(g57
g58
NtRp4214
(dp4215
g61
(dp4216
g69
I3
ssg70
g4210
sg63
(lp4217
g1046
asbasbasbag56
(g72
g58
NtRp4218
(dp4219
g61
(dp4220
sg70
g4189
sg63
(lp4221
g56
(g77
g58
NtRp4222
(dp4223
g61
(dp4224
sg70
g4218
sg63
(lp4225
g56
(g57
g58
NtRp4226
(dp4227
g61
(dp4228
g69
I3
ssg70
g4222
sg63
(lp4229
S'/admin/default/design/topoi.load'
p4230
asbasbasbag56
(g72
g58
NtRp4231
(dp4232
g61
(dp4233
sg70
g4189
sg63
(lp4234
g56
(g77
g58
NtRp4235
(dp4236
g61
(dp4237
sg70
g4231
sg63
(lp4238
g56
(g57
g58
NtRp4239
(dp4240
g61
(dp4241
g69
I3
ssg70
g4235
sg63
(lp4242
g56
(g65
g58
NtRp4243
(dp4244
g61
(dp4245
g69
I2
ssg70
Nsg63
(lp4246
g56
(g72
g58
NtRp4247
(dp4248
g61
(dp4249
sg70
g4243
sg63
(lp4250
g56
(g77
g58
NtRp4251
(dp4252
g61
(dp4253
sg70
g4247
sg63
(lp4254
g56
(g57
g58
NtRp4255
(dp4256
g61
(dp4257
g69
I2
ssg70
g4251
sg63
(lp4258
g56
(g65
g58
NtRp4259
(dp4260
g61
(dp4261
g69
I1
ssg70
Nsg63
(lp4262
g56
(g72
g58
NtRp4263
(dp4264
g61
(dp4265
sg70
g4259
sg63
(lp4266
g56
(g77
g58
NtRp4267
(dp4268
g61
(dp4269
sg70
g4263
sg63
(lp4270
g56
(g57
g58
NtRp4271
(dp4272
g61
(dp4273
g69
I1
ssg70
g4267
sg63
(lp4274
g4134
(S't\n\x00\x00\x00Controller'
tRp4275
asbasbasbag56
(g72
g58
NtRp4276
(dp4277
g61
(dp4278
sg70
g4259
sg63
(lp4279
g56
(g77
g58
NtRp4280
(dp4281
g61
(dp4282
sg70
g4276
sg63
(lp4283
g56
(g57
g58
NtRp4284
(dp4285
g61
(dp4286
g69
I1
ssg70
g4280
sg63
(lp4287
I00
asbasbasbag56
(g72
g58
NtRp4288
(dp4289
g61
(dp4290
sg70
g4259
sg63
(lp4291
g56
(g77
g58
NtRp4292
(dp4293
g61
(dp4294
sg70
g4288
sg63
(lp4295
g56
(g57
g58
NtRp4296
(dp4297
g61
(dp4298
g69
I1
ssg70
g4292
sg63
(lp4299
S'/admin/default/edit/topoi/controllers/plugin_ajaxselect.py'
p4300
asbasbasbasbasbasbasbag56
(g72
g58
NtRp4301
(dp4302
g61
(dp4303
sg70
g4243
sg63
(lp4304
g56
(g77
g58
NtRp4305
(dp4306
g61
(dp4307
sg70
g4301
sg63
(lp4308
g56
(g57
g58
NtRp4309
(dp4310
g61
(dp4311
g69
I2
ssg70
g4305
sg63
(lp4312
g56
(g65
g58
NtRp4313
(dp4314
g61
(dp4315
g69
I1
ssg70
Nsg63
(lp4316
g56
(g72
g58
NtRp4317
(dp4318
g61
(dp4319
sg70
g4313
sg63
(lp4320
g56
(g77
g58
NtRp4321
(dp4322
g61
(dp4323
sg70
g4317
sg63
(lp4324
g56
(g57
g58
NtRp4325
(dp4326
g61
(dp4327
g69
I1
ssg70
g4321
sg63
(lp4328
g4134
(S't\x04\x00\x00\x00View'
tRp4329
asbasbasbag56
(g72
g58
NtRp4330
(dp4331
g61
(dp4332
sg70
g4313
sg63
(lp4333
g56
(g77
g58
NtRp4334
(dp4335
g61
(dp4336
sg70
g4330
sg63
(lp4337
g56
(g57
g58
NtRp4338
(dp4339
g61
(dp4340
g69
I1
ssg70
g4334
sg63
(lp4341
I00
asbasbasbag56
(g72
g58
NtRp4342
(dp4343
g61
(dp4344
sg70
g4313
sg63
(lp4345
g56
(g77
g58
NtRp4346
(dp4347
g61
(dp4348
sg70
g4342
sg63
(lp4349
g56
(g57
g58
NtRp4350
(dp4351
g61
(dp4352
g69
I1
ssg70
g4346
sg63
(lp4353
S'/admin/default/edit/topoi/views/plugin_ajaxselect/set_widget.load'
p4354
asbasbasbasbasbasbasbag56
(g72
g58
NtRp4355
(dp4356
g61
(dp4357
sg70
g4243
sg63
(lp4358
g56
(g77
g58
NtRp4359
(dp4360
g61
(dp4361
sg70
g4355
sg63
(lp4362
g56
(g57
g58
NtRp4363
(dp4364
g61
(dp4365
g69
I2
ssg70
g4359
sg63
(lp4366
g56
(g65
g58
NtRp4367
(dp4368
g61
(dp4369
g69
I1
ssg70
Nsg63
(lp4370
g56
(g72
g58
NtRp4371
(dp4372
g61
(dp4373
sg70
g4367
sg63
(lp4374
g56
(g77
g58
NtRp4375
(dp4376
g61
(dp4377
sg70
g4371
sg63
(lp4378
g56
(g57
g58
NtRp4379
(dp4380
g61
(dp4381
g69
I1
ssg70
g4375
sg63
(lp4382
g4134
(S't\x06\x00\x00\x00Layout'
tRp4383
asbasbasbag56
(g72
g58
NtRp4384
(dp4385
g61
(dp4386
sg70
g4367
sg63
(lp4387
g56
(g77
g58
NtRp4388
(dp4389
g61
(dp4390
sg70
g4384
sg63
(lp4391
g56
(g57
g58
NtRp4392
(dp4393
g61
(dp4394
g69
I1
ssg70
g4388
sg63
(lp4395
I00
asbasbasbag56
(g72
g58
NtRp4396
(dp4397
g61
(dp4398
sg70
g4367
sg63
(lp4399
g56
(g77
g58
NtRp4400
(dp4401
g61
(dp4402
sg70
g4396
sg63
(lp4403
g56
(g57
g58
NtRp4404
(dp4405
g61
(dp4406
g69
I1
ssg70
g4400
sg63
(lp4407
S'/admin/default/edit/topoi/views/layout.html'
p4408
asbasbasbasbasbasbasbag56
(g72
g58
NtRp4409
(dp4410
g61
(dp4411
sg70
g4243
sg63
(lp4412
g56
(g77
g58
NtRp4413
(dp4414
g61
(dp4415
sg70
g4409
sg63
(lp4416
g56
(g57
g58
NtRp4417
(dp4418
g61
(dp4419
g69
I2
ssg70
g4413
sg63
(lp4420
g56
(g65
g58
NtRp4421
(dp4422
g61
(dp4423
g69
I1
ssg70
Nsg63
(lp4424
g56
(g72
g58
NtRp4425
(dp4426
g61
(dp4427
sg70
g4421
sg63
(lp4428
g56
(g77
g58
NtRp4429
(dp4430
g61
(dp4431
sg70
g4425
sg63
(lp4432
g56
(g57
g58
NtRp4433
(dp4434
g61
(dp4435
g69
I1
ssg70
g4429
sg63
(lp4436
g4134
(S't\n\x00\x00\x00Stylesheet'
tRp4437
asbasbasbag56
(g72
g58
NtRp4438
(dp4439
g61
(dp4440
sg70
g4421
sg63
(lp4441
g56
(g77
g58
NtRp4442
(dp4443
g61
(dp4444
sg70
g4438
sg63
(lp4445
g56
(g57
g58
NtRp4446
(dp4447
g61
(dp4448
g69
I1
ssg70
g4442
sg63
(lp4449
I00
asbasbasbag56
(g72
g58
NtRp4450
(dp4451
g61
(dp4452
sg70
g4421
sg63
(lp4453
g56
(g77
g58
NtRp4454
(dp4455
g61
(dp4456
sg70
g4450
sg63
(lp4457
g56
(g57
g58
NtRp4458
(dp4459
g61
(dp4460
g69
I1
ssg70
g4454
sg63
(lp4461
S'/admin/default/edit/topoi/static/base.css'
p4462
asbasbasbasbasbasbasbag56
(g72
g58
NtRp4463
(dp4464
g61
(dp4465
sg70
g4243
sg63
(lp4466
g56
(g77
g58
NtRp4467
(dp4468
g61
(dp4469
sg70
g4463
sg63
(lp4470
g56
(g57
g58
NtRp4471
(dp4472
g61
(dp4473
g69
I2
ssg70
g4467
sg63
(lp4474
g56
(g65
g58
NtRp4475
(dp4476
g61
(dp4477
g69
I1
ssg70
Nsg63
(lp4478
g56
(g72
g58
NtRp4479
(dp4480
g61
(dp4481
sg70
g4475
sg63
(lp4482
g56
(g77
g58
NtRp4483
(dp4484
g61
(dp4485
sg70
g4479
sg63
(lp4486
g56
(g57
g58
NtRp4487
(dp4488
g61
(dp4489
g69
I1
ssg70
g4483
sg63
(lp4490
g4134
(S's\x08\x00\x00\x00DB Model'
tRp4491
asbasbasbag56
(g72
g58
NtRp4492
(dp4493
g61
(dp4494
sg70
g4475
sg63
(lp4495
g56
(g77
g58
NtRp4496
(dp4497
g61
(dp4498
sg70
g4492
sg63
(lp4499
g56
(g57
g58
NtRp4500
(dp4501
g61
(dp4502
g69
I1
ssg70
g4496
sg63
(lp4503
I00
asbasbasbag56
(g72
g58
NtRp4504
(dp4505
g61
(dp4506
sg70
g4475
sg63
(lp4507
g56
(g77
g58
NtRp4508
(dp4509
g61
(dp4510
sg70
g4504
sg63
(lp4511
g56
(g57
g58
NtRp4512
(dp4513
g61
(dp4514
g69
I1
ssg70
g4508
sg63
(lp4515
S'/admin/default/edit/topoi/models/db.py'
p4516
asbasbasbasbasbasbasbag56
(g72
g58
NtRp4517
(dp4518
g61
(dp4519
sg70
g4243
sg63
(lp4520
g56
(g77
g58
NtRp4521
(dp4522
g61
(dp4523
sg70
g4517
sg63
(lp4524
g56
(g57
g58
NtRp4525
(dp4526
g61
(dp4527
g69
I2
ssg70
g4521
sg63
(lp4528
g56
(g65
g58
NtRp4529
(dp4530
g61
(dp4531
g69
I1
ssg70
Nsg63
(lp4532
g56
(g72
g58
NtRp4533
(dp4534
g61
(dp4535
sg70
g4529
sg63
(lp4536
g56
(g77
g58
NtRp4537
(dp4538
g61
(dp4539
sg70
g4533
sg63
(lp4540
g56
(g57
g58
NtRp4541
(dp4542
g61
(dp4543
g69
I1
ssg70
g4537
sg63
(lp4544
g4134
(S's\n\x00\x00\x00Menu Model'
tRp4545
asbasbasbag56
(g72
g58
NtRp4546
(dp4547
g61
(dp4548
sg70
g4529
sg63
(lp4549
g56
(g77
g58
NtRp4550
(dp4551
g61
(dp4552
sg70
g4546
sg63
(lp4553
g56
(g57
g58
NtRp4554
(dp4555
g61
(dp4556
g69
I1
ssg70
g4550
sg63
(lp4557
I00
asbasbasbag56
(g72
g58
NtRp4558
(dp4559
g61
(dp4560
sg70
g4529
sg63
(lp4561
g56
(g77
g58
NtRp4562
(dp4563
g61
(dp4564
sg70
g4558
sg63
(lp4565
g56
(g57
g58
NtRp4566
(dp4567
g61
(dp4568
g69
I1
ssg70
g4562
sg63
(lp4569
S'/admin/default/edit/topoi/models/menu.py'
p4570
asbasbasbasbasbasbasbag56
(g72
g58
NtRp4571
(dp4572
g61
(dp4573
sg70
g4243
sg63
(lp4574
g56
(g77
g58
NtRp4575
(dp4576
g61
(dp4577
sg70
g4571
sg63
(lp4578
g56
(g57
g58
NtRp4579
(dp4580
g61
(dp4581
g69
I2
ssg70
g4575
sg63
(lp4582
g56
(g65
g58
NtRp4583
(dp4584
g61
(dp4585
g69
I1
ssg70
Nsg63
(lp4586
g56
(g72
g58
NtRp4587
(dp4588
g61
(dp4589
sg70
g4583
sg63
(lp4590
g56
(g77
g58
NtRp4591
(dp4592
g61
(dp4593
sg70
g4587
sg63
(lp4594
g56
(g57
g58
NtRp4595
(dp4596
g61
(dp4597
g69
I1
ssg70
g4591
sg63
(lp4598
g4134
(S't\x08\x00\x00\x00Database'
tRp4599
asbasbasbag56
(g72
g58
NtRp4600
(dp4601
g61
(dp4602
sg70
g4583
sg63
(lp4603
g56
(g77
g58
NtRp4604
(dp4605
g61
(dp4606
sg70
g4600
sg63
(lp4607
g56
(g57
g58
NtRp4608
(dp4609
g61
(dp4610
g69
I1
ssg70
g4604
sg63
(lp4611
I00
asbasbasbag56
(g72
g58
NtRp4612
(dp4613
g61
(dp4614
sg70
g4583
sg63
(lp4615
g56
(g77
g58
NtRp4616
(dp4617
g61
(dp4618
sg70
g4612
sg63
(lp4619
g56
(g57
g58
NtRp4620
(dp4621
g61
(dp4622
g69
I1
ssg70
g4616
sg63
(lp4623
S'/topoi/appadmin/index.load'
p4624
asbasbasbasbasbasbasbag56
(g72
g58
NtRp4625
(dp4626
g61
(dp4627
sg70
g4243
sg63
(lp4628
g56
(g77
g58
NtRp4629
(dp4630
g61
(dp4631
sg70
g4625
sg63
(lp4632
g56
(g57
g58
NtRp4633
(dp4634
g61
(dp4635
g69
I2
ssg70
g4629
sg63
(lp4636
g56
(g65
g58
NtRp4637
(dp4638
g61
(dp4639
g69
I1
ssg70
Nsg63
(lp4640
g56
(g72
g58
NtRp4641
(dp4642
g61
(dp4643
sg70
g4637
sg63
(lp4644
g56
(g77
g58
NtRp4645
(dp4646
g61
(dp4647
sg70
g4641
sg63
(lp4648
g56
(g57
g58
NtRp4649
(dp4650
g61
(dp4651
g69
I1
ssg70
g4645
sg63
(lp4652
g4134
(S't\x06\x00\x00\x00Errors'
tRp4653
asbasbasbag56
(g72
g58
NtRp4654
(dp4655
g61
(dp4656
sg70
g4637
sg63
(lp4657
g56
(g77
g58
NtRp4658
(dp4659
g61
(dp4660
sg70
g4654
sg63
(lp4661
g56
(g57
g58
NtRp4662
(dp4663
g61
(dp4664
g69
I1
ssg70
g4658
sg63
(lp4665
I00
asbasbasbag56
(g72
g58
NtRp4666
(dp4667
g61
(dp4668
sg70
g4637
sg63
(lp4669
g56
(g77
g58
NtRp4670
(dp4671
g61
(dp4672
sg70
g4666
sg63
(lp4673
g56
(g57
g58
NtRp4674
(dp4675
g61
(dp4676
g69
I1
ssg70
g4670
sg63
(lp4677
S'/admin/default/errors/topoi.load'
p4678
asbasbasbasbasbasbasbag56
(g72
g58
NtRp4679
(dp4680
g61
(dp4681
sg70
g4243
sg63
(lp4682
g56
(g77
g58
NtRp4683
(dp4684
g61
(dp4685
sg70
g4679
sg63
(lp4686
g56
(g57
g58
NtRp4687
(dp4688
g61
(dp4689
g69
I2
ssg70
g4683
sg63
(lp4690
g56
(g65
g58
NtRp4691
(dp4692
g61
(dp4693
g69
I1
ssg70
Nsg63
(lp4694
g56
(g72
g58
NtRp4695
(dp4696
g61
(dp4697
sg70
g4691
sg63
(lp4698
g56
(g77
g58
NtRp4699
(dp4700
g61
(dp4701
sg70
g4695
sg63
(lp4702
g56
(g57
g58
NtRp4703
(dp4704
g61
(dp4705
g69
I1
ssg70
g4699
sg63
(lp4706
g4134
(S't\x05\x00\x00\x00About'
tRp4707
asbasbasbag56
(g72
g58
NtRp4708
(dp4709
g61
(dp4710
sg70
g4691
sg63
(lp4711
g56
(g77
g58
NtRp4712
(dp4713
g61
(dp4714
sg70
g4708
sg63
(lp4715
g56
(g57
g58
NtRp4716
(dp4717
g61
(dp4718
g69
I1
ssg70
g4712
sg63
(lp4719
I00
asbasbasbag56
(g72
g58
NtRp4720
(dp4721
g61
(dp4722
sg70
g4691
sg63
(lp4723
g56
(g77
g58
NtRp4724
(dp4725
g61
(dp4726
sg70
g4720
sg63
(lp4727
g56
(g57
g58
NtRp4728
(dp4729
g61
(dp4730
g69
I1
ssg70
g4724
sg63
(lp4731
S'/admin/default/about/topoi.load'
p4732
asbasbasbasbasbasbasbasbasbasbasbasbasbasbasbasbasbasbasbag56
(g72
g58
NtRp4733
(dp4734
g61
(dp4735
sg70
g3628
sg63
(lp4736
g56
(g77
g58
NtRp4737
(dp4738
g61
(dp4739
g81
g82
ssg70
g4733
sg63
(lp4740
S'meta'
p4741
asbag56
(g77
g58
NtRp4742
(dp4743
g61
(dp4744
g88
g89
ssg70
g4733
sg63
(lp4745
S':'
asbag56
(g77
g58
NtRp4746
(dp4747
g61
(dp4748
sg70
g4733
sg63
(lp4749
g56
(g57
g58
NtRp4750
(dp4751
g61
(dp4752
g69
I5
ssg70
g4746
sg63
(lp4753
g56
(g65
g58
NtRp4754
(dp4755
g61
(dp4756
g69
I4
ssg70
Nsg63
(lp4757
g56
(g72
g58
NtRp4758
(dp4759
g61
(dp4760
sg70
g4754
sg63
(lp4761
g56
(g77
g58
NtRp4762
(dp4763
g61
(dp4764
g81
g82
ssg70
g4758
sg63
(lp4765
S'author'
p4766
asbag56
(g77
g58
NtRp4767
(dp4768
g61
(dp4769
g88
g89
ssg70
g4758
sg63
(lp4770
S':'
asbag56
(g77
g58
NtRp4771
(dp4772
g61
(dp4773
sg70
g4758
sg63
(lp4774
g56
(g57
g58
NtRp4775
(dp4776
g61
(dp4777
g69
I4
ssg70
g4771
sg63
(lp4778
S'Ian W. Scott'
p4779
asbasbasbag56
(g72
g58
NtRp4780
(dp4781
g61
(dp4782
sg70
g4754
sg63
(lp4783
g56
(g77
g58
NtRp4784
(dp4785
g61
(dp4786
g81
g82
ssg70
g4780
sg63
(lp4787
S'copyright'
p4788
asbag56
(g77
g58
NtRp4789
(dp4790
g61
(dp4791
g88
g89
ssg70
g4780
sg63
(lp4792
S':'
asbag56
(g77
g58
NtRp4793
(dp4794
g61
(dp4795
sg70
g4780
sg63
(lp4796
g56
(g57
g58
NtRp4797
(dp4798
g61
(dp4799
g69
I4
ssg70
g4793
sg63
(lp4800
S'Copyright 2011'
p4801
asbasbasbag56
(g72
g58
NtRp4802
(dp4803
g61
(dp4804
sg70
g4754
sg63
(lp4805
g56
(g77
g58
NtRp4806
(dp4807
g61
(dp4808
g81
g82
ssg70
g4802
sg63
(lp4809
S'description'
p4810
asbag56
(g77
g58
NtRp4811
(dp4812
g61
(dp4813
g88
g89
ssg70
g4802
sg63
(lp4814
S':'
asbag56
(g77
g58
NtRp4815
(dp4816
g61
(dp4817
sg70
g4802
sg63
(lp4818
g56
(g57
g58
NtRp4819
(dp4820
g61
(dp4821
g69
I4
ssg70
g4815
sg63
(lp4822
S'A web-app for managing primary-text research in the humanities.'
p4823
asbasbasbag56
(g72
g58
NtRp4824
(dp4825
g61
(dp4826
sg70
g4754
sg63
(lp4827
g56
(g77
g58
NtRp4828
(dp4829
g61
(dp4830
g81
g82
ssg70
g4824
sg63
(lp4831
S'generator'
p4832
asbag56
(g77
g58
NtRp4833
(dp4834
g61
(dp4835
g88
g89
ssg70
g4824
sg63
(lp4836
S':'
asbag56
(g77
g58
NtRp4837
(dp4838
g61
(dp4839
sg70
g4824
sg63
(lp4840
g56
(g57
g58
NtRp4841
(dp4842
g61
(dp4843
g69
I4
ssg70
g4837
sg63
(lp4844
S'Web2py Enterprise Framework'
p4845
asbasbasbag56
(g72
g58
NtRp4846
(dp4847
g61
(dp4848
sg70
g4754
sg63
(lp4849
g56
(g77
g58
NtRp4850
(dp4851
g61
(dp4852
g81
g82
ssg70
g4846
sg63
(lp4853
S'keywords'
p4854
asbag56
(g77
g58
NtRp4855
(dp4856
g61
(dp4857
g88
g89
ssg70
g4846
sg63
(lp4858
S':'
asbag56
(g77
g58
NtRp4859
(dp4860
g61
(dp4861
sg70
g4846
sg63
(lp4862
g56
(g57
g58
NtRp4863
(dp4864
g61
(dp4865
g69
I4
ssg70
g4859
sg63
(lp4866
S'research, humanities, biblical'
p4867
asbasbasbasbasbasbasbag56
(g72
g58
NtRp4868
(dp4869
g61
(dp4870
sg70
g3628
sg63
(lp4871
g56
(g77
g58
NtRp4872
(dp4873
g61
(dp4874
g81
g82
ssg70
g4868
sg63
(lp4875
S'postprocessing'
p4876
asbag56
(g77
g58
NtRp4877
(dp4878
g61
(dp4879
g88
g89
ssg70
g4868
sg63
(lp4880
S':'
asbag56
(g77
g58
NtRp4881
(dp4882
g61
(dp4883
sg70
g4868
sg63
(lp4884
g56
(g57
g58
NtRp4885
(dp4886
g61
(dp4887
g69
I5
ssg70
g4881
sg63
(lp4888
g56
(g65
g58
NtRp4889
(dp4890
g61
(dp4891
g69
I4
ssg70
Nsg63
(lp4892
sbasbasbasbag56
(g72
g58
NtRp4893
(dp4894
g61
(dp4895
sg70
g3628
sg63
(lp4896
g56
(g77
g58
NtRp4897
(dp4898
g61
(dp4899
g81
g82
ssg70
g4893
sg63
(lp4900
S'session_file'
p4901
asbag56
(g77
g58
NtRp4902
(dp4903
g61
(dp4904
g88
g89
ssg70
g4893
sg63
(lp4905
S':'
asbag56
(g77
g58
NtRp4906
(dp4907
g61
(dp4908
sg70
g4893
sg63
(lp4909
g56
(g57
g58
NtRp4910
(dp4911
g61
(dp4912
g69
I5
ssg70
g4906
sg63
(lp4913
S"<open file '/home/ian/web2py/applications/topoi/sessions/127.0.0.1-fbfd7fa3-57f5-4d42-8f08-594178070e93', mode 'rb+' at 0x418cae0>"
p4914
asbasbasbag56
(g72
g58
NtRp4915
(dp4916
g61
(dp4917
sg70
g3628
sg63
(lp4918
g56
(g77
g58
NtRp4919
(dp4920
g61
(dp4921
g81
g82
ssg70
g4915
sg63
(lp4922
S'session_filename'
p4923
asbag56
(g77
g58
NtRp4924
(dp4925
g61
(dp4926
g88
g89
ssg70
g4915
sg63
(lp4927
S':'
asbag56
(g77
g58
NtRp4928
(dp4929
g61
(dp4930
sg70
g4915
sg63
(lp4931
g56
(g57
g58
NtRp4932
(dp4933
g61
(dp4934
g69
I5
ssg70
g4928
sg63
(lp4935
S'/home/ian/web2py/applications/topoi/sessions/127.0.0.1-fbfd7fa3-57f5-4d42-8f08-594178070e93'
p4936
asbasbasbag56
(g72
g58
NtRp4937
(dp4938
g61
(dp4939
sg70
g3628
sg63
(lp4940
g56
(g77
g58
NtRp4941
(dp4942
g61
(dp4943
g81
g82
ssg70
g4937
sg63
(lp4944
S'session_id'
p4945
asbag56
(g77
g58
NtRp4946
(dp4947
g61
(dp4948
g88
g89
ssg70
g4937
sg63
(lp4949
S':'
asbag56
(g77
g58
NtRp4950
(dp4951
g61
(dp4952
sg70
g4937
sg63
(lp4953
g56
(g57
g58
NtRp4954
(dp4955
g61
(dp4956
g69
I5
ssg70
g4950
sg63
(lp4957
S'127.0.0.1-fbfd7fa3-57f5-4d42-8f08-594178070e93'
p4958
asbasbasbag56
(g72
g58
NtRp4959
(dp4960
g61
(dp4961
sg70
g3628
sg63
(lp4962
g56
(g77
g58
NtRp4963
(dp4964
g61
(dp4965
g81
g82
ssg70
g4959
sg63
(lp4966
S'session_id_name'
p4967
asbag56
(g77
g58
NtRp4968
(dp4969
g61
(dp4970
g88
g89
ssg70
g4959
sg63
(lp4971
S':'
asbag56
(g77
g58
NtRp4972
(dp4973
g61
(dp4974
sg70
g4959
sg63
(lp4975
g56
(g57
g58
NtRp4976
(dp4977
g61
(dp4978
g69
I5
ssg70
g4972
sg63
(lp4979
g3685
asbasbasbag56
(g72
g58
NtRp4980
(dp4981
g61
(dp4982
sg70
g3628
sg63
(lp4983
g56
(g77
g58
NtRp4984
(dp4985
g61
(dp4986
g81
g82
ssg70
g4980
sg63
(lp4987
S'session_locked'
p4988
asbag56
(g77
g58
NtRp4989
(dp4990
g61
(dp4991
g88
g89
ssg70
g4980
sg63
(lp4992
S':'
asbag56
(g77
g58
NtRp4993
(dp4994
g61
(dp4995
sg70
g4980
sg63
(lp4996
g56
(g57
g58
NtRp4997
(dp4998
g61
(dp4999
g69
I5
ssg70
g4993
sg63
(lp5000
g99
asbasbasbag56
(g72
g58
NtRp5001
(dp5002
g61
(dp5003
sg70
g3628
sg63
(lp5004
g56
(g77
g58
NtRp5005
(dp5006
g61
(dp5007
g81
g82
ssg70
g5001
sg63
(lp5008
S'session_new'
p5009
asbag56
(g77
g58
NtRp5010
(dp5011
g61
(dp5012
g88
g89
ssg70
g5001
sg63
(lp5013
S':'
asbag56
(g77
g58
NtRp5014
(dp5015
g61
(dp5016
sg70
g5001
sg63
(lp5017
g56
(g57
g58
NtRp5018
(dp5019
g61
(dp5020
g69
I5
ssg70
g5014
sg63
(lp5021
g1046
asbasbasbag56
(g72
g58
NtRp5022
(dp5023
g61
(dp5024
sg70
g3628
sg63
(lp5025
g56
(g77
g58
NtRp5026
(dp5027
g61
(dp5028
g81
g82
ssg70
g5022
sg63
(lp5029
S'status'
p5030
asbag56
(g77
g58
NtRp5031
(dp5032
g61
(dp5033
g88
g89
ssg70
g5022
sg63
(lp5034
S':'
asbag56
(g77
g58
NtRp5035
(dp5036
g61
(dp5037
sg70
g5022
sg63
(lp5038
g56
(g57
g58
NtRp5039
(dp5040
g61
(dp5041
g69
I5
ssg70
g5035
sg63
(lp5042
S'200'
p5043
asbasbasbag56
(g72
g58
NtRp5044
(dp5045
g61
(dp5046
sg70
g3628
sg63
(lp5047
g56
(g77
g58
NtRp5048
(dp5049
g61
(dp5050
g81
g82
ssg70
g5044
sg63
(lp5051
S'subtitle'
p5052
asbag56
(g77
g58
NtRp5053
(dp5054
g61
(dp5055
g88
g89
ssg70
g5044
sg63
(lp5056
S':'
asbag56
(g77
g58
NtRp5057
(dp5058
g61
(dp5059
sg70
g5044
sg63
(lp5060
g56
(g57
g58
NtRp5061
(dp5062
g61
(dp5063
g69
I5
ssg70
g5057
sg63
(lp5064
g4134
(S's;\x00\x00\x00A tool for managing primary-text research in the humanities'
tRp5065
asbasbasbag56
(g72
g58
NtRp5066
(dp5067
g61
(dp5068
sg70
g3628
sg63
(lp5069
g56
(g77
g58
NtRp5070
(dp5071
g61
(dp5072
g81
g82
ssg70
g5066
sg63
(lp5073
S'title'
p5074
asbag56
(g77
g58
NtRp5075
(dp5076
g61
(dp5077
g88
g89
ssg70
g5066
sg63
(lp5078
S':'
asbag56
(g77
g58
NtRp5079
(dp5080
g61
(dp5081
sg70
g5066
sg63
(lp5082
g56
(g57
g58
NtRp5083
(dp5084
g61
(dp5085
g69
I5
ssg70
g5079
sg63
(lp5086
g121
asbasbasbag56
(g72
g58
NtRp5087
(dp5088
g61
(dp5089
sg70
g3628
sg63
(lp5090
g56
(g77
g58
NtRp5091
(dp5092
g61
(dp5093
g81
g82
ssg70
g5087
sg63
(lp5094
g2495
asbag56
(g77
g58
NtRp5095
(dp5096
g61
(dp5097
g88
g89
ssg70
g5087
sg63
(lp5098
S':'
asbag56
(g77
g58
NtRp5099
(dp5100
g61
(dp5101
sg70
g5087
sg63
(lp5102
g56
(g57
g58
NtRp5103
(dp5104
g61
(dp5105
g69
I5
ssg70
g5099
sg63
(lp5106
g2508
asbasbasbag56
(g72
g58
NtRp5107
(dp5108
g61
(dp5109
sg70
g3628
sg63
(lp5110
g56
(g77
g58
NtRp5111
(dp5112
g61
(dp5113
g81
g82
ssg70
g5107
sg63
(lp5114
S'view'
p5115
asbag56
(g77
g58
NtRp5116
(dp5117
g61
(dp5118
g88
g89
ssg70
g5107
sg63
(lp5119
S':'
asbag56
(g77
g58
NtRp5120
(dp5121
g61
(dp5122
sg70
g5107
sg63
(lp5123
g56
(g57
g58
NtRp5124
(dp5125
g61
(dp5126
g69
I5
ssg70
g5120
sg63
(lp5127
S'plugin_ajaxselect/set_widget.load'
p5128
asbasbasbasbasbsS'locals'
p5129
(dp5130
S'linktable'
p5131
S"'authors'"
p5132
sS'the_table'
p5133
S"<Table {'reference': <gluon.dal.Field object at ...>, '_id': <gluon.dal.Field object at 0x3bf8d50>}>"
p5134
sS'wrappername'
p5135
S"'notes_author_loader'"
p5136
sS'value'
p5137
S"'10'"
p5138
sS'field'
p5139
S"'author'"
p5140
sS'w'
S'<gluon.html.SELECT object>'
p5141
sS'the_field'
p5142
S'<gluon.dal.Field object>'
p5143
sS'table'
p5144
S"'notes'"
p5145
sS'the_linktable'
p5146
S"<Table {'ALL': <gluon.dal.SQLALL object at 0x3bd...0>, 'id': <gluon.dal.Field object at 0x3bd1f90>}>"
p5147
sssS'traceback'
p5148
S'Traceback (most recent call last):\n  File "/home/ian/web2py/gluon/restricted.py", line 194, in restricted\n    exec ccode in environment\n  File "/home/ian/web2py/applications/topoi/controllers/plugin_ajaxselect.py", line 35, in <module>\n  File "/home/ian/web2py/gluon/globals.py", line 149, in <lambda>\n    self._caller = lambda f: f()\n  File "/home/ian/web2py/applications/topoi/controllers/plugin_ajaxselect.py", line 33, in set_widget\n    return dict(widget = w, wrappername = wrappername, form = form),\nNameError: global name \'form\' is not defined\n'
p5149
s.