(dp1
S'output'
p2
S''
sS'layer'
p3
S'/home/ian/web2py/applications/topoi/controllers/plugin_listandedit.py'
p4
sS'code'
p5
S"# coding: utf8\n# try something like\ndef list(): \n    response.files.append(URL('static', 'plugin_listandedit/plugin_listandedit.css'))\n    response.files.append(URL('static', 'plugin_listandedit/plugin_listandedit.js'))\n    #settings    \n    displayfield = ''\n    \n    tablename = request.args[0]\n    #FIXME: Hack here to solve problem of field name not being identical to table name\n    tablename = tablename + 's'\n    \n    fieldname = db[tablename].fields[1]    \n    print tablename\n        \n    rowlist = ''    \n    if not tablename in db.tables():\n        response.flash = 'error'\n    else:\n        tb = db[tablename]\n        rowlist = db(tb).select()\n    \n    listset = []\n    for r in rowlist:\n        i = A(r[fieldname], _href=URL('plugin_listandedit', 'edit.load', args=[tablename, r.id]), _class='plugin_listandedit_list', cid='viewpane')    \n        listset.append(i)\n                \n    return dict(listset = listset)\n\ndef edit():\n    tablename = request.args[0]\n    rowid = request.args[1]\n    form = crud.update(db[tablename], rowid)\n    \n    return dict(form = form)\n\nresponse._vars=response._caller(list)\n"
p6
sS'snapshot'
p7
(dp8
S'exception'
p9
(dp10
S'__hash__'
p11
S"<method-wrapper '__hash__' of exceptions.KeyError object>"
p12
sS'__setattr__'
p13
S"<method-wrapper '__setattr__' of exceptions.KeyError object>"
p14
sS'__reduce_ex__'
p15
S'<built-in method __reduce_ex__ of exceptions.KeyError object>'
p16
sS'__getslice__'
p17
S"<method-wrapper '__getslice__' of exceptions.KeyError object>"
p18
sS'__getitem__'
p19
S"<method-wrapper '__getitem__' of exceptions.KeyError object>"
p20
sS'__setstate__'
p21
S'<built-in method __setstate__ of exceptions.KeyError object>'
p22
sS'args'
p23
S"('fontss',)"
p24
sS'__reduce__'
p25
S'<built-in method __reduce__ of exceptions.KeyError object>'
p26
sS'__str__'
p27
S"<method-wrapper '__str__' of exceptions.KeyError object>"
p28
sS'__format__'
p29
S'<built-in method __format__ of exceptions.KeyError object>'
p30
sS'__getattribute__'
p31
S"<method-wrapper '__getattribute__' of exceptions.KeyError object>"
p32
sS'__class__'
p33
S"<type 'exceptions.KeyError'>"
p34
sS'__unicode__'
p35
S'<built-in method __unicode__ of exceptions.KeyError object>'
p36
sS'__delattr__'
p37
S"<method-wrapper '__delattr__' of exceptions.KeyError object>"
p38
sS'__subclasshook__'
p39
S'<built-in method __subclasshook__ of type object>'
p40
sS'__repr__'
p41
S"<method-wrapper '__repr__' of exceptions.KeyError object>"
p42
sS'__dict__'
p43
S'{}'
p44
sS'__sizeof__'
p45
S'<built-in method __sizeof__ of exceptions.KeyError object>'
p46
sS'__doc__'
p47
S"'Mapping key not found.'"
p48
sS'__init__'
p49
S"<method-wrapper '__init__' of exceptions.KeyError object>"
p50
sS'__new__'
p51
S'<built-in method __new__ of type object>'
p52
ssS'evalue'
p53
S"'fontss'"
p54
sS'request'
p55
ccopy_reg
_reconstructor
p56
(cgluon.html
BEAUTIFY
p57
c__builtin__
object
p58
NtRp59
(dp60
S'attributes'
p61
(dp62
sS'components'
p63
(lp64
g56
(cgluon.html
TABLE
p65
g58
NtRp66
(dp67
g61
(dp68
S'level'
p69
I5
ssS'parent'
p70
Nsg63
(lp71
g56
(cgluon.html
TR
p72
g58
NtRp73
(dp74
g61
(dp75
sg70
g66
sg63
(lp76
g56
(cgluon.html
TD
p77
g58
NtRp78
(dp79
g61
(dp80
S'_style'
p81
S'font-weight:bold;'
p82
ssg70
g73
sg63
(lp83
S'ajax'
p84
asbag56
(g77
g58
NtRp85
(dp86
g61
(dp87
S'_valign'
p88
S'top'
p89
ssg70
g73
sg63
(lp90
S':'
asbag56
(g77
g58
NtRp91
(dp92
g61
(dp93
sg70
g73
sg63
(lp94
g56
(g57
g58
NtRp95
(dp96
g61
(dp97
g69
I5
ssg70
g91
sg63
(lp98
S'False'
p99
asbasbasbag56
(g72
g58
NtRp100
(dp101
g61
(dp102
sg70
g66
sg63
(lp103
g56
(g77
g58
NtRp104
(dp105
g61
(dp106
g81
g82
ssg70
g100
sg63
(lp107
S'application'
p108
asbag56
(g77
g58
NtRp109
(dp110
g61
(dp111
g88
g89
ssg70
g100
sg63
(lp112
S':'
asbag56
(g77
g58
NtRp113
(dp114
g61
(dp115
sg70
g100
sg63
(lp116
g56
(g57
g58
NtRp117
(dp118
g61
(dp119
g69
I5
ssg70
g113
sg63
(lp120
S'topoi'
p121
asbasbasbag56
(g72
g58
NtRp122
(dp123
g61
(dp124
sg70
g66
sg63
(lp125
g56
(g77
g58
NtRp126
(dp127
g61
(dp128
g81
g82
ssg70
g122
sg63
(lp129
g23
asbag56
(g77
g58
NtRp130
(dp131
g61
(dp132
g88
g89
ssg70
g122
sg63
(lp133
S':'
asbag56
(g77
g58
NtRp134
(dp135
g61
(dp136
sg70
g122
sg63
(lp137
g56
(g57
g58
NtRp138
(dp139
g61
(dp140
g69
I5
ssg70
g134
sg63
(lp141
g56
(g65
g58
NtRp142
(dp143
g61
(dp144
g69
I4
ssg70
Nsg63
(lp145
g56
(g72
g58
NtRp146
(dp147
g61
(dp148
sg70
g142
sg63
(lp149
g56
(g77
g58
NtRp150
(dp151
g61
(dp152
sg70
g146
sg63
(lp153
g56
(g57
g58
NtRp154
(dp155
g61
(dp156
g69
I4
ssg70
g150
sg63
(lp157
S'fonts'
p158
asbasbasbag56
(g72
g58
NtRp159
(dp160
g61
(dp161
sg70
g142
sg63
(lp162
g56
(g77
g58
NtRp163
(dp164
g61
(dp165
sg70
g159
sg63
(lp166
g56
(g57
g58
NtRp167
(dp168
g61
(dp169
g69
I4
ssg70
g163
sg63
(lp170
S'websymbols-regular-webfont.woff'
p171
asbasbasbasbasbasbasbag56
(g72
g58
NtRp172
(dp173
g61
(dp174
sg70
g66
sg63
(lp175
g56
(g77
g58
NtRp176
(dp177
g61
(dp178
g81
g82
ssg70
g172
sg63
(lp179
S'body'
p180
asbag56
(g77
g58
NtRp181
(dp182
g61
(dp183
g88
g89
ssg70
g172
sg63
(lp184
S':'
asbag56
(g77
g58
NtRp185
(dp186
g61
(dp187
sg70
g172
sg63
(lp188
g56
(g57
g58
NtRp189
(dp190
g61
(dp191
g69
I5
ssg70
g185
sg63
(lp192
S'<cStringIO.StringO object at 0x26ab298>'
p193
asbasbasbag56
(g72
g58
NtRp194
(dp195
g61
(dp196
sg70
g66
sg63
(lp197
g56
(g77
g58
NtRp198
(dp199
g61
(dp200
g81
g82
ssg70
g194
sg63
(lp201
S'client'
p202
asbag56
(g77
g58
NtRp203
(dp204
g61
(dp205
g88
g89
ssg70
g194
sg63
(lp206
S':'
asbag56
(g77
g58
NtRp207
(dp208
g61
(dp209
sg70
g194
sg63
(lp210
g56
(g57
g58
NtRp211
(dp212
g61
(dp213
g69
I5
ssg70
g207
sg63
(lp214
S'127.0.0.1'
p215
asbasbasbag56
(g72
g58
NtRp216
(dp217
g61
(dp218
sg70
g66
sg63
(lp219
g56
(g77
g58
NtRp220
(dp221
g61
(dp222
g81
g82
ssg70
g216
sg63
(lp223
S'controller'
p224
asbag56
(g77
g58
NtRp225
(dp226
g61
(dp227
g88
g89
ssg70
g216
sg63
(lp228
S':'
asbag56
(g77
g58
NtRp229
(dp230
g61
(dp231
sg70
g216
sg63
(lp232
g56
(g57
g58
NtRp233
(dp234
g61
(dp235
g69
I5
ssg70
g229
sg63
(lp236
S'plugin_listandedit'
p237
asbasbasbag56
(g72
g58
NtRp238
(dp239
g61
(dp240
sg70
g66
sg63
(lp241
g56
(g77
g58
NtRp242
(dp243
g61
(dp244
g81
g82
ssg70
g238
sg63
(lp245
S'cookies'
p246
asbag56
(g77
g58
NtRp247
(dp248
g61
(dp249
g88
g89
ssg70
g238
sg63
(lp250
S':'
asbag56
(g77
g58
NtRp251
(dp252
g61
(dp253
sg70
g238
sg63
(lp254
g56
(g57
g58
NtRp255
(dp256
g61
(dp257
g69
I5
ssg70
g251
sg63
(lp258
g56
(g65
g58
NtRp259
(dp260
g61
(dp261
g69
I4
ssg70
Nsg63
(lp262
g56
(g72
g58
NtRp263
(dp264
g61
(dp265
sg70
g259
sg63
(lp266
g56
(g77
g58
NtRp267
(dp268
g61
(dp269
g81
g82
ssg70
g263
sg63
(lp270
S'session_id_admin'
p271
asbag56
(g77
g58
NtRp272
(dp273
g61
(dp274
g88
g89
ssg70
g263
sg63
(lp275
S':'
asbag56
(g77
g58
NtRp276
(dp277
g61
(dp278
sg70
g263
sg63
(lp279
g56
(g57
g58
NtRp280
(dp281
g61
(dp282
g69
I4
ssg70
g276
sg63
(lp283
g56
(g65
g58
NtRp284
(dp285
g61
(dp286
g69
I3
ssg70
Nsg63
(lp287
g56
(g72
g58
NtRp288
(dp289
g61
(dp290
sg70
g284
sg63
(lp291
g56
(g77
g58
NtRp292
(dp293
g61
(dp294
g81
g82
ssg70
g288
sg63
(lp295
S'comment'
p296
asbag56
(g77
g58
NtRp297
(dp298
g61
(dp299
g88
g89
ssg70
g288
sg63
(lp300
S':'
asbag56
(g77
g58
NtRp301
(dp302
g61
(dp303
sg70
g288
sg63
(lp304
g56
(g57
g58
NtRp305
(dp306
g61
(dp307
g69
I3
ssg70
g301
sg63
(lp308
S''
asbasbasbag56
(g72
g58
NtRp309
(dp310
g61
(dp311
sg70
g284
sg63
(lp312
g56
(g77
g58
NtRp313
(dp314
g61
(dp315
g81
g82
ssg70
g309
sg63
(lp316
S'domain'
p317
asbag56
(g77
g58
NtRp318
(dp319
g61
(dp320
g88
g89
ssg70
g309
sg63
(lp321
S':'
asbag56
(g77
g58
NtRp322
(dp323
g61
(dp324
sg70
g309
sg63
(lp325
g56
(g57
g58
NtRp326
(dp327
g61
(dp328
g69
I3
ssg70
g322
sg63
(lp329
S''
asbasbasbag56
(g72
g58
NtRp330
(dp331
g61
(dp332
sg70
g284
sg63
(lp333
g56
(g77
g58
NtRp334
(dp335
g61
(dp336
g81
g82
ssg70
g330
sg63
(lp337
S'expires'
p338
asbag56
(g77
g58
NtRp339
(dp340
g61
(dp341
g88
g89
ssg70
g330
sg63
(lp342
S':'
asbag56
(g77
g58
NtRp343
(dp344
g61
(dp345
sg70
g330
sg63
(lp346
g56
(g57
g58
NtRp347
(dp348
g61
(dp349
g69
I3
ssg70
g343
sg63
(lp350
S''
asbasbasbag56
(g72
g58
NtRp351
(dp352
g61
(dp353
sg70
g284
sg63
(lp354
g56
(g77
g58
NtRp355
(dp356
g61
(dp357
g81
g82
ssg70
g351
sg63
(lp358
S'httponly'
p359
asbag56
(g77
g58
NtRp360
(dp361
g61
(dp362
g88
g89
ssg70
g351
sg63
(lp363
S':'
asbag56
(g77
g58
NtRp364
(dp365
g61
(dp366
sg70
g351
sg63
(lp367
g56
(g57
g58
NtRp368
(dp369
g61
(dp370
g69
I3
ssg70
g364
sg63
(lp371
S''
asbasbasbag56
(g72
g58
NtRp372
(dp373
g61
(dp374
sg70
g284
sg63
(lp375
g56
(g77
g58
NtRp376
(dp377
g61
(dp378
g81
g82
ssg70
g372
sg63
(lp379
S'max-age'
p380
asbag56
(g77
g58
NtRp381
(dp382
g61
(dp383
g88
g89
ssg70
g372
sg63
(lp384
S':'
asbag56
(g77
g58
NtRp385
(dp386
g61
(dp387
sg70
g372
sg63
(lp388
g56
(g57
g58
NtRp389
(dp390
g61
(dp391
g69
I3
ssg70
g385
sg63
(lp392
S''
asbasbasbag56
(g72
g58
NtRp393
(dp394
g61
(dp395
sg70
g284
sg63
(lp396
g56
(g77
g58
NtRp397
(dp398
g61
(dp399
g81
g82
ssg70
g393
sg63
(lp400
S'path'
p401
asbag56
(g77
g58
NtRp402
(dp403
g61
(dp404
g88
g89
ssg70
g393
sg63
(lp405
S':'
asbag56
(g77
g58
NtRp406
(dp407
g61
(dp408
sg70
g393
sg63
(lp409
g56
(g57
g58
NtRp410
(dp411
g61
(dp412
g69
I3
ssg70
g406
sg63
(lp413
S''
asbasbasbag56
(g72
g58
NtRp414
(dp415
g61
(dp416
sg70
g284
sg63
(lp417
g56
(g77
g58
NtRp418
(dp419
g61
(dp420
g81
g82
ssg70
g414
sg63
(lp421
S'secure'
p422
asbag56
(g77
g58
NtRp423
(dp424
g61
(dp425
g88
g89
ssg70
g414
sg63
(lp426
S':'
asbag56
(g77
g58
NtRp427
(dp428
g61
(dp429
sg70
g414
sg63
(lp430
g56
(g57
g58
NtRp431
(dp432
g61
(dp433
g69
I3
ssg70
g427
sg63
(lp434
S''
asbasbasbag56
(g72
g58
NtRp435
(dp436
g61
(dp437
sg70
g284
sg63
(lp438
g56
(g77
g58
NtRp439
(dp440
g61
(dp441
g81
g82
ssg70
g435
sg63
(lp442
S'version'
p443
asbag56
(g77
g58
NtRp444
(dp445
g61
(dp446
g88
g89
ssg70
g435
sg63
(lp447
S':'
asbag56
(g77
g58
NtRp448
(dp449
g61
(dp450
sg70
g435
sg63
(lp451
g56
(g57
g58
NtRp452
(dp453
g61
(dp454
g69
I3
ssg70
g448
sg63
(lp455
S''
asbasbasbasbasbasbasbag56
(g72
g58
NtRp456
(dp457
g61
(dp458
sg70
g259
sg63
(lp459
g56
(g77
g58
NtRp460
(dp461
g61
(dp462
g81
g82
ssg70
g456
sg63
(lp463
S'session_id_peergrades'
p464
asbag56
(g77
g58
NtRp465
(dp466
g61
(dp467
g88
g89
ssg70
g456
sg63
(lp468
S':'
asbag56
(g77
g58
NtRp469
(dp470
g61
(dp471
sg70
g456
sg63
(lp472
g56
(g57
g58
NtRp473
(dp474
g61
(dp475
g69
I4
ssg70
g469
sg63
(lp476
g56
(g65
g58
NtRp477
(dp478
g61
(dp479
g69
I3
ssg70
Nsg63
(lp480
g56
(g72
g58
NtRp481
(dp482
g61
(dp483
sg70
g477
sg63
(lp484
g56
(g77
g58
NtRp485
(dp486
g61
(dp487
g81
g82
ssg70
g481
sg63
(lp488
g296
asbag56
(g77
g58
NtRp489
(dp490
g61
(dp491
g88
g89
ssg70
g481
sg63
(lp492
S':'
asbag56
(g77
g58
NtRp493
(dp494
g61
(dp495
sg70
g481
sg63
(lp496
g56
(g57
g58
NtRp497
(dp498
g61
(dp499
g69
I3
ssg70
g493
sg63
(lp500
S''
asbasbasbag56
(g72
g58
NtRp501
(dp502
g61
(dp503
sg70
g477
sg63
(lp504
g56
(g77
g58
NtRp505
(dp506
g61
(dp507
g81
g82
ssg70
g501
sg63
(lp508
g317
asbag56
(g77
g58
NtRp509
(dp510
g61
(dp511
g88
g89
ssg70
g501
sg63
(lp512
S':'
asbag56
(g77
g58
NtRp513
(dp514
g61
(dp515
sg70
g501
sg63
(lp516
g56
(g57
g58
NtRp517
(dp518
g61
(dp519
g69
I3
ssg70
g513
sg63
(lp520
S''
asbasbasbag56
(g72
g58
NtRp521
(dp522
g61
(dp523
sg70
g477
sg63
(lp524
g56
(g77
g58
NtRp525
(dp526
g61
(dp527
g81
g82
ssg70
g521
sg63
(lp528
g338
asbag56
(g77
g58
NtRp529
(dp530
g61
(dp531
g88
g89
ssg70
g521
sg63
(lp532
S':'
asbag56
(g77
g58
NtRp533
(dp534
g61
(dp535
sg70
g521
sg63
(lp536
g56
(g57
g58
NtRp537
(dp538
g61
(dp539
g69
I3
ssg70
g533
sg63
(lp540
S''
asbasbasbag56
(g72
g58
NtRp541
(dp542
g61
(dp543
sg70
g477
sg63
(lp544
g56
(g77
g58
NtRp545
(dp546
g61
(dp547
g81
g82
ssg70
g541
sg63
(lp548
g359
asbag56
(g77
g58
NtRp549
(dp550
g61
(dp551
g88
g89
ssg70
g541
sg63
(lp552
S':'
asbag56
(g77
g58
NtRp553
(dp554
g61
(dp555
sg70
g541
sg63
(lp556
g56
(g57
g58
NtRp557
(dp558
g61
(dp559
g69
I3
ssg70
g553
sg63
(lp560
S''
asbasbasbag56
(g72
g58
NtRp561
(dp562
g61
(dp563
sg70
g477
sg63
(lp564
g56
(g77
g58
NtRp565
(dp566
g61
(dp567
g81
g82
ssg70
g561
sg63
(lp568
g380
asbag56
(g77
g58
NtRp569
(dp570
g61
(dp571
g88
g89
ssg70
g561
sg63
(lp572
S':'
asbag56
(g77
g58
NtRp573
(dp574
g61
(dp575
sg70
g561
sg63
(lp576
g56
(g57
g58
NtRp577
(dp578
g61
(dp579
g69
I3
ssg70
g573
sg63
(lp580
S''
asbasbasbag56
(g72
g58
NtRp581
(dp582
g61
(dp583
sg70
g477
sg63
(lp584
g56
(g77
g58
NtRp585
(dp586
g61
(dp587
g81
g82
ssg70
g581
sg63
(lp588
g401
asbag56
(g77
g58
NtRp589
(dp590
g61
(dp591
g88
g89
ssg70
g581
sg63
(lp592
S':'
asbag56
(g77
g58
NtRp593
(dp594
g61
(dp595
sg70
g581
sg63
(lp596
g56
(g57
g58
NtRp597
(dp598
g61
(dp599
g69
I3
ssg70
g593
sg63
(lp600
S''
asbasbasbag56
(g72
g58
NtRp601
(dp602
g61
(dp603
sg70
g477
sg63
(lp604
g56
(g77
g58
NtRp605
(dp606
g61
(dp607
g81
g82
ssg70
g601
sg63
(lp608
g422
asbag56
(g77
g58
NtRp609
(dp610
g61
(dp611
g88
g89
ssg70
g601
sg63
(lp612
S':'
asbag56
(g77
g58
NtRp613
(dp614
g61
(dp615
sg70
g601
sg63
(lp616
g56
(g57
g58
NtRp617
(dp618
g61
(dp619
g69
I3
ssg70
g613
sg63
(lp620
S''
asbasbasbag56
(g72
g58
NtRp621
(dp622
g61
(dp623
sg70
g477
sg63
(lp624
g56
(g77
g58
NtRp625
(dp626
g61
(dp627
g81
g82
ssg70
g621
sg63
(lp628
g443
asbag56
(g77
g58
NtRp629
(dp630
g61
(dp631
g88
g89
ssg70
g621
sg63
(lp632
S':'
asbag56
(g77
g58
NtRp633
(dp634
g61
(dp635
sg70
g621
sg63
(lp636
g56
(g57
g58
NtRp637
(dp638
g61
(dp639
g69
I3
ssg70
g633
sg63
(lp640
S''
asbasbasbasbasbasbasbag56
(g72
g58
NtRp641
(dp642
g61
(dp643
sg70
g259
sg63
(lp644
g56
(g77
g58
NtRp645
(dp646
g61
(dp647
g81
g82
ssg70
g641
sg63
(lp648
S'session_id_places'
p649
asbag56
(g77
g58
NtRp650
(dp651
g61
(dp652
g88
g89
ssg70
g641
sg63
(lp653
S':'
asbag56
(g77
g58
NtRp654
(dp655
g61
(dp656
sg70
g641
sg63
(lp657
g56
(g57
g58
NtRp658
(dp659
g61
(dp660
g69
I4
ssg70
g654
sg63
(lp661
g56
(g65
g58
NtRp662
(dp663
g61
(dp664
g69
I3
ssg70
Nsg63
(lp665
g56
(g72
g58
NtRp666
(dp667
g61
(dp668
sg70
g662
sg63
(lp669
g56
(g77
g58
NtRp670
(dp671
g61
(dp672
g81
g82
ssg70
g666
sg63
(lp673
g296
asbag56
(g77
g58
NtRp674
(dp675
g61
(dp676
g88
g89
ssg70
g666
sg63
(lp677
S':'
asbag56
(g77
g58
NtRp678
(dp679
g61
(dp680
sg70
g666
sg63
(lp681
g56
(g57
g58
NtRp682
(dp683
g61
(dp684
g69
I3
ssg70
g678
sg63
(lp685
S''
asbasbasbag56
(g72
g58
NtRp686
(dp687
g61
(dp688
sg70
g662
sg63
(lp689
g56
(g77
g58
NtRp690
(dp691
g61
(dp692
g81
g82
ssg70
g686
sg63
(lp693
g317
asbag56
(g77
g58
NtRp694
(dp695
g61
(dp696
g88
g89
ssg70
g686
sg63
(lp697
S':'
asbag56
(g77
g58
NtRp698
(dp699
g61
(dp700
sg70
g686
sg63
(lp701
g56
(g57
g58
NtRp702
(dp703
g61
(dp704
g69
I3
ssg70
g698
sg63
(lp705
S''
asbasbasbag56
(g72
g58
NtRp706
(dp707
g61
(dp708
sg70
g662
sg63
(lp709
g56
(g77
g58
NtRp710
(dp711
g61
(dp712
g81
g82
ssg70
g706
sg63
(lp713
g338
asbag56
(g77
g58
NtRp714
(dp715
g61
(dp716
g88
g89
ssg70
g706
sg63
(lp717
S':'
asbag56
(g77
g58
NtRp718
(dp719
g61
(dp720
sg70
g706
sg63
(lp721
g56
(g57
g58
NtRp722
(dp723
g61
(dp724
g69
I3
ssg70
g718
sg63
(lp725
S''
asbasbasbag56
(g72
g58
NtRp726
(dp727
g61
(dp728
sg70
g662
sg63
(lp729
g56
(g77
g58
NtRp730
(dp731
g61
(dp732
g81
g82
ssg70
g726
sg63
(lp733
g359
asbag56
(g77
g58
NtRp734
(dp735
g61
(dp736
g88
g89
ssg70
g726
sg63
(lp737
S':'
asbag56
(g77
g58
NtRp738
(dp739
g61
(dp740
sg70
g726
sg63
(lp741
g56
(g57
g58
NtRp742
(dp743
g61
(dp744
g69
I3
ssg70
g738
sg63
(lp745
S''
asbasbasbag56
(g72
g58
NtRp746
(dp747
g61
(dp748
sg70
g662
sg63
(lp749
g56
(g77
g58
NtRp750
(dp751
g61
(dp752
g81
g82
ssg70
g746
sg63
(lp753
g380
asbag56
(g77
g58
NtRp754
(dp755
g61
(dp756
g88
g89
ssg70
g746
sg63
(lp757
S':'
asbag56
(g77
g58
NtRp758
(dp759
g61
(dp760
sg70
g746
sg63
(lp761
g56
(g57
g58
NtRp762
(dp763
g61
(dp764
g69
I3
ssg70
g758
sg63
(lp765
S''
asbasbasbag56
(g72
g58
NtRp766
(dp767
g61
(dp768
sg70
g662
sg63
(lp769
g56
(g77
g58
NtRp770
(dp771
g61
(dp772
g81
g82
ssg70
g766
sg63
(lp773
g401
asbag56
(g77
g58
NtRp774
(dp775
g61
(dp776
g88
g89
ssg70
g766
sg63
(lp777
S':'
asbag56
(g77
g58
NtRp778
(dp779
g61
(dp780
sg70
g766
sg63
(lp781
g56
(g57
g58
NtRp782
(dp783
g61
(dp784
g69
I3
ssg70
g778
sg63
(lp785
S''
asbasbasbag56
(g72
g58
NtRp786
(dp787
g61
(dp788
sg70
g662
sg63
(lp789
g56
(g77
g58
NtRp790
(dp791
g61
(dp792
g81
g82
ssg70
g786
sg63
(lp793
g422
asbag56
(g77
g58
NtRp794
(dp795
g61
(dp796
g88
g89
ssg70
g786
sg63
(lp797
S':'
asbag56
(g77
g58
NtRp798
(dp799
g61
(dp800
sg70
g786
sg63
(lp801
g56
(g57
g58
NtRp802
(dp803
g61
(dp804
g69
I3
ssg70
g798
sg63
(lp805
S''
asbasbasbag56
(g72
g58
NtRp806
(dp807
g61
(dp808
sg70
g662
sg63
(lp809
g56
(g77
g58
NtRp810
(dp811
g61
(dp812
g81
g82
ssg70
g806
sg63
(lp813
g443
asbag56
(g77
g58
NtRp814
(dp815
g61
(dp816
g88
g89
ssg70
g806
sg63
(lp817
S':'
asbag56
(g77
g58
NtRp818
(dp819
g61
(dp820
sg70
g806
sg63
(lp821
g56
(g57
g58
NtRp822
(dp823
g61
(dp824
g69
I3
ssg70
g818
sg63
(lp825
S''
asbasbasbasbasbasbasbag56
(g72
g58
NtRp826
(dp827
g61
(dp828
sg70
g259
sg63
(lp829
g56
(g77
g58
NtRp830
(dp831
g61
(dp832
g81
g82
ssg70
g826
sg63
(lp833
S'session_id_topoi'
p834
asbag56
(g77
g58
NtRp835
(dp836
g61
(dp837
g88
g89
ssg70
g826
sg63
(lp838
S':'
asbag56
(g77
g58
NtRp839
(dp840
g61
(dp841
sg70
g826
sg63
(lp842
g56
(g57
g58
NtRp843
(dp844
g61
(dp845
g69
I4
ssg70
g839
sg63
(lp846
g56
(g65
g58
NtRp847
(dp848
g61
(dp849
g69
I3
ssg70
Nsg63
(lp850
g56
(g72
g58
NtRp851
(dp852
g61
(dp853
sg70
g847
sg63
(lp854
g56
(g77
g58
NtRp855
(dp856
g61
(dp857
g81
g82
ssg70
g851
sg63
(lp858
g296
asbag56
(g77
g58
NtRp859
(dp860
g61
(dp861
g88
g89
ssg70
g851
sg63
(lp862
S':'
asbag56
(g77
g58
NtRp863
(dp864
g61
(dp865
sg70
g851
sg63
(lp866
g56
(g57
g58
NtRp867
(dp868
g61
(dp869
g69
I3
ssg70
g863
sg63
(lp870
S''
asbasbasbag56
(g72
g58
NtRp871
(dp872
g61
(dp873
sg70
g847
sg63
(lp874
g56
(g77
g58
NtRp875
(dp876
g61
(dp877
g81
g82
ssg70
g871
sg63
(lp878
g317
asbag56
(g77
g58
NtRp879
(dp880
g61
(dp881
g88
g89
ssg70
g871
sg63
(lp882
S':'
asbag56
(g77
g58
NtRp883
(dp884
g61
(dp885
sg70
g871
sg63
(lp886
g56
(g57
g58
NtRp887
(dp888
g61
(dp889
g69
I3
ssg70
g883
sg63
(lp890
S''
asbasbasbag56
(g72
g58
NtRp891
(dp892
g61
(dp893
sg70
g847
sg63
(lp894
g56
(g77
g58
NtRp895
(dp896
g61
(dp897
g81
g82
ssg70
g891
sg63
(lp898
g338
asbag56
(g77
g58
NtRp899
(dp900
g61
(dp901
g88
g89
ssg70
g891
sg63
(lp902
S':'
asbag56
(g77
g58
NtRp903
(dp904
g61
(dp905
sg70
g891
sg63
(lp906
g56
(g57
g58
NtRp907
(dp908
g61
(dp909
g69
I3
ssg70
g903
sg63
(lp910
S''
asbasbasbag56
(g72
g58
NtRp911
(dp912
g61
(dp913
sg70
g847
sg63
(lp914
g56
(g77
g58
NtRp915
(dp916
g61
(dp917
g81
g82
ssg70
g911
sg63
(lp918
g359
asbag56
(g77
g58
NtRp919
(dp920
g61
(dp921
g88
g89
ssg70
g911
sg63
(lp922
S':'
asbag56
(g77
g58
NtRp923
(dp924
g61
(dp925
sg70
g911
sg63
(lp926
g56
(g57
g58
NtRp927
(dp928
g61
(dp929
g69
I3
ssg70
g923
sg63
(lp930
S''
asbasbasbag56
(g72
g58
NtRp931
(dp932
g61
(dp933
sg70
g847
sg63
(lp934
g56
(g77
g58
NtRp935
(dp936
g61
(dp937
g81
g82
ssg70
g931
sg63
(lp938
g380
asbag56
(g77
g58
NtRp939
(dp940
g61
(dp941
g88
g89
ssg70
g931
sg63
(lp942
S':'
asbag56
(g77
g58
NtRp943
(dp944
g61
(dp945
sg70
g931
sg63
(lp946
g56
(g57
g58
NtRp947
(dp948
g61
(dp949
g69
I3
ssg70
g943
sg63
(lp950
S''
asbasbasbag56
(g72
g58
NtRp951
(dp952
g61
(dp953
sg70
g847
sg63
(lp954
g56
(g77
g58
NtRp955
(dp956
g61
(dp957
g81
g82
ssg70
g951
sg63
(lp958
g401
asbag56
(g77
g58
NtRp959
(dp960
g61
(dp961
g88
g89
ssg70
g951
sg63
(lp962
S':'
asbag56
(g77
g58
NtRp963
(dp964
g61
(dp965
sg70
g951
sg63
(lp966
g56
(g57
g58
NtRp967
(dp968
g61
(dp969
g69
I3
ssg70
g963
sg63
(lp970
S''
asbasbasbag56
(g72
g58
NtRp971
(dp972
g61
(dp973
sg70
g847
sg63
(lp974
g56
(g77
g58
NtRp975
(dp976
g61
(dp977
g81
g82
ssg70
g971
sg63
(lp978
g422
asbag56
(g77
g58
NtRp979
(dp980
g61
(dp981
g88
g89
ssg70
g971
sg63
(lp982
S':'
asbag56
(g77
g58
NtRp983
(dp984
g61
(dp985
sg70
g971
sg63
(lp986
g56
(g57
g58
NtRp987
(dp988
g61
(dp989
g69
I3
ssg70
g983
sg63
(lp990
S''
asbasbasbag56
(g72
g58
NtRp991
(dp992
g61
(dp993
sg70
g847
sg63
(lp994
g56
(g77
g58
NtRp995
(dp996
g61
(dp997
g81
g82
ssg70
g991
sg63
(lp998
g443
asbag56
(g77
g58
NtRp999
(dp1000
g61
(dp1001
g88
g89
ssg70
g991
sg63
(lp1002
S':'
asbag56
(g77
g58
NtRp1003
(dp1004
g61
(dp1005
sg70
g991
sg63
(lp1006
g56
(g57
g58
NtRp1007
(dp1008
g61
(dp1009
g69
I3
ssg70
g1003
sg63
(lp1010
S''
asbasbasbasbasbasbasbag56
(g72
g58
NtRp1011
(dp1012
g61
(dp1013
sg70
g259
sg63
(lp1014
g56
(g77
g58
NtRp1015
(dp1016
g61
(dp1017
g81
g82
ssg70
g1011
sg63
(lp1018
S'session_id_welcome'
p1019
asbag56
(g77
g58
NtRp1020
(dp1021
g61
(dp1022
g88
g89
ssg70
g1011
sg63
(lp1023
S':'
asbag56
(g77
g58
NtRp1024
(dp1025
g61
(dp1026
sg70
g1011
sg63
(lp1027
g56
(g57
g58
NtRp1028
(dp1029
g61
(dp1030
g69
I4
ssg70
g1024
sg63
(lp1031
g56
(g65
g58
NtRp1032
(dp1033
g61
(dp1034
g69
I3
ssg70
Nsg63
(lp1035
g56
(g72
g58
NtRp1036
(dp1037
g61
(dp1038
sg70
g1032
sg63
(lp1039
g56
(g77
g58
NtRp1040
(dp1041
g61
(dp1042
g81
g82
ssg70
g1036
sg63
(lp1043
g296
asbag56
(g77
g58
NtRp1044
(dp1045
g61
(dp1046
g88
g89
ssg70
g1036
sg63
(lp1047
S':'
asbag56
(g77
g58
NtRp1048
(dp1049
g61
(dp1050
sg70
g1036
sg63
(lp1051
g56
(g57
g58
NtRp1052
(dp1053
g61
(dp1054
g69
I3
ssg70
g1048
sg63
(lp1055
S''
asbasbasbag56
(g72
g58
NtRp1056
(dp1057
g61
(dp1058
sg70
g1032
sg63
(lp1059
g56
(g77
g58
NtRp1060
(dp1061
g61
(dp1062
g81
g82
ssg70
g1056
sg63
(lp1063
g317
asbag56
(g77
g58
NtRp1064
(dp1065
g61
(dp1066
g88
g89
ssg70
g1056
sg63
(lp1067
S':'
asbag56
(g77
g58
NtRp1068
(dp1069
g61
(dp1070
sg70
g1056
sg63
(lp1071
g56
(g57
g58
NtRp1072
(dp1073
g61
(dp1074
g69
I3
ssg70
g1068
sg63
(lp1075
S''
asbasbasbag56
(g72
g58
NtRp1076
(dp1077
g61
(dp1078
sg70
g1032
sg63
(lp1079
g56
(g77
g58
NtRp1080
(dp1081
g61
(dp1082
g81
g82
ssg70
g1076
sg63
(lp1083
g338
asbag56
(g77
g58
NtRp1084
(dp1085
g61
(dp1086
g88
g89
ssg70
g1076
sg63
(lp1087
S':'
asbag56
(g77
g58
NtRp1088
(dp1089
g61
(dp1090
sg70
g1076
sg63
(lp1091
g56
(g57
g58
NtRp1092
(dp1093
g61
(dp1094
g69
I3
ssg70
g1088
sg63
(lp1095
S''
asbasbasbag56
(g72
g58
NtRp1096
(dp1097
g61
(dp1098
sg70
g1032
sg63
(lp1099
g56
(g77
g58
NtRp1100
(dp1101
g61
(dp1102
g81
g82
ssg70
g1096
sg63
(lp1103
g359
asbag56
(g77
g58
NtRp1104
(dp1105
g61
(dp1106
g88
g89
ssg70
g1096
sg63
(lp1107
S':'
asbag56
(g77
g58
NtRp1108
(dp1109
g61
(dp1110
sg70
g1096
sg63
(lp1111
g56
(g57
g58
NtRp1112
(dp1113
g61
(dp1114
g69
I3
ssg70
g1108
sg63
(lp1115
S''
asbasbasbag56
(g72
g58
NtRp1116
(dp1117
g61
(dp1118
sg70
g1032
sg63
(lp1119
g56
(g77
g58
NtRp1120
(dp1121
g61
(dp1122
g81
g82
ssg70
g1116
sg63
(lp1123
g380
asbag56
(g77
g58
NtRp1124
(dp1125
g61
(dp1126
g88
g89
ssg70
g1116
sg63
(lp1127
S':'
asbag56
(g77
g58
NtRp1128
(dp1129
g61
(dp1130
sg70
g1116
sg63
(lp1131
g56
(g57
g58
NtRp1132
(dp1133
g61
(dp1134
g69
I3
ssg70
g1128
sg63
(lp1135
S''
asbasbasbag56
(g72
g58
NtRp1136
(dp1137
g61
(dp1138
sg70
g1032
sg63
(lp1139
g56
(g77
g58
NtRp1140
(dp1141
g61
(dp1142
g81
g82
ssg70
g1136
sg63
(lp1143
g401
asbag56
(g77
g58
NtRp1144
(dp1145
g61
(dp1146
g88
g89
ssg70
g1136
sg63
(lp1147
S':'
asbag56
(g77
g58
NtRp1148
(dp1149
g61
(dp1150
sg70
g1136
sg63
(lp1151
g56
(g57
g58
NtRp1152
(dp1153
g61
(dp1154
g69
I3
ssg70
g1148
sg63
(lp1155
S''
asbasbasbag56
(g72
g58
NtRp1156
(dp1157
g61
(dp1158
sg70
g1032
sg63
(lp1159
g56
(g77
g58
NtRp1160
(dp1161
g61
(dp1162
g81
g82
ssg70
g1156
sg63
(lp1163
g422
asbag56
(g77
g58
NtRp1164
(dp1165
g61
(dp1166
g88
g89
ssg70
g1156
sg63
(lp1167
S':'
asbag56
(g77
g58
NtRp1168
(dp1169
g61
(dp1170
sg70
g1156
sg63
(lp1171
g56
(g57
g58
NtRp1172
(dp1173
g61
(dp1174
g69
I3
ssg70
g1168
sg63
(lp1175
S''
asbasbasbag56
(g72
g58
NtRp1176
(dp1177
g61
(dp1178
sg70
g1032
sg63
(lp1179
g56
(g77
g58
NtRp1180
(dp1181
g61
(dp1182
g81
g82
ssg70
g1176
sg63
(lp1183
g443
asbag56
(g77
g58
NtRp1184
(dp1185
g61
(dp1186
g88
g89
ssg70
g1176
sg63
(lp1187
S':'
asbag56
(g77
g58
NtRp1188
(dp1189
g61
(dp1190
sg70
g1176
sg63
(lp1191
g56
(g57
g58
NtRp1192
(dp1193
g61
(dp1194
g69
I3
ssg70
g1188
sg63
(lp1195
S''
asbasbasbasbasbasbasbasbasbasbasbag56
(g72
g58
NtRp1196
(dp1197
g61
(dp1198
sg70
g66
sg63
(lp1199
g56
(g77
g58
NtRp1200
(dp1201
g61
(dp1202
g81
g82
ssg70
g1196
sg63
(lp1203
S'env'
p1204
asbag56
(g77
g58
NtRp1205
(dp1206
g61
(dp1207
g88
g89
ssg70
g1196
sg63
(lp1208
S':'
asbag56
(g77
g58
NtRp1209
(dp1210
g61
(dp1211
sg70
g1196
sg63
(lp1212
g56
(g57
g58
NtRp1213
(dp1214
g61
(dp1215
g69
I5
ssg70
g1209
sg63
(lp1216
g56
(g65
g58
NtRp1217
(dp1218
g61
(dp1219
g69
I4
ssg70
Nsg63
(lp1220
g56
(g72
g58
NtRp1221
(dp1222
g61
(dp1223
sg70
g1217
sg63
(lp1224
g56
(g77
g58
NtRp1225
(dp1226
g61
(dp1227
g81
g82
ssg70
g1221
sg63
(lp1228
S'app_folders'
p1229
asbag56
(g77
g58
NtRp1230
(dp1231
g61
(dp1232
g88
g89
ssg70
g1221
sg63
(lp1233
S':'
asbag56
(g77
g58
NtRp1234
(dp1235
g61
(dp1236
sg70
g1221
sg63
(lp1237
g56
(g57
g58
NtRp1238
(dp1239
g61
(dp1240
g69
I4
ssg70
g1234
sg63
(lp1241
S"set(['/home/ian/web2py/applications/topoi/', '/home/ian/web2py/applications/welcome/'])"
p1242
asbasbasbag56
(g72
g58
NtRp1243
(dp1244
g61
(dp1245
sg70
g1217
sg63
(lp1246
g56
(g77
g58
NtRp1247
(dp1248
g61
(dp1249
g81
g82
ssg70
g1243
sg63
(lp1250
S'applications_parent'
p1251
asbag56
(g77
g58
NtRp1252
(dp1253
g61
(dp1254
g88
g89
ssg70
g1243
sg63
(lp1255
S':'
asbag56
(g77
g58
NtRp1256
(dp1257
g61
(dp1258
sg70
g1243
sg63
(lp1259
g56
(g57
g58
NtRp1260
(dp1261
g61
(dp1262
g69
I4
ssg70
g1256
sg63
(lp1263
S'/home/ian/web2py'
p1264
asbasbasbag56
(g72
g58
NtRp1265
(dp1266
g61
(dp1267
sg70
g1217
sg63
(lp1268
g56
(g77
g58
NtRp1269
(dp1270
g61
(dp1271
g81
g82
ssg70
g1265
sg63
(lp1272
S'cmd_args'
p1273
asbag56
(g77
g58
NtRp1274
(dp1275
g61
(dp1276
g88
g89
ssg70
g1265
sg63
(lp1277
S':'
asbag56
(g77
g58
NtRp1278
(dp1279
g61
(dp1280
sg70
g1265
sg63
(lp1281
g56
(g57
g58
NtRp1282
(dp1283
g61
(dp1284
g69
I4
ssg70
g1278
sg63
(lp1285
g56
(g65
g58
NtRp1286
(dp1287
g61
(dp1288
g69
I3
ssg70
Nsg63
(lp1289
sbasbasbasbag56
(g72
g58
NtRp1290
(dp1291
g61
(dp1292
sg70
g1217
sg63
(lp1293
g56
(g77
g58
NtRp1294
(dp1295
g61
(dp1296
g81
g82
ssg70
g1290
sg63
(lp1297
S'cmd_options'
p1298
asbag56
(g77
g58
NtRp1299
(dp1300
g61
(dp1301
g88
g89
ssg70
g1290
sg63
(lp1302
S':'
asbag56
(g77
g58
NtRp1303
(dp1304
g61
(dp1305
sg70
g1290
sg63
(lp1306
g56
(g57
g58
NtRp1307
(dp1308
g61
(dp1309
g69
I4
ssg70
g1303
sg63
(lp1310
S"<Values at 0x1fc77e8: {'verbose': False, 'ip': '127.0.0.1', 'shutdown_timeout': 5, 'taskbar': False, 'nocron': False, 'pid_filename': 'httpserver.pid', 'maxthreads': None, 'softcron': False, 'server_name': 'Ariel-ubuntu', 'bpython': False, 'nogui': False, 'port': 8000, 'extcron': False, 'debuglevel': 30, 'test': None, 'folder': '/home/ian/web2py', 'config': '', 'import_models': False, 'winservice': '', 'shell': None, 'run': '', 'log_filename': 'httpserver.log', 'args': [''], 'ssl_ca_certificate': None, 'scheduler': None, 'profiler_filename': None, 'ssl_private_key': '', 'password': '<ask>', 'request_queue_size': 5, 'ssl_certificate': '', 'cronjob': False, 'plain': False, 'quiet': False, 'interfaces': None, 'minthreads': None, 'timeout': 10, 'numthreads': None, 'nobanner': False}>"
p1311
asbasbasbag56
(g72
g58
NtRp1312
(dp1313
g61
(dp1314
sg70
g1217
sg63
(lp1315
g56
(g77
g58
NtRp1316
(dp1317
g61
(dp1318
g81
g82
ssg70
g1312
sg63
(lp1319
S'db_sessions'
p1320
asbag56
(g77
g58
NtRp1321
(dp1322
g61
(dp1323
g88
g89
ssg70
g1312
sg63
(lp1324
S':'
asbag56
(g77
g58
NtRp1325
(dp1326
g61
(dp1327
sg70
g1312
sg63
(lp1328
g56
(g57
g58
NtRp1329
(dp1330
g61
(dp1331
g69
I4
ssg70
g1325
sg63
(lp1332
S'set([])'
p1333
asbasbasbag56
(g72
g58
NtRp1334
(dp1335
g61
(dp1336
sg70
g1217
sg63
(lp1337
g56
(g77
g58
NtRp1338
(dp1339
g61
(dp1340
g81
g82
ssg70
g1334
sg63
(lp1341
S'debugging'
p1342
asbag56
(g77
g58
NtRp1343
(dp1344
g61
(dp1345
g88
g89
ssg70
g1334
sg63
(lp1346
S':'
asbag56
(g77
g58
NtRp1347
(dp1348
g61
(dp1349
sg70
g1334
sg63
(lp1350
g56
(g57
g58
NtRp1351
(dp1352
g61
(dp1353
g69
I4
ssg70
g1347
sg63
(lp1354
g99
asbasbasbag56
(g72
g58
NtRp1355
(dp1356
g61
(dp1357
sg70
g1217
sg63
(lp1358
g56
(g77
g58
NtRp1359
(dp1360
g61
(dp1361
g81
g82
ssg70
g1355
sg63
(lp1362
S'gluon_parent'
p1363
asbag56
(g77
g58
NtRp1364
(dp1365
g61
(dp1366
g88
g89
ssg70
g1355
sg63
(lp1367
S':'
asbag56
(g77
g58
NtRp1368
(dp1369
g61
(dp1370
sg70
g1355
sg63
(lp1371
g56
(g57
g58
NtRp1372
(dp1373
g61
(dp1374
g69
I4
ssg70
g1368
sg63
(lp1375
S'/home/ian/web2py'
p1376
asbasbasbag56
(g72
g58
NtRp1377
(dp1378
g61
(dp1379
sg70
g1217
sg63
(lp1380
g56
(g77
g58
NtRp1381
(dp1382
g61
(dp1383
g81
g82
ssg70
g1377
sg63
(lp1384
S'http_accept'
p1385
asbag56
(g77
g58
NtRp1386
(dp1387
g61
(dp1388
g88
g89
ssg70
g1377
sg63
(lp1389
S':'
asbag56
(g77
g58
NtRp1390
(dp1391
g61
(dp1392
sg70
g1377
sg63
(lp1393
g56
(g57
g58
NtRp1394
(dp1395
g61
(dp1396
g69
I4
ssg70
g1390
sg63
(lp1397
S'text/html,application/xhtml+xml,application/xml;q=0.9,*/*;q=0.8'
p1398
asbasbasbag56
(g72
g58
NtRp1399
(dp1400
g61
(dp1401
sg70
g1217
sg63
(lp1402
g56
(g77
g58
NtRp1403
(dp1404
g61
(dp1405
g81
g82
ssg70
g1399
sg63
(lp1406
S'http_accept_charset'
p1407
asbag56
(g77
g58
NtRp1408
(dp1409
g61
(dp1410
g88
g89
ssg70
g1399
sg63
(lp1411
S':'
asbag56
(g77
g58
NtRp1412
(dp1413
g61
(dp1414
sg70
g1399
sg63
(lp1415
g56
(g57
g58
NtRp1416
(dp1417
g61
(dp1418
g69
I4
ssg70
g1412
sg63
(lp1419
S'ISO-8859-1,utf-8;q=0.7,*;q=0.7'
p1420
asbasbasbag56
(g72
g58
NtRp1421
(dp1422
g61
(dp1423
sg70
g1217
sg63
(lp1424
g56
(g77
g58
NtRp1425
(dp1426
g61
(dp1427
g81
g82
ssg70
g1421
sg63
(lp1428
S'http_accept_encoding'
p1429
asbag56
(g77
g58
NtRp1430
(dp1431
g61
(dp1432
g88
g89
ssg70
g1421
sg63
(lp1433
S':'
asbag56
(g77
g58
NtRp1434
(dp1435
g61
(dp1436
sg70
g1421
sg63
(lp1437
g56
(g57
g58
NtRp1438
(dp1439
g61
(dp1440
g69
I4
ssg70
g1434
sg63
(lp1441
S'gzip, deflate'
p1442
asbasbasbag56
(g72
g58
NtRp1443
(dp1444
g61
(dp1445
sg70
g1217
sg63
(lp1446
g56
(g77
g58
NtRp1447
(dp1448
g61
(dp1449
g81
g82
ssg70
g1443
sg63
(lp1450
S'http_accept_language'
p1451
asbag56
(g77
g58
NtRp1452
(dp1453
g61
(dp1454
g88
g89
ssg70
g1443
sg63
(lp1455
S':'
asbag56
(g77
g58
NtRp1456
(dp1457
g61
(dp1458
sg70
g1443
sg63
(lp1459
g56
(g57
g58
NtRp1460
(dp1461
g61
(dp1462
g69
I4
ssg70
g1456
sg63
(lp1463
S'en-us,en;q=0.5'
p1464
asbasbasbag56
(g72
g58
NtRp1465
(dp1466
g61
(dp1467
sg70
g1217
sg63
(lp1468
g56
(g77
g58
NtRp1469
(dp1470
g61
(dp1471
g81
g82
ssg70
g1465
sg63
(lp1472
S'http_connection'
p1473
asbag56
(g77
g58
NtRp1474
(dp1475
g61
(dp1476
g88
g89
ssg70
g1465
sg63
(lp1477
S':'
asbag56
(g77
g58
NtRp1478
(dp1479
g61
(dp1480
sg70
g1465
sg63
(lp1481
g56
(g57
g58
NtRp1482
(dp1483
g61
(dp1484
g69
I4
ssg70
g1478
sg63
(lp1485
S'keep-alive'
p1486
asbasbasbag56
(g72
g58
NtRp1487
(dp1488
g61
(dp1489
sg70
g1217
sg63
(lp1490
g56
(g77
g58
NtRp1491
(dp1492
g61
(dp1493
g81
g82
ssg70
g1487
sg63
(lp1494
S'http_cookie'
p1495
asbag56
(g77
g58
NtRp1496
(dp1497
g61
(dp1498
g88
g89
ssg70
g1487
sg63
(lp1499
S':'
asbag56
(g77
g58
NtRp1500
(dp1501
g61
(dp1502
sg70
g1487
sg63
(lp1503
g56
(g57
g58
NtRp1504
(dp1505
g61
(dp1506
g69
I4
ssg70
g1500
sg63
(lp1507
S'__utma_a2a=9789918665.1351576430.1320019504.1320019504.1320019504.1; session_id_topoi=127.0.0.1-af13e654-cdbc-4583-8d75-e46cda6f6e34; session_id_welcome=127.0.0.1-e74c5557-09f3-46f2-b889-0b51ebe68d04; session_id_places=127.0.0.1-5fd0edf6-257b-4b64-8f30-f06317d985b4; session_id_admin=127.0.0.1-0f12f5c5-7875-466e-9d4b-61a07f7e8aa0; session_id_peergrades=127.0.0.1-45d2d609-6b75-44fb-bde8-1a83b480bc98'
p1508
asbasbasbag56
(g72
g58
NtRp1509
(dp1510
g61
(dp1511
sg70
g1217
sg63
(lp1512
g56
(g77
g58
NtRp1513
(dp1514
g61
(dp1515
g81
g82
ssg70
g1509
sg63
(lp1516
S'http_host'
p1517
asbag56
(g77
g58
NtRp1518
(dp1519
g61
(dp1520
g88
g89
ssg70
g1509
sg63
(lp1521
S':'
asbag56
(g77
g58
NtRp1522
(dp1523
g61
(dp1524
sg70
g1509
sg63
(lp1525
g56
(g57
g58
NtRp1526
(dp1527
g61
(dp1528
g69
I4
ssg70
g1522
sg63
(lp1529
S'127.0.0.1:8000'
p1530
asbasbasbag56
(g72
g58
NtRp1531
(dp1532
g61
(dp1533
sg70
g1217
sg63
(lp1534
g56
(g77
g58
NtRp1535
(dp1536
g61
(dp1537
g81
g82
ssg70
g1531
sg63
(lp1538
S'http_referer'
p1539
asbag56
(g77
g58
NtRp1540
(dp1541
g61
(dp1542
g88
g89
ssg70
g1531
sg63
(lp1543
S':'
asbag56
(g77
g58
NtRp1544
(dp1545
g61
(dp1546
sg70
g1531
sg63
(lp1547
g56
(g57
g58
NtRp1548
(dp1549
g61
(dp1550
g69
I4
ssg70
g1544
sg63
(lp1551
S'http://127.0.0.1:8000/topoi/plugin_listandedit/list/note/1'
p1552
asbasbasbag56
(g72
g58
NtRp1553
(dp1554
g61
(dp1555
sg70
g1217
sg63
(lp1556
g56
(g77
g58
NtRp1557
(dp1558
g61
(dp1559
g81
g82
ssg70
g1553
sg63
(lp1560
S'http_user_agent'
p1561
asbag56
(g77
g58
NtRp1562
(dp1563
g61
(dp1564
g88
g89
ssg70
g1553
sg63
(lp1565
S':'
asbag56
(g77
g58
NtRp1566
(dp1567
g61
(dp1568
sg70
g1553
sg63
(lp1569
g56
(g57
g58
NtRp1570
(dp1571
g61
(dp1572
g69
I4
ssg70
g1566
sg63
(lp1573
S'Mozilla/5.0 (Ubuntu; X11; Linux x86_64; rv:8.0) Gecko/20100101 Firefox/8.0 FirePHP/0.6'
p1574
asbasbasbag56
(g72
g58
NtRp1575
(dp1576
g61
(dp1577
sg70
g1217
sg63
(lp1578
g56
(g77
g58
NtRp1579
(dp1580
g61
(dp1581
g81
g82
ssg70
g1575
sg63
(lp1582
S'http_x_insight'
p1583
asbag56
(g77
g58
NtRp1584
(dp1585
g61
(dp1586
g88
g89
ssg70
g1575
sg63
(lp1587
S':'
asbag56
(g77
g58
NtRp1588
(dp1589
g61
(dp1590
sg70
g1575
sg63
(lp1591
g56
(g57
g58
NtRp1592
(dp1593
g61
(dp1594
g69
I4
ssg70
g1588
sg63
(lp1595
S'activate'
p1596
asbasbasbag56
(g72
g58
NtRp1597
(dp1598
g61
(dp1599
sg70
g1217
sg63
(lp1600
g56
(g77
g58
NtRp1601
(dp1602
g61
(dp1603
g81
g82
ssg70
g1597
sg63
(lp1604
S'is_jython'
p1605
asbag56
(g77
g58
NtRp1606
(dp1607
g61
(dp1608
g88
g89
ssg70
g1597
sg63
(lp1609
S':'
asbag56
(g77
g58
NtRp1610
(dp1611
g61
(dp1612
sg70
g1597
sg63
(lp1613
g56
(g57
g58
NtRp1614
(dp1615
g61
(dp1616
g69
I4
ssg70
g1610
sg63
(lp1617
g99
asbasbasbag56
(g72
g58
NtRp1618
(dp1619
g61
(dp1620
sg70
g1217
sg63
(lp1621
g56
(g77
g58
NtRp1622
(dp1623
g61
(dp1624
g81
g82
ssg70
g1618
sg63
(lp1625
S'path_info'
p1626
asbag56
(g77
g58
NtRp1627
(dp1628
g61
(dp1629
g88
g89
ssg70
g1618
sg63
(lp1630
S':'
asbag56
(g77
g58
NtRp1631
(dp1632
g61
(dp1633
sg70
g1618
sg63
(lp1634
g56
(g57
g58
NtRp1635
(dp1636
g61
(dp1637
g69
I4
ssg70
g1631
sg63
(lp1638
S'/topoi/plugin_listandedit/list/fonts/websymbols-regular-webfont.woff'
p1639
asbasbasbag56
(g72
g58
NtRp1640
(dp1641
g61
(dp1642
sg70
g1217
sg63
(lp1643
g56
(g77
g58
NtRp1644
(dp1645
g61
(dp1646
g81
g82
ssg70
g1640
sg63
(lp1647
S'query_string'
p1648
asbag56
(g77
g58
NtRp1649
(dp1650
g61
(dp1651
g88
g89
ssg70
g1640
sg63
(lp1652
S':'
asbag56
(g77
g58
NtRp1653
(dp1654
g61
(dp1655
sg70
g1640
sg63
(lp1656
g56
(g57
g58
NtRp1657
(dp1658
g61
(dp1659
g69
I4
ssg70
g1653
sg63
(lp1660
S''
asbasbasbag56
(g72
g58
NtRp1661
(dp1662
g61
(dp1663
sg70
g1217
sg63
(lp1664
g56
(g77
g58
NtRp1665
(dp1666
g61
(dp1667
g81
g82
ssg70
g1661
sg63
(lp1668
S'remote_addr'
p1669
asbag56
(g77
g58
NtRp1670
(dp1671
g61
(dp1672
g88
g89
ssg70
g1661
sg63
(lp1673
S':'
asbag56
(g77
g58
NtRp1674
(dp1675
g61
(dp1676
sg70
g1661
sg63
(lp1677
g56
(g57
g58
NtRp1678
(dp1679
g61
(dp1680
g69
I4
ssg70
g1674
sg63
(lp1681
g215
asbasbasbag56
(g72
g58
NtRp1682
(dp1683
g61
(dp1684
sg70
g1217
sg63
(lp1685
g56
(g77
g58
NtRp1686
(dp1687
g61
(dp1688
g81
g82
ssg70
g1682
sg63
(lp1689
S'remote_port'
p1690
asbag56
(g77
g58
NtRp1691
(dp1692
g61
(dp1693
g88
g89
ssg70
g1682
sg63
(lp1694
S':'
asbag56
(g77
g58
NtRp1695
(dp1696
g61
(dp1697
sg70
g1682
sg63
(lp1698
g56
(g57
g58
NtRp1699
(dp1700
g61
(dp1701
g69
I4
ssg70
g1695
sg63
(lp1702
S'52191'
p1703
asbasbasbag56
(g72
g58
NtRp1704
(dp1705
g61
(dp1706
sg70
g1217
sg63
(lp1707
g56
(g77
g58
NtRp1708
(dp1709
g61
(dp1710
g81
g82
ssg70
g1704
sg63
(lp1711
S'request_method'
p1712
asbag56
(g77
g58
NtRp1713
(dp1714
g61
(dp1715
g88
g89
ssg70
g1704
sg63
(lp1716
S':'
asbag56
(g77
g58
NtRp1717
(dp1718
g61
(dp1719
sg70
g1704
sg63
(lp1720
g56
(g57
g58
NtRp1721
(dp1722
g61
(dp1723
g69
I4
ssg70
g1717
sg63
(lp1724
S'GET'
p1725
asbasbasbag56
(g72
g58
NtRp1726
(dp1727
g61
(dp1728
sg70
g1217
sg63
(lp1729
g56
(g77
g58
NtRp1730
(dp1731
g61
(dp1732
g81
g82
ssg70
g1726
sg63
(lp1733
S'script_name'
p1734
asbag56
(g77
g58
NtRp1735
(dp1736
g61
(dp1737
g88
g89
ssg70
g1726
sg63
(lp1738
S':'
asbag56
(g77
g58
NtRp1739
(dp1740
g61
(dp1741
sg70
g1726
sg63
(lp1742
g56
(g57
g58
NtRp1743
(dp1744
g61
(dp1745
g69
I4
ssg70
g1739
sg63
(lp1746
S''
asbasbasbag56
(g72
g58
NtRp1747
(dp1748
g61
(dp1749
sg70
g1217
sg63
(lp1750
g56
(g77
g58
NtRp1751
(dp1752
g61
(dp1753
g81
g82
ssg70
g1747
sg63
(lp1754
S'server_name'
p1755
asbag56
(g77
g58
NtRp1756
(dp1757
g61
(dp1758
g88
g89
ssg70
g1747
sg63
(lp1759
S':'
asbag56
(g77
g58
NtRp1760
(dp1761
g61
(dp1762
sg70
g1747
sg63
(lp1763
g56
(g57
g58
NtRp1764
(dp1765
g61
(dp1766
g69
I4
ssg70
g1760
sg63
(lp1767
S'Ariel-ubuntu'
p1768
asbasbasbag56
(g72
g58
NtRp1769
(dp1770
g61
(dp1771
sg70
g1217
sg63
(lp1772
g56
(g77
g58
NtRp1773
(dp1774
g61
(dp1775
g81
g82
ssg70
g1769
sg63
(lp1776
S'server_port'
p1777
asbag56
(g77
g58
NtRp1778
(dp1779
g61
(dp1780
g88
g89
ssg70
g1769
sg63
(lp1781
S':'
asbag56
(g77
g58
NtRp1782
(dp1783
g61
(dp1784
sg70
g1769
sg63
(lp1785
g56
(g57
g58
NtRp1786
(dp1787
g61
(dp1788
g69
I4
ssg70
g1782
sg63
(lp1789
S'8000'
p1790
asbasbasbag56
(g72
g58
NtRp1791
(dp1792
g61
(dp1793
sg70
g1217
sg63
(lp1794
g56
(g77
g58
NtRp1795
(dp1796
g61
(dp1797
g81
g82
ssg70
g1791
sg63
(lp1798
S'server_protocol'
p1799
asbag56
(g77
g58
NtRp1800
(dp1801
g61
(dp1802
g88
g89
ssg70
g1791
sg63
(lp1803
S':'
asbag56
(g77
g58
NtRp1804
(dp1805
g61
(dp1806
sg70
g1791
sg63
(lp1807
g56
(g57
g58
NtRp1808
(dp1809
g61
(dp1810
g69
I4
ssg70
g1804
sg63
(lp1811
S'HTTP/1.1'
p1812
asbasbasbag56
(g72
g58
NtRp1813
(dp1814
g61
(dp1815
sg70
g1217
sg63
(lp1816
g56
(g77
g58
NtRp1817
(dp1818
g61
(dp1819
g81
g82
ssg70
g1813
sg63
(lp1820
S'server_software'
p1821
asbag56
(g77
g58
NtRp1822
(dp1823
g61
(dp1824
g88
g89
ssg70
g1813
sg63
(lp1825
S':'
asbag56
(g77
g58
NtRp1826
(dp1827
g61
(dp1828
sg70
g1813
sg63
(lp1829
g56
(g57
g58
NtRp1830
(dp1831
g61
(dp1832
g69
I4
ssg70
g1826
sg63
(lp1833
S'Rocket 1.2.4'
p1834
asbasbasbag56
(g72
g58
NtRp1835
(dp1836
g61
(dp1837
sg70
g1217
sg63
(lp1838
g56
(g77
g58
NtRp1839
(dp1840
g61
(dp1841
g81
g82
ssg70
g1835
sg63
(lp1842
S'web2py_crontype'
p1843
asbag56
(g77
g58
NtRp1844
(dp1845
g61
(dp1846
g88
g89
ssg70
g1835
sg63
(lp1847
S':'
asbag56
(g77
g58
NtRp1848
(dp1849
g61
(dp1850
sg70
g1835
sg63
(lp1851
g56
(g57
g58
NtRp1852
(dp1853
g61
(dp1854
g69
I4
ssg70
g1848
sg63
(lp1855
S'hard'
p1856
asbasbasbag56
(g72
g58
NtRp1857
(dp1858
g61
(dp1859
sg70
g1217
sg63
(lp1860
g56
(g77
g58
NtRp1861
(dp1862
g61
(dp1863
g81
g82
ssg70
g1857
sg63
(lp1864
S'web2py_path'
p1865
asbag56
(g77
g58
NtRp1866
(dp1867
g61
(dp1868
g88
g89
ssg70
g1857
sg63
(lp1869
S':'
asbag56
(g77
g58
NtRp1870
(dp1871
g61
(dp1872
sg70
g1857
sg63
(lp1873
g56
(g57
g58
NtRp1874
(dp1875
g61
(dp1876
g69
I4
ssg70
g1870
sg63
(lp1877
g1264
asbasbasbag56
(g72
g58
NtRp1878
(dp1879
g61
(dp1880
sg70
g1217
sg63
(lp1881
g56
(g77
g58
NtRp1882
(dp1883
g61
(dp1884
g81
g82
ssg70
g1878
sg63
(lp1885
S'web2py_version'
p1886
asbag56
(g77
g58
NtRp1887
(dp1888
g61
(dp1889
g88
g89
ssg70
g1878
sg63
(lp1890
S':'
asbag56
(g77
g58
NtRp1891
(dp1892
g61
(dp1893
sg70
g1878
sg63
(lp1894
g56
(g57
g58
NtRp1895
(dp1896
g61
(dp1897
g69
I4
ssg70
g1891
sg63
(lp1898
g56
(g65
g58
NtRp1899
(dp1900
g61
(dp1901
g69
I3
ssg70
Nsg63
(lp1902
g56
(g72
g58
NtRp1903
(dp1904
g61
(dp1905
sg70
g1899
sg63
(lp1906
g56
(g77
g58
NtRp1907
(dp1908
g61
(dp1909
sg70
g1903
sg63
(lp1910
g56
(g57
g58
NtRp1911
(dp1912
g61
(dp1913
g69
I3
ssg70
g1907
sg63
(lp1914
S'1'
asbasbasbag56
(g72
g58
NtRp1915
(dp1916
g61
(dp1917
sg70
g1899
sg63
(lp1918
g56
(g77
g58
NtRp1919
(dp1920
g61
(dp1921
sg70
g1915
sg63
(lp1922
g56
(g57
g58
NtRp1923
(dp1924
g61
(dp1925
g69
I3
ssg70
g1919
sg63
(lp1926
S'99'
p1927
asbasbasbag56
(g72
g58
NtRp1928
(dp1929
g61
(dp1930
sg70
g1899
sg63
(lp1931
g56
(g77
g58
NtRp1932
(dp1933
g61
(dp1934
sg70
g1928
sg63
(lp1935
g56
(g57
g58
NtRp1936
(dp1937
g61
(dp1938
g69
I3
ssg70
g1932
sg63
(lp1939
S'2'
asbasbasbag56
(g72
g58
NtRp1940
(dp1941
g61
(dp1942
sg70
g1899
sg63
(lp1943
g56
(g77
g58
NtRp1944
(dp1945
g61
(dp1946
sg70
g1940
sg63
(lp1947
g56
(g57
g58
NtRp1948
(dp1949
g61
(dp1950
g69
I3
ssg70
g1944
sg63
(lp1951
S'datetime.datetime(2011, 9, 26, 6, 55, 33)'
p1952
asbasbasbag56
(g72
g58
NtRp1953
(dp1954
g61
(dp1955
sg70
g1899
sg63
(lp1956
g56
(g77
g58
NtRp1957
(dp1958
g61
(dp1959
sg70
g1953
sg63
(lp1960
g56
(g57
g58
NtRp1961
(dp1962
g61
(dp1963
g69
I3
ssg70
g1957
sg63
(lp1964
S'stable'
p1965
asbasbasbasbasbasbasbag56
(g72
g58
NtRp1966
(dp1967
g61
(dp1968
sg70
g1217
sg63
(lp1969
g56
(g77
g58
NtRp1970
(dp1971
g61
(dp1972
g81
g82
ssg70
g1966
sg63
(lp1973
S'wsgi_errors'
p1974
asbag56
(g77
g58
NtRp1975
(dp1976
g61
(dp1977
g88
g89
ssg70
g1966
sg63
(lp1978
S':'
asbag56
(g77
g58
NtRp1979
(dp1980
g61
(dp1981
sg70
g1966
sg63
(lp1982
g56
(g57
g58
NtRp1983
(dp1984
g61
(dp1985
g69
I4
ssg70
g1979
sg63
(lp1986
S"<open file '<stderr>', mode 'w' at 0x7fc3682ea270>"
p1987
asbasbasbag56
(g72
g58
NtRp1988
(dp1989
g61
(dp1990
sg70
g1217
sg63
(lp1991
g56
(g77
g58
NtRp1992
(dp1993
g61
(dp1994
g81
g82
ssg70
g1988
sg63
(lp1995
S'wsgi_file_wrapper'
p1996
asbag56
(g77
g58
NtRp1997
(dp1998
g61
(dp1999
g88
g89
ssg70
g1988
sg63
(lp2000
S':'
asbag56
(g77
g58
NtRp2001
(dp2002
g61
(dp2003
sg70
g1988
sg63
(lp2004
g56
(g57
g58
NtRp2005
(dp2006
g61
(dp2007
g69
I4
ssg70
g2001
sg63
(lp2008
S'<class wsgiref.util.FileWrapper at 0x1e90808>'
p2009
asbasbasbag56
(g72
g58
NtRp2010
(dp2011
g61
(dp2012
sg70
g1217
sg63
(lp2013
g56
(g77
g58
NtRp2014
(dp2015
g61
(dp2016
g81
g82
ssg70
g2010
sg63
(lp2017
S'wsgi_input'
p2018
asbag56
(g77
g58
NtRp2019
(dp2020
g61
(dp2021
g88
g89
ssg70
g2010
sg63
(lp2022
S':'
asbag56
(g77
g58
NtRp2023
(dp2024
g61
(dp2025
sg70
g2010
sg63
(lp2026
g56
(g57
g58
NtRp2027
(dp2028
g61
(dp2029
g69
I4
ssg70
g2023
sg63
(lp2030
S'<socket._fileobject object at 0x26a57d0>'
p2031
asbasbasbag56
(g72
g58
NtRp2032
(dp2033
g61
(dp2034
sg70
g1217
sg63
(lp2035
g56
(g77
g58
NtRp2036
(dp2037
g61
(dp2038
g81
g82
ssg70
g2032
sg63
(lp2039
S'wsgi_multiprocess'
p2040
asbag56
(g77
g58
NtRp2041
(dp2042
g61
(dp2043
g88
g89
ssg70
g2032
sg63
(lp2044
S':'
asbag56
(g77
g58
NtRp2045
(dp2046
g61
(dp2047
sg70
g2032
sg63
(lp2048
g56
(g57
g58
NtRp2049
(dp2050
g61
(dp2051
g69
I4
ssg70
g2045
sg63
(lp2052
g99
asbasbasbag56
(g72
g58
NtRp2053
(dp2054
g61
(dp2055
sg70
g1217
sg63
(lp2056
g56
(g77
g58
NtRp2057
(dp2058
g61
(dp2059
g81
g82
ssg70
g2053
sg63
(lp2060
S'wsgi_multithread'
p2061
asbag56
(g77
g58
NtRp2062
(dp2063
g61
(dp2064
g88
g89
ssg70
g2053
sg63
(lp2065
S':'
asbag56
(g77
g58
NtRp2066
(dp2067
g61
(dp2068
sg70
g2053
sg63
(lp2069
g56
(g57
g58
NtRp2070
(dp2071
g61
(dp2072
g69
I4
ssg70
g2066
sg63
(lp2073
S'True'
p2074
asbasbasbag56
(g72
g58
NtRp2075
(dp2076
g61
(dp2077
sg70
g1217
sg63
(lp2078
g56
(g77
g58
NtRp2079
(dp2080
g61
(dp2081
g81
g82
ssg70
g2075
sg63
(lp2082
S'wsgi_run_once'
p2083
asbag56
(g77
g58
NtRp2084
(dp2085
g61
(dp2086
g88
g89
ssg70
g2075
sg63
(lp2087
S':'
asbag56
(g77
g58
NtRp2088
(dp2089
g61
(dp2090
sg70
g2075
sg63
(lp2091
g56
(g57
g58
NtRp2092
(dp2093
g61
(dp2094
g69
I4
ssg70
g2088
sg63
(lp2095
g99
asbasbasbag56
(g72
g58
NtRp2096
(dp2097
g61
(dp2098
sg70
g1217
sg63
(lp2099
g56
(g77
g58
NtRp2100
(dp2101
g61
(dp2102
g81
g82
ssg70
g2096
sg63
(lp2103
S'wsgi_url_scheme'
p2104
asbag56
(g77
g58
NtRp2105
(dp2106
g61
(dp2107
g88
g89
ssg70
g2096
sg63
(lp2108
S':'
asbag56
(g77
g58
NtRp2109
(dp2110
g61
(dp2111
sg70
g2096
sg63
(lp2112
g56
(g57
g58
NtRp2113
(dp2114
g61
(dp2115
g69
I4
ssg70
g2109
sg63
(lp2116
S'http'
p2117
asbasbasbag56
(g72
g58
NtRp2118
(dp2119
g61
(dp2120
sg70
g1217
sg63
(lp2121
g56
(g77
g58
NtRp2122
(dp2123
g61
(dp2124
g81
g82
ssg70
g2118
sg63
(lp2125
S'wsgi_version'
p2126
asbag56
(g77
g58
NtRp2127
(dp2128
g61
(dp2129
g88
g89
ssg70
g2118
sg63
(lp2130
S':'
asbag56
(g77
g58
NtRp2131
(dp2132
g61
(dp2133
sg70
g2118
sg63
(lp2134
g56
(g57
g58
NtRp2135
(dp2136
g61
(dp2137
g69
I4
ssg70
g2131
sg63
(lp2138
g56
(g65
g58
NtRp2139
(dp2140
g61
(dp2141
g69
I3
ssg70
Nsg63
(lp2142
g56
(g72
g58
NtRp2143
(dp2144
g61
(dp2145
sg70
g2139
sg63
(lp2146
g56
(g77
g58
NtRp2147
(dp2148
g61
(dp2149
sg70
g2143
sg63
(lp2150
g56
(g57
g58
NtRp2151
(dp2152
g61
(dp2153
g69
I3
ssg70
g2147
sg63
(lp2154
S'1'
asbasbasbag56
(g72
g58
NtRp2155
(dp2156
g61
(dp2157
sg70
g2139
sg63
(lp2158
g56
(g77
g58
NtRp2159
(dp2160
g61
(dp2161
sg70
g2155
sg63
(lp2162
g56
(g57
g58
NtRp2163
(dp2164
g61
(dp2165
g69
I3
ssg70
g2159
sg63
(lp2166
S'0'
asbasbasbasbasbasbasbasbasbasbasbag56
(g72
g58
NtRp2167
(dp2168
g61
(dp2169
sg70
g66
sg63
(lp2170
g56
(g77
g58
NtRp2171
(dp2172
g61
(dp2173
g81
g82
ssg70
g2167
sg63
(lp2174
S'extension'
p2175
asbag56
(g77
g58
NtRp2176
(dp2177
g61
(dp2178
g88
g89
ssg70
g2167
sg63
(lp2179
S':'
asbag56
(g77
g58
NtRp2180
(dp2181
g61
(dp2182
sg70
g2167
sg63
(lp2183
g56
(g57
g58
NtRp2184
(dp2185
g61
(dp2186
g69
I5
ssg70
g2180
sg63
(lp2187
S'html'
p2188
asbasbasbag56
(g72
g58
NtRp2189
(dp2190
g61
(dp2191
sg70
g66
sg63
(lp2192
g56
(g77
g58
NtRp2193
(dp2194
g61
(dp2195
g81
g82
ssg70
g2189
sg63
(lp2196
S'folder'
p2197
asbag56
(g77
g58
NtRp2198
(dp2199
g61
(dp2200
g88
g89
ssg70
g2189
sg63
(lp2201
S':'
asbag56
(g77
g58
NtRp2202
(dp2203
g61
(dp2204
sg70
g2189
sg63
(lp2205
g56
(g57
g58
NtRp2206
(dp2207
g61
(dp2208
g69
I5
ssg70
g2202
sg63
(lp2209
S'/home/ian/web2py/applications/topoi/'
p2210
asbasbasbag56
(g72
g58
NtRp2211
(dp2212
g61
(dp2213
sg70
g66
sg63
(lp2214
g56
(g77
g58
NtRp2215
(dp2216
g61
(dp2217
g81
g82
ssg70
g2211
sg63
(lp2218
S'function'
p2219
asbag56
(g77
g58
NtRp2220
(dp2221
g61
(dp2222
g88
g89
ssg70
g2211
sg63
(lp2223
S':'
asbag56
(g77
g58
NtRp2224
(dp2225
g61
(dp2226
sg70
g2211
sg63
(lp2227
g56
(g57
g58
NtRp2228
(dp2229
g61
(dp2230
g69
I5
ssg70
g2224
sg63
(lp2231
S'list'
p2232
asbasbasbag56
(g72
g58
NtRp2233
(dp2234
g61
(dp2235
sg70
g66
sg63
(lp2236
g56
(g77
g58
NtRp2237
(dp2238
g61
(dp2239
g81
g82
ssg70
g2233
sg63
(lp2240
S'get_vars'
p2241
asbag56
(g77
g58
NtRp2242
(dp2243
g61
(dp2244
g88
g89
ssg70
g2233
sg63
(lp2245
S':'
asbag56
(g77
g58
NtRp2246
(dp2247
g61
(dp2248
sg70
g2233
sg63
(lp2249
g56
(g57
g58
NtRp2250
(dp2251
g61
(dp2252
g69
I5
ssg70
g2246
sg63
(lp2253
g56
(g65
g58
NtRp2254
(dp2255
g61
(dp2256
g69
I4
ssg70
Nsg63
(lp2257
sbasbasbasbag56
(g72
g58
NtRp2258
(dp2259
g61
(dp2260
sg70
g66
sg63
(lp2261
g56
(g77
g58
NtRp2262
(dp2263
g61
(dp2264
g81
g82
ssg70
g2258
sg63
(lp2265
S'global_settings'
p2266
asbag56
(g77
g58
NtRp2267
(dp2268
g61
(dp2269
g88
g89
ssg70
g2258
sg63
(lp2270
S':'
asbag56
(g77
g58
NtRp2271
(dp2272
g61
(dp2273
sg70
g2258
sg63
(lp2274
g56
(g57
g58
NtRp2275
(dp2276
g61
(dp2277
g69
I5
ssg70
g2271
sg63
(lp2278
g56
(g65
g58
NtRp2279
(dp2280
g61
(dp2281
g69
I4
ssg70
Nsg63
(lp2282
g56
(g72
g58
NtRp2283
(dp2284
g61
(dp2285
sg70
g2279
sg63
(lp2286
g56
(g77
g58
NtRp2287
(dp2288
g61
(dp2289
g81
g82
ssg70
g2283
sg63
(lp2290
g1229
asbag56
(g77
g58
NtRp2291
(dp2292
g61
(dp2293
g88
g89
ssg70
g2283
sg63
(lp2294
S':'
asbag56
(g77
g58
NtRp2295
(dp2296
g61
(dp2297
sg70
g2283
sg63
(lp2298
g56
(g57
g58
NtRp2299
(dp2300
g61
(dp2301
g69
I4
ssg70
g2295
sg63
(lp2302
S"set(['/home/ian/web2py/applications/topoi/', '/home/ian/web2py/applications/welcome/'])"
p2303
asbasbasbag56
(g72
g58
NtRp2304
(dp2305
g61
(dp2306
sg70
g2279
sg63
(lp2307
g56
(g77
g58
NtRp2308
(dp2309
g61
(dp2310
g81
g82
ssg70
g2304
sg63
(lp2311
g1251
asbag56
(g77
g58
NtRp2312
(dp2313
g61
(dp2314
g88
g89
ssg70
g2304
sg63
(lp2315
S':'
asbag56
(g77
g58
NtRp2316
(dp2317
g61
(dp2318
sg70
g2304
sg63
(lp2319
g56
(g57
g58
NtRp2320
(dp2321
g61
(dp2322
g69
I4
ssg70
g2316
sg63
(lp2323
g1264
asbasbasbag56
(g72
g58
NtRp2324
(dp2325
g61
(dp2326
sg70
g2279
sg63
(lp2327
g56
(g77
g58
NtRp2328
(dp2329
g61
(dp2330
g81
g82
ssg70
g2324
sg63
(lp2331
g1273
asbag56
(g77
g58
NtRp2332
(dp2333
g61
(dp2334
g88
g89
ssg70
g2324
sg63
(lp2335
S':'
asbag56
(g77
g58
NtRp2336
(dp2337
g61
(dp2338
sg70
g2324
sg63
(lp2339
g56
(g57
g58
NtRp2340
(dp2341
g61
(dp2342
g69
I4
ssg70
g2336
sg63
(lp2343
g56
(g65
g58
NtRp2344
(dp2345
g61
(dp2346
g69
I3
ssg70
Nsg63
(lp2347
sbasbasbasbag56
(g72
g58
NtRp2348
(dp2349
g61
(dp2350
sg70
g2279
sg63
(lp2351
g56
(g77
g58
NtRp2352
(dp2353
g61
(dp2354
g81
g82
ssg70
g2348
sg63
(lp2355
g1298
asbag56
(g77
g58
NtRp2356
(dp2357
g61
(dp2358
g88
g89
ssg70
g2348
sg63
(lp2359
S':'
asbag56
(g77
g58
NtRp2360
(dp2361
g61
(dp2362
sg70
g2348
sg63
(lp2363
g56
(g57
g58
NtRp2364
(dp2365
g61
(dp2366
g69
I4
ssg70
g2360
sg63
(lp2367
S"<Values at 0x1fc77e8: {'verbose': False, 'ip': '127.0.0.1', 'shutdown_timeout': 5, 'taskbar': False, 'nocron': False, 'pid_filename': 'httpserver.pid', 'maxthreads': None, 'softcron': False, 'server_name': 'Ariel-ubuntu', 'bpython': False, 'nogui': False, 'port': 8000, 'extcron': False, 'debuglevel': 30, 'test': None, 'folder': '/home/ian/web2py', 'config': '', 'import_models': False, 'winservice': '', 'shell': None, 'run': '', 'log_filename': 'httpserver.log', 'args': [''], 'ssl_ca_certificate': None, 'scheduler': None, 'profiler_filename': None, 'ssl_private_key': '', 'password': '<ask>', 'request_queue_size': 5, 'ssl_certificate': '', 'cronjob': False, 'plain': False, 'quiet': False, 'interfaces': None, 'minthreads': None, 'timeout': 10, 'numthreads': None, 'nobanner': False}>"
p2368
asbasbasbag56
(g72
g58
NtRp2369
(dp2370
g61
(dp2371
sg70
g2279
sg63
(lp2372
g56
(g77
g58
NtRp2373
(dp2374
g61
(dp2375
g81
g82
ssg70
g2369
sg63
(lp2376
g1320
asbag56
(g77
g58
NtRp2377
(dp2378
g61
(dp2379
g88
g89
ssg70
g2369
sg63
(lp2380
S':'
asbag56
(g77
g58
NtRp2381
(dp2382
g61
(dp2383
sg70
g2369
sg63
(lp2384
g56
(g57
g58
NtRp2385
(dp2386
g61
(dp2387
g69
I4
ssg70
g2381
sg63
(lp2388
S'set([])'
p2389
asbasbasbag56
(g72
g58
NtRp2390
(dp2391
g61
(dp2392
sg70
g2279
sg63
(lp2393
g56
(g77
g58
NtRp2394
(dp2395
g61
(dp2396
g81
g82
ssg70
g2390
sg63
(lp2397
g1342
asbag56
(g77
g58
NtRp2398
(dp2399
g61
(dp2400
g88
g89
ssg70
g2390
sg63
(lp2401
S':'
asbag56
(g77
g58
NtRp2402
(dp2403
g61
(dp2404
sg70
g2390
sg63
(lp2405
g56
(g57
g58
NtRp2406
(dp2407
g61
(dp2408
g69
I4
ssg70
g2402
sg63
(lp2409
g99
asbasbasbag56
(g72
g58
NtRp2410
(dp2411
g61
(dp2412
sg70
g2279
sg63
(lp2413
g56
(g77
g58
NtRp2414
(dp2415
g61
(dp2416
g81
g82
ssg70
g2410
sg63
(lp2417
g1363
asbag56
(g77
g58
NtRp2418
(dp2419
g61
(dp2420
g88
g89
ssg70
g2410
sg63
(lp2421
S':'
asbag56
(g77
g58
NtRp2422
(dp2423
g61
(dp2424
sg70
g2410
sg63
(lp2425
g56
(g57
g58
NtRp2426
(dp2427
g61
(dp2428
g69
I4
ssg70
g2422
sg63
(lp2429
g1376
asbasbasbag56
(g72
g58
NtRp2430
(dp2431
g61
(dp2432
sg70
g2279
sg63
(lp2433
g56
(g77
g58
NtRp2434
(dp2435
g61
(dp2436
g81
g82
ssg70
g2430
sg63
(lp2437
g1605
asbag56
(g77
g58
NtRp2438
(dp2439
g61
(dp2440
g88
g89
ssg70
g2430
sg63
(lp2441
S':'
asbag56
(g77
g58
NtRp2442
(dp2443
g61
(dp2444
sg70
g2430
sg63
(lp2445
g56
(g57
g58
NtRp2446
(dp2447
g61
(dp2448
g69
I4
ssg70
g2442
sg63
(lp2449
g99
asbasbasbag56
(g72
g58
NtRp2450
(dp2451
g61
(dp2452
sg70
g2279
sg63
(lp2453
g56
(g77
g58
NtRp2454
(dp2455
g61
(dp2456
g81
g82
ssg70
g2450
sg63
(lp2457
g1843
asbag56
(g77
g58
NtRp2458
(dp2459
g61
(dp2460
g88
g89
ssg70
g2450
sg63
(lp2461
S':'
asbag56
(g77
g58
NtRp2462
(dp2463
g61
(dp2464
sg70
g2450
sg63
(lp2465
g56
(g57
g58
NtRp2466
(dp2467
g61
(dp2468
g69
I4
ssg70
g2462
sg63
(lp2469
g1856
asbasbasbag56
(g72
g58
NtRp2470
(dp2471
g61
(dp2472
sg70
g2279
sg63
(lp2473
g56
(g77
g58
NtRp2474
(dp2475
g61
(dp2476
g81
g82
ssg70
g2470
sg63
(lp2477
g1886
asbag56
(g77
g58
NtRp2478
(dp2479
g61
(dp2480
g88
g89
ssg70
g2470
sg63
(lp2481
S':'
asbag56
(g77
g58
NtRp2482
(dp2483
g61
(dp2484
sg70
g2470
sg63
(lp2485
g56
(g57
g58
NtRp2486
(dp2487
g61
(dp2488
g69
I4
ssg70
g2482
sg63
(lp2489
g56
(g65
g58
NtRp2490
(dp2491
g61
(dp2492
g69
I3
ssg70
Nsg63
(lp2493
g56
(g72
g58
NtRp2494
(dp2495
g61
(dp2496
sg70
g2490
sg63
(lp2497
g56
(g77
g58
NtRp2498
(dp2499
g61
(dp2500
sg70
g2494
sg63
(lp2501
g56
(g57
g58
NtRp2502
(dp2503
g61
(dp2504
g69
I3
ssg70
g2498
sg63
(lp2505
S'1'
asbasbasbag56
(g72
g58
NtRp2506
(dp2507
g61
(dp2508
sg70
g2490
sg63
(lp2509
g56
(g77
g58
NtRp2510
(dp2511
g61
(dp2512
sg70
g2506
sg63
(lp2513
g56
(g57
g58
NtRp2514
(dp2515
g61
(dp2516
g69
I3
ssg70
g2510
sg63
(lp2517
S'99'
p2518
asbasbasbag56
(g72
g58
NtRp2519
(dp2520
g61
(dp2521
sg70
g2490
sg63
(lp2522
g56
(g77
g58
NtRp2523
(dp2524
g61
(dp2525
sg70
g2519
sg63
(lp2526
g56
(g57
g58
NtRp2527
(dp2528
g61
(dp2529
g69
I3
ssg70
g2523
sg63
(lp2530
S'2'
asbasbasbag56
(g72
g58
NtRp2531
(dp2532
g61
(dp2533
sg70
g2490
sg63
(lp2534
g56
(g77
g58
NtRp2535
(dp2536
g61
(dp2537
sg70
g2531
sg63
(lp2538
g56
(g57
g58
NtRp2539
(dp2540
g61
(dp2541
g69
I3
ssg70
g2535
sg63
(lp2542
S'datetime.datetime(2011, 9, 26, 6, 55, 33)'
p2543
asbasbasbag56
(g72
g58
NtRp2544
(dp2545
g61
(dp2546
sg70
g2490
sg63
(lp2547
g56
(g77
g58
NtRp2548
(dp2549
g61
(dp2550
sg70
g2544
sg63
(lp2551
g56
(g57
g58
NtRp2552
(dp2553
g61
(dp2554
g69
I3
ssg70
g2548
sg63
(lp2555
g1965
asbasbasbasbasbasbasbasbasbasbasbag56
(g72
g58
NtRp2556
(dp2557
g61
(dp2558
sg70
g66
sg63
(lp2559
g56
(g77
g58
NtRp2560
(dp2561
g61
(dp2562
g81
g82
ssg70
g2556
sg63
(lp2563
S'is_https'
p2564
asbag56
(g77
g58
NtRp2565
(dp2566
g61
(dp2567
g88
g89
ssg70
g2556
sg63
(lp2568
S':'
asbag56
(g77
g58
NtRp2569
(dp2570
g61
(dp2571
sg70
g2556
sg63
(lp2572
g56
(g57
g58
NtRp2573
(dp2574
g61
(dp2575
g69
I5
ssg70
g2569
sg63
(lp2576
g99
asbasbasbag56
(g72
g58
NtRp2577
(dp2578
g61
(dp2579
sg70
g66
sg63
(lp2580
g56
(g77
g58
NtRp2581
(dp2582
g61
(dp2583
g81
g82
ssg70
g2577
sg63
(lp2584
S'is_local'
p2585
asbag56
(g77
g58
NtRp2586
(dp2587
g61
(dp2588
g88
g89
ssg70
g2577
sg63
(lp2589
S':'
asbag56
(g77
g58
NtRp2590
(dp2591
g61
(dp2592
sg70
g2577
sg63
(lp2593
g56
(g57
g58
NtRp2594
(dp2595
g61
(dp2596
g69
I5
ssg70
g2590
sg63
(lp2597
g2074
asbasbasbag56
(g72
g58
NtRp2598
(dp2599
g61
(dp2600
sg70
g66
sg63
(lp2601
g56
(g77
g58
NtRp2602
(dp2603
g61
(dp2604
g81
g82
ssg70
g2598
sg63
(lp2605
S'is_restful'
p2606
asbag56
(g77
g58
NtRp2607
(dp2608
g61
(dp2609
g88
g89
ssg70
g2598
sg63
(lp2610
S':'
asbag56
(g77
g58
NtRp2611
(dp2612
g61
(dp2613
sg70
g2598
sg63
(lp2614
g56
(g57
g58
NtRp2615
(dp2616
g61
(dp2617
g69
I5
ssg70
g2611
sg63
(lp2618
g99
asbasbasbag56
(g72
g58
NtRp2619
(dp2620
g61
(dp2621
sg70
g66
sg63
(lp2622
g56
(g77
g58
NtRp2623
(dp2624
g61
(dp2625
g81
g82
ssg70
g2619
sg63
(lp2626
S'now'
p2627
asbag56
(g77
g58
NtRp2628
(dp2629
g61
(dp2630
g88
g89
ssg70
g2619
sg63
(lp2631
S':'
asbag56
(g77
g58
NtRp2632
(dp2633
g61
(dp2634
sg70
g2619
sg63
(lp2635
g56
(g57
g58
NtRp2636
(dp2637
g61
(dp2638
g69
I5
ssg70
g2632
sg63
(lp2639
S'datetime.datetime(2011, 11, 29, 22, 43, 27, 48789)'
p2640
asbasbasbag56
(g72
g58
NtRp2641
(dp2642
g61
(dp2643
sg70
g66
sg63
(lp2644
g56
(g77
g58
NtRp2645
(dp2646
g61
(dp2647
g81
g82
ssg70
g2641
sg63
(lp2648
S'post_vars'
p2649
asbag56
(g77
g58
NtRp2650
(dp2651
g61
(dp2652
g88
g89
ssg70
g2641
sg63
(lp2653
S':'
asbag56
(g77
g58
NtRp2654
(dp2655
g61
(dp2656
sg70
g2641
sg63
(lp2657
g56
(g57
g58
NtRp2658
(dp2659
g61
(dp2660
g69
I5
ssg70
g2654
sg63
(lp2661
g56
(g65
g58
NtRp2662
(dp2663
g61
(dp2664
g69
I4
ssg70
Nsg63
(lp2665
sbasbasbasbag56
(g72
g58
NtRp2666
(dp2667
g61
(dp2668
sg70
g66
sg63
(lp2669
g56
(g77
g58
NtRp2670
(dp2671
g61
(dp2672
g81
g82
ssg70
g2666
sg63
(lp2673
S'raw_args'
p2674
asbag56
(g77
g58
NtRp2675
(dp2676
g61
(dp2677
g88
g89
ssg70
g2666
sg63
(lp2678
S':'
asbag56
(g77
g58
NtRp2679
(dp2680
g61
(dp2681
sg70
g2666
sg63
(lp2682
g56
(g57
g58
NtRp2683
(dp2684
g61
(dp2685
g69
I5
ssg70
g2679
sg63
(lp2686
S'fonts/websymbols-regular-webfont.woff'
p2687
asbasbasbag56
(g72
g58
NtRp2688
(dp2689
g61
(dp2690
sg70
g66
sg63
(lp2691
g56
(g77
g58
NtRp2692
(dp2693
g61
(dp2694
g81
g82
ssg70
g2688
sg63
(lp2695
S'url'
p2696
asbag56
(g77
g58
NtRp2697
(dp2698
g61
(dp2699
g88
g89
ssg70
g2688
sg63
(lp2700
S':'
asbag56
(g77
g58
NtRp2701
(dp2702
g61
(dp2703
sg70
g2688
sg63
(lp2704
g56
(g57
g58
NtRp2705
(dp2706
g61
(dp2707
g69
I5
ssg70
g2701
sg63
(lp2708
S'/topoi/plugin_listandedit/list/fonts/websymbols-regular-webfont.woff'
p2709
asbasbasbag56
(g72
g58
NtRp2710
(dp2711
g61
(dp2712
sg70
g66
sg63
(lp2713
g56
(g77
g58
NtRp2714
(dp2715
g61
(dp2716
g81
g82
ssg70
g2710
sg63
(lp2717
S'utcnow'
p2718
asbag56
(g77
g58
NtRp2719
(dp2720
g61
(dp2721
g88
g89
ssg70
g2710
sg63
(lp2722
S':'
asbag56
(g77
g58
NtRp2723
(dp2724
g61
(dp2725
sg70
g2710
sg63
(lp2726
g56
(g57
g58
NtRp2727
(dp2728
g61
(dp2729
g69
I5
ssg70
g2723
sg63
(lp2730
S'datetime.datetime(2011, 11, 30, 3, 43, 27, 48829)'
p2731
asbasbasbag56
(g72
g58
NtRp2732
(dp2733
g61
(dp2734
sg70
g66
sg63
(lp2735
g56
(g77
g58
NtRp2736
(dp2737
g61
(dp2738
g81
g82
ssg70
g2732
sg63
(lp2739
S'uuid'
p2740
asbag56
(g77
g58
NtRp2741
(dp2742
g61
(dp2743
g88
g89
ssg70
g2732
sg63
(lp2744
S':'
asbag56
(g77
g58
NtRp2745
(dp2746
g61
(dp2747
sg70
g2732
sg63
(lp2748
g56
(g57
g58
NtRp2749
(dp2750
g61
(dp2751
g69
I5
ssg70
g2745
sg63
(lp2752
S'topoi/127.0.0.1.2011-11-29.22-43-27.9e8c2aad-efc1-4479-8a0e-f09192e20a5c'
p2753
asbasbasbag56
(g72
g58
NtRp2754
(dp2755
g61
(dp2756
sg70
g66
sg63
(lp2757
g56
(g77
g58
NtRp2758
(dp2759
g61
(dp2760
g81
g82
ssg70
g2754
sg63
(lp2761
S'vars'
p2762
asbag56
(g77
g58
NtRp2763
(dp2764
g61
(dp2765
g88
g89
ssg70
g2754
sg63
(lp2766
S':'
asbag56
(g77
g58
NtRp2767
(dp2768
g61
(dp2769
sg70
g2754
sg63
(lp2770
g56
(g57
g58
NtRp2771
(dp2772
g61
(dp2773
g69
I5
ssg70
g2767
sg63
(lp2774
g56
(g65
g58
NtRp2775
(dp2776
g61
(dp2777
g69
I4
ssg70
Nsg63
(lp2778
sbasbasbasbag56
(g72
g58
NtRp2779
(dp2780
g61
(dp2781
sg70
g66
sg63
(lp2782
g56
(g77
g58
NtRp2783
(dp2784
g61
(dp2785
g81
g82
ssg70
g2779
sg63
(lp2786
S'wsgi'
p2787
asbag56
(g77
g58
NtRp2788
(dp2789
g61
(dp2790
g88
g89
ssg70
g2779
sg63
(lp2791
S':'
asbag56
(g77
g58
NtRp2792
(dp2793
g61
(dp2794
sg70
g2779
sg63
(lp2795
g56
(g57
g58
NtRp2796
(dp2797
g61
(dp2798
g69
I5
ssg70
g2792
sg63
(lp2799
g56
(g65
g58
NtRp2800
(dp2801
g61
(dp2802
g69
I4
ssg70
Nsg63
(lp2803
g56
(g72
g58
NtRp2804
(dp2805
g61
(dp2806
sg70
g2800
sg63
(lp2807
g56
(g77
g58
NtRp2808
(dp2809
g61
(dp2810
g81
g82
ssg70
g2804
sg63
(lp2811
S'environ'
p2812
asbag56
(g77
g58
NtRp2813
(dp2814
g61
(dp2815
g88
g89
ssg70
g2804
sg63
(lp2816
S':'
asbag56
(g77
g58
NtRp2817
(dp2818
g61
(dp2819
sg70
g2804
sg63
(lp2820
g56
(g57
g58
NtRp2821
(dp2822
g61
(dp2823
g69
I4
ssg70
g2817
sg63
(lp2824
g56
(g65
g58
NtRp2825
(dp2826
g61
(dp2827
g69
I3
ssg70
Nsg63
(lp2828
g56
(g72
g58
NtRp2829
(dp2830
g61
(dp2831
sg70
g2825
sg63
(lp2832
g56
(g77
g58
NtRp2833
(dp2834
g61
(dp2835
g81
g82
ssg70
g2829
sg63
(lp2836
S'HTTP_ACCEPT'
p2837
asbag56
(g77
g58
NtRp2838
(dp2839
g61
(dp2840
g88
g89
ssg70
g2829
sg63
(lp2841
S':'
asbag56
(g77
g58
NtRp2842
(dp2843
g61
(dp2844
sg70
g2829
sg63
(lp2845
g56
(g57
g58
NtRp2846
(dp2847
g61
(dp2848
g69
I3
ssg70
g2842
sg63
(lp2849
g1398
asbasbasbag56
(g72
g58
NtRp2850
(dp2851
g61
(dp2852
sg70
g2825
sg63
(lp2853
g56
(g77
g58
NtRp2854
(dp2855
g61
(dp2856
g81
g82
ssg70
g2850
sg63
(lp2857
S'HTTP_ACCEPT_CHARSET'
p2858
asbag56
(g77
g58
NtRp2859
(dp2860
g61
(dp2861
g88
g89
ssg70
g2850
sg63
(lp2862
S':'
asbag56
(g77
g58
NtRp2863
(dp2864
g61
(dp2865
sg70
g2850
sg63
(lp2866
g56
(g57
g58
NtRp2867
(dp2868
g61
(dp2869
g69
I3
ssg70
g2863
sg63
(lp2870
g1420
asbasbasbag56
(g72
g58
NtRp2871
(dp2872
g61
(dp2873
sg70
g2825
sg63
(lp2874
g56
(g77
g58
NtRp2875
(dp2876
g61
(dp2877
g81
g82
ssg70
g2871
sg63
(lp2878
S'HTTP_ACCEPT_ENCODING'
p2879
asbag56
(g77
g58
NtRp2880
(dp2881
g61
(dp2882
g88
g89
ssg70
g2871
sg63
(lp2883
S':'
asbag56
(g77
g58
NtRp2884
(dp2885
g61
(dp2886
sg70
g2871
sg63
(lp2887
g56
(g57
g58
NtRp2888
(dp2889
g61
(dp2890
g69
I3
ssg70
g2884
sg63
(lp2891
g1442
asbasbasbag56
(g72
g58
NtRp2892
(dp2893
g61
(dp2894
sg70
g2825
sg63
(lp2895
g56
(g77
g58
NtRp2896
(dp2897
g61
(dp2898
g81
g82
ssg70
g2892
sg63
(lp2899
S'HTTP_ACCEPT_LANGUAGE'
p2900
asbag56
(g77
g58
NtRp2901
(dp2902
g61
(dp2903
g88
g89
ssg70
g2892
sg63
(lp2904
S':'
asbag56
(g77
g58
NtRp2905
(dp2906
g61
(dp2907
sg70
g2892
sg63
(lp2908
g56
(g57
g58
NtRp2909
(dp2910
g61
(dp2911
g69
I3
ssg70
g2905
sg63
(lp2912
g1464
asbasbasbag56
(g72
g58
NtRp2913
(dp2914
g61
(dp2915
sg70
g2825
sg63
(lp2916
g56
(g77
g58
NtRp2917
(dp2918
g61
(dp2919
g81
g82
ssg70
g2913
sg63
(lp2920
S'HTTP_CONNECTION'
p2921
asbag56
(g77
g58
NtRp2922
(dp2923
g61
(dp2924
g88
g89
ssg70
g2913
sg63
(lp2925
S':'
asbag56
(g77
g58
NtRp2926
(dp2927
g61
(dp2928
sg70
g2913
sg63
(lp2929
g56
(g57
g58
NtRp2930
(dp2931
g61
(dp2932
g69
I3
ssg70
g2926
sg63
(lp2933
g1486
asbasbasbag56
(g72
g58
NtRp2934
(dp2935
g61
(dp2936
sg70
g2825
sg63
(lp2937
g56
(g77
g58
NtRp2938
(dp2939
g61
(dp2940
g81
g82
ssg70
g2934
sg63
(lp2941
S'HTTP_COOKIE'
p2942
asbag56
(g77
g58
NtRp2943
(dp2944
g61
(dp2945
g88
g89
ssg70
g2934
sg63
(lp2946
S':'
asbag56
(g77
g58
NtRp2947
(dp2948
g61
(dp2949
sg70
g2934
sg63
(lp2950
g56
(g57
g58
NtRp2951
(dp2952
g61
(dp2953
g69
I3
ssg70
g2947
sg63
(lp2954
g1508
asbasbasbag56
(g72
g58
NtRp2955
(dp2956
g61
(dp2957
sg70
g2825
sg63
(lp2958
g56
(g77
g58
NtRp2959
(dp2960
g61
(dp2961
g81
g82
ssg70
g2955
sg63
(lp2962
S'HTTP_HOST'
p2963
asbag56
(g77
g58
NtRp2964
(dp2965
g61
(dp2966
g88
g89
ssg70
g2955
sg63
(lp2967
S':'
asbag56
(g77
g58
NtRp2968
(dp2969
g61
(dp2970
sg70
g2955
sg63
(lp2971
g56
(g57
g58
NtRp2972
(dp2973
g61
(dp2974
g69
I3
ssg70
g2968
sg63
(lp2975
g1530
asbasbasbag56
(g72
g58
NtRp2976
(dp2977
g61
(dp2978
sg70
g2825
sg63
(lp2979
g56
(g77
g58
NtRp2980
(dp2981
g61
(dp2982
g81
g82
ssg70
g2976
sg63
(lp2983
S'HTTP_REFERER'
p2984
asbag56
(g77
g58
NtRp2985
(dp2986
g61
(dp2987
g88
g89
ssg70
g2976
sg63
(lp2988
S':'
asbag56
(g77
g58
NtRp2989
(dp2990
g61
(dp2991
sg70
g2976
sg63
(lp2992
g56
(g57
g58
NtRp2993
(dp2994
g61
(dp2995
g69
I3
ssg70
g2989
sg63
(lp2996
g1552
asbasbasbag56
(g72
g58
NtRp2997
(dp2998
g61
(dp2999
sg70
g2825
sg63
(lp3000
g56
(g77
g58
NtRp3001
(dp3002
g61
(dp3003
g81
g82
ssg70
g2997
sg63
(lp3004
S'HTTP_USER_AGENT'
p3005
asbag56
(g77
g58
NtRp3006
(dp3007
g61
(dp3008
g88
g89
ssg70
g2997
sg63
(lp3009
S':'
asbag56
(g77
g58
NtRp3010
(dp3011
g61
(dp3012
sg70
g2997
sg63
(lp3013
g56
(g57
g58
NtRp3014
(dp3015
g61
(dp3016
g69
I3
ssg70
g3010
sg63
(lp3017
g1574
asbasbasbag56
(g72
g58
NtRp3018
(dp3019
g61
(dp3020
sg70
g2825
sg63
(lp3021
g56
(g77
g58
NtRp3022
(dp3023
g61
(dp3024
g81
g82
ssg70
g3018
sg63
(lp3025
S'HTTP_X_INSIGHT'
p3026
asbag56
(g77
g58
NtRp3027
(dp3028
g61
(dp3029
g88
g89
ssg70
g3018
sg63
(lp3030
S':'
asbag56
(g77
g58
NtRp3031
(dp3032
g61
(dp3033
sg70
g3018
sg63
(lp3034
g56
(g57
g58
NtRp3035
(dp3036
g61
(dp3037
g69
I3
ssg70
g3031
sg63
(lp3038
g1596
asbasbasbag56
(g72
g58
NtRp3039
(dp3040
g61
(dp3041
sg70
g2825
sg63
(lp3042
g56
(g77
g58
NtRp3043
(dp3044
g61
(dp3045
g81
g82
ssg70
g3039
sg63
(lp3046
S'PATH_INFO'
p3047
asbag56
(g77
g58
NtRp3048
(dp3049
g61
(dp3050
g88
g89
ssg70
g3039
sg63
(lp3051
S':'
asbag56
(g77
g58
NtRp3052
(dp3053
g61
(dp3054
sg70
g3039
sg63
(lp3055
g56
(g57
g58
NtRp3056
(dp3057
g61
(dp3058
g69
I3
ssg70
g3052
sg63
(lp3059
g1639
asbasbasbag56
(g72
g58
NtRp3060
(dp3061
g61
(dp3062
sg70
g2825
sg63
(lp3063
g56
(g77
g58
NtRp3064
(dp3065
g61
(dp3066
g81
g82
ssg70
g3060
sg63
(lp3067
S'QUERY_STRING'
p3068
asbag56
(g77
g58
NtRp3069
(dp3070
g61
(dp3071
g88
g89
ssg70
g3060
sg63
(lp3072
S':'
asbag56
(g77
g58
NtRp3073
(dp3074
g61
(dp3075
sg70
g3060
sg63
(lp3076
g56
(g57
g58
NtRp3077
(dp3078
g61
(dp3079
g69
I3
ssg70
g3073
sg63
(lp3080
S''
asbasbasbag56
(g72
g58
NtRp3081
(dp3082
g61
(dp3083
sg70
g2825
sg63
(lp3084
g56
(g77
g58
NtRp3085
(dp3086
g61
(dp3087
g81
g82
ssg70
g3081
sg63
(lp3088
S'REMOTE_ADDR'
p3089
asbag56
(g77
g58
NtRp3090
(dp3091
g61
(dp3092
g88
g89
ssg70
g3081
sg63
(lp3093
S':'
asbag56
(g77
g58
NtRp3094
(dp3095
g61
(dp3096
sg70
g3081
sg63
(lp3097
g56
(g57
g58
NtRp3098
(dp3099
g61
(dp3100
g69
I3
ssg70
g3094
sg63
(lp3101
g215
asbasbasbag56
(g72
g58
NtRp3102
(dp3103
g61
(dp3104
sg70
g2825
sg63
(lp3105
g56
(g77
g58
NtRp3106
(dp3107
g61
(dp3108
g81
g82
ssg70
g3102
sg63
(lp3109
S'REMOTE_PORT'
p3110
asbag56
(g77
g58
NtRp3111
(dp3112
g61
(dp3113
g88
g89
ssg70
g3102
sg63
(lp3114
S':'
asbag56
(g77
g58
NtRp3115
(dp3116
g61
(dp3117
sg70
g3102
sg63
(lp3118
g56
(g57
g58
NtRp3119
(dp3120
g61
(dp3121
g69
I3
ssg70
g3115
sg63
(lp3122
g1703
asbasbasbag56
(g72
g58
NtRp3123
(dp3124
g61
(dp3125
sg70
g2825
sg63
(lp3126
g56
(g77
g58
NtRp3127
(dp3128
g61
(dp3129
g81
g82
ssg70
g3123
sg63
(lp3130
S'REQUEST_METHOD'
p3131
asbag56
(g77
g58
NtRp3132
(dp3133
g61
(dp3134
g88
g89
ssg70
g3123
sg63
(lp3135
S':'
asbag56
(g77
g58
NtRp3136
(dp3137
g61
(dp3138
sg70
g3123
sg63
(lp3139
g56
(g57
g58
NtRp3140
(dp3141
g61
(dp3142
g69
I3
ssg70
g3136
sg63
(lp3143
g1725
asbasbasbag56
(g72
g58
NtRp3144
(dp3145
g61
(dp3146
sg70
g2825
sg63
(lp3147
g56
(g77
g58
NtRp3148
(dp3149
g61
(dp3150
g81
g82
ssg70
g3144
sg63
(lp3151
S'SCRIPT_NAME'
p3152
asbag56
(g77
g58
NtRp3153
(dp3154
g61
(dp3155
g88
g89
ssg70
g3144
sg63
(lp3156
S':'
asbag56
(g77
g58
NtRp3157
(dp3158
g61
(dp3159
sg70
g3144
sg63
(lp3160
g56
(g57
g58
NtRp3161
(dp3162
g61
(dp3163
g69
I3
ssg70
g3157
sg63
(lp3164
S''
asbasbasbag56
(g72
g58
NtRp3165
(dp3166
g61
(dp3167
sg70
g2825
sg63
(lp3168
g56
(g77
g58
NtRp3169
(dp3170
g61
(dp3171
g81
g82
ssg70
g3165
sg63
(lp3172
S'SERVER_NAME'
p3173
asbag56
(g77
g58
NtRp3174
(dp3175
g61
(dp3176
g88
g89
ssg70
g3165
sg63
(lp3177
S':'
asbag56
(g77
g58
NtRp3178
(dp3179
g61
(dp3180
sg70
g3165
sg63
(lp3181
g56
(g57
g58
NtRp3182
(dp3183
g61
(dp3184
g69
I3
ssg70
g3178
sg63
(lp3185
g1768
asbasbasbag56
(g72
g58
NtRp3186
(dp3187
g61
(dp3188
sg70
g2825
sg63
(lp3189
g56
(g77
g58
NtRp3190
(dp3191
g61
(dp3192
g81
g82
ssg70
g3186
sg63
(lp3193
S'SERVER_PORT'
p3194
asbag56
(g77
g58
NtRp3195
(dp3196
g61
(dp3197
g88
g89
ssg70
g3186
sg63
(lp3198
S':'
asbag56
(g77
g58
NtRp3199
(dp3200
g61
(dp3201
sg70
g3186
sg63
(lp3202
g56
(g57
g58
NtRp3203
(dp3204
g61
(dp3205
g69
I3
ssg70
g3199
sg63
(lp3206
g1790
asbasbasbag56
(g72
g58
NtRp3207
(dp3208
g61
(dp3209
sg70
g2825
sg63
(lp3210
g56
(g77
g58
NtRp3211
(dp3212
g61
(dp3213
g81
g82
ssg70
g3207
sg63
(lp3214
S'SERVER_PROTOCOL'
p3215
asbag56
(g77
g58
NtRp3216
(dp3217
g61
(dp3218
g88
g89
ssg70
g3207
sg63
(lp3219
S':'
asbag56
(g77
g58
NtRp3220
(dp3221
g61
(dp3222
sg70
g3207
sg63
(lp3223
g56
(g57
g58
NtRp3224
(dp3225
g61
(dp3226
g69
I3
ssg70
g3220
sg63
(lp3227
g1812
asbasbasbag56
(g72
g58
NtRp3228
(dp3229
g61
(dp3230
sg70
g2825
sg63
(lp3231
g56
(g77
g58
NtRp3232
(dp3233
g61
(dp3234
g81
g82
ssg70
g3228
sg63
(lp3235
S'SERVER_SOFTWARE'
p3236
asbag56
(g77
g58
NtRp3237
(dp3238
g61
(dp3239
g88
g89
ssg70
g3228
sg63
(lp3240
S':'
asbag56
(g77
g58
NtRp3241
(dp3242
g61
(dp3243
sg70
g3228
sg63
(lp3244
g56
(g57
g58
NtRp3245
(dp3246
g61
(dp3247
g69
I3
ssg70
g3241
sg63
(lp3248
g1834
asbasbasbag56
(g72
g58
NtRp3249
(dp3250
g61
(dp3251
sg70
g2825
sg63
(lp3252
g56
(g77
g58
NtRp3253
(dp3254
g61
(dp3255
g81
g82
ssg70
g3249
sg63
(lp3256
S'wsgi.errors'
p3257
asbag56
(g77
g58
NtRp3258
(dp3259
g61
(dp3260
g88
g89
ssg70
g3249
sg63
(lp3261
S':'
asbag56
(g77
g58
NtRp3262
(dp3263
g61
(dp3264
sg70
g3249
sg63
(lp3265
g56
(g57
g58
NtRp3266
(dp3267
g61
(dp3268
g69
I3
ssg70
g3262
sg63
(lp3269
S"<open file '<stderr>', mode 'w' at 0x7fc3682ea270>"
p3270
asbasbasbag56
(g72
g58
NtRp3271
(dp3272
g61
(dp3273
sg70
g2825
sg63
(lp3274
g56
(g77
g58
NtRp3275
(dp3276
g61
(dp3277
g81
g82
ssg70
g3271
sg63
(lp3278
S'wsgi.file_wrapper'
p3279
asbag56
(g77
g58
NtRp3280
(dp3281
g61
(dp3282
g88
g89
ssg70
g3271
sg63
(lp3283
S':'
asbag56
(g77
g58
NtRp3284
(dp3285
g61
(dp3286
sg70
g3271
sg63
(lp3287
g56
(g57
g58
NtRp3288
(dp3289
g61
(dp3290
g69
I3
ssg70
g3284
sg63
(lp3291
S'<class wsgiref.util.FileWrapper at 0x1e90808>'
p3292
asbasbasbag56
(g72
g58
NtRp3293
(dp3294
g61
(dp3295
sg70
g2825
sg63
(lp3296
g56
(g77
g58
NtRp3297
(dp3298
g61
(dp3299
g81
g82
ssg70
g3293
sg63
(lp3300
S'wsgi.input'
p3301
asbag56
(g77
g58
NtRp3302
(dp3303
g61
(dp3304
g88
g89
ssg70
g3293
sg63
(lp3305
S':'
asbag56
(g77
g58
NtRp3306
(dp3307
g61
(dp3308
sg70
g3293
sg63
(lp3309
g56
(g57
g58
NtRp3310
(dp3311
g61
(dp3312
g69
I3
ssg70
g3306
sg63
(lp3313
S'<cStringIO.StringO object at 0x26ab298>'
p3314
asbasbasbag56
(g72
g58
NtRp3315
(dp3316
g61
(dp3317
sg70
g2825
sg63
(lp3318
g56
(g77
g58
NtRp3319
(dp3320
g61
(dp3321
g81
g82
ssg70
g3315
sg63
(lp3322
S'wsgi.multiprocess'
p3323
asbag56
(g77
g58
NtRp3324
(dp3325
g61
(dp3326
g88
g89
ssg70
g3315
sg63
(lp3327
S':'
asbag56
(g77
g58
NtRp3328
(dp3329
g61
(dp3330
sg70
g3315
sg63
(lp3331
g56
(g57
g58
NtRp3332
(dp3333
g61
(dp3334
g69
I3
ssg70
g3328
sg63
(lp3335
g99
asbasbasbag56
(g72
g58
NtRp3336
(dp3337
g61
(dp3338
sg70
g2825
sg63
(lp3339
g56
(g77
g58
NtRp3340
(dp3341
g61
(dp3342
g81
g82
ssg70
g3336
sg63
(lp3343
S'wsgi.multithread'
p3344
asbag56
(g77
g58
NtRp3345
(dp3346
g61
(dp3347
g88
g89
ssg70
g3336
sg63
(lp3348
S':'
asbag56
(g77
g58
NtRp3349
(dp3350
g61
(dp3351
sg70
g3336
sg63
(lp3352
g56
(g57
g58
NtRp3353
(dp3354
g61
(dp3355
g69
I3
ssg70
g3349
sg63
(lp3356
g2074
asbasbasbag56
(g72
g58
NtRp3357
(dp3358
g61
(dp3359
sg70
g2825
sg63
(lp3360
g56
(g77
g58
NtRp3361
(dp3362
g61
(dp3363
g81
g82
ssg70
g3357
sg63
(lp3364
S'wsgi.run_once'
p3365
asbag56
(g77
g58
NtRp3366
(dp3367
g61
(dp3368
g88
g89
ssg70
g3357
sg63
(lp3369
S':'
asbag56
(g77
g58
NtRp3370
(dp3371
g61
(dp3372
sg70
g3357
sg63
(lp3373
g56
(g57
g58
NtRp3374
(dp3375
g61
(dp3376
g69
I3
ssg70
g3370
sg63
(lp3377
g99
asbasbasbag56
(g72
g58
NtRp3378
(dp3379
g61
(dp3380
sg70
g2825
sg63
(lp3381
g56
(g77
g58
NtRp3382
(dp3383
g61
(dp3384
g81
g82
ssg70
g3378
sg63
(lp3385
S'wsgi.url_scheme'
p3386
asbag56
(g77
g58
NtRp3387
(dp3388
g61
(dp3389
g88
g89
ssg70
g3378
sg63
(lp3390
S':'
asbag56
(g77
g58
NtRp3391
(dp3392
g61
(dp3393
sg70
g3378
sg63
(lp3394
g56
(g57
g58
NtRp3395
(dp3396
g61
(dp3397
g69
I3
ssg70
g3391
sg63
(lp3398
g2117
asbasbasbag56
(g72
g58
NtRp3399
(dp3400
g61
(dp3401
sg70
g2825
sg63
(lp3402
g56
(g77
g58
NtRp3403
(dp3404
g61
(dp3405
g81
g82
ssg70
g3399
sg63
(lp3406
S'wsgi.version'
p3407
asbag56
(g77
g58
NtRp3408
(dp3409
g61
(dp3410
g88
g89
ssg70
g3399
sg63
(lp3411
S':'
asbag56
(g77
g58
NtRp3412
(dp3413
g61
(dp3414
sg70
g3399
sg63
(lp3415
g56
(g57
g58
NtRp3416
(dp3417
g61
(dp3418
g69
I3
ssg70
g3412
sg63
(lp3419
S'1'
asbasbasbasbasbasbasbasbasbasbasbasbasbsS'frames'
p3420
(lp3421
(dp3422
S'file'
p3423
S'/home/ian/web2py/gluon/restricted.py'
p3424
sS'dump'
p3425
(dp3426
S'environment'
p3427
S"{'A': <class 'gluon.html.A'>, 'Auth': <class 'gluon.tools.Auth'>, 'B': <class 'gluon.html.B'>, 'BEAUTIFY': <class 'gluon.html.BEAUTIFY'>, 'BODY': <class 'gluon.html.BODY'>, 'BR': <class 'gluon.html.BR'>, 'BUTTON': <class 'gluon.html.BUTTON'>, 'CAT': <class 'gluon.html.CAT'>, 'CENTER': <class 'gluon.html.CENTER'>, 'CLEANUP': <class 'gluon.validators.CLEANUP'>, ...}"
p3428
sS'ccode'
p3429
S'<code object <module> at 0x2b6fbb0, file "/home/...topoi/controllers/plugin_listandedit.py", line 3>'
p3430
ssS'lnum'
p3431
I194
sS'lines'
p3432
(dp3433
I192
S'        else:'
p3434
sI193
S'            ccode = compile2(code,layer)'
p3435
sI194
S'        exec ccode in environment'
p3436
sI195
S'    except HTTP:'
p3437
sI196
S'        raise'
p3438
sI197
S'    except Exception, error:'
p3439
sI198
S'        # XXX Show exception in Wing IDE if running in debugger'
p3440
sI189
S'    try:'
p3441
sI190
S'        if type(code) == types.CodeType:'
p3442
sI191
S'            ccode = code'
p3443
ssS'call'
p3444
S"(code='# coding: utf8\\n# try something like\\ndef list(): ...m = form)\\n\\nresponse._vars=response._caller(list)\\n', environment={'A': <class 'gluon.html.A'>, 'Auth': <class 'gluon.tools.Auth'>, 'B': <class 'gluon.html.B'>, 'BEAUTIFY': <class 'gluon.html.BEAUTIFY'>, 'BODY': <class 'gluon.html.BODY'>, 'BR': <class 'gluon.html.BR'>, 'BUTTON': <class 'gluon.html.BUTTON'>, 'CAT': <class 'gluon.html.CAT'>, 'CENTER': <class 'gluon.html.CENTER'>, 'CLEANUP': <class 'gluon.validators.CLEANUP'>, ...}, layer='/home/ian/web2py/applications/topoi/controllers/plugin_listandedit.py')"
p3445
sS'func'
p3446
S'restricted'
p3447
sa(dp3448
g3423
S'/home/ian/web2py/applications/topoi/controllers/plugin_listandedit.py'
p3449
sg3425
(dp3450
sg3431
I37
sg3432
(dp3451
I32
S'    rowid = request.args[1]'
p3452
sI33
S'    form = crud.update(db[tablename], rowid)'
p3453
sI34
S''
sI35
S'    return dict(form = form)'
p3454
sI26
S'        listset.append(i)'
p3455
sI27
S''
sI28
S'    return dict(listset = listset)'
p3456
sI29
S''
sI30
S'def edit():'
p3457
sI31
S'    tablename = request.args[0]'
p3458
ssg3444
S'()'
p3459
sg3446
S'<module>'
p3460
sa(dp3461
g3423
S'/home/ian/web2py/gluon/globals.py'
p3462
sg3425
(dp3463
S'self'
p3464
S'undefined'
p3465
sS'f'
S'<function list>'
p3466
ssg3431
I149
sg3432
(dp3467
I144
S'        self.meta = Storage()      # used by web2py_ajax.html'
p3468
sI145
S'        self.menu = []             # used by the default view layout'
p3469
sI146
S'        self.files = []            # used by web2py_ajax.html'
p3470
sI147
S'        self.generic_patterns = [] # patterns to allow generic views'
p3471
sI148
S'        self._vars = None'
p3472
sI149
S'        self._caller = lambda f: f()'
p3473
sI150
S'        self._view_environment = None'
p3474
sI151
S'        self._custom_commit = None'
p3475
sI152
S'        self._custom_rollback = None'
p3476
sI153
S''
ssg3444
S'(f=<function list>)'
p3477
sg3446
S'<lambda>'
p3478
sa(dp3479
g3423
S'/home/ian/web2py/applications/topoi/controllers/plugin_listandedit.py'
p3480
sg3425
(dp3481
S'global db'
p3482
S"<DAL {'auth_event': <Table {'origin': <gluon.dal.../web2py/applications/topoi/databases/sql.log'}>}>"
p3483
sS'tablename'
p3484
S"'fontss'"
p3485
sS'fieldname'
p3486
g3465
sS'].fields'
p3487
g3465
ssg3431
I13
sg3432
(dp3488
I8
S''
sI9
S'    tablename = request.args[0]'
p3489
sI10
S'    #FIXME: Hack here to solve problem of field name not being identical to table name'
p3490
sI11
S"    tablename = tablename + 's'"
p3491
sI12
S''
sI13
S'    fieldname = db[tablename].fields[1]'
p3492
sI14
S'    print tablename'
p3493
sI15
S''
sI16
S"    rowlist = ''"
p3494
sI17
S'    if not tablename in db.tables():'
p3495
ssg3444
S'()'
p3496
sg3446
S'list'
p3497
sa(dp3498
g3423
S'/home/ian/web2py/gluon/dal.py'
p3499
sg3425
(dp3500
S'builtinstr'
p3501
S"<type 'str'>"
p3502
sS'self'
p3503
S"<DAL {'auth_event': <Table {'origin': <gluon.dal.../web2py/applications/topoi/databases/sql.log'}>}>"
p3504
sS'dict.__getitem__'
p3505
S"<method '__getitem__' of 'dict' objects>"
p3506
sS'key'
p3507
S"'fontss'"
p3508
sS'builtindict'
p3509
S"<type 'dict'>"
p3510
ssg3431
I4505
sg3432
(dp3511
I4500
S'    def __iter__(self):'
p3512
sI4501
S'        for tablename in self.tables:'
p3513
sI4502
S'            yield self[tablename]'
p3514
sI4503
S''
sI4504
S'    def __getitem__(self, key):'
p3515
sI4505
S'        return dict.__getitem__(self, str(key))'
p3516
sI4506
S''
sI4507
S'    def __setitem__(self, key, value):'
p3517
sI4508
S'        dict.__setitem__(self, str(key), value)'
p3518
sI4509
S''
ssg3444
S"(self=<DAL {'auth_event': <Table {'origin': <gluon.dal.../web2py/applications/topoi/databases/sql.log'}>}>, key='fontss')"
p3519
sg3446
g19
sasS'pyver'
p3520
S'Python 2.7.2+: /usr/bin/python2.7'
p3521
sS'session'
p3522
g56
(g57
g58
NtRp3523
(dp3524
g61
(dp3525
sg63
(lp3526
g56
(g65
g58
NtRp3527
(dp3528
g61
(dp3529
g69
I5
ssg70
Nsg63
(lp3530
g56
(g72
g58
NtRp3531
(dp3532
g61
(dp3533
sg70
g3527
sg63
(lp3534
g56
(g77
g58
NtRp3535
(dp3536
g61
(dp3537
g81
g82
ssg70
g3531
sg63
(lp3538
S'auth'
p3539
asbag56
(g77
g58
NtRp3540
(dp3541
g61
(dp3542
g88
g89
ssg70
g3531
sg63
(lp3543
S':'
asbag56
(g77
g58
NtRp3544
(dp3545
g61
(dp3546
sg70
g3531
sg63
(lp3547
g56
(g57
g58
NtRp3548
(dp3549
g61
(dp3550
g69
I5
ssg70
g3544
sg63
(lp3551
g56
(g65
g58
NtRp3552
(dp3553
g61
(dp3554
g69
I4
ssg70
Nsg63
(lp3555
g56
(g72
g58
NtRp3556
(dp3557
g61
(dp3558
sg70
g3552
sg63
(lp3559
g56
(g77
g58
NtRp3560
(dp3561
g61
(dp3562
g81
g82
ssg70
g3556
sg63
(lp3563
S'expiration'
p3564
asbag56
(g77
g58
NtRp3565
(dp3566
g61
(dp3567
g88
g89
ssg70
g3556
sg63
(lp3568
S':'
asbag56
(g77
g58
NtRp3569
(dp3570
g61
(dp3571
sg70
g3556
sg63
(lp3572
g56
(g57
g58
NtRp3573
(dp3574
g61
(dp3575
g69
I4
ssg70
g3569
sg63
(lp3576
S'2592000'
p3577
asbasbasbag56
(g72
g58
NtRp3578
(dp3579
g61
(dp3580
sg70
g3552
sg63
(lp3581
g56
(g77
g58
NtRp3582
(dp3583
g61
(dp3584
g81
g82
ssg70
g3578
sg63
(lp3585
S'hmac_key'
p3586
asbag56
(g77
g58
NtRp3587
(dp3588
g61
(dp3589
g88
g89
ssg70
g3578
sg63
(lp3590
S':'
asbag56
(g77
g58
NtRp3591
(dp3592
g61
(dp3593
sg70
g3578
sg63
(lp3594
g56
(g57
g58
NtRp3595
(dp3596
g61
(dp3597
g69
I4
ssg70
g3591
sg63
(lp3598
S'eceeeca4-e0d7-49bc-a679-949298c4984a'
p3599
asbasbasbag56
(g72
g58
NtRp3600
(dp3601
g61
(dp3602
sg70
g3552
sg63
(lp3603
g56
(g77
g58
NtRp3604
(dp3605
g61
(dp3606
g81
g82
ssg70
g3600
sg63
(lp3607
S'last_visit'
p3608
asbag56
(g77
g58
NtRp3609
(dp3610
g61
(dp3611
g88
g89
ssg70
g3600
sg63
(lp3612
S':'
asbag56
(g77
g58
NtRp3613
(dp3614
g61
(dp3615
sg70
g3600
sg63
(lp3616
g56
(g57
g58
NtRp3617
(dp3618
g61
(dp3619
g69
I4
ssg70
g3613
sg63
(lp3620
S'datetime.datetime(2011, 11, 28, 8, 41, 19, 979285)'
p3621
asbasbasbag56
(g72
g58
NtRp3622
(dp3623
g61
(dp3624
sg70
g3552
sg63
(lp3625
g56
(g77
g58
NtRp3626
(dp3627
g61
(dp3628
g81
g82
ssg70
g3622
sg63
(lp3629
S'remember'
p3630
asbag56
(g77
g58
NtRp3631
(dp3632
g61
(dp3633
g88
g89
ssg70
g3622
sg63
(lp3634
S':'
asbag56
(g77
g58
NtRp3635
(dp3636
g61
(dp3637
sg70
g3622
sg63
(lp3638
g56
(g57
g58
NtRp3639
(dp3640
g61
(dp3641
g69
I4
ssg70
g3635
sg63
(lp3642
g2074
asbasbasbag56
(g72
g58
NtRp3643
(dp3644
g61
(dp3645
sg70
g3552
sg63
(lp3646
g56
(g77
g58
NtRp3647
(dp3648
g61
(dp3649
g81
g82
ssg70
g3643
sg63
(lp3650
S'user'
p3651
asbag56
(g77
g58
NtRp3652
(dp3653
g61
(dp3654
g88
g89
ssg70
g3643
sg63
(lp3655
S':'
asbag56
(g77
g58
NtRp3656
(dp3657
g61
(dp3658
sg70
g3643
sg63
(lp3659
g56
(g57
g58
NtRp3660
(dp3661
g61
(dp3662
g69
I4
ssg70
g3656
sg63
(lp3663
g56
(g65
g58
NtRp3664
(dp3665
g61
(dp3666
g69
I3
ssg70
Nsg63
(lp3667
g56
(g72
g58
NtRp3668
(dp3669
g61
(dp3670
sg70
g3664
sg63
(lp3671
g56
(g77
g58
NtRp3672
(dp3673
g61
(dp3674
g81
g82
ssg70
g3668
sg63
(lp3675
S'email'
p3676
asbag56
(g77
g58
NtRp3677
(dp3678
g61
(dp3679
g88
g89
ssg70
g3668
sg63
(lp3680
S':'
asbag56
(g77
g58
NtRp3681
(dp3682
g61
(dp3683
sg70
g3668
sg63
(lp3684
g56
(g57
g58
NtRp3685
(dp3686
g61
(dp3687
g69
I3
ssg70
g3681
sg63
(lp3688
S'scottianw@gmail.com'
p3689
asbasbasbag56
(g72
g58
NtRp3690
(dp3691
g61
(dp3692
sg70
g3664
sg63
(lp3693
g56
(g77
g58
NtRp3694
(dp3695
g61
(dp3696
g81
g82
ssg70
g3690
sg63
(lp3697
S'first_name'
p3698
asbag56
(g77
g58
NtRp3699
(dp3700
g61
(dp3701
g88
g89
ssg70
g3690
sg63
(lp3702
S':'
asbag56
(g77
g58
NtRp3703
(dp3704
g61
(dp3705
sg70
g3690
sg63
(lp3706
g56
(g57
g58
NtRp3707
(dp3708
g61
(dp3709
g69
I3
ssg70
g3703
sg63
(lp3710
S'Ian'
p3711
asbasbasbag56
(g72
g58
NtRp3712
(dp3713
g61
(dp3714
sg70
g3664
sg63
(lp3715
g56
(g77
g58
NtRp3716
(dp3717
g61
(dp3718
g81
g82
ssg70
g3712
sg63
(lp3719
S'id'
p3720
asbag56
(g77
g58
NtRp3721
(dp3722
g61
(dp3723
g88
g89
ssg70
g3712
sg63
(lp3724
S':'
asbag56
(g77
g58
NtRp3725
(dp3726
g61
(dp3727
sg70
g3712
sg63
(lp3728
g56
(g57
g58
NtRp3729
(dp3730
g61
(dp3731
g69
I3
ssg70
g3725
sg63
(lp3732
S'1'
asbasbasbag56
(g72
g58
NtRp3733
(dp3734
g61
(dp3735
sg70
g3664
sg63
(lp3736
g56
(g77
g58
NtRp3737
(dp3738
g61
(dp3739
g81
g82
ssg70
g3733
sg63
(lp3740
S'last_name'
p3741
asbag56
(g77
g58
NtRp3742
(dp3743
g61
(dp3744
g88
g89
ssg70
g3733
sg63
(lp3745
S':'
asbag56
(g77
g58
NtRp3746
(dp3747
g61
(dp3748
sg70
g3733
sg63
(lp3749
g56
(g57
g58
NtRp3750
(dp3751
g61
(dp3752
g69
I3
ssg70
g3746
sg63
(lp3753
S'Scott'
p3754
asbasbasbag56
(g72
g58
NtRp3755
(dp3756
g61
(dp3757
sg70
g3664
sg63
(lp3758
g56
(g77
g58
NtRp3759
(dp3760
g61
(dp3761
g81
g82
ssg70
g3755
sg63
(lp3762
S'password'
p3763
asbag56
(g77
g58
NtRp3764
(dp3765
g61
(dp3766
g88
g89
ssg70
g3755
sg63
(lp3767
S':'
asbag56
(g77
g58
NtRp3768
(dp3769
g61
(dp3770
sg70
g3755
sg63
(lp3771
g56
(g57
g58
NtRp3772
(dp3773
g61
(dp3774
g69
I3
ssg70
g3768
sg63
(lp3775
S'6fb48d01a3959846ba0fe062b1789f17d9cf3d34d3ec5aa948f598bbf4387cb10eb60c797988f41dfea97ee691b338dd77413d430229e401cf7c84e6cd9c4458'
p3776
asbasbasbag56
(g72
g58
NtRp3777
(dp3778
g61
(dp3779
sg70
g3664
sg63
(lp3780
g56
(g77
g58
NtRp3781
(dp3782
g61
(dp3783
g81
g82
ssg70
g3777
sg63
(lp3784
S'registration_key'
p3785
asbag56
(g77
g58
NtRp3786
(dp3787
g61
(dp3788
g88
g89
ssg70
g3777
sg63
(lp3789
S':'
asbag56
(g77
g58
NtRp3790
(dp3791
g61
(dp3792
sg70
g3777
sg63
(lp3793
g56
(g57
g58
NtRp3794
(dp3795
g61
(dp3796
g69
I3
ssg70
g3790
sg63
(lp3797
S''
asbasbasbag56
(g72
g58
NtRp3798
(dp3799
g61
(dp3800
sg70
g3664
sg63
(lp3801
g56
(g77
g58
NtRp3802
(dp3803
g61
(dp3804
g81
g82
ssg70
g3798
sg63
(lp3805
S'reset_password_key'
p3806
asbag56
(g77
g58
NtRp3807
(dp3808
g61
(dp3809
g88
g89
ssg70
g3798
sg63
(lp3810
S':'
asbag56
(g77
g58
NtRp3811
(dp3812
g61
(dp3813
sg70
g3798
sg63
(lp3814
g56
(g57
g58
NtRp3815
(dp3816
g61
(dp3817
g69
I3
ssg70
g3811
sg63
(lp3818
S''
asbasbasbasbasbasbasbasbasbasbasbasbasbsS'etype'
p3819
S"<type 'exceptions.KeyError'>"
p3820
sS'date'
p3821
S'Tue Nov 29 22:43:27 2011'
p3822
sS'response'
p3823
g56
(g57
g58
NtRp3824
(dp3825
g61
(dp3826
sg63
(lp3827
g56
(g65
g58
NtRp3828
(dp3829
g61
(dp3830
g69
I5
ssg70
Nsg63
(lp3831
g56
(g72
g58
NtRp3832
(dp3833
g61
(dp3834
sg70
g3828
sg63
(lp3835
g56
(g77
g58
NtRp3836
(dp3837
g61
(dp3838
g81
g82
ssg70
g3832
sg63
(lp3839
g180
asbag56
(g77
g58
NtRp3840
(dp3841
g61
(dp3842
g88
g89
ssg70
g3832
sg63
(lp3843
S':'
asbag56
(g77
g58
NtRp3844
(dp3845
g61
(dp3846
sg70
g3832
sg63
(lp3847
g56
(g57
g58
NtRp3848
(dp3849
g61
(dp3850
g69
I5
ssg70
g3844
sg63
(lp3851
S'<cStringIO.StringO object at 0x320b490>'
p3852
asbasbasbag56
(g72
g58
NtRp3853
(dp3854
g61
(dp3855
sg70
g3828
sg63
(lp3856
g56
(g77
g58
NtRp3857
(dp3858
g61
(dp3859
g81
g82
ssg70
g3853
sg63
(lp3860
g246
asbag56
(g77
g58
NtRp3861
(dp3862
g61
(dp3863
g88
g89
ssg70
g3853
sg63
(lp3864
S':'
asbag56
(g77
g58
NtRp3865
(dp3866
g61
(dp3867
sg70
g3853
sg63
(lp3868
g56
(g57
g58
NtRp3869
(dp3870
g61
(dp3871
g69
I5
ssg70
g3865
sg63
(lp3872
g56
(g65
g58
NtRp3873
(dp3874
g61
(dp3875
g69
I4
ssg70
Nsg63
(lp3876
g56
(g72
g58
NtRp3877
(dp3878
g61
(dp3879
sg70
g3873
sg63
(lp3880
g56
(g77
g58
NtRp3881
(dp3882
g61
(dp3883
g81
g82
ssg70
g3877
sg63
(lp3884
S'session_id_topoi'
p3885
asbag56
(g77
g58
NtRp3886
(dp3887
g61
(dp3888
g88
g89
ssg70
g3877
sg63
(lp3889
S':'
asbag56
(g77
g58
NtRp3890
(dp3891
g61
(dp3892
sg70
g3877
sg63
(lp3893
g56
(g57
g58
NtRp3894
(dp3895
g61
(dp3896
g69
I4
ssg70
g3890
sg63
(lp3897
g56
(g65
g58
NtRp3898
(dp3899
g61
(dp3900
g69
I3
ssg70
Nsg63
(lp3901
g56
(g72
g58
NtRp3902
(dp3903
g61
(dp3904
sg70
g3898
sg63
(lp3905
g56
(g77
g58
NtRp3906
(dp3907
g61
(dp3908
g81
g82
ssg70
g3902
sg63
(lp3909
g296
asbag56
(g77
g58
NtRp3910
(dp3911
g61
(dp3912
g88
g89
ssg70
g3902
sg63
(lp3913
S':'
asbag56
(g77
g58
NtRp3914
(dp3915
g61
(dp3916
sg70
g3902
sg63
(lp3917
g56
(g57
g58
NtRp3918
(dp3919
g61
(dp3920
g69
I3
ssg70
g3914
sg63
(lp3921
S''
asbasbasbag56
(g72
g58
NtRp3922
(dp3923
g61
(dp3924
sg70
g3898
sg63
(lp3925
g56
(g77
g58
NtRp3926
(dp3927
g61
(dp3928
g81
g82
ssg70
g3922
sg63
(lp3929
g317
asbag56
(g77
g58
NtRp3930
(dp3931
g61
(dp3932
g88
g89
ssg70
g3922
sg63
(lp3933
S':'
asbag56
(g77
g58
NtRp3934
(dp3935
g61
(dp3936
sg70
g3922
sg63
(lp3937
g56
(g57
g58
NtRp3938
(dp3939
g61
(dp3940
g69
I3
ssg70
g3934
sg63
(lp3941
S''
asbasbasbag56
(g72
g58
NtRp3942
(dp3943
g61
(dp3944
sg70
g3898
sg63
(lp3945
g56
(g77
g58
NtRp3946
(dp3947
g61
(dp3948
g81
g82
ssg70
g3942
sg63
(lp3949
g338
asbag56
(g77
g58
NtRp3950
(dp3951
g61
(dp3952
g88
g89
ssg70
g3942
sg63
(lp3953
S':'
asbag56
(g77
g58
NtRp3954
(dp3955
g61
(dp3956
sg70
g3942
sg63
(lp3957
g56
(g57
g58
NtRp3958
(dp3959
g61
(dp3960
g69
I3
ssg70
g3954
sg63
(lp3961
S'2592000'
p3962
asbasbasbag56
(g72
g58
NtRp3963
(dp3964
g61
(dp3965
sg70
g3898
sg63
(lp3966
g56
(g77
g58
NtRp3967
(dp3968
g61
(dp3969
g81
g82
ssg70
g3963
sg63
(lp3970
g359
asbag56
(g77
g58
NtRp3971
(dp3972
g61
(dp3973
g88
g89
ssg70
g3963
sg63
(lp3974
S':'
asbag56
(g77
g58
NtRp3975
(dp3976
g61
(dp3977
sg70
g3963
sg63
(lp3978
g56
(g57
g58
NtRp3979
(dp3980
g61
(dp3981
g69
I3
ssg70
g3975
sg63
(lp3982
S''
asbasbasbag56
(g72
g58
NtRp3983
(dp3984
g61
(dp3985
sg70
g3898
sg63
(lp3986
g56
(g77
g58
NtRp3987
(dp3988
g61
(dp3989
g81
g82
ssg70
g3983
sg63
(lp3990
g380
asbag56
(g77
g58
NtRp3991
(dp3992
g61
(dp3993
g88
g89
ssg70
g3983
sg63
(lp3994
S':'
asbag56
(g77
g58
NtRp3995
(dp3996
g61
(dp3997
sg70
g3983
sg63
(lp3998
g56
(g57
g58
NtRp3999
(dp4000
g61
(dp4001
g69
I3
ssg70
g3995
sg63
(lp4002
S''
asbasbasbag56
(g72
g58
NtRp4003
(dp4004
g61
(dp4005
sg70
g3898
sg63
(lp4006
g56
(g77
g58
NtRp4007
(dp4008
g61
(dp4009
g81
g82
ssg70
g4003
sg63
(lp4010
g401
asbag56
(g77
g58
NtRp4011
(dp4012
g61
(dp4013
g88
g89
ssg70
g4003
sg63
(lp4014
S':'
asbag56
(g77
g58
NtRp4015
(dp4016
g61
(dp4017
sg70
g4003
sg63
(lp4018
g56
(g57
g58
NtRp4019
(dp4020
g61
(dp4021
g69
I3
ssg70
g4015
sg63
(lp4022
S'/'
asbasbasbag56
(g72
g58
NtRp4023
(dp4024
g61
(dp4025
sg70
g3898
sg63
(lp4026
g56
(g77
g58
NtRp4027
(dp4028
g61
(dp4029
g81
g82
ssg70
g4023
sg63
(lp4030
g422
asbag56
(g77
g58
NtRp4031
(dp4032
g61
(dp4033
g88
g89
ssg70
g4023
sg63
(lp4034
S':'
asbag56
(g77
g58
NtRp4035
(dp4036
g61
(dp4037
sg70
g4023
sg63
(lp4038
g56
(g57
g58
NtRp4039
(dp4040
g61
(dp4041
g69
I3
ssg70
g4035
sg63
(lp4042
S''
asbasbasbag56
(g72
g58
NtRp4043
(dp4044
g61
(dp4045
sg70
g3898
sg63
(lp4046
g56
(g77
g58
NtRp4047
(dp4048
g61
(dp4049
g81
g82
ssg70
g4043
sg63
(lp4050
g443
asbag56
(g77
g58
NtRp4051
(dp4052
g61
(dp4053
g88
g89
ssg70
g4043
sg63
(lp4054
S':'
asbag56
(g77
g58
NtRp4055
(dp4056
g61
(dp4057
sg70
g4043
sg63
(lp4058
g56
(g57
g58
NtRp4059
(dp4060
g61
(dp4061
g69
I3
ssg70
g4055
sg63
(lp4062
S''
asbasbasbasbasbasbasbasbasbasbasbag56
(g72
g58
NtRp4063
(dp4064
g61
(dp4065
sg70
g3828
sg63
(lp4066
g56
(g77
g58
NtRp4067
(dp4068
g61
(dp4069
g81
g82
ssg70
g4063
sg63
(lp4070
S'files'
p4071
asbag56
(g77
g58
NtRp4072
(dp4073
g61
(dp4074
g88
g89
ssg70
g4063
sg63
(lp4075
S':'
asbag56
(g77
g58
NtRp4076
(dp4077
g61
(dp4078
sg70
g4063
sg63
(lp4079
g56
(g57
g58
NtRp4080
(dp4081
g61
(dp4082
g69
I5
ssg70
g4076
sg63
(lp4083
g56
(g65
g58
NtRp4084
(dp4085
g61
(dp4086
g69
I4
ssg70
Nsg63
(lp4087
g56
(g72
g58
NtRp4088
(dp4089
g61
(dp4090
sg70
g4084
sg63
(lp4091
g56
(g77
g58
NtRp4092
(dp4093
g61
(dp4094
sg70
g4088
sg63
(lp4095
g56
(g57
g58
NtRp4096
(dp4097
g61
(dp4098
g69
I4
ssg70
g4092
sg63
(lp4099
S'/topoi/static/plugin_listandedit/plugin_listandedit.css'
p4100
asbasbasbag56
(g72
g58
NtRp4101
(dp4102
g61
(dp4103
sg70
g4084
sg63
(lp4104
g56
(g77
g58
NtRp4105
(dp4106
g61
(dp4107
sg70
g4101
sg63
(lp4108
g56
(g57
g58
NtRp4109
(dp4110
g61
(dp4111
g69
I4
ssg70
g4105
sg63
(lp4112
S'/topoi/static/plugin_listandedit/plugin_listandedit.js'
p4113
asbasbasbasbasbasbasbag56
(g72
g58
NtRp4114
(dp4115
g61
(dp4116
sg70
g3828
sg63
(lp4117
g56
(g77
g58
NtRp4118
(dp4119
g61
(dp4120
g81
g82
ssg70
g4114
sg63
(lp4121
S'flash'
p4122
asbag56
(g77
g58
NtRp4123
(dp4124
g61
(dp4125
g88
g89
ssg70
g4114
sg63
(lp4126
S':'
asbag56
(g77
g58
NtRp4127
(dp4128
g61
(dp4129
sg70
g4114
sg63
(lp4130
g56
(g57
g58
NtRp4131
(dp4132
g61
(dp4133
g69
I5
ssg70
g4127
sg63
(lp4134
S''
asbasbasbag56
(g72
g58
NtRp4135
(dp4136
g61
(dp4137
sg70
g3828
sg63
(lp4138
g56
(g77
g58
NtRp4139
(dp4140
g61
(dp4141
g81
g82
ssg70
g4135
sg63
(lp4142
S'generic_patterns'
p4143
asbag56
(g77
g58
NtRp4144
(dp4145
g61
(dp4146
g88
g89
ssg70
g4135
sg63
(lp4147
S':'
asbag56
(g77
g58
NtRp4148
(dp4149
g61
(dp4150
sg70
g4135
sg63
(lp4151
g56
(g57
g58
NtRp4152
(dp4153
g61
(dp4154
g69
I5
ssg70
g4148
sg63
(lp4155
g56
(g65
g58
NtRp4156
(dp4157
g61
(dp4158
g69
I4
ssg70
Nsg63
(lp4159
g56
(g72
g58
NtRp4160
(dp4161
g61
(dp4162
sg70
g4156
sg63
(lp4163
g56
(g77
g58
NtRp4164
(dp4165
g61
(dp4166
sg70
g4160
sg63
(lp4167
g56
(g57
g58
NtRp4168
(dp4169
g61
(dp4170
g69
I4
ssg70
g4164
sg63
(lp4171
S'*'
asbasbasbasbasbasbasbag56
(g72
g58
NtRp4172
(dp4173
g61
(dp4174
sg70
g3828
sg63
(lp4175
g56
(g77
g58
NtRp4176
(dp4177
g61
(dp4178
g81
g82
ssg70
g4172
sg63
(lp4179
S'headers'
p4180
asbag56
(g77
g58
NtRp4181
(dp4182
g61
(dp4183
g88
g89
ssg70
g4172
sg63
(lp4184
S':'
asbag56
(g77
g58
NtRp4185
(dp4186
g61
(dp4187
sg70
g4172
sg63
(lp4188
g56
(g57
g58
NtRp4189
(dp4190
g61
(dp4191
g69
I5
ssg70
g4185
sg63
(lp4192
g56
(g65
g58
NtRp4193
(dp4194
g61
(dp4195
g69
I4
ssg70
Nsg63
(lp4196
g56
(g72
g58
NtRp4197
(dp4198
g61
(dp4199
sg70
g4193
sg63
(lp4200
g56
(g77
g58
NtRp4201
(dp4202
g61
(dp4203
g81
g82
ssg70
g4197
sg63
(lp4204
S'Cache-Control'
p4205
asbag56
(g77
g58
NtRp4206
(dp4207
g61
(dp4208
g88
g89
ssg70
g4197
sg63
(lp4209
S':'
asbag56
(g77
g58
NtRp4210
(dp4211
g61
(dp4212
sg70
g4197
sg63
(lp4213
g56
(g57
g58
NtRp4214
(dp4215
g61
(dp4216
g69
I4
ssg70
g4210
sg63
(lp4217
S'no-store, no-cache, must-revalidate, post-check=0, pre-check=0'
p4218
asbasbasbag56
(g72
g58
NtRp4219
(dp4220
g61
(dp4221
sg70
g4193
sg63
(lp4222
g56
(g77
g58
NtRp4223
(dp4224
g61
(dp4225
g81
g82
ssg70
g4219
sg63
(lp4226
S'Content-Type'
p4227
asbag56
(g77
g58
NtRp4228
(dp4229
g61
(dp4230
g88
g89
ssg70
g4219
sg63
(lp4231
S':'
asbag56
(g77
g58
NtRp4232
(dp4233
g61
(dp4234
sg70
g4219
sg63
(lp4235
g56
(g57
g58
NtRp4236
(dp4237
g61
(dp4238
g69
I4
ssg70
g4232
sg63
(lp4239
S'text/html; charset=utf-8'
p4240
asbasbasbag56
(g72
g58
NtRp4241
(dp4242
g61
(dp4243
sg70
g4193
sg63
(lp4244
g56
(g77
g58
NtRp4245
(dp4246
g61
(dp4247
g81
g82
ssg70
g4241
sg63
(lp4248
S'Expires'
p4249
asbag56
(g77
g58
NtRp4250
(dp4251
g61
(dp4252
g88
g89
ssg70
g4241
sg63
(lp4253
S':'
asbag56
(g77
g58
NtRp4254
(dp4255
g61
(dp4256
sg70
g4241
sg63
(lp4257
g56
(g57
g58
NtRp4258
(dp4259
g61
(dp4260
g69
I4
ssg70
g4254
sg63
(lp4261
S'Wed, 30 Nov 2011 03:43:27 GMT'
p4262
asbasbasbag56
(g72
g58
NtRp4263
(dp4264
g61
(dp4265
sg70
g4193
sg63
(lp4266
g56
(g77
g58
NtRp4267
(dp4268
g61
(dp4269
g81
g82
ssg70
g4263
sg63
(lp4270
S'Pragma'
p4271
asbag56
(g77
g58
NtRp4272
(dp4273
g61
(dp4274
g88
g89
ssg70
g4263
sg63
(lp4275
S':'
asbag56
(g77
g58
NtRp4276
(dp4277
g61
(dp4278
sg70
g4263
sg63
(lp4279
g56
(g57
g58
NtRp4280
(dp4281
g61
(dp4282
g69
I4
ssg70
g4276
sg63
(lp4283
S'no-cache'
p4284
asbasbasbag56
(g72
g58
NtRp4285
(dp4286
g61
(dp4287
sg70
g4193
sg63
(lp4288
g56
(g77
g58
NtRp4289
(dp4290
g61
(dp4291
g81
g82
ssg70
g4285
sg63
(lp4292
S'X-Powered-By'
p4293
asbag56
(g77
g58
NtRp4294
(dp4295
g61
(dp4296
g88
g89
ssg70
g4285
sg63
(lp4297
S':'
asbag56
(g77
g58
NtRp4298
(dp4299
g61
(dp4300
sg70
g4285
sg63
(lp4301
g56
(g57
g58
NtRp4302
(dp4303
g61
(dp4304
g69
I4
ssg70
g4298
sg63
(lp4305
S'web2py'
p4306
asbasbasbasbasbasbasbag56
(g72
g58
NtRp4307
(dp4308
g61
(dp4309
sg70
g3828
sg63
(lp4310
g56
(g77
g58
NtRp4311
(dp4312
g61
(dp4313
g81
g82
ssg70
g4307
sg63
(lp4314
S'menu'
p4315
asbag56
(g77
g58
NtRp4316
(dp4317
g61
(dp4318
g88
g89
ssg70
g4307
sg63
(lp4319
S':'
asbag56
(g77
g58
NtRp4320
(dp4321
g61
(dp4322
sg70
g4307
sg63
(lp4323
g56
(g57
g58
NtRp4324
(dp4325
g61
(dp4326
g69
I5
ssg70
g4320
sg63
(lp4327
g56
(g65
g58
NtRp4328
(dp4329
g61
(dp4330
g69
I4
ssg70
Nsg63
(lp4331
g56
(g72
g58
NtRp4332
(dp4333
g61
(dp4334
sg70
g4328
sg63
(lp4335
g56
(g77
g58
NtRp4336
(dp4337
g61
(dp4338
sg70
g4332
sg63
(lp4339
g56
(g57
g58
NtRp4340
(dp4341
g61
(dp4342
g69
I4
ssg70
g4336
sg63
(lp4343
g56
(g65
g58
NtRp4344
(dp4345
g61
(dp4346
g69
I3
ssg70
Nsg63
(lp4347
g56
(g72
g58
NtRp4348
(dp4349
g61
(dp4350
sg70
g4344
sg63
(lp4351
g56
(g77
g58
NtRp4352
(dp4353
g61
(dp4354
sg70
g4348
sg63
(lp4355
g56
(g57
g58
NtRp4356
(dp4357
g61
(dp4358
g69
I3
ssg70
g4352
sg63
(lp4359
cgluon.languages
lazyT_unpickle
p4360
(S't\x04\x00\x00\x00Home'
tRp4361
asbasbasbag56
(g72
g58
NtRp4362
(dp4363
g61
(dp4364
sg70
g4344
sg63
(lp4365
g56
(g77
g58
NtRp4366
(dp4367
g61
(dp4368
sg70
g4362
sg63
(lp4369
g56
(g57
g58
NtRp4370
(dp4371
g61
(dp4372
g69
I3
ssg70
g4366
sg63
(lp4373
g99
asbasbasbag56
(g72
g58
NtRp4374
(dp4375
g61
(dp4376
sg70
g4344
sg63
(lp4377
g56
(g77
g58
NtRp4378
(dp4379
g61
(dp4380
sg70
g4374
sg63
(lp4381
g56
(g57
g58
NtRp4382
(dp4383
g61
(dp4384
g69
I3
ssg70
g4378
sg63
(lp4385
S'/topoi/default/index'
p4386
asbasbasbag56
(g72
g58
NtRp4387
(dp4388
g61
(dp4389
sg70
g4344
sg63
(lp4390
g56
(g77
g58
NtRp4391
(dp4392
g61
(dp4393
sg70
g4387
sg63
(lp4394
g56
(g57
g58
NtRp4395
(dp4396
g61
(dp4397
g69
I3
ssg70
g4391
sg63
(lp4398
g56
(g65
g58
NtRp4399
(dp4400
g61
(dp4401
g69
I2
ssg70
Nsg63
(lp4402
sbasbasbasbasbasbasbasbag56
(g72
g58
NtRp4403
(dp4404
g61
(dp4405
sg70
g4328
sg63
(lp4406
g56
(g77
g58
NtRp4407
(dp4408
g61
(dp4409
sg70
g4403
sg63
(lp4410
g56
(g57
g58
NtRp4411
(dp4412
g61
(dp4413
g69
I4
ssg70
g4407
sg63
(lp4414
g56
(g65
g58
NtRp4415
(dp4416
g61
(dp4417
g69
I3
ssg70
Nsg63
(lp4418
g56
(g72
g58
NtRp4419
(dp4420
g61
(dp4421
sg70
g4415
sg63
(lp4422
g56
(g77
g58
NtRp4423
(dp4424
g61
(dp4425
sg70
g4419
sg63
(lp4426
g56
(g57
g58
NtRp4427
(dp4428
g61
(dp4429
g69
I3
ssg70
g4423
sg63
(lp4430
g4360
(S's\x08\x00\x00\x00This App'
tRp4431
asbasbasbag56
(g72
g58
NtRp4432
(dp4433
g61
(dp4434
sg70
g4415
sg63
(lp4435
g56
(g77
g58
NtRp4436
(dp4437
g61
(dp4438
sg70
g4432
sg63
(lp4439
g56
(g57
g58
NtRp4440
(dp4441
g61
(dp4442
g69
I3
ssg70
g4436
sg63
(lp4443
g99
asbasbasbag56
(g72
g58
NtRp4444
(dp4445
g61
(dp4446
sg70
g4415
sg63
(lp4447
g56
(g77
g58
NtRp4448
(dp4449
g61
(dp4450
sg70
g4444
sg63
(lp4451
g56
(g57
g58
NtRp4452
(dp4453
g61
(dp4454
g69
I3
ssg70
g4448
sg63
(lp4455
S'/admin/default/design/topoi'
p4456
asbasbasbag56
(g72
g58
NtRp4457
(dp4458
g61
(dp4459
sg70
g4415
sg63
(lp4460
g56
(g77
g58
NtRp4461
(dp4462
g61
(dp4463
sg70
g4457
sg63
(lp4464
g56
(g57
g58
NtRp4465
(dp4466
g61
(dp4467
g69
I3
ssg70
g4461
sg63
(lp4468
g56
(g65
g58
NtRp4469
(dp4470
g61
(dp4471
g69
I2
ssg70
Nsg63
(lp4472
g56
(g72
g58
NtRp4473
(dp4474
g61
(dp4475
sg70
g4469
sg63
(lp4476
g56
(g77
g58
NtRp4477
(dp4478
g61
(dp4479
sg70
g4473
sg63
(lp4480
g56
(g57
g58
NtRp4481
(dp4482
g61
(dp4483
g69
I2
ssg70
g4477
sg63
(lp4484
g56
(g65
g58
NtRp4485
(dp4486
g61
(dp4487
g69
I1
ssg70
Nsg63
(lp4488
g56
(g72
g58
NtRp4489
(dp4490
g61
(dp4491
sg70
g4485
sg63
(lp4492
g56
(g77
g58
NtRp4493
(dp4494
g61
(dp4495
sg70
g4489
sg63
(lp4496
g56
(g57
g58
NtRp4497
(dp4498
g61
(dp4499
g69
I1
ssg70
g4493
sg63
(lp4500
g4360
(S't\n\x00\x00\x00Controller'
tRp4501
asbasbasbag56
(g72
g58
NtRp4502
(dp4503
g61
(dp4504
sg70
g4485
sg63
(lp4505
g56
(g77
g58
NtRp4506
(dp4507
g61
(dp4508
sg70
g4502
sg63
(lp4509
g56
(g57
g58
NtRp4510
(dp4511
g61
(dp4512
g69
I1
ssg70
g4506
sg63
(lp4513
I00
asbasbasbag56
(g72
g58
NtRp4514
(dp4515
g61
(dp4516
sg70
g4485
sg63
(lp4517
g56
(g77
g58
NtRp4518
(dp4519
g61
(dp4520
sg70
g4514
sg63
(lp4521
g56
(g57
g58
NtRp4522
(dp4523
g61
(dp4524
g69
I1
ssg70
g4518
sg63
(lp4525
S'/admin/default/edit/topoi/controllers/plugin_listandedit.py'
p4526
asbasbasbasbasbasbasbag56
(g72
g58
NtRp4527
(dp4528
g61
(dp4529
sg70
g4469
sg63
(lp4530
g56
(g77
g58
NtRp4531
(dp4532
g61
(dp4533
sg70
g4527
sg63
(lp4534
g56
(g57
g58
NtRp4535
(dp4536
g61
(dp4537
g69
I2
ssg70
g4531
sg63
(lp4538
g56
(g65
g58
NtRp4539
(dp4540
g61
(dp4541
g69
I1
ssg70
Nsg63
(lp4542
g56
(g72
g58
NtRp4543
(dp4544
g61
(dp4545
sg70
g4539
sg63
(lp4546
g56
(g77
g58
NtRp4547
(dp4548
g61
(dp4549
sg70
g4543
sg63
(lp4550
g56
(g57
g58
NtRp4551
(dp4552
g61
(dp4553
g69
I1
ssg70
g4547
sg63
(lp4554
g4360
(S't\x04\x00\x00\x00View'
tRp4555
asbasbasbag56
(g72
g58
NtRp4556
(dp4557
g61
(dp4558
sg70
g4539
sg63
(lp4559
g56
(g77
g58
NtRp4560
(dp4561
g61
(dp4562
sg70
g4556
sg63
(lp4563
g56
(g57
g58
NtRp4564
(dp4565
g61
(dp4566
g69
I1
ssg70
g4560
sg63
(lp4567
I00
asbasbasbag56
(g72
g58
NtRp4568
(dp4569
g61
(dp4570
sg70
g4539
sg63
(lp4571
g56
(g77
g58
NtRp4572
(dp4573
g61
(dp4574
sg70
g4568
sg63
(lp4575
g56
(g57
g58
NtRp4576
(dp4577
g61
(dp4578
g69
I1
ssg70
g4572
sg63
(lp4579
S'/admin/default/edit/topoi/views/plugin_listandedit/list.html'
p4580
asbasbasbasbasbasbasbag56
(g72
g58
NtRp4581
(dp4582
g61
(dp4583
sg70
g4469
sg63
(lp4584
g56
(g77
g58
NtRp4585
(dp4586
g61
(dp4587
sg70
g4581
sg63
(lp4588
g56
(g57
g58
NtRp4589
(dp4590
g61
(dp4591
g69
I2
ssg70
g4585
sg63
(lp4592
g56
(g65
g58
NtRp4593
(dp4594
g61
(dp4595
g69
I1
ssg70
Nsg63
(lp4596
g56
(g72
g58
NtRp4597
(dp4598
g61
(dp4599
sg70
g4593
sg63
(lp4600
g56
(g77
g58
NtRp4601
(dp4602
g61
(dp4603
sg70
g4597
sg63
(lp4604
g56
(g57
g58
NtRp4605
(dp4606
g61
(dp4607
g69
I1
ssg70
g4601
sg63
(lp4608
g4360
(S't\x06\x00\x00\x00Layout'
tRp4609
asbasbasbag56
(g72
g58
NtRp4610
(dp4611
g61
(dp4612
sg70
g4593
sg63
(lp4613
g56
(g77
g58
NtRp4614
(dp4615
g61
(dp4616
sg70
g4610
sg63
(lp4617
g56
(g57
g58
NtRp4618
(dp4619
g61
(dp4620
g69
I1
ssg70
g4614
sg63
(lp4621
I00
asbasbasbag56
(g72
g58
NtRp4622
(dp4623
g61
(dp4624
sg70
g4593
sg63
(lp4625
g56
(g77
g58
NtRp4626
(dp4627
g61
(dp4628
sg70
g4622
sg63
(lp4629
g56
(g57
g58
NtRp4630
(dp4631
g61
(dp4632
g69
I1
ssg70
g4626
sg63
(lp4633
S'/admin/default/edit/topoi/views/layout.html'
p4634
asbasbasbasbasbasbasbag56
(g72
g58
NtRp4635
(dp4636
g61
(dp4637
sg70
g4469
sg63
(lp4638
g56
(g77
g58
NtRp4639
(dp4640
g61
(dp4641
sg70
g4635
sg63
(lp4642
g56
(g57
g58
NtRp4643
(dp4644
g61
(dp4645
g69
I2
ssg70
g4639
sg63
(lp4646
g56
(g65
g58
NtRp4647
(dp4648
g61
(dp4649
g69
I1
ssg70
Nsg63
(lp4650
g56
(g72
g58
NtRp4651
(dp4652
g61
(dp4653
sg70
g4647
sg63
(lp4654
g56
(g77
g58
NtRp4655
(dp4656
g61
(dp4657
sg70
g4651
sg63
(lp4658
g56
(g57
g58
NtRp4659
(dp4660
g61
(dp4661
g69
I1
ssg70
g4655
sg63
(lp4662
g4360
(S't\n\x00\x00\x00Stylesheet'
tRp4663
asbasbasbag56
(g72
g58
NtRp4664
(dp4665
g61
(dp4666
sg70
g4647
sg63
(lp4667
g56
(g77
g58
NtRp4668
(dp4669
g61
(dp4670
sg70
g4664
sg63
(lp4671
g56
(g57
g58
NtRp4672
(dp4673
g61
(dp4674
g69
I1
ssg70
g4668
sg63
(lp4675
I00
asbasbasbag56
(g72
g58
NtRp4676
(dp4677
g61
(dp4678
sg70
g4647
sg63
(lp4679
g56
(g77
g58
NtRp4680
(dp4681
g61
(dp4682
sg70
g4676
sg63
(lp4683
g56
(g57
g58
NtRp4684
(dp4685
g61
(dp4686
g69
I1
ssg70
g4680
sg63
(lp4687
S'/admin/default/edit/topoi/static/base.css'
p4688
asbasbasbasbasbasbasbag56
(g72
g58
NtRp4689
(dp4690
g61
(dp4691
sg70
g4469
sg63
(lp4692
g56
(g77
g58
NtRp4693
(dp4694
g61
(dp4695
sg70
g4689
sg63
(lp4696
g56
(g57
g58
NtRp4697
(dp4698
g61
(dp4699
g69
I2
ssg70
g4693
sg63
(lp4700
g56
(g65
g58
NtRp4701
(dp4702
g61
(dp4703
g69
I1
ssg70
Nsg63
(lp4704
g56
(g72
g58
NtRp4705
(dp4706
g61
(dp4707
sg70
g4701
sg63
(lp4708
g56
(g77
g58
NtRp4709
(dp4710
g61
(dp4711
sg70
g4705
sg63
(lp4712
g56
(g57
g58
NtRp4713
(dp4714
g61
(dp4715
g69
I1
ssg70
g4709
sg63
(lp4716
g4360
(S's\x08\x00\x00\x00DB Model'
tRp4717
asbasbasbag56
(g72
g58
NtRp4718
(dp4719
g61
(dp4720
sg70
g4701
sg63
(lp4721
g56
(g77
g58
NtRp4722
(dp4723
g61
(dp4724
sg70
g4718
sg63
(lp4725
g56
(g57
g58
NtRp4726
(dp4727
g61
(dp4728
g69
I1
ssg70
g4722
sg63
(lp4729
I00
asbasbasbag56
(g72
g58
NtRp4730
(dp4731
g61
(dp4732
sg70
g4701
sg63
(lp4733
g56
(g77
g58
NtRp4734
(dp4735
g61
(dp4736
sg70
g4730
sg63
(lp4737
g56
(g57
g58
NtRp4738
(dp4739
g61
(dp4740
g69
I1
ssg70
g4734
sg63
(lp4741
S'/admin/default/edit/topoi/models/db.py'
p4742
asbasbasbasbasbasbasbag56
(g72
g58
NtRp4743
(dp4744
g61
(dp4745
sg70
g4469
sg63
(lp4746
g56
(g77
g58
NtRp4747
(dp4748
g61
(dp4749
sg70
g4743
sg63
(lp4750
g56
(g57
g58
NtRp4751
(dp4752
g61
(dp4753
g69
I2
ssg70
g4747
sg63
(lp4754
g56
(g65
g58
NtRp4755
(dp4756
g61
(dp4757
g69
I1
ssg70
Nsg63
(lp4758
g56
(g72
g58
NtRp4759
(dp4760
g61
(dp4761
sg70
g4755
sg63
(lp4762
g56
(g77
g58
NtRp4763
(dp4764
g61
(dp4765
sg70
g4759
sg63
(lp4766
g56
(g57
g58
NtRp4767
(dp4768
g61
(dp4769
g69
I1
ssg70
g4763
sg63
(lp4770
g4360
(S's\n\x00\x00\x00Menu Model'
tRp4771
asbasbasbag56
(g72
g58
NtRp4772
(dp4773
g61
(dp4774
sg70
g4755
sg63
(lp4775
g56
(g77
g58
NtRp4776
(dp4777
g61
(dp4778
sg70
g4772
sg63
(lp4779
g56
(g57
g58
NtRp4780
(dp4781
g61
(dp4782
g69
I1
ssg70
g4776
sg63
(lp4783
I00
asbasbasbag56
(g72
g58
NtRp4784
(dp4785
g61
(dp4786
sg70
g4755
sg63
(lp4787
g56
(g77
g58
NtRp4788
(dp4789
g61
(dp4790
sg70
g4784
sg63
(lp4791
g56
(g57
g58
NtRp4792
(dp4793
g61
(dp4794
g69
I1
ssg70
g4788
sg63
(lp4795
S'/admin/default/edit/topoi/models/menu.py'
p4796
asbasbasbasbasbasbasbag56
(g72
g58
NtRp4797
(dp4798
g61
(dp4799
sg70
g4469
sg63
(lp4800
g56
(g77
g58
NtRp4801
(dp4802
g61
(dp4803
sg70
g4797
sg63
(lp4804
g56
(g57
g58
NtRp4805
(dp4806
g61
(dp4807
g69
I2
ssg70
g4801
sg63
(lp4808
g56
(g65
g58
NtRp4809
(dp4810
g61
(dp4811
g69
I1
ssg70
Nsg63
(lp4812
g56
(g72
g58
NtRp4813
(dp4814
g61
(dp4815
sg70
g4809
sg63
(lp4816
g56
(g77
g58
NtRp4817
(dp4818
g61
(dp4819
sg70
g4813
sg63
(lp4820
g56
(g57
g58
NtRp4821
(dp4822
g61
(dp4823
g69
I1
ssg70
g4817
sg63
(lp4824
g4360
(S't\x08\x00\x00\x00Database'
tRp4825
asbasbasbag56
(g72
g58
NtRp4826
(dp4827
g61
(dp4828
sg70
g4809
sg63
(lp4829
g56
(g77
g58
NtRp4830
(dp4831
g61
(dp4832
sg70
g4826
sg63
(lp4833
g56
(g57
g58
NtRp4834
(dp4835
g61
(dp4836
g69
I1
ssg70
g4830
sg63
(lp4837
I00
asbasbasbag56
(g72
g58
NtRp4838
(dp4839
g61
(dp4840
sg70
g4809
sg63
(lp4841
g56
(g77
g58
NtRp4842
(dp4843
g61
(dp4844
sg70
g4838
sg63
(lp4845
g56
(g57
g58
NtRp4846
(dp4847
g61
(dp4848
g69
I1
ssg70
g4842
sg63
(lp4849
S'/topoi/appadmin/index'
p4850
asbasbasbasbasbasbasbag56
(g72
g58
NtRp4851
(dp4852
g61
(dp4853
sg70
g4469
sg63
(lp4854
g56
(g77
g58
NtRp4855
(dp4856
g61
(dp4857
sg70
g4851
sg63
(lp4858
g56
(g57
g58
NtRp4859
(dp4860
g61
(dp4861
g69
I2
ssg70
g4855
sg63
(lp4862
g56
(g65
g58
NtRp4863
(dp4864
g61
(dp4865
g69
I1
ssg70
Nsg63
(lp4866
g56
(g72
g58
NtRp4867
(dp4868
g61
(dp4869
sg70
g4863
sg63
(lp4870
g56
(g77
g58
NtRp4871
(dp4872
g61
(dp4873
sg70
g4867
sg63
(lp4874
g56
(g57
g58
NtRp4875
(dp4876
g61
(dp4877
g69
I1
ssg70
g4871
sg63
(lp4878
g4360
(S't\x06\x00\x00\x00Errors'
tRp4879
asbasbasbag56
(g72
g58
NtRp4880
(dp4881
g61
(dp4882
sg70
g4863
sg63
(lp4883
g56
(g77
g58
NtRp4884
(dp4885
g61
(dp4886
sg70
g4880
sg63
(lp4887
g56
(g57
g58
NtRp4888
(dp4889
g61
(dp4890
g69
I1
ssg70
g4884
sg63
(lp4891
I00
asbasbasbag56
(g72
g58
NtRp4892
(dp4893
g61
(dp4894
sg70
g4863
sg63
(lp4895
g56
(g77
g58
NtRp4896
(dp4897
g61
(dp4898
sg70
g4892
sg63
(lp4899
g56
(g57
g58
NtRp4900
(dp4901
g61
(dp4902
g69
I1
ssg70
g4896
sg63
(lp4903
S'/admin/default/errors/topoi'
p4904
asbasbasbasbasbasbasbag56
(g72
g58
NtRp4905
(dp4906
g61
(dp4907
sg70
g4469
sg63
(lp4908
g56
(g77
g58
NtRp4909
(dp4910
g61
(dp4911
sg70
g4905
sg63
(lp4912
g56
(g57
g58
NtRp4913
(dp4914
g61
(dp4915
g69
I2
ssg70
g4909
sg63
(lp4916
g56
(g65
g58
NtRp4917
(dp4918
g61
(dp4919
g69
I1
ssg70
Nsg63
(lp4920
g56
(g72
g58
NtRp4921
(dp4922
g61
(dp4923
sg70
g4917
sg63
(lp4924
g56
(g77
g58
NtRp4925
(dp4926
g61
(dp4927
sg70
g4921
sg63
(lp4928
g56
(g57
g58
NtRp4929
(dp4930
g61
(dp4931
g69
I1
ssg70
g4925
sg63
(lp4932
g4360
(S't\x05\x00\x00\x00About'
tRp4933
asbasbasbag56
(g72
g58
NtRp4934
(dp4935
g61
(dp4936
sg70
g4917
sg63
(lp4937
g56
(g77
g58
NtRp4938
(dp4939
g61
(dp4940
sg70
g4934
sg63
(lp4941
g56
(g57
g58
NtRp4942
(dp4943
g61
(dp4944
g69
I1
ssg70
g4938
sg63
(lp4945
I00
asbasbasbag56
(g72
g58
NtRp4946
(dp4947
g61
(dp4948
sg70
g4917
sg63
(lp4949
g56
(g77
g58
NtRp4950
(dp4951
g61
(dp4952
sg70
g4946
sg63
(lp4953
g56
(g57
g58
NtRp4954
(dp4955
g61
(dp4956
g69
I1
ssg70
g4950
sg63
(lp4957
S'/admin/default/about/topoi'
p4958
asbasbasbasbasbasbasbasbasbasbasbasbasbasbasbasbasbasbasbag56
(g72
g58
NtRp4959
(dp4960
g61
(dp4961
sg70
g3828
sg63
(lp4962
g56
(g77
g58
NtRp4963
(dp4964
g61
(dp4965
g81
g82
ssg70
g4959
sg63
(lp4966
S'meta'
p4967
asbag56
(g77
g58
NtRp4968
(dp4969
g61
(dp4970
g88
g89
ssg70
g4959
sg63
(lp4971
S':'
asbag56
(g77
g58
NtRp4972
(dp4973
g61
(dp4974
sg70
g4959
sg63
(lp4975
g56
(g57
g58
NtRp4976
(dp4977
g61
(dp4978
g69
I5
ssg70
g4972
sg63
(lp4979
g56
(g65
g58
NtRp4980
(dp4981
g61
(dp4982
g69
I4
ssg70
Nsg63
(lp4983
g56
(g72
g58
NtRp4984
(dp4985
g61
(dp4986
sg70
g4980
sg63
(lp4987
g56
(g77
g58
NtRp4988
(dp4989
g61
(dp4990
g81
g82
ssg70
g4984
sg63
(lp4991
S'author'
p4992
asbag56
(g77
g58
NtRp4993
(dp4994
g61
(dp4995
g88
g89
ssg70
g4984
sg63
(lp4996
S':'
asbag56
(g77
g58
NtRp4997
(dp4998
g61
(dp4999
sg70
g4984
sg63
(lp5000
g56
(g57
g58
NtRp5001
(dp5002
g61
(dp5003
g69
I4
ssg70
g4997
sg63
(lp5004
S'Ian W. Scott'
p5005
asbasbasbag56
(g72
g58
NtRp5006
(dp5007
g61
(dp5008
sg70
g4980
sg63
(lp5009
g56
(g77
g58
NtRp5010
(dp5011
g61
(dp5012
g81
g82
ssg70
g5006
sg63
(lp5013
S'copyright'
p5014
asbag56
(g77
g58
NtRp5015
(dp5016
g61
(dp5017
g88
g89
ssg70
g5006
sg63
(lp5018
S':'
asbag56
(g77
g58
NtRp5019
(dp5020
g61
(dp5021
sg70
g5006
sg63
(lp5022
g56
(g57
g58
NtRp5023
(dp5024
g61
(dp5025
g69
I4
ssg70
g5019
sg63
(lp5026
S'Copyright 2011'
p5027
asbasbasbag56
(g72
g58
NtRp5028
(dp5029
g61
(dp5030
sg70
g4980
sg63
(lp5031
g56
(g77
g58
NtRp5032
(dp5033
g61
(dp5034
g81
g82
ssg70
g5028
sg63
(lp5035
S'description'
p5036
asbag56
(g77
g58
NtRp5037
(dp5038
g61
(dp5039
g88
g89
ssg70
g5028
sg63
(lp5040
S':'
asbag56
(g77
g58
NtRp5041
(dp5042
g61
(dp5043
sg70
g5028
sg63
(lp5044
g56
(g57
g58
NtRp5045
(dp5046
g61
(dp5047
g69
I4
ssg70
g5041
sg63
(lp5048
S'A web-app for managing primary-text research in the humanities.'
p5049
asbasbasbag56
(g72
g58
NtRp5050
(dp5051
g61
(dp5052
sg70
g4980
sg63
(lp5053
g56
(g77
g58
NtRp5054
(dp5055
g61
(dp5056
g81
g82
ssg70
g5050
sg63
(lp5057
S'generator'
p5058
asbag56
(g77
g58
NtRp5059
(dp5060
g61
(dp5061
g88
g89
ssg70
g5050
sg63
(lp5062
S':'
asbag56
(g77
g58
NtRp5063
(dp5064
g61
(dp5065
sg70
g5050
sg63
(lp5066
g56
(g57
g58
NtRp5067
(dp5068
g61
(dp5069
g69
I4
ssg70
g5063
sg63
(lp5070
S'Web2py Enterprise Framework'
p5071
asbasbasbag56
(g72
g58
NtRp5072
(dp5073
g61
(dp5074
sg70
g4980
sg63
(lp5075
g56
(g77
g58
NtRp5076
(dp5077
g61
(dp5078
g81
g82
ssg70
g5072
sg63
(lp5079
S'keywords'
p5080
asbag56
(g77
g58
NtRp5081
(dp5082
g61
(dp5083
g88
g89
ssg70
g5072
sg63
(lp5084
S':'
asbag56
(g77
g58
NtRp5085
(dp5086
g61
(dp5087
sg70
g5072
sg63
(lp5088
g56
(g57
g58
NtRp5089
(dp5090
g61
(dp5091
g69
I4
ssg70
g5085
sg63
(lp5092
S'research, humanities, biblical'
p5093
asbasbasbasbasbasbasbag56
(g72
g58
NtRp5094
(dp5095
g61
(dp5096
sg70
g3828
sg63
(lp5097
g56
(g77
g58
NtRp5098
(dp5099
g61
(dp5100
g81
g82
ssg70
g5094
sg63
(lp5101
S'postprocessing'
p5102
asbag56
(g77
g58
NtRp5103
(dp5104
g61
(dp5105
g88
g89
ssg70
g5094
sg63
(lp5106
S':'
asbag56
(g77
g58
NtRp5107
(dp5108
g61
(dp5109
sg70
g5094
sg63
(lp5110
g56
(g57
g58
NtRp5111
(dp5112
g61
(dp5113
g69
I5
ssg70
g5107
sg63
(lp5114
g56
(g65
g58
NtRp5115
(dp5116
g61
(dp5117
g69
I4
ssg70
Nsg63
(lp5118
sbasbasbasbag56
(g72
g58
NtRp5119
(dp5120
g61
(dp5121
sg70
g3828
sg63
(lp5122
g56
(g77
g58
NtRp5123
(dp5124
g61
(dp5125
g81
g82
ssg70
g5119
sg63
(lp5126
S'session_file'
p5127
asbag56
(g77
g58
NtRp5128
(dp5129
g61
(dp5130
g88
g89
ssg70
g5119
sg63
(lp5131
S':'
asbag56
(g77
g58
NtRp5132
(dp5133
g61
(dp5134
sg70
g5119
sg63
(lp5135
g56
(g57
g58
NtRp5136
(dp5137
g61
(dp5138
g69
I5
ssg70
g5132
sg63
(lp5139
S"<open file '/home/ian/web2py/applications/topoi/sessions/127.0.0.1-af13e654-cdbc-4583-8d75-e46cda6f6e34', mode 'rb+' at 0x252e810>"
p5140
asbasbasbag56
(g72
g58
NtRp5141
(dp5142
g61
(dp5143
sg70
g3828
sg63
(lp5144
g56
(g77
g58
NtRp5145
(dp5146
g61
(dp5147
g81
g82
ssg70
g5141
sg63
(lp5148
S'session_filename'
p5149
asbag56
(g77
g58
NtRp5150
(dp5151
g61
(dp5152
g88
g89
ssg70
g5141
sg63
(lp5153
S':'
asbag56
(g77
g58
NtRp5154
(dp5155
g61
(dp5156
sg70
g5141
sg63
(lp5157
g56
(g57
g58
NtRp5158
(dp5159
g61
(dp5160
g69
I5
ssg70
g5154
sg63
(lp5161
S'/home/ian/web2py/applications/topoi/sessions/127.0.0.1-af13e654-cdbc-4583-8d75-e46cda6f6e34'
p5162
asbasbasbag56
(g72
g58
NtRp5163
(dp5164
g61
(dp5165
sg70
g3828
sg63
(lp5166
g56
(g77
g58
NtRp5167
(dp5168
g61
(dp5169
g81
g82
ssg70
g5163
sg63
(lp5170
S'session_id'
p5171
asbag56
(g77
g58
NtRp5172
(dp5173
g61
(dp5174
g88
g89
ssg70
g5163
sg63
(lp5175
S':'
asbag56
(g77
g58
NtRp5176
(dp5177
g61
(dp5178
sg70
g5163
sg63
(lp5179
g56
(g57
g58
NtRp5180
(dp5181
g61
(dp5182
g69
I5
ssg70
g5176
sg63
(lp5183
S'127.0.0.1-af13e654-cdbc-4583-8d75-e46cda6f6e34'
p5184
asbasbasbag56
(g72
g58
NtRp5185
(dp5186
g61
(dp5187
sg70
g3828
sg63
(lp5188
g56
(g77
g58
NtRp5189
(dp5190
g61
(dp5191
g81
g82
ssg70
g5185
sg63
(lp5192
S'session_id_name'
p5193
asbag56
(g77
g58
NtRp5194
(dp5195
g61
(dp5196
g88
g89
ssg70
g5185
sg63
(lp5197
S':'
asbag56
(g77
g58
NtRp5198
(dp5199
g61
(dp5200
sg70
g5185
sg63
(lp5201
g56
(g57
g58
NtRp5202
(dp5203
g61
(dp5204
g69
I5
ssg70
g5198
sg63
(lp5205
g3885
asbasbasbag56
(g72
g58
NtRp5206
(dp5207
g61
(dp5208
sg70
g3828
sg63
(lp5209
g56
(g77
g58
NtRp5210
(dp5211
g61
(dp5212
g81
g82
ssg70
g5206
sg63
(lp5213
S'session_locked'
p5214
asbag56
(g77
g58
NtRp5215
(dp5216
g61
(dp5217
g88
g89
ssg70
g5206
sg63
(lp5218
S':'
asbag56
(g77
g58
NtRp5219
(dp5220
g61
(dp5221
sg70
g5206
sg63
(lp5222
g56
(g57
g58
NtRp5223
(dp5224
g61
(dp5225
g69
I5
ssg70
g5219
sg63
(lp5226
g2074
asbasbasbag56
(g72
g58
NtRp5227
(dp5228
g61
(dp5229
sg70
g3828
sg63
(lp5230
g56
(g77
g58
NtRp5231
(dp5232
g61
(dp5233
g81
g82
ssg70
g5227
sg63
(lp5234
S'session_new'
p5235
asbag56
(g77
g58
NtRp5236
(dp5237
g61
(dp5238
g88
g89
ssg70
g5227
sg63
(lp5239
S':'
asbag56
(g77
g58
NtRp5240
(dp5241
g61
(dp5242
sg70
g5227
sg63
(lp5243
g56
(g57
g58
NtRp5244
(dp5245
g61
(dp5246
g69
I5
ssg70
g5240
sg63
(lp5247
g99
asbasbasbag56
(g72
g58
NtRp5248
(dp5249
g61
(dp5250
sg70
g3828
sg63
(lp5251
g56
(g77
g58
NtRp5252
(dp5253
g61
(dp5254
g81
g82
ssg70
g5248
sg63
(lp5255
S'status'
p5256
asbag56
(g77
g58
NtRp5257
(dp5258
g61
(dp5259
g88
g89
ssg70
g5248
sg63
(lp5260
S':'
asbag56
(g77
g58
NtRp5261
(dp5262
g61
(dp5263
sg70
g5248
sg63
(lp5264
g56
(g57
g58
NtRp5265
(dp5266
g61
(dp5267
g69
I5
ssg70
g5261
sg63
(lp5268
S'200'
p5269
asbasbasbag56
(g72
g58
NtRp5270
(dp5271
g61
(dp5272
sg70
g3828
sg63
(lp5273
g56
(g77
g58
NtRp5274
(dp5275
g61
(dp5276
g81
g82
ssg70
g5270
sg63
(lp5277
S'subtitle'
p5278
asbag56
(g77
g58
NtRp5279
(dp5280
g61
(dp5281
g88
g89
ssg70
g5270
sg63
(lp5282
S':'
asbag56
(g77
g58
NtRp5283
(dp5284
g61
(dp5285
sg70
g5270
sg63
(lp5286
g56
(g57
g58
NtRp5287
(dp5288
g61
(dp5289
g69
I5
ssg70
g5283
sg63
(lp5290
g4360
(S's;\x00\x00\x00A tool for managing primary-text research in the humanities'
tRp5291
asbasbasbag56
(g72
g58
NtRp5292
(dp5293
g61
(dp5294
sg70
g3828
sg63
(lp5295
g56
(g77
g58
NtRp5296
(dp5297
g61
(dp5298
g81
g82
ssg70
g5292
sg63
(lp5299
S'title'
p5300
asbag56
(g77
g58
NtRp5301
(dp5302
g61
(dp5303
g88
g89
ssg70
g5292
sg63
(lp5304
S':'
asbag56
(g77
g58
NtRp5305
(dp5306
g61
(dp5307
sg70
g5292
sg63
(lp5308
g56
(g57
g58
NtRp5309
(dp5310
g61
(dp5311
g69
I5
ssg70
g5305
sg63
(lp5312
g121
asbasbasbag56
(g72
g58
NtRp5313
(dp5314
g61
(dp5315
sg70
g3828
sg63
(lp5316
g56
(g77
g58
NtRp5317
(dp5318
g61
(dp5319
g81
g82
ssg70
g5313
sg63
(lp5320
g2740
asbag56
(g77
g58
NtRp5321
(dp5322
g61
(dp5323
g88
g89
ssg70
g5313
sg63
(lp5324
S':'
asbag56
(g77
g58
NtRp5325
(dp5326
g61
(dp5327
sg70
g5313
sg63
(lp5328
g56
(g57
g58
NtRp5329
(dp5330
g61
(dp5331
g69
I5
ssg70
g5325
sg63
(lp5332
g2753
asbasbasbag56
(g72
g58
NtRp5333
(dp5334
g61
(dp5335
sg70
g3828
sg63
(lp5336
g56
(g77
g58
NtRp5337
(dp5338
g61
(dp5339
g81
g82
ssg70
g5333
sg63
(lp5340
S'view'
p5341
asbag56
(g77
g58
NtRp5342
(dp5343
g61
(dp5344
g88
g89
ssg70
g5333
sg63
(lp5345
S':'
asbag56
(g77
g58
NtRp5346
(dp5347
g61
(dp5348
sg70
g5333
sg63
(lp5349
g56
(g57
g58
NtRp5350
(dp5351
g61
(dp5352
g69
I5
ssg70
g5346
sg63
(lp5353
S'plugin_listandedit/list.html'
p5354
asbasbasbasbasbsS'locals'
p5355
(dp5356
S'self'
p5357
S"<DAL {'auth_event': <Table {'origin': <gluon.dal.../web2py/applications/topoi/databases/sql.log'}>}>"
p5358
sS'key'
p5359
S"'fontss'"
p5360
sssS'traceback'
p5361
S'Traceback (most recent call last):\n  File "/home/ian/web2py/gluon/restricted.py", line 194, in restricted\n    exec ccode in environment\n  File "/home/ian/web2py/applications/topoi/controllers/plugin_listandedit.py", line 37, in <module>\n  File "/home/ian/web2py/gluon/globals.py", line 149, in <lambda>\n    self._caller = lambda f: f()\n  File "/home/ian/web2py/applications/topoi/controllers/plugin_listandedit.py", line 13, in list\n    fieldname = db[tablename].fields[1]\n  File "/home/ian/web2py/gluon/dal.py", line 4505, in __getitem__\n    return dict.__getitem__(self, str(key))\nKeyError: \'fontss\'\n'
p5362
s.