(dp1
S'output'
p2
S''
sS'layer'
p3
S'/home/ian/web2py/applications/topoi/controllers/plugin_listandedit.py'
p4
sS'code'
p5
S"# coding: utf8\n# try something like\ndef list(): \n    response.files.append(URL('static', 'plugin_listandedit/plugin_listandedit.css'))\n    response.files.append(URL('static', 'plugin_listandedit/plugin_listandedit.js'))\n    #settings    \n    displayfield = ''\n    \n    tablename = request.args[0]\n    #FIXME: Hack here to solve problem of field name not being identical to table name\n    tablename = tablename + 's'\n    \n    fieldname = db[tablename].fields[1]    \n    print tablename\n        \n    rowlist = ''    \n    if not tablename in db.tables():\n        response.flash = 'error'\n    else:\n        tb = db[tablename]\n        rowlist = db(tb).select()\n    \n    listset = []\n    for r in rowlist:\n        i = A(r[fieldname], _href=URL('plugin_listandedit', 'edit.load', args=[tablename, r.id]), _class='plugin_listandedit_list', cid='viewpane')    \n        listset.append(i)\n                \n    return dict(listset = listset)\n\ndef edit():\n    tablename = request.args[0]\n    rowid = request.args[1]\n    form = crud.update(db[tablename], rowid)\n    \n    return dict(form = form)\n\nresponse._vars=response._caller(edit)\n"
p6
sS'snapshot'
p7
(dp8
S'exception'
p9
(dp10
S'__hash__'
p11
S"<method-wrapper '__hash__' of exceptions.NameError object>"
p12
sS'__setattr__'
p13
S"<method-wrapper '__setattr__' of exceptions.NameError object>"
p14
sS'__reduce_ex__'
p15
S'<built-in method __reduce_ex__ of exceptions.NameError object>'
p16
sS'__getslice__'
p17
S"<method-wrapper '__getslice__' of exceptions.NameError object>"
p18
sS'__getitem__'
p19
S"<method-wrapper '__getitem__' of exceptions.NameError object>"
p20
sS'__setstate__'
p21
S'<built-in method __setstate__ of exceptions.NameError object>'
p22
sS'args'
p23
S'("global name \'LOAD\' is not defined",)'
p24
sS'__reduce__'
p25
S'<built-in method __reduce__ of exceptions.NameError object>'
p26
sS'__str__'
p27
S"<method-wrapper '__str__' of exceptions.NameError object>"
p28
sS'__format__'
p29
S'<built-in method __format__ of exceptions.NameError object>'
p30
sS'__getattribute__'
p31
S"<method-wrapper '__getattribute__' of exceptions.NameError object>"
p32
sS'__class__'
p33
S"<type 'exceptions.NameError'>"
p34
sS'__unicode__'
p35
S'<built-in method __unicode__ of exceptions.NameError object>'
p36
sS'__delattr__'
p37
S"<method-wrapper '__delattr__' of exceptions.NameError object>"
p38
sS'__subclasshook__'
p39
S'<built-in method __subclasshook__ of type object>'
p40
sS'__repr__'
p41
S"<method-wrapper '__repr__' of exceptions.NameError object>"
p42
sS'__dict__'
p43
S'{}'
p44
sS'__sizeof__'
p45
S'<built-in method __sizeof__ of exceptions.NameError object>'
p46
sS'__doc__'
p47
S"'Name not found globally.'"
p48
sS'__init__'
p49
S"<method-wrapper '__init__' of exceptions.NameError object>"
p50
sS'__new__'
p51
S'<built-in method __new__ of type object>'
p52
ssS'evalue'
p53
S"global name 'LOAD' is not defined"
p54
sS'request'
p55
ccopy_reg
_reconstructor
p56
(cgluon.html
BEAUTIFY
p57
c__builtin__
object
p58
NtRp59
(dp60
S'attributes'
p61
(dp62
sS'components'
p63
(lp64
g56
(cgluon.html
TABLE
p65
g58
NtRp66
(dp67
g61
(dp68
S'level'
p69
I5
ssS'parent'
p70
Nsg63
(lp71
g56
(cgluon.html
TR
p72
g58
NtRp73
(dp74
g61
(dp75
sg70
g66
sg63
(lp76
g56
(cgluon.html
TD
p77
g58
NtRp78
(dp79
g61
(dp80
S'_style'
p81
S'font-weight:bold;'
p82
ssg70
g73
sg63
(lp83
S'ajax'
p84
asbag56
(g77
g58
NtRp85
(dp86
g61
(dp87
S'_valign'
p88
S'top'
p89
ssg70
g73
sg63
(lp90
S':'
asbag56
(g77
g58
NtRp91
(dp92
g61
(dp93
sg70
g73
sg63
(lp94
g56
(g57
g58
NtRp95
(dp96
g61
(dp97
g69
I5
ssg70
g91
sg63
(lp98
S'True'
p99
asbasbasbag56
(g72
g58
NtRp100
(dp101
g61
(dp102
sg70
g66
sg63
(lp103
g56
(g77
g58
NtRp104
(dp105
g61
(dp106
g81
g82
ssg70
g100
sg63
(lp107
S'application'
p108
asbag56
(g77
g58
NtRp109
(dp110
g61
(dp111
g88
g89
ssg70
g100
sg63
(lp112
S':'
asbag56
(g77
g58
NtRp113
(dp114
g61
(dp115
sg70
g100
sg63
(lp116
g56
(g57
g58
NtRp117
(dp118
g61
(dp119
g69
I5
ssg70
g113
sg63
(lp120
S'topoi'
p121
asbasbasbag56
(g72
g58
NtRp122
(dp123
g61
(dp124
sg70
g66
sg63
(lp125
g56
(g77
g58
NtRp126
(dp127
g61
(dp128
g81
g82
ssg70
g122
sg63
(lp129
g23
asbag56
(g77
g58
NtRp130
(dp131
g61
(dp132
g88
g89
ssg70
g122
sg63
(lp133
S':'
asbag56
(g77
g58
NtRp134
(dp135
g61
(dp136
sg70
g122
sg63
(lp137
g56
(g57
g58
NtRp138
(dp139
g61
(dp140
g69
I5
ssg70
g134
sg63
(lp141
g56
(g65
g58
NtRp142
(dp143
g61
(dp144
g69
I4
ssg70
Nsg63
(lp145
g56
(g72
g58
NtRp146
(dp147
g61
(dp148
sg70
g142
sg63
(lp149
g56
(g77
g58
NtRp150
(dp151
g61
(dp152
sg70
g146
sg63
(lp153
g56
(g57
g58
NtRp154
(dp155
g61
(dp156
g69
I4
ssg70
g150
sg63
(lp157
S'notes'
p158
asbasbasbag56
(g72
g58
NtRp159
(dp160
g61
(dp161
sg70
g142
sg63
(lp162
g56
(g77
g58
NtRp163
(dp164
g61
(dp165
sg70
g159
sg63
(lp166
g56
(g57
g58
NtRp167
(dp168
g61
(dp169
g69
I4
ssg70
g163
sg63
(lp170
S'1'
asbasbasbasbasbasbasbag56
(g72
g58
NtRp171
(dp172
g61
(dp173
sg70
g66
sg63
(lp174
g56
(g77
g58
NtRp175
(dp176
g61
(dp177
g81
g82
ssg70
g171
sg63
(lp178
S'body'
p179
asbag56
(g77
g58
NtRp180
(dp181
g61
(dp182
g88
g89
ssg70
g171
sg63
(lp183
S':'
asbag56
(g77
g58
NtRp184
(dp185
g61
(dp186
sg70
g171
sg63
(lp187
g56
(g57
g58
NtRp188
(dp189
g61
(dp190
g69
I5
ssg70
g184
sg63
(lp191
S'<cStringIO.StringO object at 0x1da56c0>'
p192
asbasbasbag56
(g72
g58
NtRp193
(dp194
g61
(dp195
sg70
g66
sg63
(lp196
g56
(g77
g58
NtRp197
(dp198
g61
(dp199
g81
g82
ssg70
g193
sg63
(lp200
S'cid'
p201
asbag56
(g77
g58
NtRp202
(dp203
g61
(dp204
g88
g89
ssg70
g193
sg63
(lp205
S':'
asbag56
(g77
g58
NtRp206
(dp207
g61
(dp208
sg70
g193
sg63
(lp209
g56
(g57
g58
NtRp210
(dp211
g61
(dp212
g69
I5
ssg70
g206
sg63
(lp213
S'viewpane'
p214
asbasbasbag56
(g72
g58
NtRp215
(dp216
g61
(dp217
sg70
g66
sg63
(lp218
g56
(g77
g58
NtRp219
(dp220
g61
(dp221
g81
g82
ssg70
g215
sg63
(lp222
S'client'
p223
asbag56
(g77
g58
NtRp224
(dp225
g61
(dp226
g88
g89
ssg70
g215
sg63
(lp227
S':'
asbag56
(g77
g58
NtRp228
(dp229
g61
(dp230
sg70
g215
sg63
(lp231
g56
(g57
g58
NtRp232
(dp233
g61
(dp234
g69
I5
ssg70
g228
sg63
(lp235
S'127.0.0.1'
p236
asbasbasbag56
(g72
g58
NtRp237
(dp238
g61
(dp239
sg70
g66
sg63
(lp240
g56
(g77
g58
NtRp241
(dp242
g61
(dp243
g81
g82
ssg70
g237
sg63
(lp244
S'controller'
p245
asbag56
(g77
g58
NtRp246
(dp247
g61
(dp248
g88
g89
ssg70
g237
sg63
(lp249
S':'
asbag56
(g77
g58
NtRp250
(dp251
g61
(dp252
sg70
g237
sg63
(lp253
g56
(g57
g58
NtRp254
(dp255
g61
(dp256
g69
I5
ssg70
g250
sg63
(lp257
S'plugin_listandedit'
p258
asbasbasbag56
(g72
g58
NtRp259
(dp260
g61
(dp261
sg70
g66
sg63
(lp262
g56
(g77
g58
NtRp263
(dp264
g61
(dp265
g81
g82
ssg70
g259
sg63
(lp266
S'cookies'
p267
asbag56
(g77
g58
NtRp268
(dp269
g61
(dp270
g88
g89
ssg70
g259
sg63
(lp271
S':'
asbag56
(g77
g58
NtRp272
(dp273
g61
(dp274
sg70
g259
sg63
(lp275
g56
(g57
g58
NtRp276
(dp277
g61
(dp278
g69
I5
ssg70
g272
sg63
(lp279
g56
(g65
g58
NtRp280
(dp281
g61
(dp282
g69
I4
ssg70
Nsg63
(lp283
g56
(g72
g58
NtRp284
(dp285
g61
(dp286
sg70
g280
sg63
(lp287
g56
(g77
g58
NtRp288
(dp289
g61
(dp290
g81
g82
ssg70
g284
sg63
(lp291
S'session_id_admin'
p292
asbag56
(g77
g58
NtRp293
(dp294
g61
(dp295
g88
g89
ssg70
g284
sg63
(lp296
S':'
asbag56
(g77
g58
NtRp297
(dp298
g61
(dp299
sg70
g284
sg63
(lp300
g56
(g57
g58
NtRp301
(dp302
g61
(dp303
g69
I4
ssg70
g297
sg63
(lp304
g56
(g65
g58
NtRp305
(dp306
g61
(dp307
g69
I3
ssg70
Nsg63
(lp308
g56
(g72
g58
NtRp309
(dp310
g61
(dp311
sg70
g305
sg63
(lp312
g56
(g77
g58
NtRp313
(dp314
g61
(dp315
g81
g82
ssg70
g309
sg63
(lp316
S'comment'
p317
asbag56
(g77
g58
NtRp318
(dp319
g61
(dp320
g88
g89
ssg70
g309
sg63
(lp321
S':'
asbag56
(g77
g58
NtRp322
(dp323
g61
(dp324
sg70
g309
sg63
(lp325
g56
(g57
g58
NtRp326
(dp327
g61
(dp328
g69
I3
ssg70
g322
sg63
(lp329
S''
asbasbasbag56
(g72
g58
NtRp330
(dp331
g61
(dp332
sg70
g305
sg63
(lp333
g56
(g77
g58
NtRp334
(dp335
g61
(dp336
g81
g82
ssg70
g330
sg63
(lp337
S'domain'
p338
asbag56
(g77
g58
NtRp339
(dp340
g61
(dp341
g88
g89
ssg70
g330
sg63
(lp342
S':'
asbag56
(g77
g58
NtRp343
(dp344
g61
(dp345
sg70
g330
sg63
(lp346
g56
(g57
g58
NtRp347
(dp348
g61
(dp349
g69
I3
ssg70
g343
sg63
(lp350
S''
asbasbasbag56
(g72
g58
NtRp351
(dp352
g61
(dp353
sg70
g305
sg63
(lp354
g56
(g77
g58
NtRp355
(dp356
g61
(dp357
g81
g82
ssg70
g351
sg63
(lp358
S'expires'
p359
asbag56
(g77
g58
NtRp360
(dp361
g61
(dp362
g88
g89
ssg70
g351
sg63
(lp363
S':'
asbag56
(g77
g58
NtRp364
(dp365
g61
(dp366
sg70
g351
sg63
(lp367
g56
(g57
g58
NtRp368
(dp369
g61
(dp370
g69
I3
ssg70
g364
sg63
(lp371
S''
asbasbasbag56
(g72
g58
NtRp372
(dp373
g61
(dp374
sg70
g305
sg63
(lp375
g56
(g77
g58
NtRp376
(dp377
g61
(dp378
g81
g82
ssg70
g372
sg63
(lp379
S'httponly'
p380
asbag56
(g77
g58
NtRp381
(dp382
g61
(dp383
g88
g89
ssg70
g372
sg63
(lp384
S':'
asbag56
(g77
g58
NtRp385
(dp386
g61
(dp387
sg70
g372
sg63
(lp388
g56
(g57
g58
NtRp389
(dp390
g61
(dp391
g69
I3
ssg70
g385
sg63
(lp392
S''
asbasbasbag56
(g72
g58
NtRp393
(dp394
g61
(dp395
sg70
g305
sg63
(lp396
g56
(g77
g58
NtRp397
(dp398
g61
(dp399
g81
g82
ssg70
g393
sg63
(lp400
S'max-age'
p401
asbag56
(g77
g58
NtRp402
(dp403
g61
(dp404
g88
g89
ssg70
g393
sg63
(lp405
S':'
asbag56
(g77
g58
NtRp406
(dp407
g61
(dp408
sg70
g393
sg63
(lp409
g56
(g57
g58
NtRp410
(dp411
g61
(dp412
g69
I3
ssg70
g406
sg63
(lp413
S''
asbasbasbag56
(g72
g58
NtRp414
(dp415
g61
(dp416
sg70
g305
sg63
(lp417
g56
(g77
g58
NtRp418
(dp419
g61
(dp420
g81
g82
ssg70
g414
sg63
(lp421
S'path'
p422
asbag56
(g77
g58
NtRp423
(dp424
g61
(dp425
g88
g89
ssg70
g414
sg63
(lp426
S':'
asbag56
(g77
g58
NtRp427
(dp428
g61
(dp429
sg70
g414
sg63
(lp430
g56
(g57
g58
NtRp431
(dp432
g61
(dp433
g69
I3
ssg70
g427
sg63
(lp434
S''
asbasbasbag56
(g72
g58
NtRp435
(dp436
g61
(dp437
sg70
g305
sg63
(lp438
g56
(g77
g58
NtRp439
(dp440
g61
(dp441
g81
g82
ssg70
g435
sg63
(lp442
S'secure'
p443
asbag56
(g77
g58
NtRp444
(dp445
g61
(dp446
g88
g89
ssg70
g435
sg63
(lp447
S':'
asbag56
(g77
g58
NtRp448
(dp449
g61
(dp450
sg70
g435
sg63
(lp451
g56
(g57
g58
NtRp452
(dp453
g61
(dp454
g69
I3
ssg70
g448
sg63
(lp455
S''
asbasbasbag56
(g72
g58
NtRp456
(dp457
g61
(dp458
sg70
g305
sg63
(lp459
g56
(g77
g58
NtRp460
(dp461
g61
(dp462
g81
g82
ssg70
g456
sg63
(lp463
S'version'
p464
asbag56
(g77
g58
NtRp465
(dp466
g61
(dp467
g88
g89
ssg70
g456
sg63
(lp468
S':'
asbag56
(g77
g58
NtRp469
(dp470
g61
(dp471
sg70
g456
sg63
(lp472
g56
(g57
g58
NtRp473
(dp474
g61
(dp475
g69
I3
ssg70
g469
sg63
(lp476
S''
asbasbasbasbasbasbasbag56
(g72
g58
NtRp477
(dp478
g61
(dp479
sg70
g280
sg63
(lp480
g56
(g77
g58
NtRp481
(dp482
g61
(dp483
g81
g82
ssg70
g477
sg63
(lp484
S'session_id_paideia'
p485
asbag56
(g77
g58
NtRp486
(dp487
g61
(dp488
g88
g89
ssg70
g477
sg63
(lp489
S':'
asbag56
(g77
g58
NtRp490
(dp491
g61
(dp492
sg70
g477
sg63
(lp493
g56
(g57
g58
NtRp494
(dp495
g61
(dp496
g69
I4
ssg70
g490
sg63
(lp497
g56
(g65
g58
NtRp498
(dp499
g61
(dp500
g69
I3
ssg70
Nsg63
(lp501
g56
(g72
g58
NtRp502
(dp503
g61
(dp504
sg70
g498
sg63
(lp505
g56
(g77
g58
NtRp506
(dp507
g61
(dp508
g81
g82
ssg70
g502
sg63
(lp509
g317
asbag56
(g77
g58
NtRp510
(dp511
g61
(dp512
g88
g89
ssg70
g502
sg63
(lp513
S':'
asbag56
(g77
g58
NtRp514
(dp515
g61
(dp516
sg70
g502
sg63
(lp517
g56
(g57
g58
NtRp518
(dp519
g61
(dp520
g69
I3
ssg70
g514
sg63
(lp521
S''
asbasbasbag56
(g72
g58
NtRp522
(dp523
g61
(dp524
sg70
g498
sg63
(lp525
g56
(g77
g58
NtRp526
(dp527
g61
(dp528
g81
g82
ssg70
g522
sg63
(lp529
g338
asbag56
(g77
g58
NtRp530
(dp531
g61
(dp532
g88
g89
ssg70
g522
sg63
(lp533
S':'
asbag56
(g77
g58
NtRp534
(dp535
g61
(dp536
sg70
g522
sg63
(lp537
g56
(g57
g58
NtRp538
(dp539
g61
(dp540
g69
I3
ssg70
g534
sg63
(lp541
S''
asbasbasbag56
(g72
g58
NtRp542
(dp543
g61
(dp544
sg70
g498
sg63
(lp545
g56
(g77
g58
NtRp546
(dp547
g61
(dp548
g81
g82
ssg70
g542
sg63
(lp549
g359
asbag56
(g77
g58
NtRp550
(dp551
g61
(dp552
g88
g89
ssg70
g542
sg63
(lp553
S':'
asbag56
(g77
g58
NtRp554
(dp555
g61
(dp556
sg70
g542
sg63
(lp557
g56
(g57
g58
NtRp558
(dp559
g61
(dp560
g69
I3
ssg70
g554
sg63
(lp561
S''
asbasbasbag56
(g72
g58
NtRp562
(dp563
g61
(dp564
sg70
g498
sg63
(lp565
g56
(g77
g58
NtRp566
(dp567
g61
(dp568
g81
g82
ssg70
g562
sg63
(lp569
g380
asbag56
(g77
g58
NtRp570
(dp571
g61
(dp572
g88
g89
ssg70
g562
sg63
(lp573
S':'
asbag56
(g77
g58
NtRp574
(dp575
g61
(dp576
sg70
g562
sg63
(lp577
g56
(g57
g58
NtRp578
(dp579
g61
(dp580
g69
I3
ssg70
g574
sg63
(lp581
S''
asbasbasbag56
(g72
g58
NtRp582
(dp583
g61
(dp584
sg70
g498
sg63
(lp585
g56
(g77
g58
NtRp586
(dp587
g61
(dp588
g81
g82
ssg70
g582
sg63
(lp589
g401
asbag56
(g77
g58
NtRp590
(dp591
g61
(dp592
g88
g89
ssg70
g582
sg63
(lp593
S':'
asbag56
(g77
g58
NtRp594
(dp595
g61
(dp596
sg70
g582
sg63
(lp597
g56
(g57
g58
NtRp598
(dp599
g61
(dp600
g69
I3
ssg70
g594
sg63
(lp601
S''
asbasbasbag56
(g72
g58
NtRp602
(dp603
g61
(dp604
sg70
g498
sg63
(lp605
g56
(g77
g58
NtRp606
(dp607
g61
(dp608
g81
g82
ssg70
g602
sg63
(lp609
g422
asbag56
(g77
g58
NtRp610
(dp611
g61
(dp612
g88
g89
ssg70
g602
sg63
(lp613
S':'
asbag56
(g77
g58
NtRp614
(dp615
g61
(dp616
sg70
g602
sg63
(lp617
g56
(g57
g58
NtRp618
(dp619
g61
(dp620
g69
I3
ssg70
g614
sg63
(lp621
S''
asbasbasbag56
(g72
g58
NtRp622
(dp623
g61
(dp624
sg70
g498
sg63
(lp625
g56
(g77
g58
NtRp626
(dp627
g61
(dp628
g81
g82
ssg70
g622
sg63
(lp629
g443
asbag56
(g77
g58
NtRp630
(dp631
g61
(dp632
g88
g89
ssg70
g622
sg63
(lp633
S':'
asbag56
(g77
g58
NtRp634
(dp635
g61
(dp636
sg70
g622
sg63
(lp637
g56
(g57
g58
NtRp638
(dp639
g61
(dp640
g69
I3
ssg70
g634
sg63
(lp641
S''
asbasbasbag56
(g72
g58
NtRp642
(dp643
g61
(dp644
sg70
g498
sg63
(lp645
g56
(g77
g58
NtRp646
(dp647
g61
(dp648
g81
g82
ssg70
g642
sg63
(lp649
g464
asbag56
(g77
g58
NtRp650
(dp651
g61
(dp652
g88
g89
ssg70
g642
sg63
(lp653
S':'
asbag56
(g77
g58
NtRp654
(dp655
g61
(dp656
sg70
g642
sg63
(lp657
g56
(g57
g58
NtRp658
(dp659
g61
(dp660
g69
I3
ssg70
g654
sg63
(lp661
S''
asbasbasbasbasbasbasbag56
(g72
g58
NtRp662
(dp663
g61
(dp664
sg70
g280
sg63
(lp665
g56
(g77
g58
NtRp666
(dp667
g61
(dp668
g81
g82
ssg70
g662
sg63
(lp669
S'session_id_topoi'
p670
asbag56
(g77
g58
NtRp671
(dp672
g61
(dp673
g88
g89
ssg70
g662
sg63
(lp674
S':'
asbag56
(g77
g58
NtRp675
(dp676
g61
(dp677
sg70
g662
sg63
(lp678
g56
(g57
g58
NtRp679
(dp680
g61
(dp681
g69
I4
ssg70
g675
sg63
(lp682
g56
(g65
g58
NtRp683
(dp684
g61
(dp685
g69
I3
ssg70
Nsg63
(lp686
g56
(g72
g58
NtRp687
(dp688
g61
(dp689
sg70
g683
sg63
(lp690
g56
(g77
g58
NtRp691
(dp692
g61
(dp693
g81
g82
ssg70
g687
sg63
(lp694
g317
asbag56
(g77
g58
NtRp695
(dp696
g61
(dp697
g88
g89
ssg70
g687
sg63
(lp698
S':'
asbag56
(g77
g58
NtRp699
(dp700
g61
(dp701
sg70
g687
sg63
(lp702
g56
(g57
g58
NtRp703
(dp704
g61
(dp705
g69
I3
ssg70
g699
sg63
(lp706
S''
asbasbasbag56
(g72
g58
NtRp707
(dp708
g61
(dp709
sg70
g683
sg63
(lp710
g56
(g77
g58
NtRp711
(dp712
g61
(dp713
g81
g82
ssg70
g707
sg63
(lp714
g338
asbag56
(g77
g58
NtRp715
(dp716
g61
(dp717
g88
g89
ssg70
g707
sg63
(lp718
S':'
asbag56
(g77
g58
NtRp719
(dp720
g61
(dp721
sg70
g707
sg63
(lp722
g56
(g57
g58
NtRp723
(dp724
g61
(dp725
g69
I3
ssg70
g719
sg63
(lp726
S''
asbasbasbag56
(g72
g58
NtRp727
(dp728
g61
(dp729
sg70
g683
sg63
(lp730
g56
(g77
g58
NtRp731
(dp732
g61
(dp733
g81
g82
ssg70
g727
sg63
(lp734
g359
asbag56
(g77
g58
NtRp735
(dp736
g61
(dp737
g88
g89
ssg70
g727
sg63
(lp738
S':'
asbag56
(g77
g58
NtRp739
(dp740
g61
(dp741
sg70
g727
sg63
(lp742
g56
(g57
g58
NtRp743
(dp744
g61
(dp745
g69
I3
ssg70
g739
sg63
(lp746
S''
asbasbasbag56
(g72
g58
NtRp747
(dp748
g61
(dp749
sg70
g683
sg63
(lp750
g56
(g77
g58
NtRp751
(dp752
g61
(dp753
g81
g82
ssg70
g747
sg63
(lp754
g380
asbag56
(g77
g58
NtRp755
(dp756
g61
(dp757
g88
g89
ssg70
g747
sg63
(lp758
S':'
asbag56
(g77
g58
NtRp759
(dp760
g61
(dp761
sg70
g747
sg63
(lp762
g56
(g57
g58
NtRp763
(dp764
g61
(dp765
g69
I3
ssg70
g759
sg63
(lp766
S''
asbasbasbag56
(g72
g58
NtRp767
(dp768
g61
(dp769
sg70
g683
sg63
(lp770
g56
(g77
g58
NtRp771
(dp772
g61
(dp773
g81
g82
ssg70
g767
sg63
(lp774
g401
asbag56
(g77
g58
NtRp775
(dp776
g61
(dp777
g88
g89
ssg70
g767
sg63
(lp778
S':'
asbag56
(g77
g58
NtRp779
(dp780
g61
(dp781
sg70
g767
sg63
(lp782
g56
(g57
g58
NtRp783
(dp784
g61
(dp785
g69
I3
ssg70
g779
sg63
(lp786
S''
asbasbasbag56
(g72
g58
NtRp787
(dp788
g61
(dp789
sg70
g683
sg63
(lp790
g56
(g77
g58
NtRp791
(dp792
g61
(dp793
g81
g82
ssg70
g787
sg63
(lp794
g422
asbag56
(g77
g58
NtRp795
(dp796
g61
(dp797
g88
g89
ssg70
g787
sg63
(lp798
S':'
asbag56
(g77
g58
NtRp799
(dp800
g61
(dp801
sg70
g787
sg63
(lp802
g56
(g57
g58
NtRp803
(dp804
g61
(dp805
g69
I3
ssg70
g799
sg63
(lp806
S''
asbasbasbag56
(g72
g58
NtRp807
(dp808
g61
(dp809
sg70
g683
sg63
(lp810
g56
(g77
g58
NtRp811
(dp812
g61
(dp813
g81
g82
ssg70
g807
sg63
(lp814
g443
asbag56
(g77
g58
NtRp815
(dp816
g61
(dp817
g88
g89
ssg70
g807
sg63
(lp818
S':'
asbag56
(g77
g58
NtRp819
(dp820
g61
(dp821
sg70
g807
sg63
(lp822
g56
(g57
g58
NtRp823
(dp824
g61
(dp825
g69
I3
ssg70
g819
sg63
(lp826
S''
asbasbasbag56
(g72
g58
NtRp827
(dp828
g61
(dp829
sg70
g683
sg63
(lp830
g56
(g77
g58
NtRp831
(dp832
g61
(dp833
g81
g82
ssg70
g827
sg63
(lp834
g464
asbag56
(g77
g58
NtRp835
(dp836
g61
(dp837
g88
g89
ssg70
g827
sg63
(lp838
S':'
asbag56
(g77
g58
NtRp839
(dp840
g61
(dp841
sg70
g827
sg63
(lp842
g56
(g57
g58
NtRp843
(dp844
g61
(dp845
g69
I3
ssg70
g839
sg63
(lp846
S''
asbasbasbasbasbasbasbag56
(g72
g58
NtRp847
(dp848
g61
(dp849
sg70
g280
sg63
(lp850
g56
(g77
g58
NtRp851
(dp852
g61
(dp853
g81
g82
ssg70
g847
sg63
(lp854
S'session_id_welcome'
p855
asbag56
(g77
g58
NtRp856
(dp857
g61
(dp858
g88
g89
ssg70
g847
sg63
(lp859
S':'
asbag56
(g77
g58
NtRp860
(dp861
g61
(dp862
sg70
g847
sg63
(lp863
g56
(g57
g58
NtRp864
(dp865
g61
(dp866
g69
I4
ssg70
g860
sg63
(lp867
g56
(g65
g58
NtRp868
(dp869
g61
(dp870
g69
I3
ssg70
Nsg63
(lp871
g56
(g72
g58
NtRp872
(dp873
g61
(dp874
sg70
g868
sg63
(lp875
g56
(g77
g58
NtRp876
(dp877
g61
(dp878
g81
g82
ssg70
g872
sg63
(lp879
g317
asbag56
(g77
g58
NtRp880
(dp881
g61
(dp882
g88
g89
ssg70
g872
sg63
(lp883
S':'
asbag56
(g77
g58
NtRp884
(dp885
g61
(dp886
sg70
g872
sg63
(lp887
g56
(g57
g58
NtRp888
(dp889
g61
(dp890
g69
I3
ssg70
g884
sg63
(lp891
S''
asbasbasbag56
(g72
g58
NtRp892
(dp893
g61
(dp894
sg70
g868
sg63
(lp895
g56
(g77
g58
NtRp896
(dp897
g61
(dp898
g81
g82
ssg70
g892
sg63
(lp899
g338
asbag56
(g77
g58
NtRp900
(dp901
g61
(dp902
g88
g89
ssg70
g892
sg63
(lp903
S':'
asbag56
(g77
g58
NtRp904
(dp905
g61
(dp906
sg70
g892
sg63
(lp907
g56
(g57
g58
NtRp908
(dp909
g61
(dp910
g69
I3
ssg70
g904
sg63
(lp911
S''
asbasbasbag56
(g72
g58
NtRp912
(dp913
g61
(dp914
sg70
g868
sg63
(lp915
g56
(g77
g58
NtRp916
(dp917
g61
(dp918
g81
g82
ssg70
g912
sg63
(lp919
g359
asbag56
(g77
g58
NtRp920
(dp921
g61
(dp922
g88
g89
ssg70
g912
sg63
(lp923
S':'
asbag56
(g77
g58
NtRp924
(dp925
g61
(dp926
sg70
g912
sg63
(lp927
g56
(g57
g58
NtRp928
(dp929
g61
(dp930
g69
I3
ssg70
g924
sg63
(lp931
S''
asbasbasbag56
(g72
g58
NtRp932
(dp933
g61
(dp934
sg70
g868
sg63
(lp935
g56
(g77
g58
NtRp936
(dp937
g61
(dp938
g81
g82
ssg70
g932
sg63
(lp939
g380
asbag56
(g77
g58
NtRp940
(dp941
g61
(dp942
g88
g89
ssg70
g932
sg63
(lp943
S':'
asbag56
(g77
g58
NtRp944
(dp945
g61
(dp946
sg70
g932
sg63
(lp947
g56
(g57
g58
NtRp948
(dp949
g61
(dp950
g69
I3
ssg70
g944
sg63
(lp951
S''
asbasbasbag56
(g72
g58
NtRp952
(dp953
g61
(dp954
sg70
g868
sg63
(lp955
g56
(g77
g58
NtRp956
(dp957
g61
(dp958
g81
g82
ssg70
g952
sg63
(lp959
g401
asbag56
(g77
g58
NtRp960
(dp961
g61
(dp962
g88
g89
ssg70
g952
sg63
(lp963
S':'
asbag56
(g77
g58
NtRp964
(dp965
g61
(dp966
sg70
g952
sg63
(lp967
g56
(g57
g58
NtRp968
(dp969
g61
(dp970
g69
I3
ssg70
g964
sg63
(lp971
S''
asbasbasbag56
(g72
g58
NtRp972
(dp973
g61
(dp974
sg70
g868
sg63
(lp975
g56
(g77
g58
NtRp976
(dp977
g61
(dp978
g81
g82
ssg70
g972
sg63
(lp979
g422
asbag56
(g77
g58
NtRp980
(dp981
g61
(dp982
g88
g89
ssg70
g972
sg63
(lp983
S':'
asbag56
(g77
g58
NtRp984
(dp985
g61
(dp986
sg70
g972
sg63
(lp987
g56
(g57
g58
NtRp988
(dp989
g61
(dp990
g69
I3
ssg70
g984
sg63
(lp991
S''
asbasbasbag56
(g72
g58
NtRp992
(dp993
g61
(dp994
sg70
g868
sg63
(lp995
g56
(g77
g58
NtRp996
(dp997
g61
(dp998
g81
g82
ssg70
g992
sg63
(lp999
g443
asbag56
(g77
g58
NtRp1000
(dp1001
g61
(dp1002
g88
g89
ssg70
g992
sg63
(lp1003
S':'
asbag56
(g77
g58
NtRp1004
(dp1005
g61
(dp1006
sg70
g992
sg63
(lp1007
g56
(g57
g58
NtRp1008
(dp1009
g61
(dp1010
g69
I3
ssg70
g1004
sg63
(lp1011
S''
asbasbasbag56
(g72
g58
NtRp1012
(dp1013
g61
(dp1014
sg70
g868
sg63
(lp1015
g56
(g77
g58
NtRp1016
(dp1017
g61
(dp1018
g81
g82
ssg70
g1012
sg63
(lp1019
g464
asbag56
(g77
g58
NtRp1020
(dp1021
g61
(dp1022
g88
g89
ssg70
g1012
sg63
(lp1023
S':'
asbag56
(g77
g58
NtRp1024
(dp1025
g61
(dp1026
sg70
g1012
sg63
(lp1027
g56
(g57
g58
NtRp1028
(dp1029
g61
(dp1030
g69
I3
ssg70
g1024
sg63
(lp1031
S''
asbasbasbasbasbasbasbasbasbasbasbag56
(g72
g58
NtRp1032
(dp1033
g61
(dp1034
sg70
g66
sg63
(lp1035
g56
(g77
g58
NtRp1036
(dp1037
g61
(dp1038
g81
g82
ssg70
g1032
sg63
(lp1039
S'env'
p1040
asbag56
(g77
g58
NtRp1041
(dp1042
g61
(dp1043
g88
g89
ssg70
g1032
sg63
(lp1044
S':'
asbag56
(g77
g58
NtRp1045
(dp1046
g61
(dp1047
sg70
g1032
sg63
(lp1048
g56
(g57
g58
NtRp1049
(dp1050
g61
(dp1051
g69
I5
ssg70
g1045
sg63
(lp1052
g56
(g65
g58
NtRp1053
(dp1054
g61
(dp1055
g69
I4
ssg70
Nsg63
(lp1056
g56
(g72
g58
NtRp1057
(dp1058
g61
(dp1059
sg70
g1053
sg63
(lp1060
g56
(g77
g58
NtRp1061
(dp1062
g61
(dp1063
g81
g82
ssg70
g1057
sg63
(lp1064
S'app_folders'
p1065
asbag56
(g77
g58
NtRp1066
(dp1067
g61
(dp1068
g88
g89
ssg70
g1057
sg63
(lp1069
S':'
asbag56
(g77
g58
NtRp1070
(dp1071
g61
(dp1072
sg70
g1057
sg63
(lp1073
g56
(g57
g58
NtRp1074
(dp1075
g61
(dp1076
g69
I4
ssg70
g1070
sg63
(lp1077
S"set(['/home/ian/web2py/applications/topoi/', '/home/ian/web2py/applications/welcome/'])"
p1078
asbasbasbag56
(g72
g58
NtRp1079
(dp1080
g61
(dp1081
sg70
g1053
sg63
(lp1082
g56
(g77
g58
NtRp1083
(dp1084
g61
(dp1085
g81
g82
ssg70
g1079
sg63
(lp1086
S'applications_parent'
p1087
asbag56
(g77
g58
NtRp1088
(dp1089
g61
(dp1090
g88
g89
ssg70
g1079
sg63
(lp1091
S':'
asbag56
(g77
g58
NtRp1092
(dp1093
g61
(dp1094
sg70
g1079
sg63
(lp1095
g56
(g57
g58
NtRp1096
(dp1097
g61
(dp1098
g69
I4
ssg70
g1092
sg63
(lp1099
S'/home/ian/web2py'
p1100
asbasbasbag56
(g72
g58
NtRp1101
(dp1102
g61
(dp1103
sg70
g1053
sg63
(lp1104
g56
(g77
g58
NtRp1105
(dp1106
g61
(dp1107
g81
g82
ssg70
g1101
sg63
(lp1108
S'cmd_args'
p1109
asbag56
(g77
g58
NtRp1110
(dp1111
g61
(dp1112
g88
g89
ssg70
g1101
sg63
(lp1113
S':'
asbag56
(g77
g58
NtRp1114
(dp1115
g61
(dp1116
sg70
g1101
sg63
(lp1117
g56
(g57
g58
NtRp1118
(dp1119
g61
(dp1120
g69
I4
ssg70
g1114
sg63
(lp1121
g56
(g65
g58
NtRp1122
(dp1123
g61
(dp1124
g69
I3
ssg70
Nsg63
(lp1125
sbasbasbasbag56
(g72
g58
NtRp1126
(dp1127
g61
(dp1128
sg70
g1053
sg63
(lp1129
g56
(g77
g58
NtRp1130
(dp1131
g61
(dp1132
g81
g82
ssg70
g1126
sg63
(lp1133
S'cmd_options'
p1134
asbag56
(g77
g58
NtRp1135
(dp1136
g61
(dp1137
g88
g89
ssg70
g1126
sg63
(lp1138
S':'
asbag56
(g77
g58
NtRp1139
(dp1140
g61
(dp1141
sg70
g1126
sg63
(lp1142
g56
(g57
g58
NtRp1143
(dp1144
g61
(dp1145
g69
I4
ssg70
g1139
sg63
(lp1146
S"<Values at 0x1856758: {'verbose': False, 'ip': '127.0.0.1', 'shutdown_timeout': 5, 'taskbar': False, 'nocron': False, 'pid_filename': 'httpserver.pid', 'maxthreads': None, 'softcron': False, 'server_name': 'uriel', 'bpython': False, 'nogui': False, 'port': 8000, 'extcron': False, 'debuglevel': 30, 'test': None, 'folder': '/home/ian/web2py', 'config': '', 'import_models': False, 'winservice': '', 'shell': None, 'run': '', 'log_filename': 'httpserver.log', 'args': [''], 'ssl_ca_certificate': None, 'scheduler': None, 'profiler_filename': None, 'ssl_private_key': '', 'password': '<ask>', 'request_queue_size': 5, 'ssl_certificate': '', 'cronjob': False, 'plain': False, 'quiet': False, 'interfaces': None, 'minthreads': None, 'timeout': 10, 'numthreads': None, 'nobanner': False}>"
p1147
asbasbasbag56
(g72
g58
NtRp1148
(dp1149
g61
(dp1150
sg70
g1053
sg63
(lp1151
g56
(g77
g58
NtRp1152
(dp1153
g61
(dp1154
g81
g82
ssg70
g1148
sg63
(lp1155
S'db_sessions'
p1156
asbag56
(g77
g58
NtRp1157
(dp1158
g61
(dp1159
g88
g89
ssg70
g1148
sg63
(lp1160
S':'
asbag56
(g77
g58
NtRp1161
(dp1162
g61
(dp1163
sg70
g1148
sg63
(lp1164
g56
(g57
g58
NtRp1165
(dp1166
g61
(dp1167
g69
I4
ssg70
g1161
sg63
(lp1168
S'set([])'
p1169
asbasbasbag56
(g72
g58
NtRp1170
(dp1171
g61
(dp1172
sg70
g1053
sg63
(lp1173
g56
(g77
g58
NtRp1174
(dp1175
g61
(dp1176
g81
g82
ssg70
g1170
sg63
(lp1177
S'debugging'
p1178
asbag56
(g77
g58
NtRp1179
(dp1180
g61
(dp1181
g88
g89
ssg70
g1170
sg63
(lp1182
S':'
asbag56
(g77
g58
NtRp1183
(dp1184
g61
(dp1185
sg70
g1170
sg63
(lp1186
g56
(g57
g58
NtRp1187
(dp1188
g61
(dp1189
g69
I4
ssg70
g1183
sg63
(lp1190
S'False'
p1191
asbasbasbag56
(g72
g58
NtRp1192
(dp1193
g61
(dp1194
sg70
g1053
sg63
(lp1195
g56
(g77
g58
NtRp1196
(dp1197
g61
(dp1198
g81
g82
ssg70
g1192
sg63
(lp1199
S'gluon_parent'
p1200
asbag56
(g77
g58
NtRp1201
(dp1202
g61
(dp1203
g88
g89
ssg70
g1192
sg63
(lp1204
S':'
asbag56
(g77
g58
NtRp1205
(dp1206
g61
(dp1207
sg70
g1192
sg63
(lp1208
g56
(g57
g58
NtRp1209
(dp1210
g61
(dp1211
g69
I4
ssg70
g1205
sg63
(lp1212
S'/home/ian/web2py'
p1213
asbasbasbag56
(g72
g58
NtRp1214
(dp1215
g61
(dp1216
sg70
g1053
sg63
(lp1217
g56
(g77
g58
NtRp1218
(dp1219
g61
(dp1220
g81
g82
ssg70
g1214
sg63
(lp1221
S'http_accept'
p1222
asbag56
(g77
g58
NtRp1223
(dp1224
g61
(dp1225
g88
g89
ssg70
g1214
sg63
(lp1226
S':'
asbag56
(g77
g58
NtRp1227
(dp1228
g61
(dp1229
sg70
g1214
sg63
(lp1230
g56
(g57
g58
NtRp1231
(dp1232
g61
(dp1233
g69
I4
ssg70
g1227
sg63
(lp1234
S'*/*'
p1235
asbasbasbag56
(g72
g58
NtRp1236
(dp1237
g61
(dp1238
sg70
g1053
sg63
(lp1239
g56
(g77
g58
NtRp1240
(dp1241
g61
(dp1242
g81
g82
ssg70
g1236
sg63
(lp1243
S'http_accept_encoding'
p1244
asbag56
(g77
g58
NtRp1245
(dp1246
g61
(dp1247
g88
g89
ssg70
g1236
sg63
(lp1248
S':'
asbag56
(g77
g58
NtRp1249
(dp1250
g61
(dp1251
sg70
g1236
sg63
(lp1252
g56
(g57
g58
NtRp1253
(dp1254
g61
(dp1255
g69
I4
ssg70
g1249
sg63
(lp1256
S'gzip, deflate'
p1257
asbasbasbag56
(g72
g58
NtRp1258
(dp1259
g61
(dp1260
sg70
g1053
sg63
(lp1261
g56
(g77
g58
NtRp1262
(dp1263
g61
(dp1264
g81
g82
ssg70
g1258
sg63
(lp1265
S'http_accept_language'
p1266
asbag56
(g77
g58
NtRp1267
(dp1268
g61
(dp1269
g88
g89
ssg70
g1258
sg63
(lp1270
S':'
asbag56
(g77
g58
NtRp1271
(dp1272
g61
(dp1273
sg70
g1258
sg63
(lp1274
g56
(g57
g58
NtRp1275
(dp1276
g61
(dp1277
g69
I4
ssg70
g1271
sg63
(lp1278
S'en-us,en;q=0.5'
p1279
asbasbasbag56
(g72
g58
NtRp1280
(dp1281
g61
(dp1282
sg70
g1053
sg63
(lp1283
g56
(g77
g58
NtRp1284
(dp1285
g61
(dp1286
g81
g82
ssg70
g1280
sg63
(lp1287
S'http_connection'
p1288
asbag56
(g77
g58
NtRp1289
(dp1290
g61
(dp1291
g88
g89
ssg70
g1280
sg63
(lp1292
S':'
asbag56
(g77
g58
NtRp1293
(dp1294
g61
(dp1295
sg70
g1280
sg63
(lp1296
g56
(g57
g58
NtRp1297
(dp1298
g61
(dp1299
g69
I4
ssg70
g1293
sg63
(lp1300
S'keep-alive'
p1301
asbasbasbag56
(g72
g58
NtRp1302
(dp1303
g61
(dp1304
sg70
g1053
sg63
(lp1305
g56
(g77
g58
NtRp1306
(dp1307
g61
(dp1308
g81
g82
ssg70
g1302
sg63
(lp1309
S'http_cookie'
p1310
asbag56
(g77
g58
NtRp1311
(dp1312
g61
(dp1313
g88
g89
ssg70
g1302
sg63
(lp1314
S':'
asbag56
(g77
g58
NtRp1315
(dp1316
g61
(dp1317
sg70
g1302
sg63
(lp1318
g56
(g57
g58
NtRp1319
(dp1320
g61
(dp1321
g69
I4
ssg70
g1315
sg63
(lp1322
S'session_id_paideia=127.0.0.1-5296f1e9-849e-4717-b7d4-f5f298041148; session_id_welcome=127.0.0.1-15df500d-160b-4558-85e5-ad955d52732b; session_id_admin=127.0.0.1-e0d2a4b1-fc7a-4493-8d0c-6f26697a60b8; session_id_topoi=127.0.0.1-d59c890e-1ea2-413b-b329-392c8ebbafb3'
p1323
asbasbasbag56
(g72
g58
NtRp1324
(dp1325
g61
(dp1326
sg70
g1053
sg63
(lp1327
g56
(g77
g58
NtRp1328
(dp1329
g61
(dp1330
g81
g82
ssg70
g1324
sg63
(lp1331
S'http_host'
p1332
asbag56
(g77
g58
NtRp1333
(dp1334
g61
(dp1335
g88
g89
ssg70
g1324
sg63
(lp1336
S':'
asbag56
(g77
g58
NtRp1337
(dp1338
g61
(dp1339
sg70
g1324
sg63
(lp1340
g56
(g57
g58
NtRp1341
(dp1342
g61
(dp1343
g69
I4
ssg70
g1337
sg63
(lp1344
S'127.0.0.1:8000'
p1345
asbasbasbag56
(g72
g58
NtRp1346
(dp1347
g61
(dp1348
sg70
g1053
sg63
(lp1349
g56
(g77
g58
NtRp1350
(dp1351
g61
(dp1352
g81
g82
ssg70
g1346
sg63
(lp1353
S'http_referer'
p1354
asbag56
(g77
g58
NtRp1355
(dp1356
g61
(dp1357
g88
g89
ssg70
g1346
sg63
(lp1358
S':'
asbag56
(g77
g58
NtRp1359
(dp1360
g61
(dp1361
sg70
g1346
sg63
(lp1362
g56
(g57
g58
NtRp1363
(dp1364
g61
(dp1365
g69
I4
ssg70
g1359
sg63
(lp1366
S'http://127.0.0.1:8000/topoi/plugin_listandedit/list/note/1'
p1367
asbasbasbag56
(g72
g58
NtRp1368
(dp1369
g61
(dp1370
sg70
g1053
sg63
(lp1371
g56
(g77
g58
NtRp1372
(dp1373
g61
(dp1374
g81
g82
ssg70
g1368
sg63
(lp1375
S'http_user_agent'
p1376
asbag56
(g77
g58
NtRp1377
(dp1378
g61
(dp1379
g88
g89
ssg70
g1368
sg63
(lp1380
S':'
asbag56
(g77
g58
NtRp1381
(dp1382
g61
(dp1383
sg70
g1368
sg63
(lp1384
g56
(g57
g58
NtRp1385
(dp1386
g61
(dp1387
g69
I4
ssg70
g1381
sg63
(lp1388
S'Mozilla/5.0 (X11; Linux x86_64; rv:8.0) Gecko/20100101 Firefox/8.0'
p1389
asbasbasbag56
(g72
g58
NtRp1390
(dp1391
g61
(dp1392
sg70
g1053
sg63
(lp1393
g56
(g77
g58
NtRp1394
(dp1395
g61
(dp1396
g81
g82
ssg70
g1390
sg63
(lp1397
S'http_web2py_component_element'
p1398
asbag56
(g77
g58
NtRp1399
(dp1400
g61
(dp1401
g88
g89
ssg70
g1390
sg63
(lp1402
S':'
asbag56
(g77
g58
NtRp1403
(dp1404
g61
(dp1405
sg70
g1390
sg63
(lp1406
g56
(g57
g58
NtRp1407
(dp1408
g61
(dp1409
g69
I4
ssg70
g1403
sg63
(lp1410
g214
asbasbasbag56
(g72
g58
NtRp1411
(dp1412
g61
(dp1413
sg70
g1053
sg63
(lp1414
g56
(g77
g58
NtRp1415
(dp1416
g61
(dp1417
g81
g82
ssg70
g1411
sg63
(lp1418
S'http_web2py_component_location'
p1419
asbag56
(g77
g58
NtRp1420
(dp1421
g61
(dp1422
g88
g89
ssg70
g1411
sg63
(lp1423
S':'
asbag56
(g77
g58
NtRp1424
(dp1425
g61
(dp1426
sg70
g1411
sg63
(lp1427
g56
(g57
g58
NtRp1428
(dp1429
g61
(dp1430
g69
I4
ssg70
g1424
sg63
(lp1431
S'http://127.0.0.1:8000/topoi/plugin_listandedit/list/note/1'
p1432
asbasbasbag56
(g72
g58
NtRp1433
(dp1434
g61
(dp1435
sg70
g1053
sg63
(lp1436
g56
(g77
g58
NtRp1437
(dp1438
g61
(dp1439
g81
g82
ssg70
g1433
sg63
(lp1440
S'http_x_requested_with'
p1441
asbag56
(g77
g58
NtRp1442
(dp1443
g61
(dp1444
g88
g89
ssg70
g1433
sg63
(lp1445
S':'
asbag56
(g77
g58
NtRp1446
(dp1447
g61
(dp1448
sg70
g1433
sg63
(lp1449
g56
(g57
g58
NtRp1450
(dp1451
g61
(dp1452
g69
I4
ssg70
g1446
sg63
(lp1453
S'XMLHttpRequest'
p1454
asbasbasbag56
(g72
g58
NtRp1455
(dp1456
g61
(dp1457
sg70
g1053
sg63
(lp1458
g56
(g77
g58
NtRp1459
(dp1460
g61
(dp1461
g81
g82
ssg70
g1455
sg63
(lp1462
S'is_jython'
p1463
asbag56
(g77
g58
NtRp1464
(dp1465
g61
(dp1466
g88
g89
ssg70
g1455
sg63
(lp1467
S':'
asbag56
(g77
g58
NtRp1468
(dp1469
g61
(dp1470
sg70
g1455
sg63
(lp1471
g56
(g57
g58
NtRp1472
(dp1473
g61
(dp1474
g69
I4
ssg70
g1468
sg63
(lp1475
g1191
asbasbasbag56
(g72
g58
NtRp1476
(dp1477
g61
(dp1478
sg70
g1053
sg63
(lp1479
g56
(g77
g58
NtRp1480
(dp1481
g61
(dp1482
g81
g82
ssg70
g1476
sg63
(lp1483
S'path_info'
p1484
asbag56
(g77
g58
NtRp1485
(dp1486
g61
(dp1487
g88
g89
ssg70
g1476
sg63
(lp1488
S':'
asbag56
(g77
g58
NtRp1489
(dp1490
g61
(dp1491
sg70
g1476
sg63
(lp1492
g56
(g57
g58
NtRp1493
(dp1494
g61
(dp1495
g69
I4
ssg70
g1489
sg63
(lp1496
S'/topoi/plugin_listandedit/edit.load/notes/1'
p1497
asbasbasbag56
(g72
g58
NtRp1498
(dp1499
g61
(dp1500
sg70
g1053
sg63
(lp1501
g56
(g77
g58
NtRp1502
(dp1503
g61
(dp1504
g81
g82
ssg70
g1498
sg63
(lp1505
S'query_string'
p1506
asbag56
(g77
g58
NtRp1507
(dp1508
g61
(dp1509
g88
g89
ssg70
g1498
sg63
(lp1510
S':'
asbag56
(g77
g58
NtRp1511
(dp1512
g61
(dp1513
sg70
g1498
sg63
(lp1514
g56
(g57
g58
NtRp1515
(dp1516
g61
(dp1517
g69
I4
ssg70
g1511
sg63
(lp1518
S''
asbasbasbag56
(g72
g58
NtRp1519
(dp1520
g61
(dp1521
sg70
g1053
sg63
(lp1522
g56
(g77
g58
NtRp1523
(dp1524
g61
(dp1525
g81
g82
ssg70
g1519
sg63
(lp1526
S'remote_addr'
p1527
asbag56
(g77
g58
NtRp1528
(dp1529
g61
(dp1530
g88
g89
ssg70
g1519
sg63
(lp1531
S':'
asbag56
(g77
g58
NtRp1532
(dp1533
g61
(dp1534
sg70
g1519
sg63
(lp1535
g56
(g57
g58
NtRp1536
(dp1537
g61
(dp1538
g69
I4
ssg70
g1532
sg63
(lp1539
g236
asbasbasbag56
(g72
g58
NtRp1540
(dp1541
g61
(dp1542
sg70
g1053
sg63
(lp1543
g56
(g77
g58
NtRp1544
(dp1545
g61
(dp1546
g81
g82
ssg70
g1540
sg63
(lp1547
S'remote_port'
p1548
asbag56
(g77
g58
NtRp1549
(dp1550
g61
(dp1551
g88
g89
ssg70
g1540
sg63
(lp1552
S':'
asbag56
(g77
g58
NtRp1553
(dp1554
g61
(dp1555
sg70
g1540
sg63
(lp1556
g56
(g57
g58
NtRp1557
(dp1558
g61
(dp1559
g69
I4
ssg70
g1553
sg63
(lp1560
S'38837'
p1561
asbasbasbag56
(g72
g58
NtRp1562
(dp1563
g61
(dp1564
sg70
g1053
sg63
(lp1565
g56
(g77
g58
NtRp1566
(dp1567
g61
(dp1568
g81
g82
ssg70
g1562
sg63
(lp1569
S'request_method'
p1570
asbag56
(g77
g58
NtRp1571
(dp1572
g61
(dp1573
g88
g89
ssg70
g1562
sg63
(lp1574
S':'
asbag56
(g77
g58
NtRp1575
(dp1576
g61
(dp1577
sg70
g1562
sg63
(lp1578
g56
(g57
g58
NtRp1579
(dp1580
g61
(dp1581
g69
I4
ssg70
g1575
sg63
(lp1582
S'GET'
p1583
asbasbasbag56
(g72
g58
NtRp1584
(dp1585
g61
(dp1586
sg70
g1053
sg63
(lp1587
g56
(g77
g58
NtRp1588
(dp1589
g61
(dp1590
g81
g82
ssg70
g1584
sg63
(lp1591
S'script_name'
p1592
asbag56
(g77
g58
NtRp1593
(dp1594
g61
(dp1595
g88
g89
ssg70
g1584
sg63
(lp1596
S':'
asbag56
(g77
g58
NtRp1597
(dp1598
g61
(dp1599
sg70
g1584
sg63
(lp1600
g56
(g57
g58
NtRp1601
(dp1602
g61
(dp1603
g69
I4
ssg70
g1597
sg63
(lp1604
S''
asbasbasbag56
(g72
g58
NtRp1605
(dp1606
g61
(dp1607
sg70
g1053
sg63
(lp1608
g56
(g77
g58
NtRp1609
(dp1610
g61
(dp1611
g81
g82
ssg70
g1605
sg63
(lp1612
S'server_name'
p1613
asbag56
(g77
g58
NtRp1614
(dp1615
g61
(dp1616
g88
g89
ssg70
g1605
sg63
(lp1617
S':'
asbag56
(g77
g58
NtRp1618
(dp1619
g61
(dp1620
sg70
g1605
sg63
(lp1621
g56
(g57
g58
NtRp1622
(dp1623
g61
(dp1624
g69
I4
ssg70
g1618
sg63
(lp1625
S'uriel'
p1626
asbasbasbag56
(g72
g58
NtRp1627
(dp1628
g61
(dp1629
sg70
g1053
sg63
(lp1630
g56
(g77
g58
NtRp1631
(dp1632
g61
(dp1633
g81
g82
ssg70
g1627
sg63
(lp1634
S'server_port'
p1635
asbag56
(g77
g58
NtRp1636
(dp1637
g61
(dp1638
g88
g89
ssg70
g1627
sg63
(lp1639
S':'
asbag56
(g77
g58
NtRp1640
(dp1641
g61
(dp1642
sg70
g1627
sg63
(lp1643
g56
(g57
g58
NtRp1644
(dp1645
g61
(dp1646
g69
I4
ssg70
g1640
sg63
(lp1647
S'8000'
p1648
asbasbasbag56
(g72
g58
NtRp1649
(dp1650
g61
(dp1651
sg70
g1053
sg63
(lp1652
g56
(g77
g58
NtRp1653
(dp1654
g61
(dp1655
g81
g82
ssg70
g1649
sg63
(lp1656
S'server_protocol'
p1657
asbag56
(g77
g58
NtRp1658
(dp1659
g61
(dp1660
g88
g89
ssg70
g1649
sg63
(lp1661
S':'
asbag56
(g77
g58
NtRp1662
(dp1663
g61
(dp1664
sg70
g1649
sg63
(lp1665
g56
(g57
g58
NtRp1666
(dp1667
g61
(dp1668
g69
I4
ssg70
g1662
sg63
(lp1669
S'HTTP/1.1'
p1670
asbasbasbag56
(g72
g58
NtRp1671
(dp1672
g61
(dp1673
sg70
g1053
sg63
(lp1674
g56
(g77
g58
NtRp1675
(dp1676
g61
(dp1677
g81
g82
ssg70
g1671
sg63
(lp1678
S'server_software'
p1679
asbag56
(g77
g58
NtRp1680
(dp1681
g61
(dp1682
g88
g89
ssg70
g1671
sg63
(lp1683
S':'
asbag56
(g77
g58
NtRp1684
(dp1685
g61
(dp1686
sg70
g1671
sg63
(lp1687
g56
(g57
g58
NtRp1688
(dp1689
g61
(dp1690
g69
I4
ssg70
g1684
sg63
(lp1691
S'Rocket 1.2.4'
p1692
asbasbasbag56
(g72
g58
NtRp1693
(dp1694
g61
(dp1695
sg70
g1053
sg63
(lp1696
g56
(g77
g58
NtRp1697
(dp1698
g61
(dp1699
g81
g82
ssg70
g1693
sg63
(lp1700
S'web2py_crontype'
p1701
asbag56
(g77
g58
NtRp1702
(dp1703
g61
(dp1704
g88
g89
ssg70
g1693
sg63
(lp1705
S':'
asbag56
(g77
g58
NtRp1706
(dp1707
g61
(dp1708
sg70
g1693
sg63
(lp1709
g56
(g57
g58
NtRp1710
(dp1711
g61
(dp1712
g69
I4
ssg70
g1706
sg63
(lp1713
S'hard'
p1714
asbasbasbag56
(g72
g58
NtRp1715
(dp1716
g61
(dp1717
sg70
g1053
sg63
(lp1718
g56
(g77
g58
NtRp1719
(dp1720
g61
(dp1721
g81
g82
ssg70
g1715
sg63
(lp1722
S'web2py_path'
p1723
asbag56
(g77
g58
NtRp1724
(dp1725
g61
(dp1726
g88
g89
ssg70
g1715
sg63
(lp1727
S':'
asbag56
(g77
g58
NtRp1728
(dp1729
g61
(dp1730
sg70
g1715
sg63
(lp1731
g56
(g57
g58
NtRp1732
(dp1733
g61
(dp1734
g69
I4
ssg70
g1728
sg63
(lp1735
g1100
asbasbasbag56
(g72
g58
NtRp1736
(dp1737
g61
(dp1738
sg70
g1053
sg63
(lp1739
g56
(g77
g58
NtRp1740
(dp1741
g61
(dp1742
g81
g82
ssg70
g1736
sg63
(lp1743
S'web2py_version'
p1744
asbag56
(g77
g58
NtRp1745
(dp1746
g61
(dp1747
g88
g89
ssg70
g1736
sg63
(lp1748
S':'
asbag56
(g77
g58
NtRp1749
(dp1750
g61
(dp1751
sg70
g1736
sg63
(lp1752
g56
(g57
g58
NtRp1753
(dp1754
g61
(dp1755
g69
I4
ssg70
g1749
sg63
(lp1756
g56
(g65
g58
NtRp1757
(dp1758
g61
(dp1759
g69
I3
ssg70
Nsg63
(lp1760
g56
(g72
g58
NtRp1761
(dp1762
g61
(dp1763
sg70
g1757
sg63
(lp1764
g56
(g77
g58
NtRp1765
(dp1766
g61
(dp1767
sg70
g1761
sg63
(lp1768
g56
(g57
g58
NtRp1769
(dp1770
g61
(dp1771
g69
I3
ssg70
g1765
sg63
(lp1772
S'1'
asbasbasbag56
(g72
g58
NtRp1773
(dp1774
g61
(dp1775
sg70
g1757
sg63
(lp1776
g56
(g77
g58
NtRp1777
(dp1778
g61
(dp1779
sg70
g1773
sg63
(lp1780
g56
(g57
g58
NtRp1781
(dp1782
g61
(dp1783
g69
I3
ssg70
g1777
sg63
(lp1784
S'99'
p1785
asbasbasbag56
(g72
g58
NtRp1786
(dp1787
g61
(dp1788
sg70
g1757
sg63
(lp1789
g56
(g77
g58
NtRp1790
(dp1791
g61
(dp1792
sg70
g1786
sg63
(lp1793
g56
(g57
g58
NtRp1794
(dp1795
g61
(dp1796
g69
I3
ssg70
g1790
sg63
(lp1797
S'2'
asbasbasbag56
(g72
g58
NtRp1798
(dp1799
g61
(dp1800
sg70
g1757
sg63
(lp1801
g56
(g77
g58
NtRp1802
(dp1803
g61
(dp1804
sg70
g1798
sg63
(lp1805
g56
(g57
g58
NtRp1806
(dp1807
g61
(dp1808
g69
I3
ssg70
g1802
sg63
(lp1809
S'datetime.datetime(2011, 9, 26, 6, 55, 33)'
p1810
asbasbasbag56
(g72
g58
NtRp1811
(dp1812
g61
(dp1813
sg70
g1757
sg63
(lp1814
g56
(g77
g58
NtRp1815
(dp1816
g61
(dp1817
sg70
g1811
sg63
(lp1818
g56
(g57
g58
NtRp1819
(dp1820
g61
(dp1821
g69
I3
ssg70
g1815
sg63
(lp1822
S'stable'
p1823
asbasbasbasbasbasbasbag56
(g72
g58
NtRp1824
(dp1825
g61
(dp1826
sg70
g1053
sg63
(lp1827
g56
(g77
g58
NtRp1828
(dp1829
g61
(dp1830
g81
g82
ssg70
g1824
sg63
(lp1831
S'wsgi_errors'
p1832
asbag56
(g77
g58
NtRp1833
(dp1834
g61
(dp1835
g88
g89
ssg70
g1824
sg63
(lp1836
S':'
asbag56
(g77
g58
NtRp1837
(dp1838
g61
(dp1839
sg70
g1824
sg63
(lp1840
g56
(g57
g58
NtRp1841
(dp1842
g61
(dp1843
g69
I4
ssg70
g1837
sg63
(lp1844
S"<open file '<stderr>', mode 'w' at 0x7ff95b42d270>"
p1845
asbasbasbag56
(g72
g58
NtRp1846
(dp1847
g61
(dp1848
sg70
g1053
sg63
(lp1849
g56
(g77
g58
NtRp1850
(dp1851
g61
(dp1852
g81
g82
ssg70
g1846
sg63
(lp1853
S'wsgi_file_wrapper'
p1854
asbag56
(g77
g58
NtRp1855
(dp1856
g61
(dp1857
g88
g89
ssg70
g1846
sg63
(lp1858
S':'
asbag56
(g77
g58
NtRp1859
(dp1860
g61
(dp1861
sg70
g1846
sg63
(lp1862
g56
(g57
g58
NtRp1863
(dp1864
g61
(dp1865
g69
I4
ssg70
g1859
sg63
(lp1866
S'<class wsgiref.util.FileWrapper at 0x1721870>'
p1867
asbasbasbag56
(g72
g58
NtRp1868
(dp1869
g61
(dp1870
sg70
g1053
sg63
(lp1871
g56
(g77
g58
NtRp1872
(dp1873
g61
(dp1874
g81
g82
ssg70
g1868
sg63
(lp1875
S'wsgi_input'
p1876
asbag56
(g77
g58
NtRp1877
(dp1878
g61
(dp1879
g88
g89
ssg70
g1868
sg63
(lp1880
S':'
asbag56
(g77
g58
NtRp1881
(dp1882
g61
(dp1883
sg70
g1868
sg63
(lp1884
g56
(g57
g58
NtRp1885
(dp1886
g61
(dp1887
g69
I4
ssg70
g1881
sg63
(lp1888
S'<socket._fileobject object at 0x1d83c50>'
p1889
asbasbasbag56
(g72
g58
NtRp1890
(dp1891
g61
(dp1892
sg70
g1053
sg63
(lp1893
g56
(g77
g58
NtRp1894
(dp1895
g61
(dp1896
g81
g82
ssg70
g1890
sg63
(lp1897
S'wsgi_multiprocess'
p1898
asbag56
(g77
g58
NtRp1899
(dp1900
g61
(dp1901
g88
g89
ssg70
g1890
sg63
(lp1902
S':'
asbag56
(g77
g58
NtRp1903
(dp1904
g61
(dp1905
sg70
g1890
sg63
(lp1906
g56
(g57
g58
NtRp1907
(dp1908
g61
(dp1909
g69
I4
ssg70
g1903
sg63
(lp1910
g1191
asbasbasbag56
(g72
g58
NtRp1911
(dp1912
g61
(dp1913
sg70
g1053
sg63
(lp1914
g56
(g77
g58
NtRp1915
(dp1916
g61
(dp1917
g81
g82
ssg70
g1911
sg63
(lp1918
S'wsgi_multithread'
p1919
asbag56
(g77
g58
NtRp1920
(dp1921
g61
(dp1922
g88
g89
ssg70
g1911
sg63
(lp1923
S':'
asbag56
(g77
g58
NtRp1924
(dp1925
g61
(dp1926
sg70
g1911
sg63
(lp1927
g56
(g57
g58
NtRp1928
(dp1929
g61
(dp1930
g69
I4
ssg70
g1924
sg63
(lp1931
g99
asbasbasbag56
(g72
g58
NtRp1932
(dp1933
g61
(dp1934
sg70
g1053
sg63
(lp1935
g56
(g77
g58
NtRp1936
(dp1937
g61
(dp1938
g81
g82
ssg70
g1932
sg63
(lp1939
S'wsgi_run_once'
p1940
asbag56
(g77
g58
NtRp1941
(dp1942
g61
(dp1943
g88
g89
ssg70
g1932
sg63
(lp1944
S':'
asbag56
(g77
g58
NtRp1945
(dp1946
g61
(dp1947
sg70
g1932
sg63
(lp1948
g56
(g57
g58
NtRp1949
(dp1950
g61
(dp1951
g69
I4
ssg70
g1945
sg63
(lp1952
g1191
asbasbasbag56
(g72
g58
NtRp1953
(dp1954
g61
(dp1955
sg70
g1053
sg63
(lp1956
g56
(g77
g58
NtRp1957
(dp1958
g61
(dp1959
g81
g82
ssg70
g1953
sg63
(lp1960
S'wsgi_url_scheme'
p1961
asbag56
(g77
g58
NtRp1962
(dp1963
g61
(dp1964
g88
g89
ssg70
g1953
sg63
(lp1965
S':'
asbag56
(g77
g58
NtRp1966
(dp1967
g61
(dp1968
sg70
g1953
sg63
(lp1969
g56
(g57
g58
NtRp1970
(dp1971
g61
(dp1972
g69
I4
ssg70
g1966
sg63
(lp1973
S'http'
p1974
asbasbasbag56
(g72
g58
NtRp1975
(dp1976
g61
(dp1977
sg70
g1053
sg63
(lp1978
g56
(g77
g58
NtRp1979
(dp1980
g61
(dp1981
g81
g82
ssg70
g1975
sg63
(lp1982
S'wsgi_version'
p1983
asbag56
(g77
g58
NtRp1984
(dp1985
g61
(dp1986
g88
g89
ssg70
g1975
sg63
(lp1987
S':'
asbag56
(g77
g58
NtRp1988
(dp1989
g61
(dp1990
sg70
g1975
sg63
(lp1991
g56
(g57
g58
NtRp1992
(dp1993
g61
(dp1994
g69
I4
ssg70
g1988
sg63
(lp1995
g56
(g65
g58
NtRp1996
(dp1997
g61
(dp1998
g69
I3
ssg70
Nsg63
(lp1999
g56
(g72
g58
NtRp2000
(dp2001
g61
(dp2002
sg70
g1996
sg63
(lp2003
g56
(g77
g58
NtRp2004
(dp2005
g61
(dp2006
sg70
g2000
sg63
(lp2007
g56
(g57
g58
NtRp2008
(dp2009
g61
(dp2010
g69
I3
ssg70
g2004
sg63
(lp2011
S'1'
asbasbasbag56
(g72
g58
NtRp2012
(dp2013
g61
(dp2014
sg70
g1996
sg63
(lp2015
g56
(g77
g58
NtRp2016
(dp2017
g61
(dp2018
sg70
g2012
sg63
(lp2019
g56
(g57
g58
NtRp2020
(dp2021
g61
(dp2022
g69
I3
ssg70
g2016
sg63
(lp2023
S'0'
asbasbasbasbasbasbasbasbasbasbasbag56
(g72
g58
NtRp2024
(dp2025
g61
(dp2026
sg70
g66
sg63
(lp2027
g56
(g77
g58
NtRp2028
(dp2029
g61
(dp2030
g81
g82
ssg70
g2024
sg63
(lp2031
S'extension'
p2032
asbag56
(g77
g58
NtRp2033
(dp2034
g61
(dp2035
g88
g89
ssg70
g2024
sg63
(lp2036
S':'
asbag56
(g77
g58
NtRp2037
(dp2038
g61
(dp2039
sg70
g2024
sg63
(lp2040
g56
(g57
g58
NtRp2041
(dp2042
g61
(dp2043
g69
I5
ssg70
g2037
sg63
(lp2044
S'load'
p2045
asbasbasbag56
(g72
g58
NtRp2046
(dp2047
g61
(dp2048
sg70
g66
sg63
(lp2049
g56
(g77
g58
NtRp2050
(dp2051
g61
(dp2052
g81
g82
ssg70
g2046
sg63
(lp2053
S'folder'
p2054
asbag56
(g77
g58
NtRp2055
(dp2056
g61
(dp2057
g88
g89
ssg70
g2046
sg63
(lp2058
S':'
asbag56
(g77
g58
NtRp2059
(dp2060
g61
(dp2061
sg70
g2046
sg63
(lp2062
g56
(g57
g58
NtRp2063
(dp2064
g61
(dp2065
g69
I5
ssg70
g2059
sg63
(lp2066
S'/home/ian/web2py/applications/topoi/'
p2067
asbasbasbag56
(g72
g58
NtRp2068
(dp2069
g61
(dp2070
sg70
g66
sg63
(lp2071
g56
(g77
g58
NtRp2072
(dp2073
g61
(dp2074
g81
g82
ssg70
g2068
sg63
(lp2075
S'function'
p2076
asbag56
(g77
g58
NtRp2077
(dp2078
g61
(dp2079
g88
g89
ssg70
g2068
sg63
(lp2080
S':'
asbag56
(g77
g58
NtRp2081
(dp2082
g61
(dp2083
sg70
g2068
sg63
(lp2084
g56
(g57
g58
NtRp2085
(dp2086
g61
(dp2087
g69
I5
ssg70
g2081
sg63
(lp2088
S'edit'
p2089
asbasbasbag56
(g72
g58
NtRp2090
(dp2091
g61
(dp2092
sg70
g66
sg63
(lp2093
g56
(g77
g58
NtRp2094
(dp2095
g61
(dp2096
g81
g82
ssg70
g2090
sg63
(lp2097
S'get_vars'
p2098
asbag56
(g77
g58
NtRp2099
(dp2100
g61
(dp2101
g88
g89
ssg70
g2090
sg63
(lp2102
S':'
asbag56
(g77
g58
NtRp2103
(dp2104
g61
(dp2105
sg70
g2090
sg63
(lp2106
g56
(g57
g58
NtRp2107
(dp2108
g61
(dp2109
g69
I5
ssg70
g2103
sg63
(lp2110
g56
(g65
g58
NtRp2111
(dp2112
g61
(dp2113
g69
I4
ssg70
Nsg63
(lp2114
sbasbasbasbag56
(g72
g58
NtRp2115
(dp2116
g61
(dp2117
sg70
g66
sg63
(lp2118
g56
(g77
g58
NtRp2119
(dp2120
g61
(dp2121
g81
g82
ssg70
g2115
sg63
(lp2122
S'global_settings'
p2123
asbag56
(g77
g58
NtRp2124
(dp2125
g61
(dp2126
g88
g89
ssg70
g2115
sg63
(lp2127
S':'
asbag56
(g77
g58
NtRp2128
(dp2129
g61
(dp2130
sg70
g2115
sg63
(lp2131
g56
(g57
g58
NtRp2132
(dp2133
g61
(dp2134
g69
I5
ssg70
g2128
sg63
(lp2135
g56
(g65
g58
NtRp2136
(dp2137
g61
(dp2138
g69
I4
ssg70
Nsg63
(lp2139
g56
(g72
g58
NtRp2140
(dp2141
g61
(dp2142
sg70
g2136
sg63
(lp2143
g56
(g77
g58
NtRp2144
(dp2145
g61
(dp2146
g81
g82
ssg70
g2140
sg63
(lp2147
g1065
asbag56
(g77
g58
NtRp2148
(dp2149
g61
(dp2150
g88
g89
ssg70
g2140
sg63
(lp2151
S':'
asbag56
(g77
g58
NtRp2152
(dp2153
g61
(dp2154
sg70
g2140
sg63
(lp2155
g56
(g57
g58
NtRp2156
(dp2157
g61
(dp2158
g69
I4
ssg70
g2152
sg63
(lp2159
S"set(['/home/ian/web2py/applications/topoi/', '/home/ian/web2py/applications/welcome/'])"
p2160
asbasbasbag56
(g72
g58
NtRp2161
(dp2162
g61
(dp2163
sg70
g2136
sg63
(lp2164
g56
(g77
g58
NtRp2165
(dp2166
g61
(dp2167
g81
g82
ssg70
g2161
sg63
(lp2168
g1087
asbag56
(g77
g58
NtRp2169
(dp2170
g61
(dp2171
g88
g89
ssg70
g2161
sg63
(lp2172
S':'
asbag56
(g77
g58
NtRp2173
(dp2174
g61
(dp2175
sg70
g2161
sg63
(lp2176
g56
(g57
g58
NtRp2177
(dp2178
g61
(dp2179
g69
I4
ssg70
g2173
sg63
(lp2180
g1100
asbasbasbag56
(g72
g58
NtRp2181
(dp2182
g61
(dp2183
sg70
g2136
sg63
(lp2184
g56
(g77
g58
NtRp2185
(dp2186
g61
(dp2187
g81
g82
ssg70
g2181
sg63
(lp2188
g1109
asbag56
(g77
g58
NtRp2189
(dp2190
g61
(dp2191
g88
g89
ssg70
g2181
sg63
(lp2192
S':'
asbag56
(g77
g58
NtRp2193
(dp2194
g61
(dp2195
sg70
g2181
sg63
(lp2196
g56
(g57
g58
NtRp2197
(dp2198
g61
(dp2199
g69
I4
ssg70
g2193
sg63
(lp2200
g56
(g65
g58
NtRp2201
(dp2202
g61
(dp2203
g69
I3
ssg70
Nsg63
(lp2204
sbasbasbasbag56
(g72
g58
NtRp2205
(dp2206
g61
(dp2207
sg70
g2136
sg63
(lp2208
g56
(g77
g58
NtRp2209
(dp2210
g61
(dp2211
g81
g82
ssg70
g2205
sg63
(lp2212
g1134
asbag56
(g77
g58
NtRp2213
(dp2214
g61
(dp2215
g88
g89
ssg70
g2205
sg63
(lp2216
S':'
asbag56
(g77
g58
NtRp2217
(dp2218
g61
(dp2219
sg70
g2205
sg63
(lp2220
g56
(g57
g58
NtRp2221
(dp2222
g61
(dp2223
g69
I4
ssg70
g2217
sg63
(lp2224
S"<Values at 0x1856758: {'verbose': False, 'ip': '127.0.0.1', 'shutdown_timeout': 5, 'taskbar': False, 'nocron': False, 'pid_filename': 'httpserver.pid', 'maxthreads': None, 'softcron': False, 'server_name': 'uriel', 'bpython': False, 'nogui': False, 'port': 8000, 'extcron': False, 'debuglevel': 30, 'test': None, 'folder': '/home/ian/web2py', 'config': '', 'import_models': False, 'winservice': '', 'shell': None, 'run': '', 'log_filename': 'httpserver.log', 'args': [''], 'ssl_ca_certificate': None, 'scheduler': None, 'profiler_filename': None, 'ssl_private_key': '', 'password': '<ask>', 'request_queue_size': 5, 'ssl_certificate': '', 'cronjob': False, 'plain': False, 'quiet': False, 'interfaces': None, 'minthreads': None, 'timeout': 10, 'numthreads': None, 'nobanner': False}>"
p2225
asbasbasbag56
(g72
g58
NtRp2226
(dp2227
g61
(dp2228
sg70
g2136
sg63
(lp2229
g56
(g77
g58
NtRp2230
(dp2231
g61
(dp2232
g81
g82
ssg70
g2226
sg63
(lp2233
g1156
asbag56
(g77
g58
NtRp2234
(dp2235
g61
(dp2236
g88
g89
ssg70
g2226
sg63
(lp2237
S':'
asbag56
(g77
g58
NtRp2238
(dp2239
g61
(dp2240
sg70
g2226
sg63
(lp2241
g56
(g57
g58
NtRp2242
(dp2243
g61
(dp2244
g69
I4
ssg70
g2238
sg63
(lp2245
S'set([])'
p2246
asbasbasbag56
(g72
g58
NtRp2247
(dp2248
g61
(dp2249
sg70
g2136
sg63
(lp2250
g56
(g77
g58
NtRp2251
(dp2252
g61
(dp2253
g81
g82
ssg70
g2247
sg63
(lp2254
g1178
asbag56
(g77
g58
NtRp2255
(dp2256
g61
(dp2257
g88
g89
ssg70
g2247
sg63
(lp2258
S':'
asbag56
(g77
g58
NtRp2259
(dp2260
g61
(dp2261
sg70
g2247
sg63
(lp2262
g56
(g57
g58
NtRp2263
(dp2264
g61
(dp2265
g69
I4
ssg70
g2259
sg63
(lp2266
g1191
asbasbasbag56
(g72
g58
NtRp2267
(dp2268
g61
(dp2269
sg70
g2136
sg63
(lp2270
g56
(g77
g58
NtRp2271
(dp2272
g61
(dp2273
g81
g82
ssg70
g2267
sg63
(lp2274
g1200
asbag56
(g77
g58
NtRp2275
(dp2276
g61
(dp2277
g88
g89
ssg70
g2267
sg63
(lp2278
S':'
asbag56
(g77
g58
NtRp2279
(dp2280
g61
(dp2281
sg70
g2267
sg63
(lp2282
g56
(g57
g58
NtRp2283
(dp2284
g61
(dp2285
g69
I4
ssg70
g2279
sg63
(lp2286
g1213
asbasbasbag56
(g72
g58
NtRp2287
(dp2288
g61
(dp2289
sg70
g2136
sg63
(lp2290
g56
(g77
g58
NtRp2291
(dp2292
g61
(dp2293
g81
g82
ssg70
g2287
sg63
(lp2294
g1463
asbag56
(g77
g58
NtRp2295
(dp2296
g61
(dp2297
g88
g89
ssg70
g2287
sg63
(lp2298
S':'
asbag56
(g77
g58
NtRp2299
(dp2300
g61
(dp2301
sg70
g2287
sg63
(lp2302
g56
(g57
g58
NtRp2303
(dp2304
g61
(dp2305
g69
I4
ssg70
g2299
sg63
(lp2306
g1191
asbasbasbag56
(g72
g58
NtRp2307
(dp2308
g61
(dp2309
sg70
g2136
sg63
(lp2310
g56
(g77
g58
NtRp2311
(dp2312
g61
(dp2313
g81
g82
ssg70
g2307
sg63
(lp2314
g1701
asbag56
(g77
g58
NtRp2315
(dp2316
g61
(dp2317
g88
g89
ssg70
g2307
sg63
(lp2318
S':'
asbag56
(g77
g58
NtRp2319
(dp2320
g61
(dp2321
sg70
g2307
sg63
(lp2322
g56
(g57
g58
NtRp2323
(dp2324
g61
(dp2325
g69
I4
ssg70
g2319
sg63
(lp2326
g1714
asbasbasbag56
(g72
g58
NtRp2327
(dp2328
g61
(dp2329
sg70
g2136
sg63
(lp2330
g56
(g77
g58
NtRp2331
(dp2332
g61
(dp2333
g81
g82
ssg70
g2327
sg63
(lp2334
g1744
asbag56
(g77
g58
NtRp2335
(dp2336
g61
(dp2337
g88
g89
ssg70
g2327
sg63
(lp2338
S':'
asbag56
(g77
g58
NtRp2339
(dp2340
g61
(dp2341
sg70
g2327
sg63
(lp2342
g56
(g57
g58
NtRp2343
(dp2344
g61
(dp2345
g69
I4
ssg70
g2339
sg63
(lp2346
g56
(g65
g58
NtRp2347
(dp2348
g61
(dp2349
g69
I3
ssg70
Nsg63
(lp2350
g56
(g72
g58
NtRp2351
(dp2352
g61
(dp2353
sg70
g2347
sg63
(lp2354
g56
(g77
g58
NtRp2355
(dp2356
g61
(dp2357
sg70
g2351
sg63
(lp2358
g56
(g57
g58
NtRp2359
(dp2360
g61
(dp2361
g69
I3
ssg70
g2355
sg63
(lp2362
S'1'
asbasbasbag56
(g72
g58
NtRp2363
(dp2364
g61
(dp2365
sg70
g2347
sg63
(lp2366
g56
(g77
g58
NtRp2367
(dp2368
g61
(dp2369
sg70
g2363
sg63
(lp2370
g56
(g57
g58
NtRp2371
(dp2372
g61
(dp2373
g69
I3
ssg70
g2367
sg63
(lp2374
S'99'
p2375
asbasbasbag56
(g72
g58
NtRp2376
(dp2377
g61
(dp2378
sg70
g2347
sg63
(lp2379
g56
(g77
g58
NtRp2380
(dp2381
g61
(dp2382
sg70
g2376
sg63
(lp2383
g56
(g57
g58
NtRp2384
(dp2385
g61
(dp2386
g69
I3
ssg70
g2380
sg63
(lp2387
S'2'
asbasbasbag56
(g72
g58
NtRp2388
(dp2389
g61
(dp2390
sg70
g2347
sg63
(lp2391
g56
(g77
g58
NtRp2392
(dp2393
g61
(dp2394
sg70
g2388
sg63
(lp2395
g56
(g57
g58
NtRp2396
(dp2397
g61
(dp2398
g69
I3
ssg70
g2392
sg63
(lp2399
S'datetime.datetime(2011, 9, 26, 6, 55, 33)'
p2400
asbasbasbag56
(g72
g58
NtRp2401
(dp2402
g61
(dp2403
sg70
g2347
sg63
(lp2404
g56
(g77
g58
NtRp2405
(dp2406
g61
(dp2407
sg70
g2401
sg63
(lp2408
g56
(g57
g58
NtRp2409
(dp2410
g61
(dp2411
g69
I3
ssg70
g2405
sg63
(lp2412
g1823
asbasbasbasbasbasbasbasbasbasbasbag56
(g72
g58
NtRp2413
(dp2414
g61
(dp2415
sg70
g66
sg63
(lp2416
g56
(g77
g58
NtRp2417
(dp2418
g61
(dp2419
g81
g82
ssg70
g2413
sg63
(lp2420
S'is_https'
p2421
asbag56
(g77
g58
NtRp2422
(dp2423
g61
(dp2424
g88
g89
ssg70
g2413
sg63
(lp2425
S':'
asbag56
(g77
g58
NtRp2426
(dp2427
g61
(dp2428
sg70
g2413
sg63
(lp2429
g56
(g57
g58
NtRp2430
(dp2431
g61
(dp2432
g69
I5
ssg70
g2426
sg63
(lp2433
g1191
asbasbasbag56
(g72
g58
NtRp2434
(dp2435
g61
(dp2436
sg70
g66
sg63
(lp2437
g56
(g77
g58
NtRp2438
(dp2439
g61
(dp2440
g81
g82
ssg70
g2434
sg63
(lp2441
S'is_local'
p2442
asbag56
(g77
g58
NtRp2443
(dp2444
g61
(dp2445
g88
g89
ssg70
g2434
sg63
(lp2446
S':'
asbag56
(g77
g58
NtRp2447
(dp2448
g61
(dp2449
sg70
g2434
sg63
(lp2450
g56
(g57
g58
NtRp2451
(dp2452
g61
(dp2453
g69
I5
ssg70
g2447
sg63
(lp2454
g99
asbasbasbag56
(g72
g58
NtRp2455
(dp2456
g61
(dp2457
sg70
g66
sg63
(lp2458
g56
(g77
g58
NtRp2459
(dp2460
g61
(dp2461
g81
g82
ssg70
g2455
sg63
(lp2462
S'is_restful'
p2463
asbag56
(g77
g58
NtRp2464
(dp2465
g61
(dp2466
g88
g89
ssg70
g2455
sg63
(lp2467
S':'
asbag56
(g77
g58
NtRp2468
(dp2469
g61
(dp2470
sg70
g2455
sg63
(lp2471
g56
(g57
g58
NtRp2472
(dp2473
g61
(dp2474
g69
I5
ssg70
g2468
sg63
(lp2475
g1191
asbasbasbag56
(g72
g58
NtRp2476
(dp2477
g61
(dp2478
sg70
g66
sg63
(lp2479
g56
(g77
g58
NtRp2480
(dp2481
g61
(dp2482
g81
g82
ssg70
g2476
sg63
(lp2483
S'now'
p2484
asbag56
(g77
g58
NtRp2485
(dp2486
g61
(dp2487
g88
g89
ssg70
g2476
sg63
(lp2488
S':'
asbag56
(g77
g58
NtRp2489
(dp2490
g61
(dp2491
sg70
g2476
sg63
(lp2492
g56
(g57
g58
NtRp2493
(dp2494
g61
(dp2495
g69
I5
ssg70
g2489
sg63
(lp2496
S'datetime.datetime(2011, 11, 25, 18, 19, 54, 59190)'
p2497
asbasbasbag56
(g72
g58
NtRp2498
(dp2499
g61
(dp2500
sg70
g66
sg63
(lp2501
g56
(g77
g58
NtRp2502
(dp2503
g61
(dp2504
g81
g82
ssg70
g2498
sg63
(lp2505
S'post_vars'
p2506
asbag56
(g77
g58
NtRp2507
(dp2508
g61
(dp2509
g88
g89
ssg70
g2498
sg63
(lp2510
S':'
asbag56
(g77
g58
NtRp2511
(dp2512
g61
(dp2513
sg70
g2498
sg63
(lp2514
g56
(g57
g58
NtRp2515
(dp2516
g61
(dp2517
g69
I5
ssg70
g2511
sg63
(lp2518
g56
(g65
g58
NtRp2519
(dp2520
g61
(dp2521
g69
I4
ssg70
Nsg63
(lp2522
sbasbasbasbag56
(g72
g58
NtRp2523
(dp2524
g61
(dp2525
sg70
g66
sg63
(lp2526
g56
(g77
g58
NtRp2527
(dp2528
g61
(dp2529
g81
g82
ssg70
g2523
sg63
(lp2530
S'raw_args'
p2531
asbag56
(g77
g58
NtRp2532
(dp2533
g61
(dp2534
g88
g89
ssg70
g2523
sg63
(lp2535
S':'
asbag56
(g77
g58
NtRp2536
(dp2537
g61
(dp2538
sg70
g2523
sg63
(lp2539
g56
(g57
g58
NtRp2540
(dp2541
g61
(dp2542
g69
I5
ssg70
g2536
sg63
(lp2543
S'notes/1'
p2544
asbasbasbag56
(g72
g58
NtRp2545
(dp2546
g61
(dp2547
sg70
g66
sg63
(lp2548
g56
(g77
g58
NtRp2549
(dp2550
g61
(dp2551
g81
g82
ssg70
g2545
sg63
(lp2552
S'raw_extension'
p2553
asbag56
(g77
g58
NtRp2554
(dp2555
g61
(dp2556
g88
g89
ssg70
g2545
sg63
(lp2557
S':'
asbag56
(g77
g58
NtRp2558
(dp2559
g61
(dp2560
sg70
g2545
sg63
(lp2561
g56
(g57
g58
NtRp2562
(dp2563
g61
(dp2564
g69
I5
ssg70
g2558
sg63
(lp2565
g2045
asbasbasbag56
(g72
g58
NtRp2566
(dp2567
g61
(dp2568
sg70
g66
sg63
(lp2569
g56
(g77
g58
NtRp2570
(dp2571
g61
(dp2572
g81
g82
ssg70
g2566
sg63
(lp2573
S'url'
p2574
asbag56
(g77
g58
NtRp2575
(dp2576
g61
(dp2577
g88
g89
ssg70
g2566
sg63
(lp2578
S':'
asbag56
(g77
g58
NtRp2579
(dp2580
g61
(dp2581
sg70
g2566
sg63
(lp2582
g56
(g57
g58
NtRp2583
(dp2584
g61
(dp2585
g69
I5
ssg70
g2579
sg63
(lp2586
S'/topoi/plugin_listandedit/edit.load/notes/1'
p2587
asbasbasbag56
(g72
g58
NtRp2588
(dp2589
g61
(dp2590
sg70
g66
sg63
(lp2591
g56
(g77
g58
NtRp2592
(dp2593
g61
(dp2594
g81
g82
ssg70
g2588
sg63
(lp2595
S'utcnow'
p2596
asbag56
(g77
g58
NtRp2597
(dp2598
g61
(dp2599
g88
g89
ssg70
g2588
sg63
(lp2600
S':'
asbag56
(g77
g58
NtRp2601
(dp2602
g61
(dp2603
sg70
g2588
sg63
(lp2604
g56
(g57
g58
NtRp2605
(dp2606
g61
(dp2607
g69
I5
ssg70
g2601
sg63
(lp2608
S'datetime.datetime(2011, 11, 25, 23, 19, 54, 59245)'
p2609
asbasbasbag56
(g72
g58
NtRp2610
(dp2611
g61
(dp2612
sg70
g66
sg63
(lp2613
g56
(g77
g58
NtRp2614
(dp2615
g61
(dp2616
g81
g82
ssg70
g2610
sg63
(lp2617
S'uuid'
p2618
asbag56
(g77
g58
NtRp2619
(dp2620
g61
(dp2621
g88
g89
ssg70
g2610
sg63
(lp2622
S':'
asbag56
(g77
g58
NtRp2623
(dp2624
g61
(dp2625
sg70
g2610
sg63
(lp2626
g56
(g57
g58
NtRp2627
(dp2628
g61
(dp2629
g69
I5
ssg70
g2623
sg63
(lp2630
S'topoi/127.0.0.1.2011-11-25.18-19-54.957f265f-1219-45a5-8e81-f7df785ad0be'
p2631
asbasbasbag56
(g72
g58
NtRp2632
(dp2633
g61
(dp2634
sg70
g66
sg63
(lp2635
g56
(g77
g58
NtRp2636
(dp2637
g61
(dp2638
g81
g82
ssg70
g2632
sg63
(lp2639
S'vars'
p2640
asbag56
(g77
g58
NtRp2641
(dp2642
g61
(dp2643
g88
g89
ssg70
g2632
sg63
(lp2644
S':'
asbag56
(g77
g58
NtRp2645
(dp2646
g61
(dp2647
sg70
g2632
sg63
(lp2648
g56
(g57
g58
NtRp2649
(dp2650
g61
(dp2651
g69
I5
ssg70
g2645
sg63
(lp2652
g56
(g65
g58
NtRp2653
(dp2654
g61
(dp2655
g69
I4
ssg70
Nsg63
(lp2656
sbasbasbasbag56
(g72
g58
NtRp2657
(dp2658
g61
(dp2659
sg70
g66
sg63
(lp2660
g56
(g77
g58
NtRp2661
(dp2662
g61
(dp2663
g81
g82
ssg70
g2657
sg63
(lp2664
S'wsgi'
p2665
asbag56
(g77
g58
NtRp2666
(dp2667
g61
(dp2668
g88
g89
ssg70
g2657
sg63
(lp2669
S':'
asbag56
(g77
g58
NtRp2670
(dp2671
g61
(dp2672
sg70
g2657
sg63
(lp2673
g56
(g57
g58
NtRp2674
(dp2675
g61
(dp2676
g69
I5
ssg70
g2670
sg63
(lp2677
g56
(g65
g58
NtRp2678
(dp2679
g61
(dp2680
g69
I4
ssg70
Nsg63
(lp2681
g56
(g72
g58
NtRp2682
(dp2683
g61
(dp2684
sg70
g2678
sg63
(lp2685
g56
(g77
g58
NtRp2686
(dp2687
g61
(dp2688
g81
g82
ssg70
g2682
sg63
(lp2689
S'environ'
p2690
asbag56
(g77
g58
NtRp2691
(dp2692
g61
(dp2693
g88
g89
ssg70
g2682
sg63
(lp2694
S':'
asbag56
(g77
g58
NtRp2695
(dp2696
g61
(dp2697
sg70
g2682
sg63
(lp2698
g56
(g57
g58
NtRp2699
(dp2700
g61
(dp2701
g69
I4
ssg70
g2695
sg63
(lp2702
g56
(g65
g58
NtRp2703
(dp2704
g61
(dp2705
g69
I3
ssg70
Nsg63
(lp2706
g56
(g72
g58
NtRp2707
(dp2708
g61
(dp2709
sg70
g2703
sg63
(lp2710
g56
(g77
g58
NtRp2711
(dp2712
g61
(dp2713
g81
g82
ssg70
g2707
sg63
(lp2714
S'HTTP_ACCEPT'
p2715
asbag56
(g77
g58
NtRp2716
(dp2717
g61
(dp2718
g88
g89
ssg70
g2707
sg63
(lp2719
S':'
asbag56
(g77
g58
NtRp2720
(dp2721
g61
(dp2722
sg70
g2707
sg63
(lp2723
g56
(g57
g58
NtRp2724
(dp2725
g61
(dp2726
g69
I3
ssg70
g2720
sg63
(lp2727
g1235
asbasbasbag56
(g72
g58
NtRp2728
(dp2729
g61
(dp2730
sg70
g2703
sg63
(lp2731
g56
(g77
g58
NtRp2732
(dp2733
g61
(dp2734
g81
g82
ssg70
g2728
sg63
(lp2735
S'HTTP_ACCEPT_ENCODING'
p2736
asbag56
(g77
g58
NtRp2737
(dp2738
g61
(dp2739
g88
g89
ssg70
g2728
sg63
(lp2740
S':'
asbag56
(g77
g58
NtRp2741
(dp2742
g61
(dp2743
sg70
g2728
sg63
(lp2744
g56
(g57
g58
NtRp2745
(dp2746
g61
(dp2747
g69
I3
ssg70
g2741
sg63
(lp2748
g1257
asbasbasbag56
(g72
g58
NtRp2749
(dp2750
g61
(dp2751
sg70
g2703
sg63
(lp2752
g56
(g77
g58
NtRp2753
(dp2754
g61
(dp2755
g81
g82
ssg70
g2749
sg63
(lp2756
S'HTTP_ACCEPT_LANGUAGE'
p2757
asbag56
(g77
g58
NtRp2758
(dp2759
g61
(dp2760
g88
g89
ssg70
g2749
sg63
(lp2761
S':'
asbag56
(g77
g58
NtRp2762
(dp2763
g61
(dp2764
sg70
g2749
sg63
(lp2765
g56
(g57
g58
NtRp2766
(dp2767
g61
(dp2768
g69
I3
ssg70
g2762
sg63
(lp2769
g1279
asbasbasbag56
(g72
g58
NtRp2770
(dp2771
g61
(dp2772
sg70
g2703
sg63
(lp2773
g56
(g77
g58
NtRp2774
(dp2775
g61
(dp2776
g81
g82
ssg70
g2770
sg63
(lp2777
S'HTTP_CONNECTION'
p2778
asbag56
(g77
g58
NtRp2779
(dp2780
g61
(dp2781
g88
g89
ssg70
g2770
sg63
(lp2782
S':'
asbag56
(g77
g58
NtRp2783
(dp2784
g61
(dp2785
sg70
g2770
sg63
(lp2786
g56
(g57
g58
NtRp2787
(dp2788
g61
(dp2789
g69
I3
ssg70
g2783
sg63
(lp2790
g1301
asbasbasbag56
(g72
g58
NtRp2791
(dp2792
g61
(dp2793
sg70
g2703
sg63
(lp2794
g56
(g77
g58
NtRp2795
(dp2796
g61
(dp2797
g81
g82
ssg70
g2791
sg63
(lp2798
S'HTTP_COOKIE'
p2799
asbag56
(g77
g58
NtRp2800
(dp2801
g61
(dp2802
g88
g89
ssg70
g2791
sg63
(lp2803
S':'
asbag56
(g77
g58
NtRp2804
(dp2805
g61
(dp2806
sg70
g2791
sg63
(lp2807
g56
(g57
g58
NtRp2808
(dp2809
g61
(dp2810
g69
I3
ssg70
g2804
sg63
(lp2811
g1323
asbasbasbag56
(g72
g58
NtRp2812
(dp2813
g61
(dp2814
sg70
g2703
sg63
(lp2815
g56
(g77
g58
NtRp2816
(dp2817
g61
(dp2818
g81
g82
ssg70
g2812
sg63
(lp2819
S'HTTP_HOST'
p2820
asbag56
(g77
g58
NtRp2821
(dp2822
g61
(dp2823
g88
g89
ssg70
g2812
sg63
(lp2824
S':'
asbag56
(g77
g58
NtRp2825
(dp2826
g61
(dp2827
sg70
g2812
sg63
(lp2828
g56
(g57
g58
NtRp2829
(dp2830
g61
(dp2831
g69
I3
ssg70
g2825
sg63
(lp2832
g1345
asbasbasbag56
(g72
g58
NtRp2833
(dp2834
g61
(dp2835
sg70
g2703
sg63
(lp2836
g56
(g77
g58
NtRp2837
(dp2838
g61
(dp2839
g81
g82
ssg70
g2833
sg63
(lp2840
S'HTTP_REFERER'
p2841
asbag56
(g77
g58
NtRp2842
(dp2843
g61
(dp2844
g88
g89
ssg70
g2833
sg63
(lp2845
S':'
asbag56
(g77
g58
NtRp2846
(dp2847
g61
(dp2848
sg70
g2833
sg63
(lp2849
g56
(g57
g58
NtRp2850
(dp2851
g61
(dp2852
g69
I3
ssg70
g2846
sg63
(lp2853
g1367
asbasbasbag56
(g72
g58
NtRp2854
(dp2855
g61
(dp2856
sg70
g2703
sg63
(lp2857
g56
(g77
g58
NtRp2858
(dp2859
g61
(dp2860
g81
g82
ssg70
g2854
sg63
(lp2861
S'HTTP_USER_AGENT'
p2862
asbag56
(g77
g58
NtRp2863
(dp2864
g61
(dp2865
g88
g89
ssg70
g2854
sg63
(lp2866
S':'
asbag56
(g77
g58
NtRp2867
(dp2868
g61
(dp2869
sg70
g2854
sg63
(lp2870
g56
(g57
g58
NtRp2871
(dp2872
g61
(dp2873
g69
I3
ssg70
g2867
sg63
(lp2874
g1389
asbasbasbag56
(g72
g58
NtRp2875
(dp2876
g61
(dp2877
sg70
g2703
sg63
(lp2878
g56
(g77
g58
NtRp2879
(dp2880
g61
(dp2881
g81
g82
ssg70
g2875
sg63
(lp2882
S'HTTP_WEB2PY_COMPONENT_ELEMENT'
p2883
asbag56
(g77
g58
NtRp2884
(dp2885
g61
(dp2886
g88
g89
ssg70
g2875
sg63
(lp2887
S':'
asbag56
(g77
g58
NtRp2888
(dp2889
g61
(dp2890
sg70
g2875
sg63
(lp2891
g56
(g57
g58
NtRp2892
(dp2893
g61
(dp2894
g69
I3
ssg70
g2888
sg63
(lp2895
g214
asbasbasbag56
(g72
g58
NtRp2896
(dp2897
g61
(dp2898
sg70
g2703
sg63
(lp2899
g56
(g77
g58
NtRp2900
(dp2901
g61
(dp2902
g81
g82
ssg70
g2896
sg63
(lp2903
S'HTTP_WEB2PY_COMPONENT_LOCATION'
p2904
asbag56
(g77
g58
NtRp2905
(dp2906
g61
(dp2907
g88
g89
ssg70
g2896
sg63
(lp2908
S':'
asbag56
(g77
g58
NtRp2909
(dp2910
g61
(dp2911
sg70
g2896
sg63
(lp2912
g56
(g57
g58
NtRp2913
(dp2914
g61
(dp2915
g69
I3
ssg70
g2909
sg63
(lp2916
g1432
asbasbasbag56
(g72
g58
NtRp2917
(dp2918
g61
(dp2919
sg70
g2703
sg63
(lp2920
g56
(g77
g58
NtRp2921
(dp2922
g61
(dp2923
g81
g82
ssg70
g2917
sg63
(lp2924
S'HTTP_X_REQUESTED_WITH'
p2925
asbag56
(g77
g58
NtRp2926
(dp2927
g61
(dp2928
g88
g89
ssg70
g2917
sg63
(lp2929
S':'
asbag56
(g77
g58
NtRp2930
(dp2931
g61
(dp2932
sg70
g2917
sg63
(lp2933
g56
(g57
g58
NtRp2934
(dp2935
g61
(dp2936
g69
I3
ssg70
g2930
sg63
(lp2937
g1454
asbasbasbag56
(g72
g58
NtRp2938
(dp2939
g61
(dp2940
sg70
g2703
sg63
(lp2941
g56
(g77
g58
NtRp2942
(dp2943
g61
(dp2944
g81
g82
ssg70
g2938
sg63
(lp2945
S'PATH_INFO'
p2946
asbag56
(g77
g58
NtRp2947
(dp2948
g61
(dp2949
g88
g89
ssg70
g2938
sg63
(lp2950
S':'
asbag56
(g77
g58
NtRp2951
(dp2952
g61
(dp2953
sg70
g2938
sg63
(lp2954
g56
(g57
g58
NtRp2955
(dp2956
g61
(dp2957
g69
I3
ssg70
g2951
sg63
(lp2958
g1497
asbasbasbag56
(g72
g58
NtRp2959
(dp2960
g61
(dp2961
sg70
g2703
sg63
(lp2962
g56
(g77
g58
NtRp2963
(dp2964
g61
(dp2965
g81
g82
ssg70
g2959
sg63
(lp2966
S'QUERY_STRING'
p2967
asbag56
(g77
g58
NtRp2968
(dp2969
g61
(dp2970
g88
g89
ssg70
g2959
sg63
(lp2971
S':'
asbag56
(g77
g58
NtRp2972
(dp2973
g61
(dp2974
sg70
g2959
sg63
(lp2975
g56
(g57
g58
NtRp2976
(dp2977
g61
(dp2978
g69
I3
ssg70
g2972
sg63
(lp2979
S''
asbasbasbag56
(g72
g58
NtRp2980
(dp2981
g61
(dp2982
sg70
g2703
sg63
(lp2983
g56
(g77
g58
NtRp2984
(dp2985
g61
(dp2986
g81
g82
ssg70
g2980
sg63
(lp2987
S'REMOTE_ADDR'
p2988
asbag56
(g77
g58
NtRp2989
(dp2990
g61
(dp2991
g88
g89
ssg70
g2980
sg63
(lp2992
S':'
asbag56
(g77
g58
NtRp2993
(dp2994
g61
(dp2995
sg70
g2980
sg63
(lp2996
g56
(g57
g58
NtRp2997
(dp2998
g61
(dp2999
g69
I3
ssg70
g2993
sg63
(lp3000
g236
asbasbasbag56
(g72
g58
NtRp3001
(dp3002
g61
(dp3003
sg70
g2703
sg63
(lp3004
g56
(g77
g58
NtRp3005
(dp3006
g61
(dp3007
g81
g82
ssg70
g3001
sg63
(lp3008
S'REMOTE_PORT'
p3009
asbag56
(g77
g58
NtRp3010
(dp3011
g61
(dp3012
g88
g89
ssg70
g3001
sg63
(lp3013
S':'
asbag56
(g77
g58
NtRp3014
(dp3015
g61
(dp3016
sg70
g3001
sg63
(lp3017
g56
(g57
g58
NtRp3018
(dp3019
g61
(dp3020
g69
I3
ssg70
g3014
sg63
(lp3021
g1561
asbasbasbag56
(g72
g58
NtRp3022
(dp3023
g61
(dp3024
sg70
g2703
sg63
(lp3025
g56
(g77
g58
NtRp3026
(dp3027
g61
(dp3028
g81
g82
ssg70
g3022
sg63
(lp3029
S'REQUEST_METHOD'
p3030
asbag56
(g77
g58
NtRp3031
(dp3032
g61
(dp3033
g88
g89
ssg70
g3022
sg63
(lp3034
S':'
asbag56
(g77
g58
NtRp3035
(dp3036
g61
(dp3037
sg70
g3022
sg63
(lp3038
g56
(g57
g58
NtRp3039
(dp3040
g61
(dp3041
g69
I3
ssg70
g3035
sg63
(lp3042
g1583
asbasbasbag56
(g72
g58
NtRp3043
(dp3044
g61
(dp3045
sg70
g2703
sg63
(lp3046
g56
(g77
g58
NtRp3047
(dp3048
g61
(dp3049
g81
g82
ssg70
g3043
sg63
(lp3050
S'SCRIPT_NAME'
p3051
asbag56
(g77
g58
NtRp3052
(dp3053
g61
(dp3054
g88
g89
ssg70
g3043
sg63
(lp3055
S':'
asbag56
(g77
g58
NtRp3056
(dp3057
g61
(dp3058
sg70
g3043
sg63
(lp3059
g56
(g57
g58
NtRp3060
(dp3061
g61
(dp3062
g69
I3
ssg70
g3056
sg63
(lp3063
S''
asbasbasbag56
(g72
g58
NtRp3064
(dp3065
g61
(dp3066
sg70
g2703
sg63
(lp3067
g56
(g77
g58
NtRp3068
(dp3069
g61
(dp3070
g81
g82
ssg70
g3064
sg63
(lp3071
S'SERVER_NAME'
p3072
asbag56
(g77
g58
NtRp3073
(dp3074
g61
(dp3075
g88
g89
ssg70
g3064
sg63
(lp3076
S':'
asbag56
(g77
g58
NtRp3077
(dp3078
g61
(dp3079
sg70
g3064
sg63
(lp3080
g56
(g57
g58
NtRp3081
(dp3082
g61
(dp3083
g69
I3
ssg70
g3077
sg63
(lp3084
g1626
asbasbasbag56
(g72
g58
NtRp3085
(dp3086
g61
(dp3087
sg70
g2703
sg63
(lp3088
g56
(g77
g58
NtRp3089
(dp3090
g61
(dp3091
g81
g82
ssg70
g3085
sg63
(lp3092
S'SERVER_PORT'
p3093
asbag56
(g77
g58
NtRp3094
(dp3095
g61
(dp3096
g88
g89
ssg70
g3085
sg63
(lp3097
S':'
asbag56
(g77
g58
NtRp3098
(dp3099
g61
(dp3100
sg70
g3085
sg63
(lp3101
g56
(g57
g58
NtRp3102
(dp3103
g61
(dp3104
g69
I3
ssg70
g3098
sg63
(lp3105
g1648
asbasbasbag56
(g72
g58
NtRp3106
(dp3107
g61
(dp3108
sg70
g2703
sg63
(lp3109
g56
(g77
g58
NtRp3110
(dp3111
g61
(dp3112
g81
g82
ssg70
g3106
sg63
(lp3113
S'SERVER_PROTOCOL'
p3114
asbag56
(g77
g58
NtRp3115
(dp3116
g61
(dp3117
g88
g89
ssg70
g3106
sg63
(lp3118
S':'
asbag56
(g77
g58
NtRp3119
(dp3120
g61
(dp3121
sg70
g3106
sg63
(lp3122
g56
(g57
g58
NtRp3123
(dp3124
g61
(dp3125
g69
I3
ssg70
g3119
sg63
(lp3126
g1670
asbasbasbag56
(g72
g58
NtRp3127
(dp3128
g61
(dp3129
sg70
g2703
sg63
(lp3130
g56
(g77
g58
NtRp3131
(dp3132
g61
(dp3133
g81
g82
ssg70
g3127
sg63
(lp3134
S'SERVER_SOFTWARE'
p3135
asbag56
(g77
g58
NtRp3136
(dp3137
g61
(dp3138
g88
g89
ssg70
g3127
sg63
(lp3139
S':'
asbag56
(g77
g58
NtRp3140
(dp3141
g61
(dp3142
sg70
g3127
sg63
(lp3143
g56
(g57
g58
NtRp3144
(dp3145
g61
(dp3146
g69
I3
ssg70
g3140
sg63
(lp3147
g1692
asbasbasbag56
(g72
g58
NtRp3148
(dp3149
g61
(dp3150
sg70
g2703
sg63
(lp3151
g56
(g77
g58
NtRp3152
(dp3153
g61
(dp3154
g81
g82
ssg70
g3148
sg63
(lp3155
S'wsgi.errors'
p3156
asbag56
(g77
g58
NtRp3157
(dp3158
g61
(dp3159
g88
g89
ssg70
g3148
sg63
(lp3160
S':'
asbag56
(g77
g58
NtRp3161
(dp3162
g61
(dp3163
sg70
g3148
sg63
(lp3164
g56
(g57
g58
NtRp3165
(dp3166
g61
(dp3167
g69
I3
ssg70
g3161
sg63
(lp3168
S"<open file '<stderr>', mode 'w' at 0x7ff95b42d270>"
p3169
asbasbasbag56
(g72
g58
NtRp3170
(dp3171
g61
(dp3172
sg70
g2703
sg63
(lp3173
g56
(g77
g58
NtRp3174
(dp3175
g61
(dp3176
g81
g82
ssg70
g3170
sg63
(lp3177
S'wsgi.file_wrapper'
p3178
asbag56
(g77
g58
NtRp3179
(dp3180
g61
(dp3181
g88
g89
ssg70
g3170
sg63
(lp3182
S':'
asbag56
(g77
g58
NtRp3183
(dp3184
g61
(dp3185
sg70
g3170
sg63
(lp3186
g56
(g57
g58
NtRp3187
(dp3188
g61
(dp3189
g69
I3
ssg70
g3183
sg63
(lp3190
S'<class wsgiref.util.FileWrapper at 0x1721870>'
p3191
asbasbasbag56
(g72
g58
NtRp3192
(dp3193
g61
(dp3194
sg70
g2703
sg63
(lp3195
g56
(g77
g58
NtRp3196
(dp3197
g61
(dp3198
g81
g82
ssg70
g3192
sg63
(lp3199
S'wsgi.input'
p3200
asbag56
(g77
g58
NtRp3201
(dp3202
g61
(dp3203
g88
g89
ssg70
g3192
sg63
(lp3204
S':'
asbag56
(g77
g58
NtRp3205
(dp3206
g61
(dp3207
sg70
g3192
sg63
(lp3208
g56
(g57
g58
NtRp3209
(dp3210
g61
(dp3211
g69
I3
ssg70
g3205
sg63
(lp3212
S'<cStringIO.StringO object at 0x1da56c0>'
p3213
asbasbasbag56
(g72
g58
NtRp3214
(dp3215
g61
(dp3216
sg70
g2703
sg63
(lp3217
g56
(g77
g58
NtRp3218
(dp3219
g61
(dp3220
g81
g82
ssg70
g3214
sg63
(lp3221
S'wsgi.multiprocess'
p3222
asbag56
(g77
g58
NtRp3223
(dp3224
g61
(dp3225
g88
g89
ssg70
g3214
sg63
(lp3226
S':'
asbag56
(g77
g58
NtRp3227
(dp3228
g61
(dp3229
sg70
g3214
sg63
(lp3230
g56
(g57
g58
NtRp3231
(dp3232
g61
(dp3233
g69
I3
ssg70
g3227
sg63
(lp3234
g1191
asbasbasbag56
(g72
g58
NtRp3235
(dp3236
g61
(dp3237
sg70
g2703
sg63
(lp3238
g56
(g77
g58
NtRp3239
(dp3240
g61
(dp3241
g81
g82
ssg70
g3235
sg63
(lp3242
S'wsgi.multithread'
p3243
asbag56
(g77
g58
NtRp3244
(dp3245
g61
(dp3246
g88
g89
ssg70
g3235
sg63
(lp3247
S':'
asbag56
(g77
g58
NtRp3248
(dp3249
g61
(dp3250
sg70
g3235
sg63
(lp3251
g56
(g57
g58
NtRp3252
(dp3253
g61
(dp3254
g69
I3
ssg70
g3248
sg63
(lp3255
g99
asbasbasbag56
(g72
g58
NtRp3256
(dp3257
g61
(dp3258
sg70
g2703
sg63
(lp3259
g56
(g77
g58
NtRp3260
(dp3261
g61
(dp3262
g81
g82
ssg70
g3256
sg63
(lp3263
S'wsgi.run_once'
p3264
asbag56
(g77
g58
NtRp3265
(dp3266
g61
(dp3267
g88
g89
ssg70
g3256
sg63
(lp3268
S':'
asbag56
(g77
g58
NtRp3269
(dp3270
g61
(dp3271
sg70
g3256
sg63
(lp3272
g56
(g57
g58
NtRp3273
(dp3274
g61
(dp3275
g69
I3
ssg70
g3269
sg63
(lp3276
g1191
asbasbasbag56
(g72
g58
NtRp3277
(dp3278
g61
(dp3279
sg70
g2703
sg63
(lp3280
g56
(g77
g58
NtRp3281
(dp3282
g61
(dp3283
g81
g82
ssg70
g3277
sg63
(lp3284
S'wsgi.url_scheme'
p3285
asbag56
(g77
g58
NtRp3286
(dp3287
g61
(dp3288
g88
g89
ssg70
g3277
sg63
(lp3289
S':'
asbag56
(g77
g58
NtRp3290
(dp3291
g61
(dp3292
sg70
g3277
sg63
(lp3293
g56
(g57
g58
NtRp3294
(dp3295
g61
(dp3296
g69
I3
ssg70
g3290
sg63
(lp3297
g1974
asbasbasbag56
(g72
g58
NtRp3298
(dp3299
g61
(dp3300
sg70
g2703
sg63
(lp3301
g56
(g77
g58
NtRp3302
(dp3303
g61
(dp3304
g81
g82
ssg70
g3298
sg63
(lp3305
S'wsgi.version'
p3306
asbag56
(g77
g58
NtRp3307
(dp3308
g61
(dp3309
g88
g89
ssg70
g3298
sg63
(lp3310
S':'
asbag56
(g77
g58
NtRp3311
(dp3312
g61
(dp3313
sg70
g3298
sg63
(lp3314
g56
(g57
g58
NtRp3315
(dp3316
g61
(dp3317
g69
I3
ssg70
g3311
sg63
(lp3318
S'1'
asbasbasbasbasbasbasbasbasbasbasbasbasbsS'frames'
p3319
(lp3320
(dp3321
S'file'
p3322
S'/home/ian/web2py/gluon/restricted.py'
p3323
sS'dump'
p3324
(dp3325
S'environment'
p3326
S"{'A': <class 'gluon.html.A'>, 'Auth': <class 'gluon.tools.Auth'>, 'B': <class 'gluon.html.B'>, 'BEAUTIFY': <class 'gluon.html.BEAUTIFY'>, 'BODY': <class 'gluon.html.BODY'>, 'BR': <class 'gluon.html.BR'>, 'BUTTON': <class 'gluon.html.BUTTON'>, 'CAT': <class 'gluon.html.CAT'>, 'CENTER': <class 'gluon.html.CENTER'>, 'CLEANUP': <class 'gluon.validators.CLEANUP'>, ...}"
p3327
sS'ccode'
p3328
S'<code object <module> at 0x1db69b0, file "/home/...topoi/controllers/plugin_listandedit.py", line 3>'
p3329
ssS'lnum'
p3330
I194
sS'lines'
p3331
(dp3332
I192
S'        else:'
p3333
sI193
S'            ccode = compile2(code,layer)'
p3334
sI194
S'        exec ccode in environment'
p3335
sI195
S'    except HTTP:'
p3336
sI196
S'        raise'
p3337
sI197
S'    except Exception, error:'
p3338
sI198
S'        # XXX Show exception in Wing IDE if running in debugger'
p3339
sI189
S'    try:'
p3340
sI190
S'        if type(code) == types.CodeType:'
p3341
sI191
S'            ccode = code'
p3342
ssS'call'
p3343
S"(code='# coding: utf8\\n# try something like\\ndef list(): ...m = form)\\n\\nresponse._vars=response._caller(edit)\\n', environment={'A': <class 'gluon.html.A'>, 'Auth': <class 'gluon.tools.Auth'>, 'B': <class 'gluon.html.B'>, 'BEAUTIFY': <class 'gluon.html.BEAUTIFY'>, 'BODY': <class 'gluon.html.BODY'>, 'BR': <class 'gluon.html.BR'>, 'BUTTON': <class 'gluon.html.BUTTON'>, 'CAT': <class 'gluon.html.CAT'>, 'CENTER': <class 'gluon.html.CENTER'>, 'CLEANUP': <class 'gluon.validators.CLEANUP'>, ...}, layer='/home/ian/web2py/applications/topoi/controllers/plugin_listandedit.py')"
p3344
sS'func'
p3345
S'restricted'
p3346
sa(dp3347
g3322
S'/home/ian/web2py/applications/topoi/controllers/plugin_listandedit.py'
p3348
sg3324
(dp3349
sg3330
I37
sg3331
(dp3350
I32
S'    rowid = request.args[1]'
p3351
sI33
S'    form = crud.update(db[tablename], rowid)'
p3352
sI34
S''
sI35
S'    return dict(form = form)'
p3353
sI26
S'        listset.append(i)'
p3354
sI27
S''
sI28
S'    return dict(listset = listset)'
p3355
sI29
S''
sI30
S'def edit():'
p3356
sI31
S'    tablename = request.args[0]'
p3357
ssg3343
S'()'
p3358
sg3345
S'<module>'
p3359
sa(dp3360
g3322
S'/home/ian/web2py/gluon/globals.py'
p3361
sg3324
(dp3362
S'self'
p3363
S'undefined'
p3364
sS'f'
S'<function edit>'
p3365
ssg3330
I149
sg3331
(dp3366
I144
S'        self.meta = Storage()      # used by web2py_ajax.html'
p3367
sI145
S'        self.menu = []             # used by the default view layout'
p3368
sI146
S'        self.files = []            # used by web2py_ajax.html'
p3369
sI147
S'        self.generic_patterns = [] # patterns to allow generic views'
p3370
sI148
S'        self._vars = None'
p3371
sI149
S'        self._caller = lambda f: f()'
p3372
sI150
S'        self._view_environment = None'
p3373
sI151
S'        self._custom_commit = None'
p3374
sI152
S'        self._custom_rollback = None'
p3375
sI153
S''
ssg3343
S'(f=<function edit>)'
p3376
sg3345
S'<lambda>'
p3377
sa(dp3378
g3322
S'/home/ian/web2py/applications/topoi/controllers/plugin_listandedit.py'
p3379
sg3324
(dp3380
S'global crud'
p3381
S'<gluon.tools.Crud object>'
p3382
sS'crud.update'
p3383
S'<bound method Crud.update of <gluon.tools.Crud object>>'
p3384
sS'form'
p3385
g3364
sS'tablename'
p3386
S"'notes'"
p3387
sS'rowid'
p3388
S"'1'"
p3389
sS'global db'
p3390
S"<DAL {'auth_event': <Table {'origin': <gluon.dal.../web2py/applications/topoi/databases/sql.log'}>}>"
p3391
ssg3330
I33
sg3331
(dp3392
I32
S'    rowid = request.args[1]'
p3393
sI33
S'    form = crud.update(db[tablename], rowid)'
p3394
sI34
S''
sI35
S'    return dict(form = form)'
p3395
sI26
S'        listset.append(i)'
p3396
sI27
S''
sI28
S'    return dict(listset = listset)'
p3397
sI29
S''
sI30
S'def edit():'
p3398
sI31
S'    tablename = request.args[0]'
p3399
ssg3343
S'()'
p3400
sg3345
S'edit'
p3401
sa(dp3402
g3322
S'/home/ian/web2py/gluon/tools.py'
p3403
sg3324
(dp3404
S'self'
p3405
S'<gluon.tools.Crud object>'
p3406
sS'separator'
p3407
g3364
sS'self.settings.label_separator'
p3408
S"': '"
p3409
sS'self.settings'
p3410
S"<Storage {'showid': False, 'delete_onaccept': <S...ble': True, 'create_onvalidation': <Storage {}>}>"
p3411
ssg3330
I2952
sg3331
(dp3412
I2947
S'            submit_button=self.messages.submit_button,'
p3413
sI2948
S'            delete_label=self.messages.delete_label,'
p3414
sI2949
S'            deletable=deletable,'
p3415
sI2950
S'            upload=self.settings.download_url,'
p3416
sI2951
S'            formstyle=self.settings.formstyle,'
p3417
sI2952
S'            separator=self.settings.label_separator'
p3418
sI2953
S'            )'
p3419
sI2954
S'        self.accepted = False'
p3420
sI2955
S'        self.deleted = False'
p3421
sI2956
S'        captcha = self.settings.update_captcha or self.settings.captcha'
p3422
ssg3343
S"(self=<gluon.tools.Crud object>, table=<Table {'reference': <gluon.dal.Field object at ...>, '_id': <gluon.dal.Field object at 0x1dc58d0>}>, record='1', next=None, onvalidation=<Storage {}>, onaccept=<Storage {}>, ondelete=<Storage {}>, log='Record %(id)s updated', message='Record Updated', deletable=True, formname=<function <lambda>>)"
p3423
sg3345
S'update'
p3424
sa(dp3425
g3322
S'/home/ian/web2py/gluon/sqlhtml.py'
p3426
sg3324
(dp3427
S'default'
p3428
S'9'
sS'field'
p3429
S'<gluon.dal.Field object>'
p3430
sS'field.widget'
p3431
S'<bound method SELECT_OR_ADD_OPTION.widget of <ap....plugin_selectoradd.SELECT_OR_ADD_OPTION object>>'
p3432
sS'inp'
p3433
S'<gluon.html.SELECT object>'
p3434
ssg3330
I853
sg3331
(dp3435
I848
S"                if hasattr(field, 'widget') and field.widget:"
p3436
sI849
S'                    inp = field.widget(field, default, upload)'
p3437
sI850
S'                else:'
p3438
sI851
S'                    inp = self.widgets.upload.widget(field, default, upload)'
p3439
sI852
S"            elif hasattr(field, 'widget') and field.widget:"
p3440
sI853
S'                inp = field.widget(field, default)'
p3441
sI854
S"            elif field.type == 'boolean':"
p3442
sI855
S'                inp = self.widgets.boolean.widget(field, default)'
p3443
sI856
S'                if default:'
p3444
sI857
S"                    inpval = 'checked'"
p3445
ssg3343
S"(self=<gluon.sqlhtml.SQLFORM object>, table=<Table {'reference': <gluon.dal.Field object at ...>, '_id': <gluon.dal.Field object at 0x1dc58d0>}>, record=<Row {'body': 'some notes here', 'reference': '1...elete_record': <function <lambda> at 0x1dc4aa0>}>, deletable=True, linkto=None, upload='/topoi/default/download.load', fields=['id', 'label', 'user', 'author', 'work', 'reference', 'excerpt', 'body', 'tags', 'last_edited', 'project'], labels=None, col3={}, submit_button='Submit', delete_label='Check to delete:', showid=False, readonly=False, comments=True, keepopts=[], ignore_rw=False, record_id=None, formstyle='table3cols', buttons=['submit'], separator=': ', **attributes={'hidden': {'_next': None}})"
p3446
sg3345
g49
sa(dp3447
g3322
S'/home/ian/web2py/applications/topoi/modules/plugin_selectoradd.py'
p3448
sg3324
(dp3449
S'LOAD'
p3450
g3364
sS'self.function'
p3451
S"'add'"
p3452
sS'c'
g3364
sS'add_args'
p3453
S"['notes_author']"
p3454
sS'f'
g3364
sS'self'
p3455
S'<applications.topoi.modules.plugin_selectoradd.SELECT_OR_ADD_OPTION object>'
p3456
sS'args'
p3457
g3364
sS'ajax'
p3458
g3364
sS'_id'
p3459
g3364
sS'global DIV'
p3460
S"<class 'gluon.html.DIV'>"
p3461
sS'my_select_id'
p3462
S"'notes_author'"
p3463
sS'self.form_title'
p3464
S"'Add new'"
p3465
sS'form_loader_div'
p3466
g3364
sS'_title'
p3467
g3364
sS'self.controller'
p3468
S"'plugin_selectoradd'"
p3469
sS'builtinTrue'
p3470
g99
ssg3330
I38
sg3331
(dp3471
I33
S"        my_select_id = select_widget.attributes.get('_id', None)"
p3472
sI34
S'        add_args = [my_select_id]'
p3473
sI35
S''
sI36
S'        print my_select_id'
p3474
sI37
S'        #create a div that will load the specified controller via ajax'
p3475
sI38
S'        form_loader_div = DIV(LOAD(c = self.controller, f = self.function, args = add_args, ajax = True), _id = my_select_id + "_dialog-form", _title = self.form_title)'
p3476
sI39
S'        #generate the "add" button that will appear next the options widget and open our dialog'
p3477
sI40
S'        activator_button = A(self.button_text, _id = my_select_id + "_option_add_trigger")'
p3478
sI41
S'        #create javascript for creating and opening the dialog'
p3479
sI42
S'        js = \'$( "#%s_dialog-form" ).dialog({autoOpen: false, show: "blind", hide: "explode", width: %s});\' % (my_select_id, self.dialog_width)'
p3480
ssg3343
S'(self=<applications.topoi.modules.plugin_selectoradd.SELECT_OR_ADD_OPTION object>, field=<gluon.dal.Field object>, value=9)'
p3481
sg3345
S'widget'
p3482
sasS'pyver'
p3483
S'Python 2.7.2+: /usr/bin/python2.7'
p3484
sS'session'
p3485
g56
(g57
g58
NtRp3486
(dp3487
g61
(dp3488
sg63
(lp3489
g56
(g65
g58
NtRp3490
(dp3491
g61
(dp3492
g69
I5
ssg70
Nsg63
(lp3493
sbasbsS'etype'
p3494
S"<type 'exceptions.NameError'>"
p3495
sS'date'
p3496
S'Fri Nov 25 18:19:54 2011'
p3497
sS'response'
p3498
g56
(g57
g58
NtRp3499
(dp3500
g61
(dp3501
sg63
(lp3502
g56
(g65
g58
NtRp3503
(dp3504
g61
(dp3505
g69
I5
ssg70
Nsg63
(lp3506
g56
(g72
g58
NtRp3507
(dp3508
g61
(dp3509
sg70
g3503
sg63
(lp3510
g56
(g77
g58
NtRp3511
(dp3512
g61
(dp3513
g81
g82
ssg70
g3507
sg63
(lp3514
g179
asbag56
(g77
g58
NtRp3515
(dp3516
g61
(dp3517
g88
g89
ssg70
g3507
sg63
(lp3518
S':'
asbag56
(g77
g58
NtRp3519
(dp3520
g61
(dp3521
sg70
g3507
sg63
(lp3522
g56
(g57
g58
NtRp3523
(dp3524
g61
(dp3525
g69
I5
ssg70
g3519
sg63
(lp3526
S'<cStringIO.StringO object at 0x1dbde30>'
p3527
asbasbasbag56
(g72
g58
NtRp3528
(dp3529
g61
(dp3530
sg70
g3503
sg63
(lp3531
g56
(g77
g58
NtRp3532
(dp3533
g61
(dp3534
g81
g82
ssg70
g3528
sg63
(lp3535
g267
asbag56
(g77
g58
NtRp3536
(dp3537
g61
(dp3538
g88
g89
ssg70
g3528
sg63
(lp3539
S':'
asbag56
(g77
g58
NtRp3540
(dp3541
g61
(dp3542
sg70
g3528
sg63
(lp3543
g56
(g57
g58
NtRp3544
(dp3545
g61
(dp3546
g69
I5
ssg70
g3540
sg63
(lp3547
g56
(g65
g58
NtRp3548
(dp3549
g61
(dp3550
g69
I4
ssg70
Nsg63
(lp3551
g56
(g72
g58
NtRp3552
(dp3553
g61
(dp3554
sg70
g3548
sg63
(lp3555
g56
(g77
g58
NtRp3556
(dp3557
g61
(dp3558
g81
g82
ssg70
g3552
sg63
(lp3559
S'session_id_topoi'
p3560
asbag56
(g77
g58
NtRp3561
(dp3562
g61
(dp3563
g88
g89
ssg70
g3552
sg63
(lp3564
S':'
asbag56
(g77
g58
NtRp3565
(dp3566
g61
(dp3567
sg70
g3552
sg63
(lp3568
g56
(g57
g58
NtRp3569
(dp3570
g61
(dp3571
g69
I4
ssg70
g3565
sg63
(lp3572
g56
(g65
g58
NtRp3573
(dp3574
g61
(dp3575
g69
I3
ssg70
Nsg63
(lp3576
g56
(g72
g58
NtRp3577
(dp3578
g61
(dp3579
sg70
g3573
sg63
(lp3580
g56
(g77
g58
NtRp3581
(dp3582
g61
(dp3583
g81
g82
ssg70
g3577
sg63
(lp3584
g317
asbag56
(g77
g58
NtRp3585
(dp3586
g61
(dp3587
g88
g89
ssg70
g3577
sg63
(lp3588
S':'
asbag56
(g77
g58
NtRp3589
(dp3590
g61
(dp3591
sg70
g3577
sg63
(lp3592
g56
(g57
g58
NtRp3593
(dp3594
g61
(dp3595
g69
I3
ssg70
g3589
sg63
(lp3596
S''
asbasbasbag56
(g72
g58
NtRp3597
(dp3598
g61
(dp3599
sg70
g3573
sg63
(lp3600
g56
(g77
g58
NtRp3601
(dp3602
g61
(dp3603
g81
g82
ssg70
g3597
sg63
(lp3604
g338
asbag56
(g77
g58
NtRp3605
(dp3606
g61
(dp3607
g88
g89
ssg70
g3597
sg63
(lp3608
S':'
asbag56
(g77
g58
NtRp3609
(dp3610
g61
(dp3611
sg70
g3597
sg63
(lp3612
g56
(g57
g58
NtRp3613
(dp3614
g61
(dp3615
g69
I3
ssg70
g3609
sg63
(lp3616
S''
asbasbasbag56
(g72
g58
NtRp3617
(dp3618
g61
(dp3619
sg70
g3573
sg63
(lp3620
g56
(g77
g58
NtRp3621
(dp3622
g61
(dp3623
g81
g82
ssg70
g3617
sg63
(lp3624
g359
asbag56
(g77
g58
NtRp3625
(dp3626
g61
(dp3627
g88
g89
ssg70
g3617
sg63
(lp3628
S':'
asbag56
(g77
g58
NtRp3629
(dp3630
g61
(dp3631
sg70
g3617
sg63
(lp3632
g56
(g57
g58
NtRp3633
(dp3634
g61
(dp3635
g69
I3
ssg70
g3629
sg63
(lp3636
S''
asbasbasbag56
(g72
g58
NtRp3637
(dp3638
g61
(dp3639
sg70
g3573
sg63
(lp3640
g56
(g77
g58
NtRp3641
(dp3642
g61
(dp3643
g81
g82
ssg70
g3637
sg63
(lp3644
g380
asbag56
(g77
g58
NtRp3645
(dp3646
g61
(dp3647
g88
g89
ssg70
g3637
sg63
(lp3648
S':'
asbag56
(g77
g58
NtRp3649
(dp3650
g61
(dp3651
sg70
g3637
sg63
(lp3652
g56
(g57
g58
NtRp3653
(dp3654
g61
(dp3655
g69
I3
ssg70
g3649
sg63
(lp3656
S''
asbasbasbag56
(g72
g58
NtRp3657
(dp3658
g61
(dp3659
sg70
g3573
sg63
(lp3660
g56
(g77
g58
NtRp3661
(dp3662
g61
(dp3663
g81
g82
ssg70
g3657
sg63
(lp3664
g401
asbag56
(g77
g58
NtRp3665
(dp3666
g61
(dp3667
g88
g89
ssg70
g3657
sg63
(lp3668
S':'
asbag56
(g77
g58
NtRp3669
(dp3670
g61
(dp3671
sg70
g3657
sg63
(lp3672
g56
(g57
g58
NtRp3673
(dp3674
g61
(dp3675
g69
I3
ssg70
g3669
sg63
(lp3676
S''
asbasbasbag56
(g72
g58
NtRp3677
(dp3678
g61
(dp3679
sg70
g3573
sg63
(lp3680
g56
(g77
g58
NtRp3681
(dp3682
g61
(dp3683
g81
g82
ssg70
g3677
sg63
(lp3684
g422
asbag56
(g77
g58
NtRp3685
(dp3686
g61
(dp3687
g88
g89
ssg70
g3677
sg63
(lp3688
S':'
asbag56
(g77
g58
NtRp3689
(dp3690
g61
(dp3691
sg70
g3677
sg63
(lp3692
g56
(g57
g58
NtRp3693
(dp3694
g61
(dp3695
g69
I3
ssg70
g3689
sg63
(lp3696
S'/'
asbasbasbag56
(g72
g58
NtRp3697
(dp3698
g61
(dp3699
sg70
g3573
sg63
(lp3700
g56
(g77
g58
NtRp3701
(dp3702
g61
(dp3703
g81
g82
ssg70
g3697
sg63
(lp3704
g443
asbag56
(g77
g58
NtRp3705
(dp3706
g61
(dp3707
g88
g89
ssg70
g3697
sg63
(lp3708
S':'
asbag56
(g77
g58
NtRp3709
(dp3710
g61
(dp3711
sg70
g3697
sg63
(lp3712
g56
(g57
g58
NtRp3713
(dp3714
g61
(dp3715
g69
I3
ssg70
g3709
sg63
(lp3716
S''
asbasbasbag56
(g72
g58
NtRp3717
(dp3718
g61
(dp3719
sg70
g3573
sg63
(lp3720
g56
(g77
g58
NtRp3721
(dp3722
g61
(dp3723
g81
g82
ssg70
g3717
sg63
(lp3724
g464
asbag56
(g77
g58
NtRp3725
(dp3726
g61
(dp3727
g88
g89
ssg70
g3717
sg63
(lp3728
S':'
asbag56
(g77
g58
NtRp3729
(dp3730
g61
(dp3731
sg70
g3717
sg63
(lp3732
g56
(g57
g58
NtRp3733
(dp3734
g61
(dp3735
g69
I3
ssg70
g3729
sg63
(lp3736
S''
asbasbasbasbasbasbasbasbasbasbasbag56
(g72
g58
NtRp3737
(dp3738
g61
(dp3739
sg70
g3503
sg63
(lp3740
g56
(g77
g58
NtRp3741
(dp3742
g61
(dp3743
g81
g82
ssg70
g3737
sg63
(lp3744
S'files'
p3745
asbag56
(g77
g58
NtRp3746
(dp3747
g61
(dp3748
g88
g89
ssg70
g3737
sg63
(lp3749
S':'
asbag56
(g77
g58
NtRp3750
(dp3751
g61
(dp3752
sg70
g3737
sg63
(lp3753
g56
(g57
g58
NtRp3754
(dp3755
g61
(dp3756
g69
I5
ssg70
g3750
sg63
(lp3757
g56
(g65
g58
NtRp3758
(dp3759
g61
(dp3760
g69
I4
ssg70
Nsg63
(lp3761
sbasbasbasbag56
(g72
g58
NtRp3762
(dp3763
g61
(dp3764
sg70
g3503
sg63
(lp3765
g56
(g77
g58
NtRp3766
(dp3767
g61
(dp3768
g81
g82
ssg70
g3762
sg63
(lp3769
S'flash'
p3770
asbag56
(g77
g58
NtRp3771
(dp3772
g61
(dp3773
g88
g89
ssg70
g3762
sg63
(lp3774
S':'
asbag56
(g77
g58
NtRp3775
(dp3776
g61
(dp3777
sg70
g3762
sg63
(lp3778
g56
(g57
g58
NtRp3779
(dp3780
g61
(dp3781
g69
I5
ssg70
g3775
sg63
(lp3782
S''
asbasbasbag56
(g72
g58
NtRp3783
(dp3784
g61
(dp3785
sg70
g3503
sg63
(lp3786
g56
(g77
g58
NtRp3787
(dp3788
g61
(dp3789
g81
g82
ssg70
g3783
sg63
(lp3790
S'generic_patterns'
p3791
asbag56
(g77
g58
NtRp3792
(dp3793
g61
(dp3794
g88
g89
ssg70
g3783
sg63
(lp3795
S':'
asbag56
(g77
g58
NtRp3796
(dp3797
g61
(dp3798
sg70
g3783
sg63
(lp3799
g56
(g57
g58
NtRp3800
(dp3801
g61
(dp3802
g69
I5
ssg70
g3796
sg63
(lp3803
g56
(g65
g58
NtRp3804
(dp3805
g61
(dp3806
g69
I4
ssg70
Nsg63
(lp3807
g56
(g72
g58
NtRp3808
(dp3809
g61
(dp3810
sg70
g3804
sg63
(lp3811
g56
(g77
g58
NtRp3812
(dp3813
g61
(dp3814
sg70
g3808
sg63
(lp3815
g56
(g57
g58
NtRp3816
(dp3817
g61
(dp3818
g69
I4
ssg70
g3812
sg63
(lp3819
S'*'
asbasbasbasbasbasbasbag56
(g72
g58
NtRp3820
(dp3821
g61
(dp3822
sg70
g3503
sg63
(lp3823
g56
(g77
g58
NtRp3824
(dp3825
g61
(dp3826
g81
g82
ssg70
g3820
sg63
(lp3827
S'headers'
p3828
asbag56
(g77
g58
NtRp3829
(dp3830
g61
(dp3831
g88
g89
ssg70
g3820
sg63
(lp3832
S':'
asbag56
(g77
g58
NtRp3833
(dp3834
g61
(dp3835
sg70
g3820
sg63
(lp3836
g56
(g57
g58
NtRp3837
(dp3838
g61
(dp3839
g69
I5
ssg70
g3833
sg63
(lp3840
g56
(g65
g58
NtRp3841
(dp3842
g61
(dp3843
g69
I4
ssg70
Nsg63
(lp3844
g56
(g72
g58
NtRp3845
(dp3846
g61
(dp3847
sg70
g3841
sg63
(lp3848
g56
(g77
g58
NtRp3849
(dp3850
g61
(dp3851
g81
g82
ssg70
g3845
sg63
(lp3852
S'Cache-Control'
p3853
asbag56
(g77
g58
NtRp3854
(dp3855
g61
(dp3856
g88
g89
ssg70
g3845
sg63
(lp3857
S':'
asbag56
(g77
g58
NtRp3858
(dp3859
g61
(dp3860
sg70
g3845
sg63
(lp3861
g56
(g57
g58
NtRp3862
(dp3863
g61
(dp3864
g69
I4
ssg70
g3858
sg63
(lp3865
S'no-store, no-cache, must-revalidate, post-check=0, pre-check=0'
p3866
asbasbasbag56
(g72
g58
NtRp3867
(dp3868
g61
(dp3869
sg70
g3841
sg63
(lp3870
g56
(g77
g58
NtRp3871
(dp3872
g61
(dp3873
g81
g82
ssg70
g3867
sg63
(lp3874
S'Content-Type'
p3875
asbag56
(g77
g58
NtRp3876
(dp3877
g61
(dp3878
g88
g89
ssg70
g3867
sg63
(lp3879
S':'
asbag56
(g77
g58
NtRp3880
(dp3881
g61
(dp3882
sg70
g3867
sg63
(lp3883
g56
(g57
g58
NtRp3884
(dp3885
g61
(dp3886
g69
I4
ssg70
g3880
sg63
(lp3887
S'text/html; charset=utf-8'
p3888
asbasbasbag56
(g72
g58
NtRp3889
(dp3890
g61
(dp3891
sg70
g3841
sg63
(lp3892
g56
(g77
g58
NtRp3893
(dp3894
g61
(dp3895
g81
g82
ssg70
g3889
sg63
(lp3896
S'Expires'
p3897
asbag56
(g77
g58
NtRp3898
(dp3899
g61
(dp3900
g88
g89
ssg70
g3889
sg63
(lp3901
S':'
asbag56
(g77
g58
NtRp3902
(dp3903
g61
(dp3904
sg70
g3889
sg63
(lp3905
g56
(g57
g58
NtRp3906
(dp3907
g61
(dp3908
g69
I4
ssg70
g3902
sg63
(lp3909
S'Fri, 25 Nov 2011 23:19:54 GMT'
p3910
asbasbasbag56
(g72
g58
NtRp3911
(dp3912
g61
(dp3913
sg70
g3841
sg63
(lp3914
g56
(g77
g58
NtRp3915
(dp3916
g61
(dp3917
g81
g82
ssg70
g3911
sg63
(lp3918
S'Pragma'
p3919
asbag56
(g77
g58
NtRp3920
(dp3921
g61
(dp3922
g88
g89
ssg70
g3911
sg63
(lp3923
S':'
asbag56
(g77
g58
NtRp3924
(dp3925
g61
(dp3926
sg70
g3911
sg63
(lp3927
g56
(g57
g58
NtRp3928
(dp3929
g61
(dp3930
g69
I4
ssg70
g3924
sg63
(lp3931
S'no-cache'
p3932
asbasbasbag56
(g72
g58
NtRp3933
(dp3934
g61
(dp3935
sg70
g3841
sg63
(lp3936
g56
(g77
g58
NtRp3937
(dp3938
g61
(dp3939
g81
g82
ssg70
g3933
sg63
(lp3940
S'X-Powered-By'
p3941
asbag56
(g77
g58
NtRp3942
(dp3943
g61
(dp3944
g88
g89
ssg70
g3933
sg63
(lp3945
S':'
asbag56
(g77
g58
NtRp3946
(dp3947
g61
(dp3948
sg70
g3933
sg63
(lp3949
g56
(g57
g58
NtRp3950
(dp3951
g61
(dp3952
g69
I4
ssg70
g3946
sg63
(lp3953
S'web2py'
p3954
asbasbasbasbasbasbasbag56
(g72
g58
NtRp3955
(dp3956
g61
(dp3957
sg70
g3503
sg63
(lp3958
g56
(g77
g58
NtRp3959
(dp3960
g61
(dp3961
g81
g82
ssg70
g3955
sg63
(lp3962
S'menu'
p3963
asbag56
(g77
g58
NtRp3964
(dp3965
g61
(dp3966
g88
g89
ssg70
g3955
sg63
(lp3967
S':'
asbag56
(g77
g58
NtRp3968
(dp3969
g61
(dp3970
sg70
g3955
sg63
(lp3971
g56
(g57
g58
NtRp3972
(dp3973
g61
(dp3974
g69
I5
ssg70
g3968
sg63
(lp3975
g56
(g65
g58
NtRp3976
(dp3977
g61
(dp3978
g69
I4
ssg70
Nsg63
(lp3979
g56
(g72
g58
NtRp3980
(dp3981
g61
(dp3982
sg70
g3976
sg63
(lp3983
g56
(g77
g58
NtRp3984
(dp3985
g61
(dp3986
sg70
g3980
sg63
(lp3987
g56
(g57
g58
NtRp3988
(dp3989
g61
(dp3990
g69
I4
ssg70
g3984
sg63
(lp3991
g56
(g65
g58
NtRp3992
(dp3993
g61
(dp3994
g69
I3
ssg70
Nsg63
(lp3995
g56
(g72
g58
NtRp3996
(dp3997
g61
(dp3998
sg70
g3992
sg63
(lp3999
g56
(g77
g58
NtRp4000
(dp4001
g61
(dp4002
sg70
g3996
sg63
(lp4003
g56
(g57
g58
NtRp4004
(dp4005
g61
(dp4006
g69
I3
ssg70
g4000
sg63
(lp4007
cgluon.languages
lazyT_unpickle
p4008
(S't\x04\x00\x00\x00Home'
tRp4009
asbasbasbag56
(g72
g58
NtRp4010
(dp4011
g61
(dp4012
sg70
g3992
sg63
(lp4013
g56
(g77
g58
NtRp4014
(dp4015
g61
(dp4016
sg70
g4010
sg63
(lp4017
g56
(g57
g58
NtRp4018
(dp4019
g61
(dp4020
g69
I3
ssg70
g4014
sg63
(lp4021
g1191
asbasbasbag56
(g72
g58
NtRp4022
(dp4023
g61
(dp4024
sg70
g3992
sg63
(lp4025
g56
(g77
g58
NtRp4026
(dp4027
g61
(dp4028
sg70
g4022
sg63
(lp4029
g56
(g57
g58
NtRp4030
(dp4031
g61
(dp4032
g69
I3
ssg70
g4026
sg63
(lp4033
S'/topoi/default/index.load'
p4034
asbasbasbag56
(g72
g58
NtRp4035
(dp4036
g61
(dp4037
sg70
g3992
sg63
(lp4038
g56
(g77
g58
NtRp4039
(dp4040
g61
(dp4041
sg70
g4035
sg63
(lp4042
g56
(g57
g58
NtRp4043
(dp4044
g61
(dp4045
g69
I3
ssg70
g4039
sg63
(lp4046
g56
(g65
g58
NtRp4047
(dp4048
g61
(dp4049
g69
I2
ssg70
Nsg63
(lp4050
sbasbasbasbasbasbasbasbag56
(g72
g58
NtRp4051
(dp4052
g61
(dp4053
sg70
g3976
sg63
(lp4054
g56
(g77
g58
NtRp4055
(dp4056
g61
(dp4057
sg70
g4051
sg63
(lp4058
g56
(g57
g58
NtRp4059
(dp4060
g61
(dp4061
g69
I4
ssg70
g4055
sg63
(lp4062
g56
(g65
g58
NtRp4063
(dp4064
g61
(dp4065
g69
I3
ssg70
Nsg63
(lp4066
g56
(g72
g58
NtRp4067
(dp4068
g61
(dp4069
sg70
g4063
sg63
(lp4070
g56
(g77
g58
NtRp4071
(dp4072
g61
(dp4073
sg70
g4067
sg63
(lp4074
g56
(g57
g58
NtRp4075
(dp4076
g61
(dp4077
g69
I3
ssg70
g4071
sg63
(lp4078
g4008
(S's\x08\x00\x00\x00This App'
tRp4079
asbasbasbag56
(g72
g58
NtRp4080
(dp4081
g61
(dp4082
sg70
g4063
sg63
(lp4083
g56
(g77
g58
NtRp4084
(dp4085
g61
(dp4086
sg70
g4080
sg63
(lp4087
g56
(g57
g58
NtRp4088
(dp4089
g61
(dp4090
g69
I3
ssg70
g4084
sg63
(lp4091
g1191
asbasbasbag56
(g72
g58
NtRp4092
(dp4093
g61
(dp4094
sg70
g4063
sg63
(lp4095
g56
(g77
g58
NtRp4096
(dp4097
g61
(dp4098
sg70
g4092
sg63
(lp4099
g56
(g57
g58
NtRp4100
(dp4101
g61
(dp4102
g69
I3
ssg70
g4096
sg63
(lp4103
S'/admin/default/design/topoi.load'
p4104
asbasbasbag56
(g72
g58
NtRp4105
(dp4106
g61
(dp4107
sg70
g4063
sg63
(lp4108
g56
(g77
g58
NtRp4109
(dp4110
g61
(dp4111
sg70
g4105
sg63
(lp4112
g56
(g57
g58
NtRp4113
(dp4114
g61
(dp4115
g69
I3
ssg70
g4109
sg63
(lp4116
g56
(g65
g58
NtRp4117
(dp4118
g61
(dp4119
g69
I2
ssg70
Nsg63
(lp4120
g56
(g72
g58
NtRp4121
(dp4122
g61
(dp4123
sg70
g4117
sg63
(lp4124
g56
(g77
g58
NtRp4125
(dp4126
g61
(dp4127
sg70
g4121
sg63
(lp4128
g56
(g57
g58
NtRp4129
(dp4130
g61
(dp4131
g69
I2
ssg70
g4125
sg63
(lp4132
g56
(g65
g58
NtRp4133
(dp4134
g61
(dp4135
g69
I1
ssg70
Nsg63
(lp4136
g56
(g72
g58
NtRp4137
(dp4138
g61
(dp4139
sg70
g4133
sg63
(lp4140
g56
(g77
g58
NtRp4141
(dp4142
g61
(dp4143
sg70
g4137
sg63
(lp4144
g56
(g57
g58
NtRp4145
(dp4146
g61
(dp4147
g69
I1
ssg70
g4141
sg63
(lp4148
g4008
(S't\n\x00\x00\x00Controller'
tRp4149
asbasbasbag56
(g72
g58
NtRp4150
(dp4151
g61
(dp4152
sg70
g4133
sg63
(lp4153
g56
(g77
g58
NtRp4154
(dp4155
g61
(dp4156
sg70
g4150
sg63
(lp4157
g56
(g57
g58
NtRp4158
(dp4159
g61
(dp4160
g69
I1
ssg70
g4154
sg63
(lp4161
I00
asbasbasbag56
(g72
g58
NtRp4162
(dp4163
g61
(dp4164
sg70
g4133
sg63
(lp4165
g56
(g77
g58
NtRp4166
(dp4167
g61
(dp4168
sg70
g4162
sg63
(lp4169
g56
(g57
g58
NtRp4170
(dp4171
g61
(dp4172
g69
I1
ssg70
g4166
sg63
(lp4173
S'/admin/default/edit/topoi/controllers/plugin_listandedit.py'
p4174
asbasbasbasbasbasbasbag56
(g72
g58
NtRp4175
(dp4176
g61
(dp4177
sg70
g4117
sg63
(lp4178
g56
(g77
g58
NtRp4179
(dp4180
g61
(dp4181
sg70
g4175
sg63
(lp4182
g56
(g57
g58
NtRp4183
(dp4184
g61
(dp4185
g69
I2
ssg70
g4179
sg63
(lp4186
g56
(g65
g58
NtRp4187
(dp4188
g61
(dp4189
g69
I1
ssg70
Nsg63
(lp4190
g56
(g72
g58
NtRp4191
(dp4192
g61
(dp4193
sg70
g4187
sg63
(lp4194
g56
(g77
g58
NtRp4195
(dp4196
g61
(dp4197
sg70
g4191
sg63
(lp4198
g56
(g57
g58
NtRp4199
(dp4200
g61
(dp4201
g69
I1
ssg70
g4195
sg63
(lp4202
g4008
(S't\x04\x00\x00\x00View'
tRp4203
asbasbasbag56
(g72
g58
NtRp4204
(dp4205
g61
(dp4206
sg70
g4187
sg63
(lp4207
g56
(g77
g58
NtRp4208
(dp4209
g61
(dp4210
sg70
g4204
sg63
(lp4211
g56
(g57
g58
NtRp4212
(dp4213
g61
(dp4214
g69
I1
ssg70
g4208
sg63
(lp4215
I00
asbasbasbag56
(g72
g58
NtRp4216
(dp4217
g61
(dp4218
sg70
g4187
sg63
(lp4219
g56
(g77
g58
NtRp4220
(dp4221
g61
(dp4222
sg70
g4216
sg63
(lp4223
g56
(g57
g58
NtRp4224
(dp4225
g61
(dp4226
g69
I1
ssg70
g4220
sg63
(lp4227
S'/admin/default/edit/topoi/views/plugin_listandedit/edit.load'
p4228
asbasbasbasbasbasbasbag56
(g72
g58
NtRp4229
(dp4230
g61
(dp4231
sg70
g4117
sg63
(lp4232
g56
(g77
g58
NtRp4233
(dp4234
g61
(dp4235
sg70
g4229
sg63
(lp4236
g56
(g57
g58
NtRp4237
(dp4238
g61
(dp4239
g69
I2
ssg70
g4233
sg63
(lp4240
g56
(g65
g58
NtRp4241
(dp4242
g61
(dp4243
g69
I1
ssg70
Nsg63
(lp4244
g56
(g72
g58
NtRp4245
(dp4246
g61
(dp4247
sg70
g4241
sg63
(lp4248
g56
(g77
g58
NtRp4249
(dp4250
g61
(dp4251
sg70
g4245
sg63
(lp4252
g56
(g57
g58
NtRp4253
(dp4254
g61
(dp4255
g69
I1
ssg70
g4249
sg63
(lp4256
g4008
(S't\x06\x00\x00\x00Layout'
tRp4257
asbasbasbag56
(g72
g58
NtRp4258
(dp4259
g61
(dp4260
sg70
g4241
sg63
(lp4261
g56
(g77
g58
NtRp4262
(dp4263
g61
(dp4264
sg70
g4258
sg63
(lp4265
g56
(g57
g58
NtRp4266
(dp4267
g61
(dp4268
g69
I1
ssg70
g4262
sg63
(lp4269
I00
asbasbasbag56
(g72
g58
NtRp4270
(dp4271
g61
(dp4272
sg70
g4241
sg63
(lp4273
g56
(g77
g58
NtRp4274
(dp4275
g61
(dp4276
sg70
g4270
sg63
(lp4277
g56
(g57
g58
NtRp4278
(dp4279
g61
(dp4280
g69
I1
ssg70
g4274
sg63
(lp4281
S'/admin/default/edit/topoi/views/layout.html'
p4282
asbasbasbasbasbasbasbag56
(g72
g58
NtRp4283
(dp4284
g61
(dp4285
sg70
g4117
sg63
(lp4286
g56
(g77
g58
NtRp4287
(dp4288
g61
(dp4289
sg70
g4283
sg63
(lp4290
g56
(g57
g58
NtRp4291
(dp4292
g61
(dp4293
g69
I2
ssg70
g4287
sg63
(lp4294
g56
(g65
g58
NtRp4295
(dp4296
g61
(dp4297
g69
I1
ssg70
Nsg63
(lp4298
g56
(g72
g58
NtRp4299
(dp4300
g61
(dp4301
sg70
g4295
sg63
(lp4302
g56
(g77
g58
NtRp4303
(dp4304
g61
(dp4305
sg70
g4299
sg63
(lp4306
g56
(g57
g58
NtRp4307
(dp4308
g61
(dp4309
g69
I1
ssg70
g4303
sg63
(lp4310
g4008
(S't\n\x00\x00\x00Stylesheet'
tRp4311
asbasbasbag56
(g72
g58
NtRp4312
(dp4313
g61
(dp4314
sg70
g4295
sg63
(lp4315
g56
(g77
g58
NtRp4316
(dp4317
g61
(dp4318
sg70
g4312
sg63
(lp4319
g56
(g57
g58
NtRp4320
(dp4321
g61
(dp4322
g69
I1
ssg70
g4316
sg63
(lp4323
I00
asbasbasbag56
(g72
g58
NtRp4324
(dp4325
g61
(dp4326
sg70
g4295
sg63
(lp4327
g56
(g77
g58
NtRp4328
(dp4329
g61
(dp4330
sg70
g4324
sg63
(lp4331
g56
(g57
g58
NtRp4332
(dp4333
g61
(dp4334
g69
I1
ssg70
g4328
sg63
(lp4335
S'/admin/default/edit/topoi/static/base.css'
p4336
asbasbasbasbasbasbasbag56
(g72
g58
NtRp4337
(dp4338
g61
(dp4339
sg70
g4117
sg63
(lp4340
g56
(g77
g58
NtRp4341
(dp4342
g61
(dp4343
sg70
g4337
sg63
(lp4344
g56
(g57
g58
NtRp4345
(dp4346
g61
(dp4347
g69
I2
ssg70
g4341
sg63
(lp4348
g56
(g65
g58
NtRp4349
(dp4350
g61
(dp4351
g69
I1
ssg70
Nsg63
(lp4352
g56
(g72
g58
NtRp4353
(dp4354
g61
(dp4355
sg70
g4349
sg63
(lp4356
g56
(g77
g58
NtRp4357
(dp4358
g61
(dp4359
sg70
g4353
sg63
(lp4360
g56
(g57
g58
NtRp4361
(dp4362
g61
(dp4363
g69
I1
ssg70
g4357
sg63
(lp4364
g4008
(S's\x08\x00\x00\x00DB Model'
tRp4365
asbasbasbag56
(g72
g58
NtRp4366
(dp4367
g61
(dp4368
sg70
g4349
sg63
(lp4369
g56
(g77
g58
NtRp4370
(dp4371
g61
(dp4372
sg70
g4366
sg63
(lp4373
g56
(g57
g58
NtRp4374
(dp4375
g61
(dp4376
g69
I1
ssg70
g4370
sg63
(lp4377
I00
asbasbasbag56
(g72
g58
NtRp4378
(dp4379
g61
(dp4380
sg70
g4349
sg63
(lp4381
g56
(g77
g58
NtRp4382
(dp4383
g61
(dp4384
sg70
g4378
sg63
(lp4385
g56
(g57
g58
NtRp4386
(dp4387
g61
(dp4388
g69
I1
ssg70
g4382
sg63
(lp4389
S'/admin/default/edit/topoi/models/db.py'
p4390
asbasbasbasbasbasbasbag56
(g72
g58
NtRp4391
(dp4392
g61
(dp4393
sg70
g4117
sg63
(lp4394
g56
(g77
g58
NtRp4395
(dp4396
g61
(dp4397
sg70
g4391
sg63
(lp4398
g56
(g57
g58
NtRp4399
(dp4400
g61
(dp4401
g69
I2
ssg70
g4395
sg63
(lp4402
g56
(g65
g58
NtRp4403
(dp4404
g61
(dp4405
g69
I1
ssg70
Nsg63
(lp4406
g56
(g72
g58
NtRp4407
(dp4408
g61
(dp4409
sg70
g4403
sg63
(lp4410
g56
(g77
g58
NtRp4411
(dp4412
g61
(dp4413
sg70
g4407
sg63
(lp4414
g56
(g57
g58
NtRp4415
(dp4416
g61
(dp4417
g69
I1
ssg70
g4411
sg63
(lp4418
g4008
(S's\n\x00\x00\x00Menu Model'
tRp4419
asbasbasbag56
(g72
g58
NtRp4420
(dp4421
g61
(dp4422
sg70
g4403
sg63
(lp4423
g56
(g77
g58
NtRp4424
(dp4425
g61
(dp4426
sg70
g4420
sg63
(lp4427
g56
(g57
g58
NtRp4428
(dp4429
g61
(dp4430
g69
I1
ssg70
g4424
sg63
(lp4431
I00
asbasbasbag56
(g72
g58
NtRp4432
(dp4433
g61
(dp4434
sg70
g4403
sg63
(lp4435
g56
(g77
g58
NtRp4436
(dp4437
g61
(dp4438
sg70
g4432
sg63
(lp4439
g56
(g57
g58
NtRp4440
(dp4441
g61
(dp4442
g69
I1
ssg70
g4436
sg63
(lp4443
S'/admin/default/edit/topoi/models/menu.py'
p4444
asbasbasbasbasbasbasbag56
(g72
g58
NtRp4445
(dp4446
g61
(dp4447
sg70
g4117
sg63
(lp4448
g56
(g77
g58
NtRp4449
(dp4450
g61
(dp4451
sg70
g4445
sg63
(lp4452
g56
(g57
g58
NtRp4453
(dp4454
g61
(dp4455
g69
I2
ssg70
g4449
sg63
(lp4456
g56
(g65
g58
NtRp4457
(dp4458
g61
(dp4459
g69
I1
ssg70
Nsg63
(lp4460
g56
(g72
g58
NtRp4461
(dp4462
g61
(dp4463
sg70
g4457
sg63
(lp4464
g56
(g77
g58
NtRp4465
(dp4466
g61
(dp4467
sg70
g4461
sg63
(lp4468
g56
(g57
g58
NtRp4469
(dp4470
g61
(dp4471
g69
I1
ssg70
g4465
sg63
(lp4472
g4008
(S't\x08\x00\x00\x00Database'
tRp4473
asbasbasbag56
(g72
g58
NtRp4474
(dp4475
g61
(dp4476
sg70
g4457
sg63
(lp4477
g56
(g77
g58
NtRp4478
(dp4479
g61
(dp4480
sg70
g4474
sg63
(lp4481
g56
(g57
g58
NtRp4482
(dp4483
g61
(dp4484
g69
I1
ssg70
g4478
sg63
(lp4485
I00
asbasbasbag56
(g72
g58
NtRp4486
(dp4487
g61
(dp4488
sg70
g4457
sg63
(lp4489
g56
(g77
g58
NtRp4490
(dp4491
g61
(dp4492
sg70
g4486
sg63
(lp4493
g56
(g57
g58
NtRp4494
(dp4495
g61
(dp4496
g69
I1
ssg70
g4490
sg63
(lp4497
S'/topoi/appadmin/index.load'
p4498
asbasbasbasbasbasbasbag56
(g72
g58
NtRp4499
(dp4500
g61
(dp4501
sg70
g4117
sg63
(lp4502
g56
(g77
g58
NtRp4503
(dp4504
g61
(dp4505
sg70
g4499
sg63
(lp4506
g56
(g57
g58
NtRp4507
(dp4508
g61
(dp4509
g69
I2
ssg70
g4503
sg63
(lp4510
g56
(g65
g58
NtRp4511
(dp4512
g61
(dp4513
g69
I1
ssg70
Nsg63
(lp4514
g56
(g72
g58
NtRp4515
(dp4516
g61
(dp4517
sg70
g4511
sg63
(lp4518
g56
(g77
g58
NtRp4519
(dp4520
g61
(dp4521
sg70
g4515
sg63
(lp4522
g56
(g57
g58
NtRp4523
(dp4524
g61
(dp4525
g69
I1
ssg70
g4519
sg63
(lp4526
g4008
(S't\x06\x00\x00\x00Errors'
tRp4527
asbasbasbag56
(g72
g58
NtRp4528
(dp4529
g61
(dp4530
sg70
g4511
sg63
(lp4531
g56
(g77
g58
NtRp4532
(dp4533
g61
(dp4534
sg70
g4528
sg63
(lp4535
g56
(g57
g58
NtRp4536
(dp4537
g61
(dp4538
g69
I1
ssg70
g4532
sg63
(lp4539
I00
asbasbasbag56
(g72
g58
NtRp4540
(dp4541
g61
(dp4542
sg70
g4511
sg63
(lp4543
g56
(g77
g58
NtRp4544
(dp4545
g61
(dp4546
sg70
g4540
sg63
(lp4547
g56
(g57
g58
NtRp4548
(dp4549
g61
(dp4550
g69
I1
ssg70
g4544
sg63
(lp4551
S'/admin/default/errors/topoi.load'
p4552
asbasbasbasbasbasbasbag56
(g72
g58
NtRp4553
(dp4554
g61
(dp4555
sg70
g4117
sg63
(lp4556
g56
(g77
g58
NtRp4557
(dp4558
g61
(dp4559
sg70
g4553
sg63
(lp4560
g56
(g57
g58
NtRp4561
(dp4562
g61
(dp4563
g69
I2
ssg70
g4557
sg63
(lp4564
g56
(g65
g58
NtRp4565
(dp4566
g61
(dp4567
g69
I1
ssg70
Nsg63
(lp4568
g56
(g72
g58
NtRp4569
(dp4570
g61
(dp4571
sg70
g4565
sg63
(lp4572
g56
(g77
g58
NtRp4573
(dp4574
g61
(dp4575
sg70
g4569
sg63
(lp4576
g56
(g57
g58
NtRp4577
(dp4578
g61
(dp4579
g69
I1
ssg70
g4573
sg63
(lp4580
g4008
(S't\x05\x00\x00\x00About'
tRp4581
asbasbasbag56
(g72
g58
NtRp4582
(dp4583
g61
(dp4584
sg70
g4565
sg63
(lp4585
g56
(g77
g58
NtRp4586
(dp4587
g61
(dp4588
sg70
g4582
sg63
(lp4589
g56
(g57
g58
NtRp4590
(dp4591
g61
(dp4592
g69
I1
ssg70
g4586
sg63
(lp4593
I00
asbasbasbag56
(g72
g58
NtRp4594
(dp4595
g61
(dp4596
sg70
g4565
sg63
(lp4597
g56
(g77
g58
NtRp4598
(dp4599
g61
(dp4600
sg70
g4594
sg63
(lp4601
g56
(g57
g58
NtRp4602
(dp4603
g61
(dp4604
g69
I1
ssg70
g4598
sg63
(lp4605
S'/admin/default/about/topoi.load'
p4606
asbasbasbasbasbasbasbasbasbasbasbasbasbasbasbasbasbasbasbag56
(g72
g58
NtRp4607
(dp4608
g61
(dp4609
sg70
g3503
sg63
(lp4610
g56
(g77
g58
NtRp4611
(dp4612
g61
(dp4613
g81
g82
ssg70
g4607
sg63
(lp4614
S'meta'
p4615
asbag56
(g77
g58
NtRp4616
(dp4617
g61
(dp4618
g88
g89
ssg70
g4607
sg63
(lp4619
S':'
asbag56
(g77
g58
NtRp4620
(dp4621
g61
(dp4622
sg70
g4607
sg63
(lp4623
g56
(g57
g58
NtRp4624
(dp4625
g61
(dp4626
g69
I5
ssg70
g4620
sg63
(lp4627
g56
(g65
g58
NtRp4628
(dp4629
g61
(dp4630
g69
I4
ssg70
Nsg63
(lp4631
g56
(g72
g58
NtRp4632
(dp4633
g61
(dp4634
sg70
g4628
sg63
(lp4635
g56
(g77
g58
NtRp4636
(dp4637
g61
(dp4638
g81
g82
ssg70
g4632
sg63
(lp4639
S'author'
p4640
asbag56
(g77
g58
NtRp4641
(dp4642
g61
(dp4643
g88
g89
ssg70
g4632
sg63
(lp4644
S':'
asbag56
(g77
g58
NtRp4645
(dp4646
g61
(dp4647
sg70
g4632
sg63
(lp4648
g56
(g57
g58
NtRp4649
(dp4650
g61
(dp4651
g69
I4
ssg70
g4645
sg63
(lp4652
S'Ian W. Scott'
p4653
asbasbasbag56
(g72
g58
NtRp4654
(dp4655
g61
(dp4656
sg70
g4628
sg63
(lp4657
g56
(g77
g58
NtRp4658
(dp4659
g61
(dp4660
g81
g82
ssg70
g4654
sg63
(lp4661
S'copyright'
p4662
asbag56
(g77
g58
NtRp4663
(dp4664
g61
(dp4665
g88
g89
ssg70
g4654
sg63
(lp4666
S':'
asbag56
(g77
g58
NtRp4667
(dp4668
g61
(dp4669
sg70
g4654
sg63
(lp4670
g56
(g57
g58
NtRp4671
(dp4672
g61
(dp4673
g69
I4
ssg70
g4667
sg63
(lp4674
S'Copyright 2011'
p4675
asbasbasbag56
(g72
g58
NtRp4676
(dp4677
g61
(dp4678
sg70
g4628
sg63
(lp4679
g56
(g77
g58
NtRp4680
(dp4681
g61
(dp4682
g81
g82
ssg70
g4676
sg63
(lp4683
S'description'
p4684
asbag56
(g77
g58
NtRp4685
(dp4686
g61
(dp4687
g88
g89
ssg70
g4676
sg63
(lp4688
S':'
asbag56
(g77
g58
NtRp4689
(dp4690
g61
(dp4691
sg70
g4676
sg63
(lp4692
g56
(g57
g58
NtRp4693
(dp4694
g61
(dp4695
g69
I4
ssg70
g4689
sg63
(lp4696
S'A web-app for managing primary-text research in the humanities.'
p4697
asbasbasbag56
(g72
g58
NtRp4698
(dp4699
g61
(dp4700
sg70
g4628
sg63
(lp4701
g56
(g77
g58
NtRp4702
(dp4703
g61
(dp4704
g81
g82
ssg70
g4698
sg63
(lp4705
S'generator'
p4706
asbag56
(g77
g58
NtRp4707
(dp4708
g61
(dp4709
g88
g89
ssg70
g4698
sg63
(lp4710
S':'
asbag56
(g77
g58
NtRp4711
(dp4712
g61
(dp4713
sg70
g4698
sg63
(lp4714
g56
(g57
g58
NtRp4715
(dp4716
g61
(dp4717
g69
I4
ssg70
g4711
sg63
(lp4718
S'Web2py Enterprise Framework'
p4719
asbasbasbag56
(g72
g58
NtRp4720
(dp4721
g61
(dp4722
sg70
g4628
sg63
(lp4723
g56
(g77
g58
NtRp4724
(dp4725
g61
(dp4726
g81
g82
ssg70
g4720
sg63
(lp4727
S'keywords'
p4728
asbag56
(g77
g58
NtRp4729
(dp4730
g61
(dp4731
g88
g89
ssg70
g4720
sg63
(lp4732
S':'
asbag56
(g77
g58
NtRp4733
(dp4734
g61
(dp4735
sg70
g4720
sg63
(lp4736
g56
(g57
g58
NtRp4737
(dp4738
g61
(dp4739
g69
I4
ssg70
g4733
sg63
(lp4740
S'research, humanities, biblical'
p4741
asbasbasbasbasbasbasbag56
(g72
g58
NtRp4742
(dp4743
g61
(dp4744
sg70
g3503
sg63
(lp4745
g56
(g77
g58
NtRp4746
(dp4747
g61
(dp4748
g81
g82
ssg70
g4742
sg63
(lp4749
S'postprocessing'
p4750
asbag56
(g77
g58
NtRp4751
(dp4752
g61
(dp4753
g88
g89
ssg70
g4742
sg63
(lp4754
S':'
asbag56
(g77
g58
NtRp4755
(dp4756
g61
(dp4757
sg70
g4742
sg63
(lp4758
g56
(g57
g58
NtRp4759
(dp4760
g61
(dp4761
g69
I5
ssg70
g4755
sg63
(lp4762
g56
(g65
g58
NtRp4763
(dp4764
g61
(dp4765
g69
I4
ssg70
Nsg63
(lp4766
sbasbasbasbag56
(g72
g58
NtRp4767
(dp4768
g61
(dp4769
sg70
g3503
sg63
(lp4770
g56
(g77
g58
NtRp4771
(dp4772
g61
(dp4773
g81
g82
ssg70
g4767
sg63
(lp4774
S'session_filename'
p4775
asbag56
(g77
g58
NtRp4776
(dp4777
g61
(dp4778
g88
g89
ssg70
g4767
sg63
(lp4779
S':'
asbag56
(g77
g58
NtRp4780
(dp4781
g61
(dp4782
sg70
g4767
sg63
(lp4783
g56
(g57
g58
NtRp4784
(dp4785
g61
(dp4786
g69
I5
ssg70
g4780
sg63
(lp4787
S'/home/ian/web2py/applications/topoi/sessions/127.0.0.1-e6f634a8-22c9-4770-8fed-0a2ed1f1ba76'
p4788
asbasbasbag56
(g72
g58
NtRp4789
(dp4790
g61
(dp4791
sg70
g3503
sg63
(lp4792
g56
(g77
g58
NtRp4793
(dp4794
g61
(dp4795
g81
g82
ssg70
g4789
sg63
(lp4796
S'session_id'
p4797
asbag56
(g77
g58
NtRp4798
(dp4799
g61
(dp4800
g88
g89
ssg70
g4789
sg63
(lp4801
S':'
asbag56
(g77
g58
NtRp4802
(dp4803
g61
(dp4804
sg70
g4789
sg63
(lp4805
g56
(g57
g58
NtRp4806
(dp4807
g61
(dp4808
g69
I5
ssg70
g4802
sg63
(lp4809
S'127.0.0.1-e6f634a8-22c9-4770-8fed-0a2ed1f1ba76'
p4810
asbasbasbag56
(g72
g58
NtRp4811
(dp4812
g61
(dp4813
sg70
g3503
sg63
(lp4814
g56
(g77
g58
NtRp4815
(dp4816
g61
(dp4817
g81
g82
ssg70
g4811
sg63
(lp4818
S'session_id_name'
p4819
asbag56
(g77
g58
NtRp4820
(dp4821
g61
(dp4822
g88
g89
ssg70
g4811
sg63
(lp4823
S':'
asbag56
(g77
g58
NtRp4824
(dp4825
g61
(dp4826
sg70
g4811
sg63
(lp4827
g56
(g57
g58
NtRp4828
(dp4829
g61
(dp4830
g69
I5
ssg70
g4824
sg63
(lp4831
g3560
asbasbasbag56
(g72
g58
NtRp4832
(dp4833
g61
(dp4834
sg70
g3503
sg63
(lp4835
g56
(g77
g58
NtRp4836
(dp4837
g61
(dp4838
g81
g82
ssg70
g4832
sg63
(lp4839
S'session_new'
p4840
asbag56
(g77
g58
NtRp4841
(dp4842
g61
(dp4843
g88
g89
ssg70
g4832
sg63
(lp4844
S':'
asbag56
(g77
g58
NtRp4845
(dp4846
g61
(dp4847
sg70
g4832
sg63
(lp4848
g56
(g57
g58
NtRp4849
(dp4850
g61
(dp4851
g69
I5
ssg70
g4845
sg63
(lp4852
g99
asbasbasbag56
(g72
g58
NtRp4853
(dp4854
g61
(dp4855
sg70
g3503
sg63
(lp4856
g56
(g77
g58
NtRp4857
(dp4858
g61
(dp4859
g81
g82
ssg70
g4853
sg63
(lp4860
S'status'
p4861
asbag56
(g77
g58
NtRp4862
(dp4863
g61
(dp4864
g88
g89
ssg70
g4853
sg63
(lp4865
S':'
asbag56
(g77
g58
NtRp4866
(dp4867
g61
(dp4868
sg70
g4853
sg63
(lp4869
g56
(g57
g58
NtRp4870
(dp4871
g61
(dp4872
g69
I5
ssg70
g4866
sg63
(lp4873
S'200'
p4874
asbasbasbag56
(g72
g58
NtRp4875
(dp4876
g61
(dp4877
sg70
g3503
sg63
(lp4878
g56
(g77
g58
NtRp4879
(dp4880
g61
(dp4881
g81
g82
ssg70
g4875
sg63
(lp4882
S'subtitle'
p4883
asbag56
(g77
g58
NtRp4884
(dp4885
g61
(dp4886
g88
g89
ssg70
g4875
sg63
(lp4887
S':'
asbag56
(g77
g58
NtRp4888
(dp4889
g61
(dp4890
sg70
g4875
sg63
(lp4891
g56
(g57
g58
NtRp4892
(dp4893
g61
(dp4894
g69
I5
ssg70
g4888
sg63
(lp4895
g4008
(S's;\x00\x00\x00A tool for managing primary-text research in the humanities'
tRp4896
asbasbasbag56
(g72
g58
NtRp4897
(dp4898
g61
(dp4899
sg70
g3503
sg63
(lp4900
g56
(g77
g58
NtRp4901
(dp4902
g61
(dp4903
g81
g82
ssg70
g4897
sg63
(lp4904
S'title'
p4905
asbag56
(g77
g58
NtRp4906
(dp4907
g61
(dp4908
g88
g89
ssg70
g4897
sg63
(lp4909
S':'
asbag56
(g77
g58
NtRp4910
(dp4911
g61
(dp4912
sg70
g4897
sg63
(lp4913
g56
(g57
g58
NtRp4914
(dp4915
g61
(dp4916
g69
I5
ssg70
g4910
sg63
(lp4917
g121
asbasbasbag56
(g72
g58
NtRp4918
(dp4919
g61
(dp4920
sg70
g3503
sg63
(lp4921
g56
(g77
g58
NtRp4922
(dp4923
g61
(dp4924
g81
g82
ssg70
g4918
sg63
(lp4925
g2618
asbag56
(g77
g58
NtRp4926
(dp4927
g61
(dp4928
g88
g89
ssg70
g4918
sg63
(lp4929
S':'
asbag56
(g77
g58
NtRp4930
(dp4931
g61
(dp4932
sg70
g4918
sg63
(lp4933
g56
(g57
g58
NtRp4934
(dp4935
g61
(dp4936
g69
I5
ssg70
g4930
sg63
(lp4937
g2631
asbasbasbag56
(g72
g58
NtRp4938
(dp4939
g61
(dp4940
sg70
g3503
sg63
(lp4941
g56
(g77
g58
NtRp4942
(dp4943
g61
(dp4944
g81
g82
ssg70
g4938
sg63
(lp4945
S'view'
p4946
asbag56
(g77
g58
NtRp4947
(dp4948
g61
(dp4949
g88
g89
ssg70
g4938
sg63
(lp4950
S':'
asbag56
(g77
g58
NtRp4951
(dp4952
g61
(dp4953
sg70
g4938
sg63
(lp4954
g56
(g57
g58
NtRp4955
(dp4956
g61
(dp4957
g69
I5
ssg70
g4951
sg63
(lp4958
S'plugin_listandedit/edit.load'
p4959
asbasbasbasbasbsS'locals'
p4960
(dp4961
S'self'
p4962
S'<applications.topoi.modules.plugin_selectoradd.SELECT_OR_ADD_OPTION object>'
p4963
sS'add_args'
p4964
S"['notes_author']"
p4965
sS'value'
p4966
S'9'
sS'field'
p4967
S'<gluon.dal.Field object>'
p4968
sS'my_select_id'
p4969
S"'notes_author'"
p4970
sS'select_widget'
p4971
S'<gluon.html.SELECT object>'
p4972
sssS'traceback'
p4973
S'Traceback (most recent call last):\n  File "/home/ian/web2py/gluon/restricted.py", line 194, in restricted\n    exec ccode in environment\n  File "/home/ian/web2py/applications/topoi/controllers/plugin_listandedit.py", line 37, in <module>\n  File "/home/ian/web2py/gluon/globals.py", line 149, in <lambda>\n    self._caller = lambda f: f()\n  File "/home/ian/web2py/applications/topoi/controllers/plugin_listandedit.py", line 33, in edit\n    form = crud.update(db[tablename], rowid)\n  File "/home/ian/web2py/gluon/tools.py", line 2952, in update\n    separator=self.settings.label_separator\n  File "/home/ian/web2py/gluon/sqlhtml.py", line 853, in __init__\n    inp = field.widget(field, default)\n  File "applications/topoi/modules/plugin_selectoradd.py", line 38, in widget\n    form_loader_div = DIV(LOAD(c = self.controller, f = self.function, args = add_args, ajax = True), _id = my_select_id + "_dialog-form", _title = self.form_title)\nNameError: global name \'LOAD\' is not defined\n'
p4974
s.