(dp1
S'output'
p2
S''
sS'layer'
p3
S'/home/ian/web2py/applications/topoi/controllers/default.py'
p4
sS'code'
p5
S'# -*- coding: utf-8 -*-\n# this file is released under public domain and you can use without limitations\n\n#########################################################################\n## This is a samples controller\n## - index is the default action of any application\n## - user is required for authentication and authorization\n## - download is for downloading files uploaded in the db (does streaming)\n## - call exposes all registered services (none by default)\n#########################################################################\n\ndef index():\n    """\n    example action using the internationalization operator T and flash\n    rendered by views/default/index.html or views/generic.html\n    """\n    return dict(message=T(\'Hello World\'))\n\ndef user():\n    """\n    exposes:\n    http://..../[app]/default/user/login\n    http://..../[app]/default/user/logout\n    http://..../[app]/default/user/register\n    http://..../[app]/default/user/profile\n    http://..../[app]/default/user/retrieve_password\n    http://..../[app]/default/user/change_password\n    use @auth.requires_login()\n        @auth.requires_membership(\'group name\')\n        @auth.requires_permission(\'read\',\'table name\',record_id)\n    to decorate functions that need access control\n    """\n    return dict(form=auth())\n\n\ndef download():\n    """\n    allows downloading of uploaded files\n    http://..../[app]/default/download/[filename]\n    """\n    return response.download(request,db)\n\n\ndef call():\n    """\n    exposes services. for example:\n    http://..../[app]/default/call/jsonrpc\n    decorate with @services.jsonrpc the functions to expose\n    supports xml, json, xmlrpc, jsonrpc, amfrpc, rss, csv\n    """\n    return service()\n\n\n@auth.requires_signature()\ndef data():\n    """\n    http://..../[app]/default/data/tables\n    http://..../[app]/default/data/create/[table]\n    http://..../[app]/default/data/read/[table]/[id]\n    http://..../[app]/default/data/update/[table]/[id]\n    http://..../[app]/default/data/delete/[table]/[id[\n    http://..../[app]/default/data/select/[table]\n    http://..../[app]/default/data/search/[table]\n    but URLs bust be signed, i.e. linked with\n      A(\'table\',_href=URL(\'data/tables\',user_signature=True))\n    or with the signed load operator\n      LOAD(\'default\',\'data.load\',args=\'tables\',ajax=True,user_signature=True)\n    """\n    return dict(form=crud())\n\n@auth.requires_login()\ndef notes():\n    form = SQLFORM.grid(db.notes)\n    \n    return dict(form=form)\n\n@auth.requires_login()\n\ndef add():\n    tb = request.args[0]\n    #FIXME: Hack here to solve problem of field name not being identical to table name\n    tb = tb.split(\'_\')[1] + \'s\'\n    the_table = "db.%" % tb\n    the_form = SQLFORM(the_table)\n    print the_form\n    form = the_form\n    if form.accepts(request.vars):\n        response.flash = T("new author added")\n        target= request.args[0]\n        #close the widget\'s dialog box\n        response.js = \'$( "#%s_dialog-form" ).dialog( "close" ); \' %(target)\n        #update the options they can select their new category in the main form                \n        response.js += """$("#%s").append("<option value=\'%s\'>%s</option>");""" % (target, form.vars.id, form.vars.name)\n        #and select the one they just added\n        response.js += """$("#%s").val("%s");""" % (target, form.vars.id)\n        #finally, return a blank form incase for some reason they wanted to add another option\n        return form\n    elif form.errors:\n        #silly user, just send back the form and it\'ll still be in our dialog box complete with error messages\n        return form\n    else:\n        #hasn\'t been submitted yet, just give them the fresh blank form        \n        return form\n    return dict(form = form)\n\nresponse._vars=response._caller(add)\n'
p6
sS'snapshot'
p7
(dp8
S'exception'
p9
(dp10
S'__hash__'
p11
S"<method-wrapper '__hash__' of exceptions.ValueError object>"
p12
sS'__setattr__'
p13
S"<method-wrapper '__setattr__' of exceptions.ValueError object>"
p14
sS'__reduce_ex__'
p15
S'<built-in method __reduce_ex__ of exceptions.ValueError object>'
p16
sS'__getslice__'
p17
S"<method-wrapper '__getslice__' of exceptions.ValueError object>"
p18
sS'__getitem__'
p19
S"<method-wrapper '__getitem__' of exceptions.ValueError object>"
p20
sS'__setstate__'
p21
S'<built-in method __setstate__ of exceptions.ValueError object>'
p22
sS'args'
p23
S"('incomplete format',)"
p24
sS'__reduce__'
p25
S'<built-in method __reduce__ of exceptions.ValueError object>'
p26
sS'__str__'
p27
S"<method-wrapper '__str__' of exceptions.ValueError object>"
p28
sS'__format__'
p29
S'<built-in method __format__ of exceptions.ValueError object>'
p30
sS'__getattribute__'
p31
S"<method-wrapper '__getattribute__' of exceptions.ValueError object>"
p32
sS'__class__'
p33
S"<type 'exceptions.ValueError'>"
p34
sS'__unicode__'
p35
S'<built-in method __unicode__ of exceptions.ValueError object>'
p36
sS'__delattr__'
p37
S"<method-wrapper '__delattr__' of exceptions.ValueError object>"
p38
sS'__subclasshook__'
p39
S'<built-in method __subclasshook__ of type object>'
p40
sS'__repr__'
p41
S"<method-wrapper '__repr__' of exceptions.ValueError object>"
p42
sS'__dict__'
p43
S'{}'
p44
sS'__sizeof__'
p45
S'<built-in method __sizeof__ of exceptions.ValueError object>'
p46
sS'__doc__'
p47
S"'Inappropriate argument value (of correct type).'"
p48
sS'__init__'
p49
S"<method-wrapper '__init__' of exceptions.ValueError object>"
p50
sS'__new__'
p51
S'<built-in method __new__ of type object>'
p52
ssS'evalue'
p53
S'incomplete format'
p54
sS'request'
p55
ccopy_reg
_reconstructor
p56
(cgluon.html
BEAUTIFY
p57
c__builtin__
object
p58
NtRp59
(dp60
S'attributes'
p61
(dp62
sS'components'
p63
(lp64
g56
(cgluon.html
TABLE
p65
g58
NtRp66
(dp67
g61
(dp68
S'level'
p69
I5
ssS'parent'
p70
Nsg63
(lp71
g56
(cgluon.html
TR
p72
g58
NtRp73
(dp74
g61
(dp75
sg70
g66
sg63
(lp76
g56
(cgluon.html
TD
p77
g58
NtRp78
(dp79
g61
(dp80
S'_style'
p81
S'font-weight:bold;'
p82
ssg70
g73
sg63
(lp83
S'ajax'
p84
asbag56
(g77
g58
NtRp85
(dp86
g61
(dp87
S'_valign'
p88
S'top'
p89
ssg70
g73
sg63
(lp90
S':'
asbag56
(g77
g58
NtRp91
(dp92
g61
(dp93
sg70
g73
sg63
(lp94
g56
(g57
g58
NtRp95
(dp96
g61
(dp97
g69
I5
ssg70
g91
sg63
(lp98
S'True'
p99
asbasbasbag56
(g72
g58
NtRp100
(dp101
g61
(dp102
sg70
g66
sg63
(lp103
g56
(g77
g58
NtRp104
(dp105
g61
(dp106
g81
g82
ssg70
g100
sg63
(lp107
S'application'
p108
asbag56
(g77
g58
NtRp109
(dp110
g61
(dp111
g88
g89
ssg70
g100
sg63
(lp112
S':'
asbag56
(g77
g58
NtRp113
(dp114
g61
(dp115
sg70
g100
sg63
(lp116
g56
(g57
g58
NtRp117
(dp118
g61
(dp119
g69
I5
ssg70
g113
sg63
(lp120
S'topoi'
p121
asbasbasbag56
(g72
g58
NtRp122
(dp123
g61
(dp124
sg70
g66
sg63
(lp125
g56
(g77
g58
NtRp126
(dp127
g61
(dp128
g81
g82
ssg70
g122
sg63
(lp129
g23
asbag56
(g77
g58
NtRp130
(dp131
g61
(dp132
g88
g89
ssg70
g122
sg63
(lp133
S':'
asbag56
(g77
g58
NtRp134
(dp135
g61
(dp136
sg70
g122
sg63
(lp137
g56
(g57
g58
NtRp138
(dp139
g61
(dp140
g69
I5
ssg70
g134
sg63
(lp141
g56
(g65
g58
NtRp142
(dp143
g61
(dp144
g69
I4
ssg70
Nsg63
(lp145
g56
(g72
g58
NtRp146
(dp147
g61
(dp148
sg70
g142
sg63
(lp149
g56
(g77
g58
NtRp150
(dp151
g61
(dp152
sg70
g146
sg63
(lp153
g56
(g57
g58
NtRp154
(dp155
g61
(dp156
g69
I4
ssg70
g150
sg63
(lp157
S'notes_author'
p158
asbasbasbasbasbasbasbag56
(g72
g58
NtRp159
(dp160
g61
(dp161
sg70
g66
sg63
(lp162
g56
(g77
g58
NtRp163
(dp164
g61
(dp165
g81
g82
ssg70
g159
sg63
(lp166
S'body'
p167
asbag56
(g77
g58
NtRp168
(dp169
g61
(dp170
g88
g89
ssg70
g159
sg63
(lp171
S':'
asbag56
(g77
g58
NtRp172
(dp173
g61
(dp174
sg70
g159
sg63
(lp175
g56
(g57
g58
NtRp176
(dp177
g61
(dp178
g69
I5
ssg70
g172
sg63
(lp179
S'<cStringIO.StringO object at 0x2414928>'
p180
asbasbasbag56
(g72
g58
NtRp181
(dp182
g61
(dp183
sg70
g66
sg63
(lp184
g56
(g77
g58
NtRp185
(dp186
g61
(dp187
g81
g82
ssg70
g181
sg63
(lp188
S'cid'
p189
asbag56
(g77
g58
NtRp190
(dp191
g61
(dp192
g88
g89
ssg70
g181
sg63
(lp193
S':'
asbag56
(g77
g58
NtRp194
(dp195
g61
(dp196
sg70
g181
sg63
(lp197
g56
(g57
g58
NtRp198
(dp199
g61
(dp200
g69
I5
ssg70
g194
sg63
(lp201
S'c748454150058'
p202
asbasbasbag56
(g72
g58
NtRp203
(dp204
g61
(dp205
sg70
g66
sg63
(lp206
g56
(g77
g58
NtRp207
(dp208
g61
(dp209
g81
g82
ssg70
g203
sg63
(lp210
S'client'
p211
asbag56
(g77
g58
NtRp212
(dp213
g61
(dp214
g88
g89
ssg70
g203
sg63
(lp215
S':'
asbag56
(g77
g58
NtRp216
(dp217
g61
(dp218
sg70
g203
sg63
(lp219
g56
(g57
g58
NtRp220
(dp221
g61
(dp222
g69
I5
ssg70
g216
sg63
(lp223
S'127.0.0.1'
p224
asbasbasbag56
(g72
g58
NtRp225
(dp226
g61
(dp227
sg70
g66
sg63
(lp228
g56
(g77
g58
NtRp229
(dp230
g61
(dp231
g81
g82
ssg70
g225
sg63
(lp232
S'controller'
p233
asbag56
(g77
g58
NtRp234
(dp235
g61
(dp236
g88
g89
ssg70
g225
sg63
(lp237
S':'
asbag56
(g77
g58
NtRp238
(dp239
g61
(dp240
sg70
g225
sg63
(lp241
g56
(g57
g58
NtRp242
(dp243
g61
(dp244
g69
I5
ssg70
g238
sg63
(lp245
S'default'
p246
asbasbasbag56
(g72
g58
NtRp247
(dp248
g61
(dp249
sg70
g66
sg63
(lp250
g56
(g77
g58
NtRp251
(dp252
g61
(dp253
g81
g82
ssg70
g247
sg63
(lp254
S'cookies'
p255
asbag56
(g77
g58
NtRp256
(dp257
g61
(dp258
g88
g89
ssg70
g247
sg63
(lp259
S':'
asbag56
(g77
g58
NtRp260
(dp261
g61
(dp262
sg70
g247
sg63
(lp263
g56
(g57
g58
NtRp264
(dp265
g61
(dp266
g69
I5
ssg70
g260
sg63
(lp267
g56
(g65
g58
NtRp268
(dp269
g61
(dp270
g69
I4
ssg70
Nsg63
(lp271
g56
(g72
g58
NtRp272
(dp273
g61
(dp274
sg70
g268
sg63
(lp275
g56
(g77
g58
NtRp276
(dp277
g61
(dp278
g81
g82
ssg70
g272
sg63
(lp279
S'session_id_admin'
p280
asbag56
(g77
g58
NtRp281
(dp282
g61
(dp283
g88
g89
ssg70
g272
sg63
(lp284
S':'
asbag56
(g77
g58
NtRp285
(dp286
g61
(dp287
sg70
g272
sg63
(lp288
g56
(g57
g58
NtRp289
(dp290
g61
(dp291
g69
I4
ssg70
g285
sg63
(lp292
g56
(g65
g58
NtRp293
(dp294
g61
(dp295
g69
I3
ssg70
Nsg63
(lp296
g56
(g72
g58
NtRp297
(dp298
g61
(dp299
sg70
g293
sg63
(lp300
g56
(g77
g58
NtRp301
(dp302
g61
(dp303
g81
g82
ssg70
g297
sg63
(lp304
S'comment'
p305
asbag56
(g77
g58
NtRp306
(dp307
g61
(dp308
g88
g89
ssg70
g297
sg63
(lp309
S':'
asbag56
(g77
g58
NtRp310
(dp311
g61
(dp312
sg70
g297
sg63
(lp313
g56
(g57
g58
NtRp314
(dp315
g61
(dp316
g69
I3
ssg70
g310
sg63
(lp317
S''
asbasbasbag56
(g72
g58
NtRp318
(dp319
g61
(dp320
sg70
g293
sg63
(lp321
g56
(g77
g58
NtRp322
(dp323
g61
(dp324
g81
g82
ssg70
g318
sg63
(lp325
S'domain'
p326
asbag56
(g77
g58
NtRp327
(dp328
g61
(dp329
g88
g89
ssg70
g318
sg63
(lp330
S':'
asbag56
(g77
g58
NtRp331
(dp332
g61
(dp333
sg70
g318
sg63
(lp334
g56
(g57
g58
NtRp335
(dp336
g61
(dp337
g69
I3
ssg70
g331
sg63
(lp338
S''
asbasbasbag56
(g72
g58
NtRp339
(dp340
g61
(dp341
sg70
g293
sg63
(lp342
g56
(g77
g58
NtRp343
(dp344
g61
(dp345
g81
g82
ssg70
g339
sg63
(lp346
S'expires'
p347
asbag56
(g77
g58
NtRp348
(dp349
g61
(dp350
g88
g89
ssg70
g339
sg63
(lp351
S':'
asbag56
(g77
g58
NtRp352
(dp353
g61
(dp354
sg70
g339
sg63
(lp355
g56
(g57
g58
NtRp356
(dp357
g61
(dp358
g69
I3
ssg70
g352
sg63
(lp359
S''
asbasbasbag56
(g72
g58
NtRp360
(dp361
g61
(dp362
sg70
g293
sg63
(lp363
g56
(g77
g58
NtRp364
(dp365
g61
(dp366
g81
g82
ssg70
g360
sg63
(lp367
S'httponly'
p368
asbag56
(g77
g58
NtRp369
(dp370
g61
(dp371
g88
g89
ssg70
g360
sg63
(lp372
S':'
asbag56
(g77
g58
NtRp373
(dp374
g61
(dp375
sg70
g360
sg63
(lp376
g56
(g57
g58
NtRp377
(dp378
g61
(dp379
g69
I3
ssg70
g373
sg63
(lp380
S''
asbasbasbag56
(g72
g58
NtRp381
(dp382
g61
(dp383
sg70
g293
sg63
(lp384
g56
(g77
g58
NtRp385
(dp386
g61
(dp387
g81
g82
ssg70
g381
sg63
(lp388
S'max-age'
p389
asbag56
(g77
g58
NtRp390
(dp391
g61
(dp392
g88
g89
ssg70
g381
sg63
(lp393
S':'
asbag56
(g77
g58
NtRp394
(dp395
g61
(dp396
sg70
g381
sg63
(lp397
g56
(g57
g58
NtRp398
(dp399
g61
(dp400
g69
I3
ssg70
g394
sg63
(lp401
S''
asbasbasbag56
(g72
g58
NtRp402
(dp403
g61
(dp404
sg70
g293
sg63
(lp405
g56
(g77
g58
NtRp406
(dp407
g61
(dp408
g81
g82
ssg70
g402
sg63
(lp409
S'path'
p410
asbag56
(g77
g58
NtRp411
(dp412
g61
(dp413
g88
g89
ssg70
g402
sg63
(lp414
S':'
asbag56
(g77
g58
NtRp415
(dp416
g61
(dp417
sg70
g402
sg63
(lp418
g56
(g57
g58
NtRp419
(dp420
g61
(dp421
g69
I3
ssg70
g415
sg63
(lp422
S''
asbasbasbag56
(g72
g58
NtRp423
(dp424
g61
(dp425
sg70
g293
sg63
(lp426
g56
(g77
g58
NtRp427
(dp428
g61
(dp429
g81
g82
ssg70
g423
sg63
(lp430
S'secure'
p431
asbag56
(g77
g58
NtRp432
(dp433
g61
(dp434
g88
g89
ssg70
g423
sg63
(lp435
S':'
asbag56
(g77
g58
NtRp436
(dp437
g61
(dp438
sg70
g423
sg63
(lp439
g56
(g57
g58
NtRp440
(dp441
g61
(dp442
g69
I3
ssg70
g436
sg63
(lp443
S''
asbasbasbag56
(g72
g58
NtRp444
(dp445
g61
(dp446
sg70
g293
sg63
(lp447
g56
(g77
g58
NtRp448
(dp449
g61
(dp450
g81
g82
ssg70
g444
sg63
(lp451
S'version'
p452
asbag56
(g77
g58
NtRp453
(dp454
g61
(dp455
g88
g89
ssg70
g444
sg63
(lp456
S':'
asbag56
(g77
g58
NtRp457
(dp458
g61
(dp459
sg70
g444
sg63
(lp460
g56
(g57
g58
NtRp461
(dp462
g61
(dp463
g69
I3
ssg70
g457
sg63
(lp464
S''
asbasbasbasbasbasbasbag56
(g72
g58
NtRp465
(dp466
g61
(dp467
sg70
g268
sg63
(lp468
g56
(g77
g58
NtRp469
(dp470
g61
(dp471
g81
g82
ssg70
g465
sg63
(lp472
S'session_id_topoi'
p473
asbag56
(g77
g58
NtRp474
(dp475
g61
(dp476
g88
g89
ssg70
g465
sg63
(lp477
S':'
asbag56
(g77
g58
NtRp478
(dp479
g61
(dp480
sg70
g465
sg63
(lp481
g56
(g57
g58
NtRp482
(dp483
g61
(dp484
g69
I4
ssg70
g478
sg63
(lp485
g56
(g65
g58
NtRp486
(dp487
g61
(dp488
g69
I3
ssg70
Nsg63
(lp489
g56
(g72
g58
NtRp490
(dp491
g61
(dp492
sg70
g486
sg63
(lp493
g56
(g77
g58
NtRp494
(dp495
g61
(dp496
g81
g82
ssg70
g490
sg63
(lp497
g305
asbag56
(g77
g58
NtRp498
(dp499
g61
(dp500
g88
g89
ssg70
g490
sg63
(lp501
S':'
asbag56
(g77
g58
NtRp502
(dp503
g61
(dp504
sg70
g490
sg63
(lp505
g56
(g57
g58
NtRp506
(dp507
g61
(dp508
g69
I3
ssg70
g502
sg63
(lp509
S''
asbasbasbag56
(g72
g58
NtRp510
(dp511
g61
(dp512
sg70
g486
sg63
(lp513
g56
(g77
g58
NtRp514
(dp515
g61
(dp516
g81
g82
ssg70
g510
sg63
(lp517
g326
asbag56
(g77
g58
NtRp518
(dp519
g61
(dp520
g88
g89
ssg70
g510
sg63
(lp521
S':'
asbag56
(g77
g58
NtRp522
(dp523
g61
(dp524
sg70
g510
sg63
(lp525
g56
(g57
g58
NtRp526
(dp527
g61
(dp528
g69
I3
ssg70
g522
sg63
(lp529
S''
asbasbasbag56
(g72
g58
NtRp530
(dp531
g61
(dp532
sg70
g486
sg63
(lp533
g56
(g77
g58
NtRp534
(dp535
g61
(dp536
g81
g82
ssg70
g530
sg63
(lp537
g347
asbag56
(g77
g58
NtRp538
(dp539
g61
(dp540
g88
g89
ssg70
g530
sg63
(lp541
S':'
asbag56
(g77
g58
NtRp542
(dp543
g61
(dp544
sg70
g530
sg63
(lp545
g56
(g57
g58
NtRp546
(dp547
g61
(dp548
g69
I3
ssg70
g542
sg63
(lp549
S''
asbasbasbag56
(g72
g58
NtRp550
(dp551
g61
(dp552
sg70
g486
sg63
(lp553
g56
(g77
g58
NtRp554
(dp555
g61
(dp556
g81
g82
ssg70
g550
sg63
(lp557
g368
asbag56
(g77
g58
NtRp558
(dp559
g61
(dp560
g88
g89
ssg70
g550
sg63
(lp561
S':'
asbag56
(g77
g58
NtRp562
(dp563
g61
(dp564
sg70
g550
sg63
(lp565
g56
(g57
g58
NtRp566
(dp567
g61
(dp568
g69
I3
ssg70
g562
sg63
(lp569
S''
asbasbasbag56
(g72
g58
NtRp570
(dp571
g61
(dp572
sg70
g486
sg63
(lp573
g56
(g77
g58
NtRp574
(dp575
g61
(dp576
g81
g82
ssg70
g570
sg63
(lp577
g389
asbag56
(g77
g58
NtRp578
(dp579
g61
(dp580
g88
g89
ssg70
g570
sg63
(lp581
S':'
asbag56
(g77
g58
NtRp582
(dp583
g61
(dp584
sg70
g570
sg63
(lp585
g56
(g57
g58
NtRp586
(dp587
g61
(dp588
g69
I3
ssg70
g582
sg63
(lp589
S''
asbasbasbag56
(g72
g58
NtRp590
(dp591
g61
(dp592
sg70
g486
sg63
(lp593
g56
(g77
g58
NtRp594
(dp595
g61
(dp596
g81
g82
ssg70
g590
sg63
(lp597
g410
asbag56
(g77
g58
NtRp598
(dp599
g61
(dp600
g88
g89
ssg70
g590
sg63
(lp601
S':'
asbag56
(g77
g58
NtRp602
(dp603
g61
(dp604
sg70
g590
sg63
(lp605
g56
(g57
g58
NtRp606
(dp607
g61
(dp608
g69
I3
ssg70
g602
sg63
(lp609
S''
asbasbasbag56
(g72
g58
NtRp610
(dp611
g61
(dp612
sg70
g486
sg63
(lp613
g56
(g77
g58
NtRp614
(dp615
g61
(dp616
g81
g82
ssg70
g610
sg63
(lp617
g431
asbag56
(g77
g58
NtRp618
(dp619
g61
(dp620
g88
g89
ssg70
g610
sg63
(lp621
S':'
asbag56
(g77
g58
NtRp622
(dp623
g61
(dp624
sg70
g610
sg63
(lp625
g56
(g57
g58
NtRp626
(dp627
g61
(dp628
g69
I3
ssg70
g622
sg63
(lp629
S''
asbasbasbag56
(g72
g58
NtRp630
(dp631
g61
(dp632
sg70
g486
sg63
(lp633
g56
(g77
g58
NtRp634
(dp635
g61
(dp636
g81
g82
ssg70
g630
sg63
(lp637
g452
asbag56
(g77
g58
NtRp638
(dp639
g61
(dp640
g88
g89
ssg70
g630
sg63
(lp641
S':'
asbag56
(g77
g58
NtRp642
(dp643
g61
(dp644
sg70
g630
sg63
(lp645
g56
(g57
g58
NtRp646
(dp647
g61
(dp648
g69
I3
ssg70
g642
sg63
(lp649
S''
asbasbasbasbasbasbasbag56
(g72
g58
NtRp650
(dp651
g61
(dp652
sg70
g268
sg63
(lp653
g56
(g77
g58
NtRp654
(dp655
g61
(dp656
g81
g82
ssg70
g650
sg63
(lp657
S'session_id_welcome'
p658
asbag56
(g77
g58
NtRp659
(dp660
g61
(dp661
g88
g89
ssg70
g650
sg63
(lp662
S':'
asbag56
(g77
g58
NtRp663
(dp664
g61
(dp665
sg70
g650
sg63
(lp666
g56
(g57
g58
NtRp667
(dp668
g61
(dp669
g69
I4
ssg70
g663
sg63
(lp670
g56
(g65
g58
NtRp671
(dp672
g61
(dp673
g69
I3
ssg70
Nsg63
(lp674
g56
(g72
g58
NtRp675
(dp676
g61
(dp677
sg70
g671
sg63
(lp678
g56
(g77
g58
NtRp679
(dp680
g61
(dp681
g81
g82
ssg70
g675
sg63
(lp682
g305
asbag56
(g77
g58
NtRp683
(dp684
g61
(dp685
g88
g89
ssg70
g675
sg63
(lp686
S':'
asbag56
(g77
g58
NtRp687
(dp688
g61
(dp689
sg70
g675
sg63
(lp690
g56
(g57
g58
NtRp691
(dp692
g61
(dp693
g69
I3
ssg70
g687
sg63
(lp694
S''
asbasbasbag56
(g72
g58
NtRp695
(dp696
g61
(dp697
sg70
g671
sg63
(lp698
g56
(g77
g58
NtRp699
(dp700
g61
(dp701
g81
g82
ssg70
g695
sg63
(lp702
g326
asbag56
(g77
g58
NtRp703
(dp704
g61
(dp705
g88
g89
ssg70
g695
sg63
(lp706
S':'
asbag56
(g77
g58
NtRp707
(dp708
g61
(dp709
sg70
g695
sg63
(lp710
g56
(g57
g58
NtRp711
(dp712
g61
(dp713
g69
I3
ssg70
g707
sg63
(lp714
S''
asbasbasbag56
(g72
g58
NtRp715
(dp716
g61
(dp717
sg70
g671
sg63
(lp718
g56
(g77
g58
NtRp719
(dp720
g61
(dp721
g81
g82
ssg70
g715
sg63
(lp722
g347
asbag56
(g77
g58
NtRp723
(dp724
g61
(dp725
g88
g89
ssg70
g715
sg63
(lp726
S':'
asbag56
(g77
g58
NtRp727
(dp728
g61
(dp729
sg70
g715
sg63
(lp730
g56
(g57
g58
NtRp731
(dp732
g61
(dp733
g69
I3
ssg70
g727
sg63
(lp734
S''
asbasbasbag56
(g72
g58
NtRp735
(dp736
g61
(dp737
sg70
g671
sg63
(lp738
g56
(g77
g58
NtRp739
(dp740
g61
(dp741
g81
g82
ssg70
g735
sg63
(lp742
g368
asbag56
(g77
g58
NtRp743
(dp744
g61
(dp745
g88
g89
ssg70
g735
sg63
(lp746
S':'
asbag56
(g77
g58
NtRp747
(dp748
g61
(dp749
sg70
g735
sg63
(lp750
g56
(g57
g58
NtRp751
(dp752
g61
(dp753
g69
I3
ssg70
g747
sg63
(lp754
S''
asbasbasbag56
(g72
g58
NtRp755
(dp756
g61
(dp757
sg70
g671
sg63
(lp758
g56
(g77
g58
NtRp759
(dp760
g61
(dp761
g81
g82
ssg70
g755
sg63
(lp762
g389
asbag56
(g77
g58
NtRp763
(dp764
g61
(dp765
g88
g89
ssg70
g755
sg63
(lp766
S':'
asbag56
(g77
g58
NtRp767
(dp768
g61
(dp769
sg70
g755
sg63
(lp770
g56
(g57
g58
NtRp771
(dp772
g61
(dp773
g69
I3
ssg70
g767
sg63
(lp774
S''
asbasbasbag56
(g72
g58
NtRp775
(dp776
g61
(dp777
sg70
g671
sg63
(lp778
g56
(g77
g58
NtRp779
(dp780
g61
(dp781
g81
g82
ssg70
g775
sg63
(lp782
g410
asbag56
(g77
g58
NtRp783
(dp784
g61
(dp785
g88
g89
ssg70
g775
sg63
(lp786
S':'
asbag56
(g77
g58
NtRp787
(dp788
g61
(dp789
sg70
g775
sg63
(lp790
g56
(g57
g58
NtRp791
(dp792
g61
(dp793
g69
I3
ssg70
g787
sg63
(lp794
S''
asbasbasbag56
(g72
g58
NtRp795
(dp796
g61
(dp797
sg70
g671
sg63
(lp798
g56
(g77
g58
NtRp799
(dp800
g61
(dp801
g81
g82
ssg70
g795
sg63
(lp802
g431
asbag56
(g77
g58
NtRp803
(dp804
g61
(dp805
g88
g89
ssg70
g795
sg63
(lp806
S':'
asbag56
(g77
g58
NtRp807
(dp808
g61
(dp809
sg70
g795
sg63
(lp810
g56
(g57
g58
NtRp811
(dp812
g61
(dp813
g69
I3
ssg70
g807
sg63
(lp814
S''
asbasbasbag56
(g72
g58
NtRp815
(dp816
g61
(dp817
sg70
g671
sg63
(lp818
g56
(g77
g58
NtRp819
(dp820
g61
(dp821
g81
g82
ssg70
g815
sg63
(lp822
g452
asbag56
(g77
g58
NtRp823
(dp824
g61
(dp825
g88
g89
ssg70
g815
sg63
(lp826
S':'
asbag56
(g77
g58
NtRp827
(dp828
g61
(dp829
sg70
g815
sg63
(lp830
g56
(g57
g58
NtRp831
(dp832
g61
(dp833
g69
I3
ssg70
g827
sg63
(lp834
S''
asbasbasbasbasbasbasbasbasbasbasbag56
(g72
g58
NtRp835
(dp836
g61
(dp837
sg70
g66
sg63
(lp838
g56
(g77
g58
NtRp839
(dp840
g61
(dp841
g81
g82
ssg70
g835
sg63
(lp842
S'env'
p843
asbag56
(g77
g58
NtRp844
(dp845
g61
(dp846
g88
g89
ssg70
g835
sg63
(lp847
S':'
asbag56
(g77
g58
NtRp848
(dp849
g61
(dp850
sg70
g835
sg63
(lp851
g56
(g57
g58
NtRp852
(dp853
g61
(dp854
g69
I5
ssg70
g848
sg63
(lp855
g56
(g65
g58
NtRp856
(dp857
g61
(dp858
g69
I4
ssg70
Nsg63
(lp859
g56
(g72
g58
NtRp860
(dp861
g61
(dp862
sg70
g856
sg63
(lp863
g56
(g77
g58
NtRp864
(dp865
g61
(dp866
g81
g82
ssg70
g860
sg63
(lp867
S'app_folders'
p868
asbag56
(g77
g58
NtRp869
(dp870
g61
(dp871
g88
g89
ssg70
g860
sg63
(lp872
S':'
asbag56
(g77
g58
NtRp873
(dp874
g61
(dp875
sg70
g860
sg63
(lp876
g56
(g57
g58
NtRp877
(dp878
g61
(dp879
g69
I4
ssg70
g873
sg63
(lp880
S"set(['/home/ian/web2py/applications/topoi/', '/home/ian/web2py/applications/welcome/', '/home/ian/web2py/applications/admin/'])"
p881
asbasbasbag56
(g72
g58
NtRp882
(dp883
g61
(dp884
sg70
g856
sg63
(lp885
g56
(g77
g58
NtRp886
(dp887
g61
(dp888
g81
g82
ssg70
g882
sg63
(lp889
S'applications_parent'
p890
asbag56
(g77
g58
NtRp891
(dp892
g61
(dp893
g88
g89
ssg70
g882
sg63
(lp894
S':'
asbag56
(g77
g58
NtRp895
(dp896
g61
(dp897
sg70
g882
sg63
(lp898
g56
(g57
g58
NtRp899
(dp900
g61
(dp901
g69
I4
ssg70
g895
sg63
(lp902
S'/home/ian/web2py'
p903
asbasbasbag56
(g72
g58
NtRp904
(dp905
g61
(dp906
sg70
g856
sg63
(lp907
g56
(g77
g58
NtRp908
(dp909
g61
(dp910
g81
g82
ssg70
g904
sg63
(lp911
S'cmd_args'
p912
asbag56
(g77
g58
NtRp913
(dp914
g61
(dp915
g88
g89
ssg70
g904
sg63
(lp916
S':'
asbag56
(g77
g58
NtRp917
(dp918
g61
(dp919
sg70
g904
sg63
(lp920
g56
(g57
g58
NtRp921
(dp922
g61
(dp923
g69
I4
ssg70
g917
sg63
(lp924
g56
(g65
g58
NtRp925
(dp926
g61
(dp927
g69
I3
ssg70
Nsg63
(lp928
sbasbasbasbag56
(g72
g58
NtRp929
(dp930
g61
(dp931
sg70
g856
sg63
(lp932
g56
(g77
g58
NtRp933
(dp934
g61
(dp935
g81
g82
ssg70
g929
sg63
(lp936
S'cmd_options'
p937
asbag56
(g77
g58
NtRp938
(dp939
g61
(dp940
g88
g89
ssg70
g929
sg63
(lp941
S':'
asbag56
(g77
g58
NtRp942
(dp943
g61
(dp944
sg70
g929
sg63
(lp945
g56
(g57
g58
NtRp946
(dp947
g61
(dp948
g69
I4
ssg70
g942
sg63
(lp949
S"<Values at 0x1e5f7e8: {'verbose': False, 'ip': '127.0.0.1', 'shutdown_timeout': 5, 'taskbar': False, 'nocron': False, 'pid_filename': 'httpserver.pid', 'maxthreads': None, 'softcron': False, 'server_name': 'Ariel-ubuntu', 'bpython': False, 'nogui': False, 'port': 8000, 'extcron': False, 'debuglevel': 30, 'test': None, 'folder': '/home/ian/web2py', 'config': '', 'import_models': False, 'winservice': '', 'shell': None, 'run': '', 'log_filename': 'httpserver.log', 'args': [''], 'ssl_ca_certificate': None, 'scheduler': None, 'profiler_filename': None, 'ssl_private_key': '', 'password': '<ask>', 'request_queue_size': 5, 'ssl_certificate': '', 'cronjob': False, 'plain': False, 'quiet': False, 'interfaces': None, 'minthreads': None, 'timeout': 10, 'numthreads': None, 'nobanner': False}>"
p950
asbasbasbag56
(g72
g58
NtRp951
(dp952
g61
(dp953
sg70
g856
sg63
(lp954
g56
(g77
g58
NtRp955
(dp956
g61
(dp957
g81
g82
ssg70
g951
sg63
(lp958
S'db_sessions'
p959
asbag56
(g77
g58
NtRp960
(dp961
g61
(dp962
g88
g89
ssg70
g951
sg63
(lp963
S':'
asbag56
(g77
g58
NtRp964
(dp965
g61
(dp966
sg70
g951
sg63
(lp967
g56
(g57
g58
NtRp968
(dp969
g61
(dp970
g69
I4
ssg70
g964
sg63
(lp971
S'set([])'
p972
asbasbasbag56
(g72
g58
NtRp973
(dp974
g61
(dp975
sg70
g856
sg63
(lp976
g56
(g77
g58
NtRp977
(dp978
g61
(dp979
g81
g82
ssg70
g973
sg63
(lp980
S'debugging'
p981
asbag56
(g77
g58
NtRp982
(dp983
g61
(dp984
g88
g89
ssg70
g973
sg63
(lp985
S':'
asbag56
(g77
g58
NtRp986
(dp987
g61
(dp988
sg70
g973
sg63
(lp989
g56
(g57
g58
NtRp990
(dp991
g61
(dp992
g69
I4
ssg70
g986
sg63
(lp993
S'False'
p994
asbasbasbag56
(g72
g58
NtRp995
(dp996
g61
(dp997
sg70
g856
sg63
(lp998
g56
(g77
g58
NtRp999
(dp1000
g61
(dp1001
g81
g82
ssg70
g995
sg63
(lp1002
S'gluon_parent'
p1003
asbag56
(g77
g58
NtRp1004
(dp1005
g61
(dp1006
g88
g89
ssg70
g995
sg63
(lp1007
S':'
asbag56
(g77
g58
NtRp1008
(dp1009
g61
(dp1010
sg70
g995
sg63
(lp1011
g56
(g57
g58
NtRp1012
(dp1013
g61
(dp1014
g69
I4
ssg70
g1008
sg63
(lp1015
S'/home/ian/web2py'
p1016
asbasbasbag56
(g72
g58
NtRp1017
(dp1018
g61
(dp1019
sg70
g856
sg63
(lp1020
g56
(g77
g58
NtRp1021
(dp1022
g61
(dp1023
g81
g82
ssg70
g1017
sg63
(lp1024
S'http_accept'
p1025
asbag56
(g77
g58
NtRp1026
(dp1027
g61
(dp1028
g88
g89
ssg70
g1017
sg63
(lp1029
S':'
asbag56
(g77
g58
NtRp1030
(dp1031
g61
(dp1032
sg70
g1017
sg63
(lp1033
g56
(g57
g58
NtRp1034
(dp1035
g61
(dp1036
g69
I4
ssg70
g1030
sg63
(lp1037
S'*/*'
p1038
asbasbasbag56
(g72
g58
NtRp1039
(dp1040
g61
(dp1041
sg70
g856
sg63
(lp1042
g56
(g77
g58
NtRp1043
(dp1044
g61
(dp1045
g81
g82
ssg70
g1039
sg63
(lp1046
S'http_accept_charset'
p1047
asbag56
(g77
g58
NtRp1048
(dp1049
g61
(dp1050
g88
g89
ssg70
g1039
sg63
(lp1051
S':'
asbag56
(g77
g58
NtRp1052
(dp1053
g61
(dp1054
sg70
g1039
sg63
(lp1055
g56
(g57
g58
NtRp1056
(dp1057
g61
(dp1058
g69
I4
ssg70
g1052
sg63
(lp1059
S'ISO-8859-1,utf-8;q=0.7,*;q=0.7'
p1060
asbasbasbag56
(g72
g58
NtRp1061
(dp1062
g61
(dp1063
sg70
g856
sg63
(lp1064
g56
(g77
g58
NtRp1065
(dp1066
g61
(dp1067
g81
g82
ssg70
g1061
sg63
(lp1068
S'http_accept_encoding'
p1069
asbag56
(g77
g58
NtRp1070
(dp1071
g61
(dp1072
g88
g89
ssg70
g1061
sg63
(lp1073
S':'
asbag56
(g77
g58
NtRp1074
(dp1075
g61
(dp1076
sg70
g1061
sg63
(lp1077
g56
(g57
g58
NtRp1078
(dp1079
g61
(dp1080
g69
I4
ssg70
g1074
sg63
(lp1081
S'gzip, deflate'
p1082
asbasbasbag56
(g72
g58
NtRp1083
(dp1084
g61
(dp1085
sg70
g856
sg63
(lp1086
g56
(g77
g58
NtRp1087
(dp1088
g61
(dp1089
g81
g82
ssg70
g1083
sg63
(lp1090
S'http_accept_language'
p1091
asbag56
(g77
g58
NtRp1092
(dp1093
g61
(dp1094
g88
g89
ssg70
g1083
sg63
(lp1095
S':'
asbag56
(g77
g58
NtRp1096
(dp1097
g61
(dp1098
sg70
g1083
sg63
(lp1099
g56
(g57
g58
NtRp1100
(dp1101
g61
(dp1102
g69
I4
ssg70
g1096
sg63
(lp1103
S'en-us,en;q=0.5'
p1104
asbasbasbag56
(g72
g58
NtRp1105
(dp1106
g61
(dp1107
sg70
g856
sg63
(lp1108
g56
(g77
g58
NtRp1109
(dp1110
g61
(dp1111
g81
g82
ssg70
g1105
sg63
(lp1112
S'http_cache_control'
p1113
asbag56
(g77
g58
NtRp1114
(dp1115
g61
(dp1116
g88
g89
ssg70
g1105
sg63
(lp1117
S':'
asbag56
(g77
g58
NtRp1118
(dp1119
g61
(dp1120
sg70
g1105
sg63
(lp1121
g56
(g57
g58
NtRp1122
(dp1123
g61
(dp1124
g69
I4
ssg70
g1118
sg63
(lp1125
S'max-age=0'
p1126
asbasbasbag56
(g72
g58
NtRp1127
(dp1128
g61
(dp1129
sg70
g856
sg63
(lp1130
g56
(g77
g58
NtRp1131
(dp1132
g61
(dp1133
g81
g82
ssg70
g1127
sg63
(lp1134
S'http_connection'
p1135
asbag56
(g77
g58
NtRp1136
(dp1137
g61
(dp1138
g88
g89
ssg70
g1127
sg63
(lp1139
S':'
asbag56
(g77
g58
NtRp1140
(dp1141
g61
(dp1142
sg70
g1127
sg63
(lp1143
g56
(g57
g58
NtRp1144
(dp1145
g61
(dp1146
g69
I4
ssg70
g1140
sg63
(lp1147
S'keep-alive'
p1148
asbasbasbag56
(g72
g58
NtRp1149
(dp1150
g61
(dp1151
sg70
g856
sg63
(lp1152
g56
(g77
g58
NtRp1153
(dp1154
g61
(dp1155
g81
g82
ssg70
g1149
sg63
(lp1156
S'http_cookie'
p1157
asbag56
(g77
g58
NtRp1158
(dp1159
g61
(dp1160
g88
g89
ssg70
g1149
sg63
(lp1161
S':'
asbag56
(g77
g58
NtRp1162
(dp1163
g61
(dp1164
sg70
g1149
sg63
(lp1165
g56
(g57
g58
NtRp1166
(dp1167
g61
(dp1168
g69
I4
ssg70
g1162
sg63
(lp1169
S'__utma_a2a=9789918665.1351576430.1320019504.1320019504.1320019504.1; session_id_welcome=127.0.0.1-801d3c18-bd4b-45b6-9a2f-8d3498975c58; session_id_topoi=127.0.0.1-26891f27-7a1a-4fa5-81a0-16ff25069026; session_id_admin=127.0.0.1-9dc69978-32f5-488b-bf3c-74ef5b2a4254'
p1170
asbasbasbag56
(g72
g58
NtRp1171
(dp1172
g61
(dp1173
sg70
g856
sg63
(lp1174
g56
(g77
g58
NtRp1175
(dp1176
g61
(dp1177
g81
g82
ssg70
g1171
sg63
(lp1178
S'http_host'
p1179
asbag56
(g77
g58
NtRp1180
(dp1181
g61
(dp1182
g88
g89
ssg70
g1171
sg63
(lp1183
S':'
asbag56
(g77
g58
NtRp1184
(dp1185
g61
(dp1186
sg70
g1171
sg63
(lp1187
g56
(g57
g58
NtRp1188
(dp1189
g61
(dp1190
g69
I4
ssg70
g1184
sg63
(lp1191
S'127.0.0.1:8000'
p1192
asbasbasbag56
(g72
g58
NtRp1193
(dp1194
g61
(dp1195
sg70
g856
sg63
(lp1196
g56
(g77
g58
NtRp1197
(dp1198
g61
(dp1199
g81
g82
ssg70
g1193
sg63
(lp1200
S'http_referer'
p1201
asbag56
(g77
g58
NtRp1202
(dp1203
g61
(dp1204
g88
g89
ssg70
g1193
sg63
(lp1205
S':'
asbag56
(g77
g58
NtRp1206
(dp1207
g61
(dp1208
sg70
g1193
sg63
(lp1209
g56
(g57
g58
NtRp1210
(dp1211
g61
(dp1212
g69
I4
ssg70
g1206
sg63
(lp1213
S'http://127.0.0.1:8000/topoi/default/notes/new/notes?_signature=a1ce2a1be157ab8cf4b99a9cd11fad104f00e7cc'
p1214
asbasbasbag56
(g72
g58
NtRp1215
(dp1216
g61
(dp1217
sg70
g856
sg63
(lp1218
g56
(g77
g58
NtRp1219
(dp1220
g61
(dp1221
g81
g82
ssg70
g1215
sg63
(lp1222
S'http_user_agent'
p1223
asbag56
(g77
g58
NtRp1224
(dp1225
g61
(dp1226
g88
g89
ssg70
g1215
sg63
(lp1227
S':'
asbag56
(g77
g58
NtRp1228
(dp1229
g61
(dp1230
sg70
g1215
sg63
(lp1231
g56
(g57
g58
NtRp1232
(dp1233
g61
(dp1234
g69
I4
ssg70
g1228
sg63
(lp1235
S'Mozilla/5.0 (X11; Linux x86_64; rv:7.0.1) Gecko/20100101 Firefox/7.0.1'
p1236
asbasbasbag56
(g72
g58
NtRp1237
(dp1238
g61
(dp1239
sg70
g856
sg63
(lp1240
g56
(g77
g58
NtRp1241
(dp1242
g61
(dp1243
g81
g82
ssg70
g1237
sg63
(lp1244
S'http_web2py_component_element'
p1245
asbag56
(g77
g58
NtRp1246
(dp1247
g61
(dp1248
g88
g89
ssg70
g1237
sg63
(lp1249
S':'
asbag56
(g77
g58
NtRp1250
(dp1251
g61
(dp1252
sg70
g1237
sg63
(lp1253
g56
(g57
g58
NtRp1254
(dp1255
g61
(dp1256
g69
I4
ssg70
g1250
sg63
(lp1257
g202
asbasbasbag56
(g72
g58
NtRp1258
(dp1259
g61
(dp1260
sg70
g856
sg63
(lp1261
g56
(g77
g58
NtRp1262
(dp1263
g61
(dp1264
g81
g82
ssg70
g1258
sg63
(lp1265
S'http_web2py_component_location'
p1266
asbag56
(g77
g58
NtRp1267
(dp1268
g61
(dp1269
g88
g89
ssg70
g1258
sg63
(lp1270
S':'
asbag56
(g77
g58
NtRp1271
(dp1272
g61
(dp1273
sg70
g1258
sg63
(lp1274
g56
(g57
g58
NtRp1275
(dp1276
g61
(dp1277
g69
I4
ssg70
g1271
sg63
(lp1278
S'http://127.0.0.1:8000/topoi/default/notes/new/notes?_signature=a1ce2a1be157ab8cf4b99a9cd11fad104f00e7cc'
p1279
asbasbasbag56
(g72
g58
NtRp1280
(dp1281
g61
(dp1282
sg70
g856
sg63
(lp1283
g56
(g77
g58
NtRp1284
(dp1285
g61
(dp1286
g81
g82
ssg70
g1280
sg63
(lp1287
S'http_x_requested_with'
p1288
asbag56
(g77
g58
NtRp1289
(dp1290
g61
(dp1291
g88
g89
ssg70
g1280
sg63
(lp1292
S':'
asbag56
(g77
g58
NtRp1293
(dp1294
g61
(dp1295
sg70
g1280
sg63
(lp1296
g56
(g57
g58
NtRp1297
(dp1298
g61
(dp1299
g69
I4
ssg70
g1293
sg63
(lp1300
S'XMLHttpRequest'
p1301
asbasbasbag56
(g72
g58
NtRp1302
(dp1303
g61
(dp1304
sg70
g856
sg63
(lp1305
g56
(g77
g58
NtRp1306
(dp1307
g61
(dp1308
g81
g82
ssg70
g1302
sg63
(lp1309
S'is_jython'
p1310
asbag56
(g77
g58
NtRp1311
(dp1312
g61
(dp1313
g88
g89
ssg70
g1302
sg63
(lp1314
S':'
asbag56
(g77
g58
NtRp1315
(dp1316
g61
(dp1317
sg70
g1302
sg63
(lp1318
g56
(g57
g58
NtRp1319
(dp1320
g61
(dp1321
g69
I4
ssg70
g1315
sg63
(lp1322
g994
asbasbasbag56
(g72
g58
NtRp1323
(dp1324
g61
(dp1325
sg70
g856
sg63
(lp1326
g56
(g77
g58
NtRp1327
(dp1328
g61
(dp1329
g81
g82
ssg70
g1323
sg63
(lp1330
S'path_info'
p1331
asbag56
(g77
g58
NtRp1332
(dp1333
g61
(dp1334
g88
g89
ssg70
g1323
sg63
(lp1335
S':'
asbag56
(g77
g58
NtRp1336
(dp1337
g61
(dp1338
sg70
g1323
sg63
(lp1339
g56
(g57
g58
NtRp1340
(dp1341
g61
(dp1342
g69
I4
ssg70
g1336
sg63
(lp1343
S'/topoi/default/add/notes_author'
p1344
asbasbasbag56
(g72
g58
NtRp1345
(dp1346
g61
(dp1347
sg70
g856
sg63
(lp1348
g56
(g77
g58
NtRp1349
(dp1350
g61
(dp1351
g81
g82
ssg70
g1345
sg63
(lp1352
S'query_string'
p1353
asbag56
(g77
g58
NtRp1354
(dp1355
g61
(dp1356
g88
g89
ssg70
g1345
sg63
(lp1357
S':'
asbag56
(g77
g58
NtRp1358
(dp1359
g61
(dp1360
sg70
g1345
sg63
(lp1361
g56
(g57
g58
NtRp1362
(dp1363
g61
(dp1364
g69
I4
ssg70
g1358
sg63
(lp1365
S''
asbasbasbag56
(g72
g58
NtRp1366
(dp1367
g61
(dp1368
sg70
g856
sg63
(lp1369
g56
(g77
g58
NtRp1370
(dp1371
g61
(dp1372
g81
g82
ssg70
g1366
sg63
(lp1373
S'remote_addr'
p1374
asbag56
(g77
g58
NtRp1375
(dp1376
g61
(dp1377
g88
g89
ssg70
g1366
sg63
(lp1378
S':'
asbag56
(g77
g58
NtRp1379
(dp1380
g61
(dp1381
sg70
g1366
sg63
(lp1382
g56
(g57
g58
NtRp1383
(dp1384
g61
(dp1385
g69
I4
ssg70
g1379
sg63
(lp1386
g224
asbasbasbag56
(g72
g58
NtRp1387
(dp1388
g61
(dp1389
sg70
g856
sg63
(lp1390
g56
(g77
g58
NtRp1391
(dp1392
g61
(dp1393
g81
g82
ssg70
g1387
sg63
(lp1394
S'remote_port'
p1395
asbag56
(g77
g58
NtRp1396
(dp1397
g61
(dp1398
g88
g89
ssg70
g1387
sg63
(lp1399
S':'
asbag56
(g77
g58
NtRp1400
(dp1401
g61
(dp1402
sg70
g1387
sg63
(lp1403
g56
(g57
g58
NtRp1404
(dp1405
g61
(dp1406
g69
I4
ssg70
g1400
sg63
(lp1407
S'35523'
p1408
asbasbasbag56
(g72
g58
NtRp1409
(dp1410
g61
(dp1411
sg70
g856
sg63
(lp1412
g56
(g77
g58
NtRp1413
(dp1414
g61
(dp1415
g81
g82
ssg70
g1409
sg63
(lp1416
S'request_method'
p1417
asbag56
(g77
g58
NtRp1418
(dp1419
g61
(dp1420
g88
g89
ssg70
g1409
sg63
(lp1421
S':'
asbag56
(g77
g58
NtRp1422
(dp1423
g61
(dp1424
sg70
g1409
sg63
(lp1425
g56
(g57
g58
NtRp1426
(dp1427
g61
(dp1428
g69
I4
ssg70
g1422
sg63
(lp1429
S'GET'
p1430
asbasbasbag56
(g72
g58
NtRp1431
(dp1432
g61
(dp1433
sg70
g856
sg63
(lp1434
g56
(g77
g58
NtRp1435
(dp1436
g61
(dp1437
g81
g82
ssg70
g1431
sg63
(lp1438
S'script_name'
p1439
asbag56
(g77
g58
NtRp1440
(dp1441
g61
(dp1442
g88
g89
ssg70
g1431
sg63
(lp1443
S':'
asbag56
(g77
g58
NtRp1444
(dp1445
g61
(dp1446
sg70
g1431
sg63
(lp1447
g56
(g57
g58
NtRp1448
(dp1449
g61
(dp1450
g69
I4
ssg70
g1444
sg63
(lp1451
S''
asbasbasbag56
(g72
g58
NtRp1452
(dp1453
g61
(dp1454
sg70
g856
sg63
(lp1455
g56
(g77
g58
NtRp1456
(dp1457
g61
(dp1458
g81
g82
ssg70
g1452
sg63
(lp1459
S'server_name'
p1460
asbag56
(g77
g58
NtRp1461
(dp1462
g61
(dp1463
g88
g89
ssg70
g1452
sg63
(lp1464
S':'
asbag56
(g77
g58
NtRp1465
(dp1466
g61
(dp1467
sg70
g1452
sg63
(lp1468
g56
(g57
g58
NtRp1469
(dp1470
g61
(dp1471
g69
I4
ssg70
g1465
sg63
(lp1472
S'Ariel-ubuntu'
p1473
asbasbasbag56
(g72
g58
NtRp1474
(dp1475
g61
(dp1476
sg70
g856
sg63
(lp1477
g56
(g77
g58
NtRp1478
(dp1479
g61
(dp1480
g81
g82
ssg70
g1474
sg63
(lp1481
S'server_port'
p1482
asbag56
(g77
g58
NtRp1483
(dp1484
g61
(dp1485
g88
g89
ssg70
g1474
sg63
(lp1486
S':'
asbag56
(g77
g58
NtRp1487
(dp1488
g61
(dp1489
sg70
g1474
sg63
(lp1490
g56
(g57
g58
NtRp1491
(dp1492
g61
(dp1493
g69
I4
ssg70
g1487
sg63
(lp1494
S'8000'
p1495
asbasbasbag56
(g72
g58
NtRp1496
(dp1497
g61
(dp1498
sg70
g856
sg63
(lp1499
g56
(g77
g58
NtRp1500
(dp1501
g61
(dp1502
g81
g82
ssg70
g1496
sg63
(lp1503
S'server_protocol'
p1504
asbag56
(g77
g58
NtRp1505
(dp1506
g61
(dp1507
g88
g89
ssg70
g1496
sg63
(lp1508
S':'
asbag56
(g77
g58
NtRp1509
(dp1510
g61
(dp1511
sg70
g1496
sg63
(lp1512
g56
(g57
g58
NtRp1513
(dp1514
g61
(dp1515
g69
I4
ssg70
g1509
sg63
(lp1516
S'HTTP/1.1'
p1517
asbasbasbag56
(g72
g58
NtRp1518
(dp1519
g61
(dp1520
sg70
g856
sg63
(lp1521
g56
(g77
g58
NtRp1522
(dp1523
g61
(dp1524
g81
g82
ssg70
g1518
sg63
(lp1525
S'server_software'
p1526
asbag56
(g77
g58
NtRp1527
(dp1528
g61
(dp1529
g88
g89
ssg70
g1518
sg63
(lp1530
S':'
asbag56
(g77
g58
NtRp1531
(dp1532
g61
(dp1533
sg70
g1518
sg63
(lp1534
g56
(g57
g58
NtRp1535
(dp1536
g61
(dp1537
g69
I4
ssg70
g1531
sg63
(lp1538
S'Rocket 1.2.4'
p1539
asbasbasbag56
(g72
g58
NtRp1540
(dp1541
g61
(dp1542
sg70
g856
sg63
(lp1543
g56
(g77
g58
NtRp1544
(dp1545
g61
(dp1546
g81
g82
ssg70
g1540
sg63
(lp1547
S'web2py_crontype'
p1548
asbag56
(g77
g58
NtRp1549
(dp1550
g61
(dp1551
g88
g89
ssg70
g1540
sg63
(lp1552
S':'
asbag56
(g77
g58
NtRp1553
(dp1554
g61
(dp1555
sg70
g1540
sg63
(lp1556
g56
(g57
g58
NtRp1557
(dp1558
g61
(dp1559
g69
I4
ssg70
g1553
sg63
(lp1560
S'hard'
p1561
asbasbasbag56
(g72
g58
NtRp1562
(dp1563
g61
(dp1564
sg70
g856
sg63
(lp1565
g56
(g77
g58
NtRp1566
(dp1567
g61
(dp1568
g81
g82
ssg70
g1562
sg63
(lp1569
S'web2py_path'
p1570
asbag56
(g77
g58
NtRp1571
(dp1572
g61
(dp1573
g88
g89
ssg70
g1562
sg63
(lp1574
S':'
asbag56
(g77
g58
NtRp1575
(dp1576
g61
(dp1577
sg70
g1562
sg63
(lp1578
g56
(g57
g58
NtRp1579
(dp1580
g61
(dp1581
g69
I4
ssg70
g1575
sg63
(lp1582
g903
asbasbasbag56
(g72
g58
NtRp1583
(dp1584
g61
(dp1585
sg70
g856
sg63
(lp1586
g56
(g77
g58
NtRp1587
(dp1588
g61
(dp1589
g81
g82
ssg70
g1583
sg63
(lp1590
S'web2py_version'
p1591
asbag56
(g77
g58
NtRp1592
(dp1593
g61
(dp1594
g88
g89
ssg70
g1583
sg63
(lp1595
S':'
asbag56
(g77
g58
NtRp1596
(dp1597
g61
(dp1598
sg70
g1583
sg63
(lp1599
g56
(g57
g58
NtRp1600
(dp1601
g61
(dp1602
g69
I4
ssg70
g1596
sg63
(lp1603
g56
(g65
g58
NtRp1604
(dp1605
g61
(dp1606
g69
I3
ssg70
Nsg63
(lp1607
g56
(g72
g58
NtRp1608
(dp1609
g61
(dp1610
sg70
g1604
sg63
(lp1611
g56
(g77
g58
NtRp1612
(dp1613
g61
(dp1614
sg70
g1608
sg63
(lp1615
g56
(g57
g58
NtRp1616
(dp1617
g61
(dp1618
g69
I3
ssg70
g1612
sg63
(lp1619
S'1'
asbasbasbag56
(g72
g58
NtRp1620
(dp1621
g61
(dp1622
sg70
g1604
sg63
(lp1623
g56
(g77
g58
NtRp1624
(dp1625
g61
(dp1626
sg70
g1620
sg63
(lp1627
g56
(g57
g58
NtRp1628
(dp1629
g61
(dp1630
g69
I3
ssg70
g1624
sg63
(lp1631
S'99'
p1632
asbasbasbag56
(g72
g58
NtRp1633
(dp1634
g61
(dp1635
sg70
g1604
sg63
(lp1636
g56
(g77
g58
NtRp1637
(dp1638
g61
(dp1639
sg70
g1633
sg63
(lp1640
g56
(g57
g58
NtRp1641
(dp1642
g61
(dp1643
g69
I3
ssg70
g1637
sg63
(lp1644
S'2'
asbasbasbag56
(g72
g58
NtRp1645
(dp1646
g61
(dp1647
sg70
g1604
sg63
(lp1648
g56
(g77
g58
NtRp1649
(dp1650
g61
(dp1651
sg70
g1645
sg63
(lp1652
g56
(g57
g58
NtRp1653
(dp1654
g61
(dp1655
g69
I3
ssg70
g1649
sg63
(lp1656
S'datetime.datetime(2011, 9, 26, 6, 55, 33)'
p1657
asbasbasbag56
(g72
g58
NtRp1658
(dp1659
g61
(dp1660
sg70
g1604
sg63
(lp1661
g56
(g77
g58
NtRp1662
(dp1663
g61
(dp1664
sg70
g1658
sg63
(lp1665
g56
(g57
g58
NtRp1666
(dp1667
g61
(dp1668
g69
I3
ssg70
g1662
sg63
(lp1669
S'stable'
p1670
asbasbasbasbasbasbasbag56
(g72
g58
NtRp1671
(dp1672
g61
(dp1673
sg70
g856
sg63
(lp1674
g56
(g77
g58
NtRp1675
(dp1676
g61
(dp1677
g81
g82
ssg70
g1671
sg63
(lp1678
S'wsgi_errors'
p1679
asbag56
(g77
g58
NtRp1680
(dp1681
g61
(dp1682
g88
g89
ssg70
g1671
sg63
(lp1683
S':'
asbag56
(g77
g58
NtRp1684
(dp1685
g61
(dp1686
sg70
g1671
sg63
(lp1687
g56
(g57
g58
NtRp1688
(dp1689
g61
(dp1690
g69
I4
ssg70
g1684
sg63
(lp1691
S"<open file '<stderr>', mode 'w' at 0x7fafe3e4a270>"
p1692
asbasbasbag56
(g72
g58
NtRp1693
(dp1694
g61
(dp1695
sg70
g856
sg63
(lp1696
g56
(g77
g58
NtRp1697
(dp1698
g61
(dp1699
g81
g82
ssg70
g1693
sg63
(lp1700
S'wsgi_file_wrapper'
p1701
asbag56
(g77
g58
NtRp1702
(dp1703
g61
(dp1704
g88
g89
ssg70
g1693
sg63
(lp1705
S':'
asbag56
(g77
g58
NtRp1706
(dp1707
g61
(dp1708
sg70
g1693
sg63
(lp1709
g56
(g57
g58
NtRp1710
(dp1711
g61
(dp1712
g69
I4
ssg70
g1706
sg63
(lp1713
S'<class wsgiref.util.FileWrapper at 0x1d28808>'
p1714
asbasbasbag56
(g72
g58
NtRp1715
(dp1716
g61
(dp1717
sg70
g856
sg63
(lp1718
g56
(g77
g58
NtRp1719
(dp1720
g61
(dp1721
g81
g82
ssg70
g1715
sg63
(lp1722
S'wsgi_input'
p1723
asbag56
(g77
g58
NtRp1724
(dp1725
g61
(dp1726
g88
g89
ssg70
g1715
sg63
(lp1727
S':'
asbag56
(g77
g58
NtRp1728
(dp1729
g61
(dp1730
sg70
g1715
sg63
(lp1731
g56
(g57
g58
NtRp1732
(dp1733
g61
(dp1734
g69
I4
ssg70
g1728
sg63
(lp1735
S'<socket._fileobject object at 0x24c6d50>'
p1736
asbasbasbag56
(g72
g58
NtRp1737
(dp1738
g61
(dp1739
sg70
g856
sg63
(lp1740
g56
(g77
g58
NtRp1741
(dp1742
g61
(dp1743
g81
g82
ssg70
g1737
sg63
(lp1744
S'wsgi_multiprocess'
p1745
asbag56
(g77
g58
NtRp1746
(dp1747
g61
(dp1748
g88
g89
ssg70
g1737
sg63
(lp1749
S':'
asbag56
(g77
g58
NtRp1750
(dp1751
g61
(dp1752
sg70
g1737
sg63
(lp1753
g56
(g57
g58
NtRp1754
(dp1755
g61
(dp1756
g69
I4
ssg70
g1750
sg63
(lp1757
g994
asbasbasbag56
(g72
g58
NtRp1758
(dp1759
g61
(dp1760
sg70
g856
sg63
(lp1761
g56
(g77
g58
NtRp1762
(dp1763
g61
(dp1764
g81
g82
ssg70
g1758
sg63
(lp1765
S'wsgi_multithread'
p1766
asbag56
(g77
g58
NtRp1767
(dp1768
g61
(dp1769
g88
g89
ssg70
g1758
sg63
(lp1770
S':'
asbag56
(g77
g58
NtRp1771
(dp1772
g61
(dp1773
sg70
g1758
sg63
(lp1774
g56
(g57
g58
NtRp1775
(dp1776
g61
(dp1777
g69
I4
ssg70
g1771
sg63
(lp1778
g99
asbasbasbag56
(g72
g58
NtRp1779
(dp1780
g61
(dp1781
sg70
g856
sg63
(lp1782
g56
(g77
g58
NtRp1783
(dp1784
g61
(dp1785
g81
g82
ssg70
g1779
sg63
(lp1786
S'wsgi_run_once'
p1787
asbag56
(g77
g58
NtRp1788
(dp1789
g61
(dp1790
g88
g89
ssg70
g1779
sg63
(lp1791
S':'
asbag56
(g77
g58
NtRp1792
(dp1793
g61
(dp1794
sg70
g1779
sg63
(lp1795
g56
(g57
g58
NtRp1796
(dp1797
g61
(dp1798
g69
I4
ssg70
g1792
sg63
(lp1799
g994
asbasbasbag56
(g72
g58
NtRp1800
(dp1801
g61
(dp1802
sg70
g856
sg63
(lp1803
g56
(g77
g58
NtRp1804
(dp1805
g61
(dp1806
g81
g82
ssg70
g1800
sg63
(lp1807
S'wsgi_url_scheme'
p1808
asbag56
(g77
g58
NtRp1809
(dp1810
g61
(dp1811
g88
g89
ssg70
g1800
sg63
(lp1812
S':'
asbag56
(g77
g58
NtRp1813
(dp1814
g61
(dp1815
sg70
g1800
sg63
(lp1816
g56
(g57
g58
NtRp1817
(dp1818
g61
(dp1819
g69
I4
ssg70
g1813
sg63
(lp1820
S'http'
p1821
asbasbasbag56
(g72
g58
NtRp1822
(dp1823
g61
(dp1824
sg70
g856
sg63
(lp1825
g56
(g77
g58
NtRp1826
(dp1827
g61
(dp1828
g81
g82
ssg70
g1822
sg63
(lp1829
S'wsgi_version'
p1830
asbag56
(g77
g58
NtRp1831
(dp1832
g61
(dp1833
g88
g89
ssg70
g1822
sg63
(lp1834
S':'
asbag56
(g77
g58
NtRp1835
(dp1836
g61
(dp1837
sg70
g1822
sg63
(lp1838
g56
(g57
g58
NtRp1839
(dp1840
g61
(dp1841
g69
I4
ssg70
g1835
sg63
(lp1842
g56
(g65
g58
NtRp1843
(dp1844
g61
(dp1845
g69
I3
ssg70
Nsg63
(lp1846
g56
(g72
g58
NtRp1847
(dp1848
g61
(dp1849
sg70
g1843
sg63
(lp1850
g56
(g77
g58
NtRp1851
(dp1852
g61
(dp1853
sg70
g1847
sg63
(lp1854
g56
(g57
g58
NtRp1855
(dp1856
g61
(dp1857
g69
I3
ssg70
g1851
sg63
(lp1858
S'1'
asbasbasbag56
(g72
g58
NtRp1859
(dp1860
g61
(dp1861
sg70
g1843
sg63
(lp1862
g56
(g77
g58
NtRp1863
(dp1864
g61
(dp1865
sg70
g1859
sg63
(lp1866
g56
(g57
g58
NtRp1867
(dp1868
g61
(dp1869
g69
I3
ssg70
g1863
sg63
(lp1870
S'0'
asbasbasbasbasbasbasbasbasbasbasbag56
(g72
g58
NtRp1871
(dp1872
g61
(dp1873
sg70
g66
sg63
(lp1874
g56
(g77
g58
NtRp1875
(dp1876
g61
(dp1877
g81
g82
ssg70
g1871
sg63
(lp1878
S'extension'
p1879
asbag56
(g77
g58
NtRp1880
(dp1881
g61
(dp1882
g88
g89
ssg70
g1871
sg63
(lp1883
S':'
asbag56
(g77
g58
NtRp1884
(dp1885
g61
(dp1886
sg70
g1871
sg63
(lp1887
g56
(g57
g58
NtRp1888
(dp1889
g61
(dp1890
g69
I5
ssg70
g1884
sg63
(lp1891
S'html'
p1892
asbasbasbag56
(g72
g58
NtRp1893
(dp1894
g61
(dp1895
sg70
g66
sg63
(lp1896
g56
(g77
g58
NtRp1897
(dp1898
g61
(dp1899
g81
g82
ssg70
g1893
sg63
(lp1900
S'folder'
p1901
asbag56
(g77
g58
NtRp1902
(dp1903
g61
(dp1904
g88
g89
ssg70
g1893
sg63
(lp1905
S':'
asbag56
(g77
g58
NtRp1906
(dp1907
g61
(dp1908
sg70
g1893
sg63
(lp1909
g56
(g57
g58
NtRp1910
(dp1911
g61
(dp1912
g69
I5
ssg70
g1906
sg63
(lp1913
S'/home/ian/web2py/applications/topoi/'
p1914
asbasbasbag56
(g72
g58
NtRp1915
(dp1916
g61
(dp1917
sg70
g66
sg63
(lp1918
g56
(g77
g58
NtRp1919
(dp1920
g61
(dp1921
g81
g82
ssg70
g1915
sg63
(lp1922
S'function'
p1923
asbag56
(g77
g58
NtRp1924
(dp1925
g61
(dp1926
g88
g89
ssg70
g1915
sg63
(lp1927
S':'
asbag56
(g77
g58
NtRp1928
(dp1929
g61
(dp1930
sg70
g1915
sg63
(lp1931
g56
(g57
g58
NtRp1932
(dp1933
g61
(dp1934
g69
I5
ssg70
g1928
sg63
(lp1935
S'add'
p1936
asbasbasbag56
(g72
g58
NtRp1937
(dp1938
g61
(dp1939
sg70
g66
sg63
(lp1940
g56
(g77
g58
NtRp1941
(dp1942
g61
(dp1943
g81
g82
ssg70
g1937
sg63
(lp1944
S'get_vars'
p1945
asbag56
(g77
g58
NtRp1946
(dp1947
g61
(dp1948
g88
g89
ssg70
g1937
sg63
(lp1949
S':'
asbag56
(g77
g58
NtRp1950
(dp1951
g61
(dp1952
sg70
g1937
sg63
(lp1953
g56
(g57
g58
NtRp1954
(dp1955
g61
(dp1956
g69
I5
ssg70
g1950
sg63
(lp1957
g56
(g65
g58
NtRp1958
(dp1959
g61
(dp1960
g69
I4
ssg70
Nsg63
(lp1961
sbasbasbasbag56
(g72
g58
NtRp1962
(dp1963
g61
(dp1964
sg70
g66
sg63
(lp1965
g56
(g77
g58
NtRp1966
(dp1967
g61
(dp1968
g81
g82
ssg70
g1962
sg63
(lp1969
S'global_settings'
p1970
asbag56
(g77
g58
NtRp1971
(dp1972
g61
(dp1973
g88
g89
ssg70
g1962
sg63
(lp1974
S':'
asbag56
(g77
g58
NtRp1975
(dp1976
g61
(dp1977
sg70
g1962
sg63
(lp1978
g56
(g57
g58
NtRp1979
(dp1980
g61
(dp1981
g69
I5
ssg70
g1975
sg63
(lp1982
g56
(g65
g58
NtRp1983
(dp1984
g61
(dp1985
g69
I4
ssg70
Nsg63
(lp1986
g56
(g72
g58
NtRp1987
(dp1988
g61
(dp1989
sg70
g1983
sg63
(lp1990
g56
(g77
g58
NtRp1991
(dp1992
g61
(dp1993
g81
g82
ssg70
g1987
sg63
(lp1994
g868
asbag56
(g77
g58
NtRp1995
(dp1996
g61
(dp1997
g88
g89
ssg70
g1987
sg63
(lp1998
S':'
asbag56
(g77
g58
NtRp1999
(dp2000
g61
(dp2001
sg70
g1987
sg63
(lp2002
g56
(g57
g58
NtRp2003
(dp2004
g61
(dp2005
g69
I4
ssg70
g1999
sg63
(lp2006
S"set(['/home/ian/web2py/applications/topoi/', '/home/ian/web2py/applications/welcome/', '/home/ian/web2py/applications/admin/'])"
p2007
asbasbasbag56
(g72
g58
NtRp2008
(dp2009
g61
(dp2010
sg70
g1983
sg63
(lp2011
g56
(g77
g58
NtRp2012
(dp2013
g61
(dp2014
g81
g82
ssg70
g2008
sg63
(lp2015
g890
asbag56
(g77
g58
NtRp2016
(dp2017
g61
(dp2018
g88
g89
ssg70
g2008
sg63
(lp2019
S':'
asbag56
(g77
g58
NtRp2020
(dp2021
g61
(dp2022
sg70
g2008
sg63
(lp2023
g56
(g57
g58
NtRp2024
(dp2025
g61
(dp2026
g69
I4
ssg70
g2020
sg63
(lp2027
g903
asbasbasbag56
(g72
g58
NtRp2028
(dp2029
g61
(dp2030
sg70
g1983
sg63
(lp2031
g56
(g77
g58
NtRp2032
(dp2033
g61
(dp2034
g81
g82
ssg70
g2028
sg63
(lp2035
g912
asbag56
(g77
g58
NtRp2036
(dp2037
g61
(dp2038
g88
g89
ssg70
g2028
sg63
(lp2039
S':'
asbag56
(g77
g58
NtRp2040
(dp2041
g61
(dp2042
sg70
g2028
sg63
(lp2043
g56
(g57
g58
NtRp2044
(dp2045
g61
(dp2046
g69
I4
ssg70
g2040
sg63
(lp2047
g56
(g65
g58
NtRp2048
(dp2049
g61
(dp2050
g69
I3
ssg70
Nsg63
(lp2051
sbasbasbasbag56
(g72
g58
NtRp2052
(dp2053
g61
(dp2054
sg70
g1983
sg63
(lp2055
g56
(g77
g58
NtRp2056
(dp2057
g61
(dp2058
g81
g82
ssg70
g2052
sg63
(lp2059
g937
asbag56
(g77
g58
NtRp2060
(dp2061
g61
(dp2062
g88
g89
ssg70
g2052
sg63
(lp2063
S':'
asbag56
(g77
g58
NtRp2064
(dp2065
g61
(dp2066
sg70
g2052
sg63
(lp2067
g56
(g57
g58
NtRp2068
(dp2069
g61
(dp2070
g69
I4
ssg70
g2064
sg63
(lp2071
S"<Values at 0x1e5f7e8: {'verbose': False, 'ip': '127.0.0.1', 'shutdown_timeout': 5, 'taskbar': False, 'nocron': False, 'pid_filename': 'httpserver.pid', 'maxthreads': None, 'softcron': False, 'server_name': 'Ariel-ubuntu', 'bpython': False, 'nogui': False, 'port': 8000, 'extcron': False, 'debuglevel': 30, 'test': None, 'folder': '/home/ian/web2py', 'config': '', 'import_models': False, 'winservice': '', 'shell': None, 'run': '', 'log_filename': 'httpserver.log', 'args': [''], 'ssl_ca_certificate': None, 'scheduler': None, 'profiler_filename': None, 'ssl_private_key': '', 'password': '<ask>', 'request_queue_size': 5, 'ssl_certificate': '', 'cronjob': False, 'plain': False, 'quiet': False, 'interfaces': None, 'minthreads': None, 'timeout': 10, 'numthreads': None, 'nobanner': False}>"
p2072
asbasbasbag56
(g72
g58
NtRp2073
(dp2074
g61
(dp2075
sg70
g1983
sg63
(lp2076
g56
(g77
g58
NtRp2077
(dp2078
g61
(dp2079
g81
g82
ssg70
g2073
sg63
(lp2080
g959
asbag56
(g77
g58
NtRp2081
(dp2082
g61
(dp2083
g88
g89
ssg70
g2073
sg63
(lp2084
S':'
asbag56
(g77
g58
NtRp2085
(dp2086
g61
(dp2087
sg70
g2073
sg63
(lp2088
g56
(g57
g58
NtRp2089
(dp2090
g61
(dp2091
g69
I4
ssg70
g2085
sg63
(lp2092
S'set([])'
p2093
asbasbasbag56
(g72
g58
NtRp2094
(dp2095
g61
(dp2096
sg70
g1983
sg63
(lp2097
g56
(g77
g58
NtRp2098
(dp2099
g61
(dp2100
g81
g82
ssg70
g2094
sg63
(lp2101
g981
asbag56
(g77
g58
NtRp2102
(dp2103
g61
(dp2104
g88
g89
ssg70
g2094
sg63
(lp2105
S':'
asbag56
(g77
g58
NtRp2106
(dp2107
g61
(dp2108
sg70
g2094
sg63
(lp2109
g56
(g57
g58
NtRp2110
(dp2111
g61
(dp2112
g69
I4
ssg70
g2106
sg63
(lp2113
g994
asbasbasbag56
(g72
g58
NtRp2114
(dp2115
g61
(dp2116
sg70
g1983
sg63
(lp2117
g56
(g77
g58
NtRp2118
(dp2119
g61
(dp2120
g81
g82
ssg70
g2114
sg63
(lp2121
g1003
asbag56
(g77
g58
NtRp2122
(dp2123
g61
(dp2124
g88
g89
ssg70
g2114
sg63
(lp2125
S':'
asbag56
(g77
g58
NtRp2126
(dp2127
g61
(dp2128
sg70
g2114
sg63
(lp2129
g56
(g57
g58
NtRp2130
(dp2131
g61
(dp2132
g69
I4
ssg70
g2126
sg63
(lp2133
g1016
asbasbasbag56
(g72
g58
NtRp2134
(dp2135
g61
(dp2136
sg70
g1983
sg63
(lp2137
g56
(g77
g58
NtRp2138
(dp2139
g61
(dp2140
g81
g82
ssg70
g2134
sg63
(lp2141
g1310
asbag56
(g77
g58
NtRp2142
(dp2143
g61
(dp2144
g88
g89
ssg70
g2134
sg63
(lp2145
S':'
asbag56
(g77
g58
NtRp2146
(dp2147
g61
(dp2148
sg70
g2134
sg63
(lp2149
g56
(g57
g58
NtRp2150
(dp2151
g61
(dp2152
g69
I4
ssg70
g2146
sg63
(lp2153
g994
asbasbasbag56
(g72
g58
NtRp2154
(dp2155
g61
(dp2156
sg70
g1983
sg63
(lp2157
g56
(g77
g58
NtRp2158
(dp2159
g61
(dp2160
g81
g82
ssg70
g2154
sg63
(lp2161
g1548
asbag56
(g77
g58
NtRp2162
(dp2163
g61
(dp2164
g88
g89
ssg70
g2154
sg63
(lp2165
S':'
asbag56
(g77
g58
NtRp2166
(dp2167
g61
(dp2168
sg70
g2154
sg63
(lp2169
g56
(g57
g58
NtRp2170
(dp2171
g61
(dp2172
g69
I4
ssg70
g2166
sg63
(lp2173
g1561
asbasbasbag56
(g72
g58
NtRp2174
(dp2175
g61
(dp2176
sg70
g1983
sg63
(lp2177
g56
(g77
g58
NtRp2178
(dp2179
g61
(dp2180
g81
g82
ssg70
g2174
sg63
(lp2181
g1591
asbag56
(g77
g58
NtRp2182
(dp2183
g61
(dp2184
g88
g89
ssg70
g2174
sg63
(lp2185
S':'
asbag56
(g77
g58
NtRp2186
(dp2187
g61
(dp2188
sg70
g2174
sg63
(lp2189
g56
(g57
g58
NtRp2190
(dp2191
g61
(dp2192
g69
I4
ssg70
g2186
sg63
(lp2193
g56
(g65
g58
NtRp2194
(dp2195
g61
(dp2196
g69
I3
ssg70
Nsg63
(lp2197
g56
(g72
g58
NtRp2198
(dp2199
g61
(dp2200
sg70
g2194
sg63
(lp2201
g56
(g77
g58
NtRp2202
(dp2203
g61
(dp2204
sg70
g2198
sg63
(lp2205
g56
(g57
g58
NtRp2206
(dp2207
g61
(dp2208
g69
I3
ssg70
g2202
sg63
(lp2209
S'1'
asbasbasbag56
(g72
g58
NtRp2210
(dp2211
g61
(dp2212
sg70
g2194
sg63
(lp2213
g56
(g77
g58
NtRp2214
(dp2215
g61
(dp2216
sg70
g2210
sg63
(lp2217
g56
(g57
g58
NtRp2218
(dp2219
g61
(dp2220
g69
I3
ssg70
g2214
sg63
(lp2221
S'99'
p2222
asbasbasbag56
(g72
g58
NtRp2223
(dp2224
g61
(dp2225
sg70
g2194
sg63
(lp2226
g56
(g77
g58
NtRp2227
(dp2228
g61
(dp2229
sg70
g2223
sg63
(lp2230
g56
(g57
g58
NtRp2231
(dp2232
g61
(dp2233
g69
I3
ssg70
g2227
sg63
(lp2234
S'2'
asbasbasbag56
(g72
g58
NtRp2235
(dp2236
g61
(dp2237
sg70
g2194
sg63
(lp2238
g56
(g77
g58
NtRp2239
(dp2240
g61
(dp2241
sg70
g2235
sg63
(lp2242
g56
(g57
g58
NtRp2243
(dp2244
g61
(dp2245
g69
I3
ssg70
g2239
sg63
(lp2246
S'datetime.datetime(2011, 9, 26, 6, 55, 33)'
p2247
asbasbasbag56
(g72
g58
NtRp2248
(dp2249
g61
(dp2250
sg70
g2194
sg63
(lp2251
g56
(g77
g58
NtRp2252
(dp2253
g61
(dp2254
sg70
g2248
sg63
(lp2255
g56
(g57
g58
NtRp2256
(dp2257
g61
(dp2258
g69
I3
ssg70
g2252
sg63
(lp2259
g1670
asbasbasbasbasbasbasbasbasbasbasbag56
(g72
g58
NtRp2260
(dp2261
g61
(dp2262
sg70
g66
sg63
(lp2263
g56
(g77
g58
NtRp2264
(dp2265
g61
(dp2266
g81
g82
ssg70
g2260
sg63
(lp2267
S'is_https'
p2268
asbag56
(g77
g58
NtRp2269
(dp2270
g61
(dp2271
g88
g89
ssg70
g2260
sg63
(lp2272
S':'
asbag56
(g77
g58
NtRp2273
(dp2274
g61
(dp2275
sg70
g2260
sg63
(lp2276
g56
(g57
g58
NtRp2277
(dp2278
g61
(dp2279
g69
I5
ssg70
g2273
sg63
(lp2280
g994
asbasbasbag56
(g72
g58
NtRp2281
(dp2282
g61
(dp2283
sg70
g66
sg63
(lp2284
g56
(g77
g58
NtRp2285
(dp2286
g61
(dp2287
g81
g82
ssg70
g2281
sg63
(lp2288
S'is_local'
p2289
asbag56
(g77
g58
NtRp2290
(dp2291
g61
(dp2292
g88
g89
ssg70
g2281
sg63
(lp2293
S':'
asbag56
(g77
g58
NtRp2294
(dp2295
g61
(dp2296
sg70
g2281
sg63
(lp2297
g56
(g57
g58
NtRp2298
(dp2299
g61
(dp2300
g69
I5
ssg70
g2294
sg63
(lp2301
g99
asbasbasbag56
(g72
g58
NtRp2302
(dp2303
g61
(dp2304
sg70
g66
sg63
(lp2305
g56
(g77
g58
NtRp2306
(dp2307
g61
(dp2308
g81
g82
ssg70
g2302
sg63
(lp2309
S'is_restful'
p2310
asbag56
(g77
g58
NtRp2311
(dp2312
g61
(dp2313
g88
g89
ssg70
g2302
sg63
(lp2314
S':'
asbag56
(g77
g58
NtRp2315
(dp2316
g61
(dp2317
sg70
g2302
sg63
(lp2318
g56
(g57
g58
NtRp2319
(dp2320
g61
(dp2321
g69
I5
ssg70
g2315
sg63
(lp2322
g994
asbasbasbag56
(g72
g58
NtRp2323
(dp2324
g61
(dp2325
sg70
g66
sg63
(lp2326
g56
(g77
g58
NtRp2327
(dp2328
g61
(dp2329
g81
g82
ssg70
g2323
sg63
(lp2330
S'now'
p2331
asbag56
(g77
g58
NtRp2332
(dp2333
g61
(dp2334
g88
g89
ssg70
g2323
sg63
(lp2335
S':'
asbag56
(g77
g58
NtRp2336
(dp2337
g61
(dp2338
sg70
g2323
sg63
(lp2339
g56
(g57
g58
NtRp2340
(dp2341
g61
(dp2342
g69
I5
ssg70
g2336
sg63
(lp2343
S'datetime.datetime(2011, 11, 21, 16, 58, 33, 977013)'
p2344
asbasbasbag56
(g72
g58
NtRp2345
(dp2346
g61
(dp2347
sg70
g66
sg63
(lp2348
g56
(g77
g58
NtRp2349
(dp2350
g61
(dp2351
g81
g82
ssg70
g2345
sg63
(lp2352
S'post_vars'
p2353
asbag56
(g77
g58
NtRp2354
(dp2355
g61
(dp2356
g88
g89
ssg70
g2345
sg63
(lp2357
S':'
asbag56
(g77
g58
NtRp2358
(dp2359
g61
(dp2360
sg70
g2345
sg63
(lp2361
g56
(g57
g58
NtRp2362
(dp2363
g61
(dp2364
g69
I5
ssg70
g2358
sg63
(lp2365
g56
(g65
g58
NtRp2366
(dp2367
g61
(dp2368
g69
I4
ssg70
Nsg63
(lp2369
sbasbasbasbag56
(g72
g58
NtRp2370
(dp2371
g61
(dp2372
sg70
g66
sg63
(lp2373
g56
(g77
g58
NtRp2374
(dp2375
g61
(dp2376
g81
g82
ssg70
g2370
sg63
(lp2377
S'raw_args'
p2378
asbag56
(g77
g58
NtRp2379
(dp2380
g61
(dp2381
g88
g89
ssg70
g2370
sg63
(lp2382
S':'
asbag56
(g77
g58
NtRp2383
(dp2384
g61
(dp2385
sg70
g2370
sg63
(lp2386
g56
(g57
g58
NtRp2387
(dp2388
g61
(dp2389
g69
I5
ssg70
g2383
sg63
(lp2390
g158
asbasbasbag56
(g72
g58
NtRp2391
(dp2392
g61
(dp2393
sg70
g66
sg63
(lp2394
g56
(g77
g58
NtRp2395
(dp2396
g61
(dp2397
g81
g82
ssg70
g2391
sg63
(lp2398
S'url'
p2399
asbag56
(g77
g58
NtRp2400
(dp2401
g61
(dp2402
g88
g89
ssg70
g2391
sg63
(lp2403
S':'
asbag56
(g77
g58
NtRp2404
(dp2405
g61
(dp2406
sg70
g2391
sg63
(lp2407
g56
(g57
g58
NtRp2408
(dp2409
g61
(dp2410
g69
I5
ssg70
g2404
sg63
(lp2411
S'/topoi/default/add/notes_author'
p2412
asbasbasbag56
(g72
g58
NtRp2413
(dp2414
g61
(dp2415
sg70
g66
sg63
(lp2416
g56
(g77
g58
NtRp2417
(dp2418
g61
(dp2419
g81
g82
ssg70
g2413
sg63
(lp2420
S'utcnow'
p2421
asbag56
(g77
g58
NtRp2422
(dp2423
g61
(dp2424
g88
g89
ssg70
g2413
sg63
(lp2425
S':'
asbag56
(g77
g58
NtRp2426
(dp2427
g61
(dp2428
sg70
g2413
sg63
(lp2429
g56
(g57
g58
NtRp2430
(dp2431
g61
(dp2432
g69
I5
ssg70
g2426
sg63
(lp2433
S'datetime.datetime(2011, 11, 22, 0, 58, 33, 977095)'
p2434
asbasbasbag56
(g72
g58
NtRp2435
(dp2436
g61
(dp2437
sg70
g66
sg63
(lp2438
g56
(g77
g58
NtRp2439
(dp2440
g61
(dp2441
g81
g82
ssg70
g2435
sg63
(lp2442
S'uuid'
p2443
asbag56
(g77
g58
NtRp2444
(dp2445
g61
(dp2446
g88
g89
ssg70
g2435
sg63
(lp2447
S':'
asbag56
(g77
g58
NtRp2448
(dp2449
g61
(dp2450
sg70
g2435
sg63
(lp2451
g56
(g57
g58
NtRp2452
(dp2453
g61
(dp2454
g69
I5
ssg70
g2448
sg63
(lp2455
S'topoi/127.0.0.1.2011-11-21.16-58-33.db4d87c7-d1b1-4f3e-b2a3-575b1d08c814'
p2456
asbasbasbag56
(g72
g58
NtRp2457
(dp2458
g61
(dp2459
sg70
g66
sg63
(lp2460
g56
(g77
g58
NtRp2461
(dp2462
g61
(dp2463
g81
g82
ssg70
g2457
sg63
(lp2464
S'vars'
p2465
asbag56
(g77
g58
NtRp2466
(dp2467
g61
(dp2468
g88
g89
ssg70
g2457
sg63
(lp2469
S':'
asbag56
(g77
g58
NtRp2470
(dp2471
g61
(dp2472
sg70
g2457
sg63
(lp2473
g56
(g57
g58
NtRp2474
(dp2475
g61
(dp2476
g69
I5
ssg70
g2470
sg63
(lp2477
g56
(g65
g58
NtRp2478
(dp2479
g61
(dp2480
g69
I4
ssg70
Nsg63
(lp2481
sbasbasbasbag56
(g72
g58
NtRp2482
(dp2483
g61
(dp2484
sg70
g66
sg63
(lp2485
g56
(g77
g58
NtRp2486
(dp2487
g61
(dp2488
g81
g82
ssg70
g2482
sg63
(lp2489
S'wsgi'
p2490
asbag56
(g77
g58
NtRp2491
(dp2492
g61
(dp2493
g88
g89
ssg70
g2482
sg63
(lp2494
S':'
asbag56
(g77
g58
NtRp2495
(dp2496
g61
(dp2497
sg70
g2482
sg63
(lp2498
g56
(g57
g58
NtRp2499
(dp2500
g61
(dp2501
g69
I5
ssg70
g2495
sg63
(lp2502
g56
(g65
g58
NtRp2503
(dp2504
g61
(dp2505
g69
I4
ssg70
Nsg63
(lp2506
g56
(g72
g58
NtRp2507
(dp2508
g61
(dp2509
sg70
g2503
sg63
(lp2510
g56
(g77
g58
NtRp2511
(dp2512
g61
(dp2513
g81
g82
ssg70
g2507
sg63
(lp2514
S'environ'
p2515
asbag56
(g77
g58
NtRp2516
(dp2517
g61
(dp2518
g88
g89
ssg70
g2507
sg63
(lp2519
S':'
asbag56
(g77
g58
NtRp2520
(dp2521
g61
(dp2522
sg70
g2507
sg63
(lp2523
g56
(g57
g58
NtRp2524
(dp2525
g61
(dp2526
g69
I4
ssg70
g2520
sg63
(lp2527
g56
(g65
g58
NtRp2528
(dp2529
g61
(dp2530
g69
I3
ssg70
Nsg63
(lp2531
g56
(g72
g58
NtRp2532
(dp2533
g61
(dp2534
sg70
g2528
sg63
(lp2535
g56
(g77
g58
NtRp2536
(dp2537
g61
(dp2538
g81
g82
ssg70
g2532
sg63
(lp2539
S'HTTP_ACCEPT'
p2540
asbag56
(g77
g58
NtRp2541
(dp2542
g61
(dp2543
g88
g89
ssg70
g2532
sg63
(lp2544
S':'
asbag56
(g77
g58
NtRp2545
(dp2546
g61
(dp2547
sg70
g2532
sg63
(lp2548
g56
(g57
g58
NtRp2549
(dp2550
g61
(dp2551
g69
I3
ssg70
g2545
sg63
(lp2552
g1038
asbasbasbag56
(g72
g58
NtRp2553
(dp2554
g61
(dp2555
sg70
g2528
sg63
(lp2556
g56
(g77
g58
NtRp2557
(dp2558
g61
(dp2559
g81
g82
ssg70
g2553
sg63
(lp2560
S'HTTP_ACCEPT_CHARSET'
p2561
asbag56
(g77
g58
NtRp2562
(dp2563
g61
(dp2564
g88
g89
ssg70
g2553
sg63
(lp2565
S':'
asbag56
(g77
g58
NtRp2566
(dp2567
g61
(dp2568
sg70
g2553
sg63
(lp2569
g56
(g57
g58
NtRp2570
(dp2571
g61
(dp2572
g69
I3
ssg70
g2566
sg63
(lp2573
g1060
asbasbasbag56
(g72
g58
NtRp2574
(dp2575
g61
(dp2576
sg70
g2528
sg63
(lp2577
g56
(g77
g58
NtRp2578
(dp2579
g61
(dp2580
g81
g82
ssg70
g2574
sg63
(lp2581
S'HTTP_ACCEPT_ENCODING'
p2582
asbag56
(g77
g58
NtRp2583
(dp2584
g61
(dp2585
g88
g89
ssg70
g2574
sg63
(lp2586
S':'
asbag56
(g77
g58
NtRp2587
(dp2588
g61
(dp2589
sg70
g2574
sg63
(lp2590
g56
(g57
g58
NtRp2591
(dp2592
g61
(dp2593
g69
I3
ssg70
g2587
sg63
(lp2594
g1082
asbasbasbag56
(g72
g58
NtRp2595
(dp2596
g61
(dp2597
sg70
g2528
sg63
(lp2598
g56
(g77
g58
NtRp2599
(dp2600
g61
(dp2601
g81
g82
ssg70
g2595
sg63
(lp2602
S'HTTP_ACCEPT_LANGUAGE'
p2603
asbag56
(g77
g58
NtRp2604
(dp2605
g61
(dp2606
g88
g89
ssg70
g2595
sg63
(lp2607
S':'
asbag56
(g77
g58
NtRp2608
(dp2609
g61
(dp2610
sg70
g2595
sg63
(lp2611
g56
(g57
g58
NtRp2612
(dp2613
g61
(dp2614
g69
I3
ssg70
g2608
sg63
(lp2615
g1104
asbasbasbag56
(g72
g58
NtRp2616
(dp2617
g61
(dp2618
sg70
g2528
sg63
(lp2619
g56
(g77
g58
NtRp2620
(dp2621
g61
(dp2622
g81
g82
ssg70
g2616
sg63
(lp2623
S'HTTP_CACHE_CONTROL'
p2624
asbag56
(g77
g58
NtRp2625
(dp2626
g61
(dp2627
g88
g89
ssg70
g2616
sg63
(lp2628
S':'
asbag56
(g77
g58
NtRp2629
(dp2630
g61
(dp2631
sg70
g2616
sg63
(lp2632
g56
(g57
g58
NtRp2633
(dp2634
g61
(dp2635
g69
I3
ssg70
g2629
sg63
(lp2636
g1126
asbasbasbag56
(g72
g58
NtRp2637
(dp2638
g61
(dp2639
sg70
g2528
sg63
(lp2640
g56
(g77
g58
NtRp2641
(dp2642
g61
(dp2643
g81
g82
ssg70
g2637
sg63
(lp2644
S'HTTP_CONNECTION'
p2645
asbag56
(g77
g58
NtRp2646
(dp2647
g61
(dp2648
g88
g89
ssg70
g2637
sg63
(lp2649
S':'
asbag56
(g77
g58
NtRp2650
(dp2651
g61
(dp2652
sg70
g2637
sg63
(lp2653
g56
(g57
g58
NtRp2654
(dp2655
g61
(dp2656
g69
I3
ssg70
g2650
sg63
(lp2657
g1148
asbasbasbag56
(g72
g58
NtRp2658
(dp2659
g61
(dp2660
sg70
g2528
sg63
(lp2661
g56
(g77
g58
NtRp2662
(dp2663
g61
(dp2664
g81
g82
ssg70
g2658
sg63
(lp2665
S'HTTP_COOKIE'
p2666
asbag56
(g77
g58
NtRp2667
(dp2668
g61
(dp2669
g88
g89
ssg70
g2658
sg63
(lp2670
S':'
asbag56
(g77
g58
NtRp2671
(dp2672
g61
(dp2673
sg70
g2658
sg63
(lp2674
g56
(g57
g58
NtRp2675
(dp2676
g61
(dp2677
g69
I3
ssg70
g2671
sg63
(lp2678
g1170
asbasbasbag56
(g72
g58
NtRp2679
(dp2680
g61
(dp2681
sg70
g2528
sg63
(lp2682
g56
(g77
g58
NtRp2683
(dp2684
g61
(dp2685
g81
g82
ssg70
g2679
sg63
(lp2686
S'HTTP_HOST'
p2687
asbag56
(g77
g58
NtRp2688
(dp2689
g61
(dp2690
g88
g89
ssg70
g2679
sg63
(lp2691
S':'
asbag56
(g77
g58
NtRp2692
(dp2693
g61
(dp2694
sg70
g2679
sg63
(lp2695
g56
(g57
g58
NtRp2696
(dp2697
g61
(dp2698
g69
I3
ssg70
g2692
sg63
(lp2699
g1192
asbasbasbag56
(g72
g58
NtRp2700
(dp2701
g61
(dp2702
sg70
g2528
sg63
(lp2703
g56
(g77
g58
NtRp2704
(dp2705
g61
(dp2706
g81
g82
ssg70
g2700
sg63
(lp2707
S'HTTP_REFERER'
p2708
asbag56
(g77
g58
NtRp2709
(dp2710
g61
(dp2711
g88
g89
ssg70
g2700
sg63
(lp2712
S':'
asbag56
(g77
g58
NtRp2713
(dp2714
g61
(dp2715
sg70
g2700
sg63
(lp2716
g56
(g57
g58
NtRp2717
(dp2718
g61
(dp2719
g69
I3
ssg70
g2713
sg63
(lp2720
g1214
asbasbasbag56
(g72
g58
NtRp2721
(dp2722
g61
(dp2723
sg70
g2528
sg63
(lp2724
g56
(g77
g58
NtRp2725
(dp2726
g61
(dp2727
g81
g82
ssg70
g2721
sg63
(lp2728
S'HTTP_USER_AGENT'
p2729
asbag56
(g77
g58
NtRp2730
(dp2731
g61
(dp2732
g88
g89
ssg70
g2721
sg63
(lp2733
S':'
asbag56
(g77
g58
NtRp2734
(dp2735
g61
(dp2736
sg70
g2721
sg63
(lp2737
g56
(g57
g58
NtRp2738
(dp2739
g61
(dp2740
g69
I3
ssg70
g2734
sg63
(lp2741
g1236
asbasbasbag56
(g72
g58
NtRp2742
(dp2743
g61
(dp2744
sg70
g2528
sg63
(lp2745
g56
(g77
g58
NtRp2746
(dp2747
g61
(dp2748
g81
g82
ssg70
g2742
sg63
(lp2749
S'HTTP_WEB2PY_COMPONENT_ELEMENT'
p2750
asbag56
(g77
g58
NtRp2751
(dp2752
g61
(dp2753
g88
g89
ssg70
g2742
sg63
(lp2754
S':'
asbag56
(g77
g58
NtRp2755
(dp2756
g61
(dp2757
sg70
g2742
sg63
(lp2758
g56
(g57
g58
NtRp2759
(dp2760
g61
(dp2761
g69
I3
ssg70
g2755
sg63
(lp2762
g202
asbasbasbag56
(g72
g58
NtRp2763
(dp2764
g61
(dp2765
sg70
g2528
sg63
(lp2766
g56
(g77
g58
NtRp2767
(dp2768
g61
(dp2769
g81
g82
ssg70
g2763
sg63
(lp2770
S'HTTP_WEB2PY_COMPONENT_LOCATION'
p2771
asbag56
(g77
g58
NtRp2772
(dp2773
g61
(dp2774
g88
g89
ssg70
g2763
sg63
(lp2775
S':'
asbag56
(g77
g58
NtRp2776
(dp2777
g61
(dp2778
sg70
g2763
sg63
(lp2779
g56
(g57
g58
NtRp2780
(dp2781
g61
(dp2782
g69
I3
ssg70
g2776
sg63
(lp2783
g1279
asbasbasbag56
(g72
g58
NtRp2784
(dp2785
g61
(dp2786
sg70
g2528
sg63
(lp2787
g56
(g77
g58
NtRp2788
(dp2789
g61
(dp2790
g81
g82
ssg70
g2784
sg63
(lp2791
S'HTTP_X_REQUESTED_WITH'
p2792
asbag56
(g77
g58
NtRp2793
(dp2794
g61
(dp2795
g88
g89
ssg70
g2784
sg63
(lp2796
S':'
asbag56
(g77
g58
NtRp2797
(dp2798
g61
(dp2799
sg70
g2784
sg63
(lp2800
g56
(g57
g58
NtRp2801
(dp2802
g61
(dp2803
g69
I3
ssg70
g2797
sg63
(lp2804
g1301
asbasbasbag56
(g72
g58
NtRp2805
(dp2806
g61
(dp2807
sg70
g2528
sg63
(lp2808
g56
(g77
g58
NtRp2809
(dp2810
g61
(dp2811
g81
g82
ssg70
g2805
sg63
(lp2812
S'PATH_INFO'
p2813
asbag56
(g77
g58
NtRp2814
(dp2815
g61
(dp2816
g88
g89
ssg70
g2805
sg63
(lp2817
S':'
asbag56
(g77
g58
NtRp2818
(dp2819
g61
(dp2820
sg70
g2805
sg63
(lp2821
g56
(g57
g58
NtRp2822
(dp2823
g61
(dp2824
g69
I3
ssg70
g2818
sg63
(lp2825
g1344
asbasbasbag56
(g72
g58
NtRp2826
(dp2827
g61
(dp2828
sg70
g2528
sg63
(lp2829
g56
(g77
g58
NtRp2830
(dp2831
g61
(dp2832
g81
g82
ssg70
g2826
sg63
(lp2833
S'QUERY_STRING'
p2834
asbag56
(g77
g58
NtRp2835
(dp2836
g61
(dp2837
g88
g89
ssg70
g2826
sg63
(lp2838
S':'
asbag56
(g77
g58
NtRp2839
(dp2840
g61
(dp2841
sg70
g2826
sg63
(lp2842
g56
(g57
g58
NtRp2843
(dp2844
g61
(dp2845
g69
I3
ssg70
g2839
sg63
(lp2846
S''
asbasbasbag56
(g72
g58
NtRp2847
(dp2848
g61
(dp2849
sg70
g2528
sg63
(lp2850
g56
(g77
g58
NtRp2851
(dp2852
g61
(dp2853
g81
g82
ssg70
g2847
sg63
(lp2854
S'REMOTE_ADDR'
p2855
asbag56
(g77
g58
NtRp2856
(dp2857
g61
(dp2858
g88
g89
ssg70
g2847
sg63
(lp2859
S':'
asbag56
(g77
g58
NtRp2860
(dp2861
g61
(dp2862
sg70
g2847
sg63
(lp2863
g56
(g57
g58
NtRp2864
(dp2865
g61
(dp2866
g69
I3
ssg70
g2860
sg63
(lp2867
g224
asbasbasbag56
(g72
g58
NtRp2868
(dp2869
g61
(dp2870
sg70
g2528
sg63
(lp2871
g56
(g77
g58
NtRp2872
(dp2873
g61
(dp2874
g81
g82
ssg70
g2868
sg63
(lp2875
S'REMOTE_PORT'
p2876
asbag56
(g77
g58
NtRp2877
(dp2878
g61
(dp2879
g88
g89
ssg70
g2868
sg63
(lp2880
S':'
asbag56
(g77
g58
NtRp2881
(dp2882
g61
(dp2883
sg70
g2868
sg63
(lp2884
g56
(g57
g58
NtRp2885
(dp2886
g61
(dp2887
g69
I3
ssg70
g2881
sg63
(lp2888
g1408
asbasbasbag56
(g72
g58
NtRp2889
(dp2890
g61
(dp2891
sg70
g2528
sg63
(lp2892
g56
(g77
g58
NtRp2893
(dp2894
g61
(dp2895
g81
g82
ssg70
g2889
sg63
(lp2896
S'REQUEST_METHOD'
p2897
asbag56
(g77
g58
NtRp2898
(dp2899
g61
(dp2900
g88
g89
ssg70
g2889
sg63
(lp2901
S':'
asbag56
(g77
g58
NtRp2902
(dp2903
g61
(dp2904
sg70
g2889
sg63
(lp2905
g56
(g57
g58
NtRp2906
(dp2907
g61
(dp2908
g69
I3
ssg70
g2902
sg63
(lp2909
g1430
asbasbasbag56
(g72
g58
NtRp2910
(dp2911
g61
(dp2912
sg70
g2528
sg63
(lp2913
g56
(g77
g58
NtRp2914
(dp2915
g61
(dp2916
g81
g82
ssg70
g2910
sg63
(lp2917
S'SCRIPT_NAME'
p2918
asbag56
(g77
g58
NtRp2919
(dp2920
g61
(dp2921
g88
g89
ssg70
g2910
sg63
(lp2922
S':'
asbag56
(g77
g58
NtRp2923
(dp2924
g61
(dp2925
sg70
g2910
sg63
(lp2926
g56
(g57
g58
NtRp2927
(dp2928
g61
(dp2929
g69
I3
ssg70
g2923
sg63
(lp2930
S''
asbasbasbag56
(g72
g58
NtRp2931
(dp2932
g61
(dp2933
sg70
g2528
sg63
(lp2934
g56
(g77
g58
NtRp2935
(dp2936
g61
(dp2937
g81
g82
ssg70
g2931
sg63
(lp2938
S'SERVER_NAME'
p2939
asbag56
(g77
g58
NtRp2940
(dp2941
g61
(dp2942
g88
g89
ssg70
g2931
sg63
(lp2943
S':'
asbag56
(g77
g58
NtRp2944
(dp2945
g61
(dp2946
sg70
g2931
sg63
(lp2947
g56
(g57
g58
NtRp2948
(dp2949
g61
(dp2950
g69
I3
ssg70
g2944
sg63
(lp2951
g1473
asbasbasbag56
(g72
g58
NtRp2952
(dp2953
g61
(dp2954
sg70
g2528
sg63
(lp2955
g56
(g77
g58
NtRp2956
(dp2957
g61
(dp2958
g81
g82
ssg70
g2952
sg63
(lp2959
S'SERVER_PORT'
p2960
asbag56
(g77
g58
NtRp2961
(dp2962
g61
(dp2963
g88
g89
ssg70
g2952
sg63
(lp2964
S':'
asbag56
(g77
g58
NtRp2965
(dp2966
g61
(dp2967
sg70
g2952
sg63
(lp2968
g56
(g57
g58
NtRp2969
(dp2970
g61
(dp2971
g69
I3
ssg70
g2965
sg63
(lp2972
g1495
asbasbasbag56
(g72
g58
NtRp2973
(dp2974
g61
(dp2975
sg70
g2528
sg63
(lp2976
g56
(g77
g58
NtRp2977
(dp2978
g61
(dp2979
g81
g82
ssg70
g2973
sg63
(lp2980
S'SERVER_PROTOCOL'
p2981
asbag56
(g77
g58
NtRp2982
(dp2983
g61
(dp2984
g88
g89
ssg70
g2973
sg63
(lp2985
S':'
asbag56
(g77
g58
NtRp2986
(dp2987
g61
(dp2988
sg70
g2973
sg63
(lp2989
g56
(g57
g58
NtRp2990
(dp2991
g61
(dp2992
g69
I3
ssg70
g2986
sg63
(lp2993
g1517
asbasbasbag56
(g72
g58
NtRp2994
(dp2995
g61
(dp2996
sg70
g2528
sg63
(lp2997
g56
(g77
g58
NtRp2998
(dp2999
g61
(dp3000
g81
g82
ssg70
g2994
sg63
(lp3001
S'SERVER_SOFTWARE'
p3002
asbag56
(g77
g58
NtRp3003
(dp3004
g61
(dp3005
g88
g89
ssg70
g2994
sg63
(lp3006
S':'
asbag56
(g77
g58
NtRp3007
(dp3008
g61
(dp3009
sg70
g2994
sg63
(lp3010
g56
(g57
g58
NtRp3011
(dp3012
g61
(dp3013
g69
I3
ssg70
g3007
sg63
(lp3014
g1539
asbasbasbag56
(g72
g58
NtRp3015
(dp3016
g61
(dp3017
sg70
g2528
sg63
(lp3018
g56
(g77
g58
NtRp3019
(dp3020
g61
(dp3021
g81
g82
ssg70
g3015
sg63
(lp3022
S'wsgi.errors'
p3023
asbag56
(g77
g58
NtRp3024
(dp3025
g61
(dp3026
g88
g89
ssg70
g3015
sg63
(lp3027
S':'
asbag56
(g77
g58
NtRp3028
(dp3029
g61
(dp3030
sg70
g3015
sg63
(lp3031
g56
(g57
g58
NtRp3032
(dp3033
g61
(dp3034
g69
I3
ssg70
g3028
sg63
(lp3035
S"<open file '<stderr>', mode 'w' at 0x7fafe3e4a270>"
p3036
asbasbasbag56
(g72
g58
NtRp3037
(dp3038
g61
(dp3039
sg70
g2528
sg63
(lp3040
g56
(g77
g58
NtRp3041
(dp3042
g61
(dp3043
g81
g82
ssg70
g3037
sg63
(lp3044
S'wsgi.file_wrapper'
p3045
asbag56
(g77
g58
NtRp3046
(dp3047
g61
(dp3048
g88
g89
ssg70
g3037
sg63
(lp3049
S':'
asbag56
(g77
g58
NtRp3050
(dp3051
g61
(dp3052
sg70
g3037
sg63
(lp3053
g56
(g57
g58
NtRp3054
(dp3055
g61
(dp3056
g69
I3
ssg70
g3050
sg63
(lp3057
S'<class wsgiref.util.FileWrapper at 0x1d28808>'
p3058
asbasbasbag56
(g72
g58
NtRp3059
(dp3060
g61
(dp3061
sg70
g2528
sg63
(lp3062
g56
(g77
g58
NtRp3063
(dp3064
g61
(dp3065
g81
g82
ssg70
g3059
sg63
(lp3066
S'wsgi.input'
p3067
asbag56
(g77
g58
NtRp3068
(dp3069
g61
(dp3070
g88
g89
ssg70
g3059
sg63
(lp3071
S':'
asbag56
(g77
g58
NtRp3072
(dp3073
g61
(dp3074
sg70
g3059
sg63
(lp3075
g56
(g57
g58
NtRp3076
(dp3077
g61
(dp3078
g69
I3
ssg70
g3072
sg63
(lp3079
S'<cStringIO.StringO object at 0x2414928>'
p3080
asbasbasbag56
(g72
g58
NtRp3081
(dp3082
g61
(dp3083
sg70
g2528
sg63
(lp3084
g56
(g77
g58
NtRp3085
(dp3086
g61
(dp3087
g81
g82
ssg70
g3081
sg63
(lp3088
S'wsgi.multiprocess'
p3089
asbag56
(g77
g58
NtRp3090
(dp3091
g61
(dp3092
g88
g89
ssg70
g3081
sg63
(lp3093
S':'
asbag56
(g77
g58
NtRp3094
(dp3095
g61
(dp3096
sg70
g3081
sg63
(lp3097
g56
(g57
g58
NtRp3098
(dp3099
g61
(dp3100
g69
I3
ssg70
g3094
sg63
(lp3101
g994
asbasbasbag56
(g72
g58
NtRp3102
(dp3103
g61
(dp3104
sg70
g2528
sg63
(lp3105
g56
(g77
g58
NtRp3106
(dp3107
g61
(dp3108
g81
g82
ssg70
g3102
sg63
(lp3109
S'wsgi.multithread'
p3110
asbag56
(g77
g58
NtRp3111
(dp3112
g61
(dp3113
g88
g89
ssg70
g3102
sg63
(lp3114
S':'
asbag56
(g77
g58
NtRp3115
(dp3116
g61
(dp3117
sg70
g3102
sg63
(lp3118
g56
(g57
g58
NtRp3119
(dp3120
g61
(dp3121
g69
I3
ssg70
g3115
sg63
(lp3122
g99
asbasbasbag56
(g72
g58
NtRp3123
(dp3124
g61
(dp3125
sg70
g2528
sg63
(lp3126
g56
(g77
g58
NtRp3127
(dp3128
g61
(dp3129
g81
g82
ssg70
g3123
sg63
(lp3130
S'wsgi.run_once'
p3131
asbag56
(g77
g58
NtRp3132
(dp3133
g61
(dp3134
g88
g89
ssg70
g3123
sg63
(lp3135
S':'
asbag56
(g77
g58
NtRp3136
(dp3137
g61
(dp3138
sg70
g3123
sg63
(lp3139
g56
(g57
g58
NtRp3140
(dp3141
g61
(dp3142
g69
I3
ssg70
g3136
sg63
(lp3143
g994
asbasbasbag56
(g72
g58
NtRp3144
(dp3145
g61
(dp3146
sg70
g2528
sg63
(lp3147
g56
(g77
g58
NtRp3148
(dp3149
g61
(dp3150
g81
g82
ssg70
g3144
sg63
(lp3151
S'wsgi.url_scheme'
p3152
asbag56
(g77
g58
NtRp3153
(dp3154
g61
(dp3155
g88
g89
ssg70
g3144
sg63
(lp3156
S':'
asbag56
(g77
g58
NtRp3157
(dp3158
g61
(dp3159
sg70
g3144
sg63
(lp3160
g56
(g57
g58
NtRp3161
(dp3162
g61
(dp3163
g69
I3
ssg70
g3157
sg63
(lp3164
g1821
asbasbasbag56
(g72
g58
NtRp3165
(dp3166
g61
(dp3167
sg70
g2528
sg63
(lp3168
g56
(g77
g58
NtRp3169
(dp3170
g61
(dp3171
g81
g82
ssg70
g3165
sg63
(lp3172
S'wsgi.version'
p3173
asbag56
(g77
g58
NtRp3174
(dp3175
g61
(dp3176
g88
g89
ssg70
g3165
sg63
(lp3177
S':'
asbag56
(g77
g58
NtRp3178
(dp3179
g61
(dp3180
sg70
g3165
sg63
(lp3181
g56
(g57
g58
NtRp3182
(dp3183
g61
(dp3184
g69
I3
ssg70
g3178
sg63
(lp3185
S'1'
asbasbasbasbasbasbasbasbasbasbasbasbasbsS'frames'
p3186
(lp3187
(dp3188
S'file'
p3189
S'/home/ian/web2py/gluon/restricted.py'
p3190
sS'dump'
p3191
(dp3192
S'environment'
p3193
S"{'A': <class 'gluon.html.A'>, 'Auth': <class 'gluon.tools.Auth'>, 'AutocompleteWidget': <class 'gluon.sqlhtml.AutocompleteWidget'>, 'B': <class 'gluon.html.B'>, 'BEAUTIFY': <class 'gluon.html.BEAUTIFY'>, 'BODY': <class 'gluon.html.BODY'>, 'BR': <class 'gluon.html.BR'>, 'BUTTON': <class 'gluon.html.BUTTON'>, 'BooleanWidget': <class 'gluon.sqlhtml.BooleanWidget'>, 'CALLABLETYPES': (<type 'function'>, <type 'function'>, <type 'builtin_function_or_method'>, <type 'instancemethod'>, <type 'builtin_function_or_method'>), ...}"
p3194
sS'ccode'
p3195
S'<code object <module> at 0x2f200b0, file "/home/...lications/topoi/controllers/default.py", line 12>'
p3196
ssS'lnum'
p3197
I194
sS'lines'
p3198
(dp3199
I192
S'        else:'
p3200
sI193
S'            ccode = compile2(code,layer)'
p3201
sI194
S'        exec ccode in environment'
p3202
sI195
S'    except HTTP:'
p3203
sI196
S'        raise'
p3204
sI197
S'    except Exception, error:'
p3205
sI198
S'        # XXX Show exception in Wing IDE if running in debugger'
p3206
sI189
S'    try:'
p3207
sI190
S'        if type(code) == types.CodeType:'
p3208
sI191
S'            ccode = code'
p3209
ssS'call'
p3210
S"(code='# -*- coding: utf-8 -*-\\n# this file is released ...rm = form)\\n\\nresponse._vars=response._caller(add)\\n', environment={'A': <class 'gluon.html.A'>, 'Auth': <class 'gluon.tools.Auth'>, 'AutocompleteWidget': <class 'gluon.sqlhtml.AutocompleteWidget'>, 'B': <class 'gluon.html.B'>, 'BEAUTIFY': <class 'gluon.html.BEAUTIFY'>, 'BODY': <class 'gluon.html.BODY'>, 'BR': <class 'gluon.html.BR'>, 'BUTTON': <class 'gluon.html.BUTTON'>, 'BooleanWidget': <class 'gluon.sqlhtml.BooleanWidget'>, 'CALLABLETYPES': (<type 'function'>, <type 'function'>, <type 'builtin_function_or_method'>, <type 'instancemethod'>, <type 'builtin_function_or_method'>), ...}, layer='/home/ian/web2py/applications/topoi/controllers/default.py')"
p3211
sS'func'
p3212
S'restricted'
p3213
sa(dp3214
g3189
S'/home/ian/web2py/applications/topoi/controllers/default.py'
p3215
sg3191
(dp3216
sg3197
I106
sg3198
(dp3217
I96
S'        #finally, return a blank form incase for some reason they wanted to add another option'
p3218
sI97
S'        return form'
p3219
sI98
S'    elif form.errors:'
p3220
sI99
S"        #silly user, just send back the form and it'll still be in our dialog box complete with error messages"
p3221
sI100
S'        return form'
p3222
sI101
S'    else:'
p3223
sI102
S"        #hasn't been submitted yet, just give them the fresh blank form"
p3224
sI103
S'        return form'
p3225
sI104
S'    return dict(form = form)'
p3226
sI95
S'        response.js += """$("#%s").val("%s");""" % (target, form.vars.id)'
p3227
ssg3210
S'()'
p3228
sg3212
S'<module>'
p3229
sa(dp3230
g3189
S'/home/ian/web2py/gluon/globals.py'
p3231
sg3191
(dp3232
S'self'
p3233
S'undefined'
p3234
sS'f'
S'<function add>'
p3235
ssg3197
I149
sg3198
(dp3236
I144
S'        self.meta = Storage()      # used by web2py_ajax.html'
p3237
sI145
S'        self.menu = []             # used by the default view layout'
p3238
sI146
S'        self.files = []            # used by web2py_ajax.html'
p3239
sI147
S'        self.generic_patterns = [] # patterns to allow generic views'
p3240
sI148
S'        self._vars = None'
p3241
sI149
S'        self._caller = lambda f: f()'
p3242
sI150
S'        self._view_environment = None'
p3243
sI151
S'        self._custom_commit = None'
p3244
sI152
S'        self._custom_rollback = None'
p3245
sI153
S''
ssg3210
S'(f=<function add>)'
p3246
sg3212
S'<lambda>'
p3247
sa(dp3248
g3189
S'/home/ian/web2py/gluon/tools.py'
p3249
sg3191
(dp3250
S'action'
p3251
S'<function add>'
p3252
sS'a'
S'()'
p3253
sS'b'
g44
ssg3197
I2456
sg3198
(dp3254
I2451
S"                            '?_next='+urllib.quote(next))"
p3255
sI2452
S'                if not condition:'
p3256
sI2453
S'                    current.session.flash = self.messages.access_denied'
p3257
sI2454
S'                    return call_or_redirect('
p3258
sI2455
S'                        self.settings.on_failed_authorization)'
p3259
sI2456
S'                return action(*a, **b)'
p3260
sI2457
S'            f.__doc__ = action.__doc__'
p3261
sI2458
S'            f.__name__ = action.__name__'
p3262
sI2459
S'            f.__dict__.update(action.__dict__)'
p3263
sI2460
S'            return f'
p3264
ssg3210
S'(*a=(), **b={})'
p3265
sg3212
S'f'
sa(dp3266
g3189
S'/home/ian/web2py/applications/topoi/controllers/default.py'
p3267
sg3191
(dp3268
S'the_table'
p3269
g3234
sS'tb'
p3270
S"'authors'"
p3271
ssg3197
I83
sg3198
(dp3272
I78
S''
sI79
S'def add():'
p3273
sI80
S'    tb = request.args[0]'
p3274
sI81
S'    #FIXME: Hack here to solve problem of field name not being identical to table name'
p3275
sI82
S"    tb = tb.split('_')[1] + 's'"
p3276
sI83
S'    the_table = "db.%" % tb'
p3277
sI84
S'    the_form = SQLFORM(the_table)'
p3278
sI85
S'    print the_form'
p3279
sI86
S'    form = the_form'
p3280
sI87
S'    if form.accepts(request.vars):'
p3281
ssg3210
S'()'
p3282
sg3212
S'add'
p3283
sasS'pyver'
p3284
S'Python 2.7.2+: /usr/bin/python2.7'
p3285
sS'session'
p3286
g56
(g57
g58
NtRp3287
(dp3288
g61
(dp3289
sg63
(lp3290
g56
(g65
g58
NtRp3291
(dp3292
g61
(dp3293
g69
I5
ssg70
Nsg63
(lp3294
g56
(g72
g58
NtRp3295
(dp3296
g61
(dp3297
sg70
g3291
sg63
(lp3298
g56
(g77
g58
NtRp3299
(dp3300
g61
(dp3301
g81
g82
ssg70
g3295
sg63
(lp3302
S'auth'
p3303
asbag56
(g77
g58
NtRp3304
(dp3305
g61
(dp3306
g88
g89
ssg70
g3295
sg63
(lp3307
S':'
asbag56
(g77
g58
NtRp3308
(dp3309
g61
(dp3310
sg70
g3295
sg63
(lp3311
g56
(g57
g58
NtRp3312
(dp3313
g61
(dp3314
g69
I5
ssg70
g3308
sg63
(lp3315
g56
(g65
g58
NtRp3316
(dp3317
g61
(dp3318
g69
I4
ssg70
Nsg63
(lp3319
g56
(g72
g58
NtRp3320
(dp3321
g61
(dp3322
sg70
g3316
sg63
(lp3323
g56
(g77
g58
NtRp3324
(dp3325
g61
(dp3326
g81
g82
ssg70
g3320
sg63
(lp3327
S'expiration'
p3328
asbag56
(g77
g58
NtRp3329
(dp3330
g61
(dp3331
g88
g89
ssg70
g3320
sg63
(lp3332
S':'
asbag56
(g77
g58
NtRp3333
(dp3334
g61
(dp3335
sg70
g3320
sg63
(lp3336
g56
(g57
g58
NtRp3337
(dp3338
g61
(dp3339
g69
I4
ssg70
g3333
sg63
(lp3340
S'2592000'
p3341
asbasbasbag56
(g72
g58
NtRp3342
(dp3343
g61
(dp3344
sg70
g3316
sg63
(lp3345
g56
(g77
g58
NtRp3346
(dp3347
g61
(dp3348
g81
g82
ssg70
g3342
sg63
(lp3349
S'hmac_key'
p3350
asbag56
(g77
g58
NtRp3351
(dp3352
g61
(dp3353
g88
g89
ssg70
g3342
sg63
(lp3354
S':'
asbag56
(g77
g58
NtRp3355
(dp3356
g61
(dp3357
sg70
g3342
sg63
(lp3358
g56
(g57
g58
NtRp3359
(dp3360
g61
(dp3361
g69
I4
ssg70
g3355
sg63
(lp3362
S'8775d0f3-def5-448d-b826-6c678fe79968'
p3363
asbasbasbag56
(g72
g58
NtRp3364
(dp3365
g61
(dp3366
sg70
g3316
sg63
(lp3367
g56
(g77
g58
NtRp3368
(dp3369
g61
(dp3370
g81
g82
ssg70
g3364
sg63
(lp3371
S'last_visit'
p3372
asbag56
(g77
g58
NtRp3373
(dp3374
g61
(dp3375
g88
g89
ssg70
g3364
sg63
(lp3376
S':'
asbag56
(g77
g58
NtRp3377
(dp3378
g61
(dp3379
sg70
g3364
sg63
(lp3380
g56
(g57
g58
NtRp3381
(dp3382
g61
(dp3383
g69
I4
ssg70
g3377
sg63
(lp3384
S'datetime.datetime(2011, 11, 21, 9, 36, 1, 518712)'
p3385
asbasbasbag56
(g72
g58
NtRp3386
(dp3387
g61
(dp3388
sg70
g3316
sg63
(lp3389
g56
(g77
g58
NtRp3390
(dp3391
g61
(dp3392
g81
g82
ssg70
g3386
sg63
(lp3393
S'remember'
p3394
asbag56
(g77
g58
NtRp3395
(dp3396
g61
(dp3397
g88
g89
ssg70
g3386
sg63
(lp3398
S':'
asbag56
(g77
g58
NtRp3399
(dp3400
g61
(dp3401
sg70
g3386
sg63
(lp3402
g56
(g57
g58
NtRp3403
(dp3404
g61
(dp3405
g69
I4
ssg70
g3399
sg63
(lp3406
g994
asbasbasbag56
(g72
g58
NtRp3407
(dp3408
g61
(dp3409
sg70
g3316
sg63
(lp3410
g56
(g77
g58
NtRp3411
(dp3412
g61
(dp3413
g81
g82
ssg70
g3407
sg63
(lp3414
S'user'
p3415
asbag56
(g77
g58
NtRp3416
(dp3417
g61
(dp3418
g88
g89
ssg70
g3407
sg63
(lp3419
S':'
asbag56
(g77
g58
NtRp3420
(dp3421
g61
(dp3422
sg70
g3407
sg63
(lp3423
g56
(g57
g58
NtRp3424
(dp3425
g61
(dp3426
g69
I4
ssg70
g3420
sg63
(lp3427
g56
(g65
g58
NtRp3428
(dp3429
g61
(dp3430
g69
I3
ssg70
Nsg63
(lp3431
g56
(g72
g58
NtRp3432
(dp3433
g61
(dp3434
sg70
g3428
sg63
(lp3435
g56
(g77
g58
NtRp3436
(dp3437
g61
(dp3438
g81
g82
ssg70
g3432
sg63
(lp3439
S'email'
p3440
asbag56
(g77
g58
NtRp3441
(dp3442
g61
(dp3443
g88
g89
ssg70
g3432
sg63
(lp3444
S':'
asbag56
(g77
g58
NtRp3445
(dp3446
g61
(dp3447
sg70
g3432
sg63
(lp3448
g56
(g57
g58
NtRp3449
(dp3450
g61
(dp3451
g69
I3
ssg70
g3445
sg63
(lp3452
S'scottianw@gmail.com'
p3453
asbasbasbag56
(g72
g58
NtRp3454
(dp3455
g61
(dp3456
sg70
g3428
sg63
(lp3457
g56
(g77
g58
NtRp3458
(dp3459
g61
(dp3460
g81
g82
ssg70
g3454
sg63
(lp3461
S'first_name'
p3462
asbag56
(g77
g58
NtRp3463
(dp3464
g61
(dp3465
g88
g89
ssg70
g3454
sg63
(lp3466
S':'
asbag56
(g77
g58
NtRp3467
(dp3468
g61
(dp3469
sg70
g3454
sg63
(lp3470
g56
(g57
g58
NtRp3471
(dp3472
g61
(dp3473
g69
I3
ssg70
g3467
sg63
(lp3474
S'Ian'
p3475
asbasbasbag56
(g72
g58
NtRp3476
(dp3477
g61
(dp3478
sg70
g3428
sg63
(lp3479
g56
(g77
g58
NtRp3480
(dp3481
g61
(dp3482
g81
g82
ssg70
g3476
sg63
(lp3483
S'id'
p3484
asbag56
(g77
g58
NtRp3485
(dp3486
g61
(dp3487
g88
g89
ssg70
g3476
sg63
(lp3488
S':'
asbag56
(g77
g58
NtRp3489
(dp3490
g61
(dp3491
sg70
g3476
sg63
(lp3492
g56
(g57
g58
NtRp3493
(dp3494
g61
(dp3495
g69
I3
ssg70
g3489
sg63
(lp3496
S'1'
asbasbasbag56
(g72
g58
NtRp3497
(dp3498
g61
(dp3499
sg70
g3428
sg63
(lp3500
g56
(g77
g58
NtRp3501
(dp3502
g61
(dp3503
g81
g82
ssg70
g3497
sg63
(lp3504
S'last_name'
p3505
asbag56
(g77
g58
NtRp3506
(dp3507
g61
(dp3508
g88
g89
ssg70
g3497
sg63
(lp3509
S':'
asbag56
(g77
g58
NtRp3510
(dp3511
g61
(dp3512
sg70
g3497
sg63
(lp3513
g56
(g57
g58
NtRp3514
(dp3515
g61
(dp3516
g69
I3
ssg70
g3510
sg63
(lp3517
S'Scott'
p3518
asbasbasbag56
(g72
g58
NtRp3519
(dp3520
g61
(dp3521
sg70
g3428
sg63
(lp3522
g56
(g77
g58
NtRp3523
(dp3524
g61
(dp3525
g81
g82
ssg70
g3519
sg63
(lp3526
S'password'
p3527
asbag56
(g77
g58
NtRp3528
(dp3529
g61
(dp3530
g88
g89
ssg70
g3519
sg63
(lp3531
S':'
asbag56
(g77
g58
NtRp3532
(dp3533
g61
(dp3534
sg70
g3519
sg63
(lp3535
g56
(g57
g58
NtRp3536
(dp3537
g61
(dp3538
g69
I3
ssg70
g3532
sg63
(lp3539
S'6fb48d01a3959846ba0fe062b1789f17d9cf3d34d3ec5aa948f598bbf4387cb10eb60c797988f41dfea97ee691b338dd77413d430229e401cf7c84e6cd9c4458'
p3540
asbasbasbag56
(g72
g58
NtRp3541
(dp3542
g61
(dp3543
sg70
g3428
sg63
(lp3544
g56
(g77
g58
NtRp3545
(dp3546
g61
(dp3547
g81
g82
ssg70
g3541
sg63
(lp3548
S'registration_key'
p3549
asbag56
(g77
g58
NtRp3550
(dp3551
g61
(dp3552
g88
g89
ssg70
g3541
sg63
(lp3553
S':'
asbag56
(g77
g58
NtRp3554
(dp3555
g61
(dp3556
sg70
g3541
sg63
(lp3557
g56
(g57
g58
NtRp3558
(dp3559
g61
(dp3560
g69
I3
ssg70
g3554
sg63
(lp3561
S''
asbasbasbag56
(g72
g58
NtRp3562
(dp3563
g61
(dp3564
sg70
g3428
sg63
(lp3565
g56
(g77
g58
NtRp3566
(dp3567
g61
(dp3568
g81
g82
ssg70
g3562
sg63
(lp3569
S'reset_password_key'
p3570
asbag56
(g77
g58
NtRp3571
(dp3572
g61
(dp3573
g88
g89
ssg70
g3562
sg63
(lp3574
S':'
asbag56
(g77
g58
NtRp3575
(dp3576
g61
(dp3577
sg70
g3562
sg63
(lp3578
g56
(g57
g58
NtRp3579
(dp3580
g61
(dp3581
g69
I3
ssg70
g3575
sg63
(lp3582
S''
asbasbasbasbasbasbasbasbasbasbasbag56
(g72
g58
NtRp3583
(dp3584
g61
(dp3585
sg70
g3291
sg63
(lp3586
g56
(g77
g58
NtRp3587
(dp3588
g61
(dp3589
g81
g82
ssg70
g3583
sg63
(lp3590
S'last_query'
p3591
asbag56
(g77
g58
NtRp3592
(dp3593
g61
(dp3594
g88
g89
ssg70
g3583
sg63
(lp3595
S':'
asbag56
(g77
g58
NtRp3596
(dp3597
g61
(dp3598
sg70
g3583
sg63
(lp3599
g56
(g57
g58
NtRp3600
(dp3601
g61
(dp3602
g69
I5
ssg70
g3596
sg63
(lp3603
S'db.authors.id>0'
p3604
asbasbasbasbasbsS'etype'
p3605
S"<type 'exceptions.ValueError'>"
p3606
sS'date'
p3607
S'Mon Nov 21 16:58:35 2011'
p3608
sS'response'
p3609
g56
(g57
g58
NtRp3610
(dp3611
g61
(dp3612
sg63
(lp3613
g56
(g65
g58
NtRp3614
(dp3615
g61
(dp3616
g69
I5
ssg70
Nsg63
(lp3617
g56
(g72
g58
NtRp3618
(dp3619
g61
(dp3620
sg70
g3614
sg63
(lp3621
g56
(g77
g58
NtRp3622
(dp3623
g61
(dp3624
g81
g82
ssg70
g3618
sg63
(lp3625
g167
asbag56
(g77
g58
NtRp3626
(dp3627
g61
(dp3628
g88
g89
ssg70
g3618
sg63
(lp3629
S':'
asbag56
(g77
g58
NtRp3630
(dp3631
g61
(dp3632
sg70
g3618
sg63
(lp3633
g56
(g57
g58
NtRp3634
(dp3635
g61
(dp3636
g69
I5
ssg70
g3630
sg63
(lp3637
S'<cStringIO.StringO object at 0x33451f0>'
p3638
asbasbasbag56
(g72
g58
NtRp3639
(dp3640
g61
(dp3641
sg70
g3614
sg63
(lp3642
g56
(g77
g58
NtRp3643
(dp3644
g61
(dp3645
g81
g82
ssg70
g3639
sg63
(lp3646
g255
asbag56
(g77
g58
NtRp3647
(dp3648
g61
(dp3649
g88
g89
ssg70
g3639
sg63
(lp3650
S':'
asbag56
(g77
g58
NtRp3651
(dp3652
g61
(dp3653
sg70
g3639
sg63
(lp3654
g56
(g57
g58
NtRp3655
(dp3656
g61
(dp3657
g69
I5
ssg70
g3651
sg63
(lp3658
g56
(g65
g58
NtRp3659
(dp3660
g61
(dp3661
g69
I4
ssg70
Nsg63
(lp3662
g56
(g72
g58
NtRp3663
(dp3664
g61
(dp3665
sg70
g3659
sg63
(lp3666
g56
(g77
g58
NtRp3667
(dp3668
g61
(dp3669
g81
g82
ssg70
g3663
sg63
(lp3670
S'session_id_topoi'
p3671
asbag56
(g77
g58
NtRp3672
(dp3673
g61
(dp3674
g88
g89
ssg70
g3663
sg63
(lp3675
S':'
asbag56
(g77
g58
NtRp3676
(dp3677
g61
(dp3678
sg70
g3663
sg63
(lp3679
g56
(g57
g58
NtRp3680
(dp3681
g61
(dp3682
g69
I4
ssg70
g3676
sg63
(lp3683
g56
(g65
g58
NtRp3684
(dp3685
g61
(dp3686
g69
I3
ssg70
Nsg63
(lp3687
g56
(g72
g58
NtRp3688
(dp3689
g61
(dp3690
sg70
g3684
sg63
(lp3691
g56
(g77
g58
NtRp3692
(dp3693
g61
(dp3694
g81
g82
ssg70
g3688
sg63
(lp3695
g305
asbag56
(g77
g58
NtRp3696
(dp3697
g61
(dp3698
g88
g89
ssg70
g3688
sg63
(lp3699
S':'
asbag56
(g77
g58
NtRp3700
(dp3701
g61
(dp3702
sg70
g3688
sg63
(lp3703
g56
(g57
g58
NtRp3704
(dp3705
g61
(dp3706
g69
I3
ssg70
g3700
sg63
(lp3707
S''
asbasbasbag56
(g72
g58
NtRp3708
(dp3709
g61
(dp3710
sg70
g3684
sg63
(lp3711
g56
(g77
g58
NtRp3712
(dp3713
g61
(dp3714
g81
g82
ssg70
g3708
sg63
(lp3715
g326
asbag56
(g77
g58
NtRp3716
(dp3717
g61
(dp3718
g88
g89
ssg70
g3708
sg63
(lp3719
S':'
asbag56
(g77
g58
NtRp3720
(dp3721
g61
(dp3722
sg70
g3708
sg63
(lp3723
g56
(g57
g58
NtRp3724
(dp3725
g61
(dp3726
g69
I3
ssg70
g3720
sg63
(lp3727
S''
asbasbasbag56
(g72
g58
NtRp3728
(dp3729
g61
(dp3730
sg70
g3684
sg63
(lp3731
g56
(g77
g58
NtRp3732
(dp3733
g61
(dp3734
g81
g82
ssg70
g3728
sg63
(lp3735
g347
asbag56
(g77
g58
NtRp3736
(dp3737
g61
(dp3738
g88
g89
ssg70
g3728
sg63
(lp3739
S':'
asbag56
(g77
g58
NtRp3740
(dp3741
g61
(dp3742
sg70
g3728
sg63
(lp3743
g56
(g57
g58
NtRp3744
(dp3745
g61
(dp3746
g69
I3
ssg70
g3740
sg63
(lp3747
S''
asbasbasbag56
(g72
g58
NtRp3748
(dp3749
g61
(dp3750
sg70
g3684
sg63
(lp3751
g56
(g77
g58
NtRp3752
(dp3753
g61
(dp3754
g81
g82
ssg70
g3748
sg63
(lp3755
g368
asbag56
(g77
g58
NtRp3756
(dp3757
g61
(dp3758
g88
g89
ssg70
g3748
sg63
(lp3759
S':'
asbag56
(g77
g58
NtRp3760
(dp3761
g61
(dp3762
sg70
g3748
sg63
(lp3763
g56
(g57
g58
NtRp3764
(dp3765
g61
(dp3766
g69
I3
ssg70
g3760
sg63
(lp3767
S''
asbasbasbag56
(g72
g58
NtRp3768
(dp3769
g61
(dp3770
sg70
g3684
sg63
(lp3771
g56
(g77
g58
NtRp3772
(dp3773
g61
(dp3774
g81
g82
ssg70
g3768
sg63
(lp3775
g389
asbag56
(g77
g58
NtRp3776
(dp3777
g61
(dp3778
g88
g89
ssg70
g3768
sg63
(lp3779
S':'
asbag56
(g77
g58
NtRp3780
(dp3781
g61
(dp3782
sg70
g3768
sg63
(lp3783
g56
(g57
g58
NtRp3784
(dp3785
g61
(dp3786
g69
I3
ssg70
g3780
sg63
(lp3787
S''
asbasbasbag56
(g72
g58
NtRp3788
(dp3789
g61
(dp3790
sg70
g3684
sg63
(lp3791
g56
(g77
g58
NtRp3792
(dp3793
g61
(dp3794
g81
g82
ssg70
g3788
sg63
(lp3795
g410
asbag56
(g77
g58
NtRp3796
(dp3797
g61
(dp3798
g88
g89
ssg70
g3788
sg63
(lp3799
S':'
asbag56
(g77
g58
NtRp3800
(dp3801
g61
(dp3802
sg70
g3788
sg63
(lp3803
g56
(g57
g58
NtRp3804
(dp3805
g61
(dp3806
g69
I3
ssg70
g3800
sg63
(lp3807
S'/'
asbasbasbag56
(g72
g58
NtRp3808
(dp3809
g61
(dp3810
sg70
g3684
sg63
(lp3811
g56
(g77
g58
NtRp3812
(dp3813
g61
(dp3814
g81
g82
ssg70
g3808
sg63
(lp3815
g431
asbag56
(g77
g58
NtRp3816
(dp3817
g61
(dp3818
g88
g89
ssg70
g3808
sg63
(lp3819
S':'
asbag56
(g77
g58
NtRp3820
(dp3821
g61
(dp3822
sg70
g3808
sg63
(lp3823
g56
(g57
g58
NtRp3824
(dp3825
g61
(dp3826
g69
I3
ssg70
g3820
sg63
(lp3827
S''
asbasbasbag56
(g72
g58
NtRp3828
(dp3829
g61
(dp3830
sg70
g3684
sg63
(lp3831
g56
(g77
g58
NtRp3832
(dp3833
g61
(dp3834
g81
g82
ssg70
g3828
sg63
(lp3835
g452
asbag56
(g77
g58
NtRp3836
(dp3837
g61
(dp3838
g88
g89
ssg70
g3828
sg63
(lp3839
S':'
asbag56
(g77
g58
NtRp3840
(dp3841
g61
(dp3842
sg70
g3828
sg63
(lp3843
g56
(g57
g58
NtRp3844
(dp3845
g61
(dp3846
g69
I3
ssg70
g3840
sg63
(lp3847
S''
asbasbasbasbasbasbasbasbasbasbasbag56
(g72
g58
NtRp3848
(dp3849
g61
(dp3850
sg70
g3614
sg63
(lp3851
g56
(g77
g58
NtRp3852
(dp3853
g61
(dp3854
g81
g82
ssg70
g3848
sg63
(lp3855
S'files'
p3856
asbag56
(g77
g58
NtRp3857
(dp3858
g61
(dp3859
g88
g89
ssg70
g3848
sg63
(lp3860
S':'
asbag56
(g77
g58
NtRp3861
(dp3862
g61
(dp3863
sg70
g3848
sg63
(lp3864
g56
(g57
g58
NtRp3865
(dp3866
g61
(dp3867
g69
I5
ssg70
g3861
sg63
(lp3868
g56
(g65
g58
NtRp3869
(dp3870
g61
(dp3871
g69
I4
ssg70
Nsg63
(lp3872
sbasbasbasbag56
(g72
g58
NtRp3873
(dp3874
g61
(dp3875
sg70
g3614
sg63
(lp3876
g56
(g77
g58
NtRp3877
(dp3878
g61
(dp3879
g81
g82
ssg70
g3873
sg63
(lp3880
S'flash'
p3881
asbag56
(g77
g58
NtRp3882
(dp3883
g61
(dp3884
g88
g89
ssg70
g3873
sg63
(lp3885
S':'
asbag56
(g77
g58
NtRp3886
(dp3887
g61
(dp3888
sg70
g3873
sg63
(lp3889
g56
(g57
g58
NtRp3890
(dp3891
g61
(dp3892
g69
I5
ssg70
g3886
sg63
(lp3893
S''
asbasbasbag56
(g72
g58
NtRp3894
(dp3895
g61
(dp3896
sg70
g3614
sg63
(lp3897
g56
(g77
g58
NtRp3898
(dp3899
g61
(dp3900
g81
g82
ssg70
g3894
sg63
(lp3901
S'generic_patterns'
p3902
asbag56
(g77
g58
NtRp3903
(dp3904
g61
(dp3905
g88
g89
ssg70
g3894
sg63
(lp3906
S':'
asbag56
(g77
g58
NtRp3907
(dp3908
g61
(dp3909
sg70
g3894
sg63
(lp3910
g56
(g57
g58
NtRp3911
(dp3912
g61
(dp3913
g69
I5
ssg70
g3907
sg63
(lp3914
g56
(g65
g58
NtRp3915
(dp3916
g61
(dp3917
g69
I4
ssg70
Nsg63
(lp3918
g56
(g72
g58
NtRp3919
(dp3920
g61
(dp3921
sg70
g3915
sg63
(lp3922
g56
(g77
g58
NtRp3923
(dp3924
g61
(dp3925
sg70
g3919
sg63
(lp3926
g56
(g57
g58
NtRp3927
(dp3928
g61
(dp3929
g69
I4
ssg70
g3923
sg63
(lp3930
S'*'
asbasbasbasbasbasbasbag56
(g72
g58
NtRp3931
(dp3932
g61
(dp3933
sg70
g3614
sg63
(lp3934
g56
(g77
g58
NtRp3935
(dp3936
g61
(dp3937
g81
g82
ssg70
g3931
sg63
(lp3938
S'headers'
p3939
asbag56
(g77
g58
NtRp3940
(dp3941
g61
(dp3942
g88
g89
ssg70
g3931
sg63
(lp3943
S':'
asbag56
(g77
g58
NtRp3944
(dp3945
g61
(dp3946
sg70
g3931
sg63
(lp3947
g56
(g57
g58
NtRp3948
(dp3949
g61
(dp3950
g69
I5
ssg70
g3944
sg63
(lp3951
g56
(g65
g58
NtRp3952
(dp3953
g61
(dp3954
g69
I4
ssg70
Nsg63
(lp3955
g56
(g72
g58
NtRp3956
(dp3957
g61
(dp3958
sg70
g3952
sg63
(lp3959
g56
(g77
g58
NtRp3960
(dp3961
g61
(dp3962
g81
g82
ssg70
g3956
sg63
(lp3963
S'Cache-Control'
p3964
asbag56
(g77
g58
NtRp3965
(dp3966
g61
(dp3967
g88
g89
ssg70
g3956
sg63
(lp3968
S':'
asbag56
(g77
g58
NtRp3969
(dp3970
g61
(dp3971
sg70
g3956
sg63
(lp3972
g56
(g57
g58
NtRp3973
(dp3974
g61
(dp3975
g69
I4
ssg70
g3969
sg63
(lp3976
S'no-store, no-cache, must-revalidate, post-check=0, pre-check=0'
p3977
asbasbasbag56
(g72
g58
NtRp3978
(dp3979
g61
(dp3980
sg70
g3952
sg63
(lp3981
g56
(g77
g58
NtRp3982
(dp3983
g61
(dp3984
g81
g82
ssg70
g3978
sg63
(lp3985
S'Content-Type'
p3986
asbag56
(g77
g58
NtRp3987
(dp3988
g61
(dp3989
g88
g89
ssg70
g3978
sg63
(lp3990
S':'
asbag56
(g77
g58
NtRp3991
(dp3992
g61
(dp3993
sg70
g3978
sg63
(lp3994
g56
(g57
g58
NtRp3995
(dp3996
g61
(dp3997
g69
I4
ssg70
g3991
sg63
(lp3998
S'text/html; charset=utf-8'
p3999
asbasbasbag56
(g72
g58
NtRp4000
(dp4001
g61
(dp4002
sg70
g3952
sg63
(lp4003
g56
(g77
g58
NtRp4004
(dp4005
g61
(dp4006
g81
g82
ssg70
g4000
sg63
(lp4007
S'Expires'
p4008
asbag56
(g77
g58
NtRp4009
(dp4010
g61
(dp4011
g88
g89
ssg70
g4000
sg63
(lp4012
S':'
asbag56
(g77
g58
NtRp4013
(dp4014
g61
(dp4015
sg70
g4000
sg63
(lp4016
g56
(g57
g58
NtRp4017
(dp4018
g61
(dp4019
g69
I4
ssg70
g4013
sg63
(lp4020
S'Tue, 22 Nov 2011 00:58:34 GMT'
p4021
asbasbasbag56
(g72
g58
NtRp4022
(dp4023
g61
(dp4024
sg70
g3952
sg63
(lp4025
g56
(g77
g58
NtRp4026
(dp4027
g61
(dp4028
g81
g82
ssg70
g4022
sg63
(lp4029
S'Pragma'
p4030
asbag56
(g77
g58
NtRp4031
(dp4032
g61
(dp4033
g88
g89
ssg70
g4022
sg63
(lp4034
S':'
asbag56
(g77
g58
NtRp4035
(dp4036
g61
(dp4037
sg70
g4022
sg63
(lp4038
g56
(g57
g58
NtRp4039
(dp4040
g61
(dp4041
g69
I4
ssg70
g4035
sg63
(lp4042
S'no-cache'
p4043
asbasbasbag56
(g72
g58
NtRp4044
(dp4045
g61
(dp4046
sg70
g3952
sg63
(lp4047
g56
(g77
g58
NtRp4048
(dp4049
g61
(dp4050
g81
g82
ssg70
g4044
sg63
(lp4051
S'X-Powered-By'
p4052
asbag56
(g77
g58
NtRp4053
(dp4054
g61
(dp4055
g88
g89
ssg70
g4044
sg63
(lp4056
S':'
asbag56
(g77
g58
NtRp4057
(dp4058
g61
(dp4059
sg70
g4044
sg63
(lp4060
g56
(g57
g58
NtRp4061
(dp4062
g61
(dp4063
g69
I4
ssg70
g4057
sg63
(lp4064
S'web2py'
p4065
asbasbasbasbasbasbasbag56
(g72
g58
NtRp4066
(dp4067
g61
(dp4068
sg70
g3614
sg63
(lp4069
g56
(g77
g58
NtRp4070
(dp4071
g61
(dp4072
g81
g82
ssg70
g4066
sg63
(lp4073
S'menu'
p4074
asbag56
(g77
g58
NtRp4075
(dp4076
g61
(dp4077
g88
g89
ssg70
g4066
sg63
(lp4078
S':'
asbag56
(g77
g58
NtRp4079
(dp4080
g61
(dp4081
sg70
g4066
sg63
(lp4082
g56
(g57
g58
NtRp4083
(dp4084
g61
(dp4085
g69
I5
ssg70
g4079
sg63
(lp4086
g56
(g65
g58
NtRp4087
(dp4088
g61
(dp4089
g69
I4
ssg70
Nsg63
(lp4090
g56
(g72
g58
NtRp4091
(dp4092
g61
(dp4093
sg70
g4087
sg63
(lp4094
g56
(g77
g58
NtRp4095
(dp4096
g61
(dp4097
sg70
g4091
sg63
(lp4098
g56
(g57
g58
NtRp4099
(dp4100
g61
(dp4101
g69
I4
ssg70
g4095
sg63
(lp4102
g56
(g65
g58
NtRp4103
(dp4104
g61
(dp4105
g69
I3
ssg70
Nsg63
(lp4106
g56
(g72
g58
NtRp4107
(dp4108
g61
(dp4109
sg70
g4103
sg63
(lp4110
g56
(g77
g58
NtRp4111
(dp4112
g61
(dp4113
sg70
g4107
sg63
(lp4114
g56
(g57
g58
NtRp4115
(dp4116
g61
(dp4117
g69
I3
ssg70
g4111
sg63
(lp4118
cgluon.languages
lazyT_unpickle
p4119
(S't\x04\x00\x00\x00Home'
tRp4120
asbasbasbag56
(g72
g58
NtRp4121
(dp4122
g61
(dp4123
sg70
g4103
sg63
(lp4124
g56
(g77
g58
NtRp4125
(dp4126
g61
(dp4127
sg70
g4121
sg63
(lp4128
g56
(g57
g58
NtRp4129
(dp4130
g61
(dp4131
g69
I3
ssg70
g4125
sg63
(lp4132
g994
asbasbasbag56
(g72
g58
NtRp4133
(dp4134
g61
(dp4135
sg70
g4103
sg63
(lp4136
g56
(g77
g58
NtRp4137
(dp4138
g61
(dp4139
sg70
g4133
sg63
(lp4140
g56
(g57
g58
NtRp4141
(dp4142
g61
(dp4143
g69
I3
ssg70
g4137
sg63
(lp4144
S'/topoi/default/index'
p4145
asbasbasbag56
(g72
g58
NtRp4146
(dp4147
g61
(dp4148
sg70
g4103
sg63
(lp4149
g56
(g77
g58
NtRp4150
(dp4151
g61
(dp4152
sg70
g4146
sg63
(lp4153
g56
(g57
g58
NtRp4154
(dp4155
g61
(dp4156
g69
I3
ssg70
g4150
sg63
(lp4157
g56
(g65
g58
NtRp4158
(dp4159
g61
(dp4160
g69
I2
ssg70
Nsg63
(lp4161
sbasbasbasbasbasbasbasbag56
(g72
g58
NtRp4162
(dp4163
g61
(dp4164
sg70
g4087
sg63
(lp4165
g56
(g77
g58
NtRp4166
(dp4167
g61
(dp4168
sg70
g4162
sg63
(lp4169
g56
(g57
g58
NtRp4170
(dp4171
g61
(dp4172
g69
I4
ssg70
g4166
sg63
(lp4173
g56
(g65
g58
NtRp4174
(dp4175
g61
(dp4176
g69
I3
ssg70
Nsg63
(lp4177
g56
(g72
g58
NtRp4178
(dp4179
g61
(dp4180
sg70
g4174
sg63
(lp4181
g56
(g77
g58
NtRp4182
(dp4183
g61
(dp4184
sg70
g4178
sg63
(lp4185
g56
(g57
g58
NtRp4186
(dp4187
g61
(dp4188
g69
I3
ssg70
g4182
sg63
(lp4189
g4119
(S's\x08\x00\x00\x00This App'
tRp4190
asbasbasbag56
(g72
g58
NtRp4191
(dp4192
g61
(dp4193
sg70
g4174
sg63
(lp4194
g56
(g77
g58
NtRp4195
(dp4196
g61
(dp4197
sg70
g4191
sg63
(lp4198
g56
(g57
g58
NtRp4199
(dp4200
g61
(dp4201
g69
I3
ssg70
g4195
sg63
(lp4202
g994
asbasbasbag56
(g72
g58
NtRp4203
(dp4204
g61
(dp4205
sg70
g4174
sg63
(lp4206
g56
(g77
g58
NtRp4207
(dp4208
g61
(dp4209
sg70
g4203
sg63
(lp4210
g56
(g57
g58
NtRp4211
(dp4212
g61
(dp4213
g69
I3
ssg70
g4207
sg63
(lp4214
S'/admin/default/design/topoi'
p4215
asbasbasbag56
(g72
g58
NtRp4216
(dp4217
g61
(dp4218
sg70
g4174
sg63
(lp4219
g56
(g77
g58
NtRp4220
(dp4221
g61
(dp4222
sg70
g4216
sg63
(lp4223
g56
(g57
g58
NtRp4224
(dp4225
g61
(dp4226
g69
I3
ssg70
g4220
sg63
(lp4227
g56
(g65
g58
NtRp4228
(dp4229
g61
(dp4230
g69
I2
ssg70
Nsg63
(lp4231
g56
(g72
g58
NtRp4232
(dp4233
g61
(dp4234
sg70
g4228
sg63
(lp4235
g56
(g77
g58
NtRp4236
(dp4237
g61
(dp4238
sg70
g4232
sg63
(lp4239
g56
(g57
g58
NtRp4240
(dp4241
g61
(dp4242
g69
I2
ssg70
g4236
sg63
(lp4243
g56
(g65
g58
NtRp4244
(dp4245
g61
(dp4246
g69
I1
ssg70
Nsg63
(lp4247
g56
(g72
g58
NtRp4248
(dp4249
g61
(dp4250
sg70
g4244
sg63
(lp4251
g56
(g77
g58
NtRp4252
(dp4253
g61
(dp4254
sg70
g4248
sg63
(lp4255
g56
(g57
g58
NtRp4256
(dp4257
g61
(dp4258
g69
I1
ssg70
g4252
sg63
(lp4259
g4119
(S't\n\x00\x00\x00Controller'
tRp4260
asbasbasbag56
(g72
g58
NtRp4261
(dp4262
g61
(dp4263
sg70
g4244
sg63
(lp4264
g56
(g77
g58
NtRp4265
(dp4266
g61
(dp4267
sg70
g4261
sg63
(lp4268
g56
(g57
g58
NtRp4269
(dp4270
g61
(dp4271
g69
I1
ssg70
g4265
sg63
(lp4272
I00
asbasbasbag56
(g72
g58
NtRp4273
(dp4274
g61
(dp4275
sg70
g4244
sg63
(lp4276
g56
(g77
g58
NtRp4277
(dp4278
g61
(dp4279
sg70
g4273
sg63
(lp4280
g56
(g57
g58
NtRp4281
(dp4282
g61
(dp4283
g69
I1
ssg70
g4277
sg63
(lp4284
S'/admin/default/edit/topoi/controllers/default.py'
p4285
asbasbasbasbasbasbasbag56
(g72
g58
NtRp4286
(dp4287
g61
(dp4288
sg70
g4228
sg63
(lp4289
g56
(g77
g58
NtRp4290
(dp4291
g61
(dp4292
sg70
g4286
sg63
(lp4293
g56
(g57
g58
NtRp4294
(dp4295
g61
(dp4296
g69
I2
ssg70
g4290
sg63
(lp4297
g56
(g65
g58
NtRp4298
(dp4299
g61
(dp4300
g69
I1
ssg70
Nsg63
(lp4301
g56
(g72
g58
NtRp4302
(dp4303
g61
(dp4304
sg70
g4298
sg63
(lp4305
g56
(g77
g58
NtRp4306
(dp4307
g61
(dp4308
sg70
g4302
sg63
(lp4309
g56
(g57
g58
NtRp4310
(dp4311
g61
(dp4312
g69
I1
ssg70
g4306
sg63
(lp4313
g4119
(S't\x04\x00\x00\x00View'
tRp4314
asbasbasbag56
(g72
g58
NtRp4315
(dp4316
g61
(dp4317
sg70
g4298
sg63
(lp4318
g56
(g77
g58
NtRp4319
(dp4320
g61
(dp4321
sg70
g4315
sg63
(lp4322
g56
(g57
g58
NtRp4323
(dp4324
g61
(dp4325
g69
I1
ssg70
g4319
sg63
(lp4326
I00
asbasbasbag56
(g72
g58
NtRp4327
(dp4328
g61
(dp4329
sg70
g4298
sg63
(lp4330
g56
(g77
g58
NtRp4331
(dp4332
g61
(dp4333
sg70
g4327
sg63
(lp4334
g56
(g57
g58
NtRp4335
(dp4336
g61
(dp4337
g69
I1
ssg70
g4331
sg63
(lp4338
S'/admin/default/edit/topoi/views/default/add.html'
p4339
asbasbasbasbasbasbasbag56
(g72
g58
NtRp4340
(dp4341
g61
(dp4342
sg70
g4228
sg63
(lp4343
g56
(g77
g58
NtRp4344
(dp4345
g61
(dp4346
sg70
g4340
sg63
(lp4347
g56
(g57
g58
NtRp4348
(dp4349
g61
(dp4350
g69
I2
ssg70
g4344
sg63
(lp4351
g56
(g65
g58
NtRp4352
(dp4353
g61
(dp4354
g69
I1
ssg70
Nsg63
(lp4355
g56
(g72
g58
NtRp4356
(dp4357
g61
(dp4358
sg70
g4352
sg63
(lp4359
g56
(g77
g58
NtRp4360
(dp4361
g61
(dp4362
sg70
g4356
sg63
(lp4363
g56
(g57
g58
NtRp4364
(dp4365
g61
(dp4366
g69
I1
ssg70
g4360
sg63
(lp4367
g4119
(S't\x06\x00\x00\x00Layout'
tRp4368
asbasbasbag56
(g72
g58
NtRp4369
(dp4370
g61
(dp4371
sg70
g4352
sg63
(lp4372
g56
(g77
g58
NtRp4373
(dp4374
g61
(dp4375
sg70
g4369
sg63
(lp4376
g56
(g57
g58
NtRp4377
(dp4378
g61
(dp4379
g69
I1
ssg70
g4373
sg63
(lp4380
I00
asbasbasbag56
(g72
g58
NtRp4381
(dp4382
g61
(dp4383
sg70
g4352
sg63
(lp4384
g56
(g77
g58
NtRp4385
(dp4386
g61
(dp4387
sg70
g4381
sg63
(lp4388
g56
(g57
g58
NtRp4389
(dp4390
g61
(dp4391
g69
I1
ssg70
g4385
sg63
(lp4392
S'/admin/default/edit/topoi/views/layout.html'
p4393
asbasbasbasbasbasbasbag56
(g72
g58
NtRp4394
(dp4395
g61
(dp4396
sg70
g4228
sg63
(lp4397
g56
(g77
g58
NtRp4398
(dp4399
g61
(dp4400
sg70
g4394
sg63
(lp4401
g56
(g57
g58
NtRp4402
(dp4403
g61
(dp4404
g69
I2
ssg70
g4398
sg63
(lp4405
g56
(g65
g58
NtRp4406
(dp4407
g61
(dp4408
g69
I1
ssg70
Nsg63
(lp4409
g56
(g72
g58
NtRp4410
(dp4411
g61
(dp4412
sg70
g4406
sg63
(lp4413
g56
(g77
g58
NtRp4414
(dp4415
g61
(dp4416
sg70
g4410
sg63
(lp4417
g56
(g57
g58
NtRp4418
(dp4419
g61
(dp4420
g69
I1
ssg70
g4414
sg63
(lp4421
g4119
(S't\n\x00\x00\x00Stylesheet'
tRp4422
asbasbasbag56
(g72
g58
NtRp4423
(dp4424
g61
(dp4425
sg70
g4406
sg63
(lp4426
g56
(g77
g58
NtRp4427
(dp4428
g61
(dp4429
sg70
g4423
sg63
(lp4430
g56
(g57
g58
NtRp4431
(dp4432
g61
(dp4433
g69
I1
ssg70
g4427
sg63
(lp4434
I00
asbasbasbag56
(g72
g58
NtRp4435
(dp4436
g61
(dp4437
sg70
g4406
sg63
(lp4438
g56
(g77
g58
NtRp4439
(dp4440
g61
(dp4441
sg70
g4435
sg63
(lp4442
g56
(g57
g58
NtRp4443
(dp4444
g61
(dp4445
g69
I1
ssg70
g4439
sg63
(lp4446
S'/admin/default/edit/topoi/static/base.css'
p4447
asbasbasbasbasbasbasbag56
(g72
g58
NtRp4448
(dp4449
g61
(dp4450
sg70
g4228
sg63
(lp4451
g56
(g77
g58
NtRp4452
(dp4453
g61
(dp4454
sg70
g4448
sg63
(lp4455
g56
(g57
g58
NtRp4456
(dp4457
g61
(dp4458
g69
I2
ssg70
g4452
sg63
(lp4459
g56
(g65
g58
NtRp4460
(dp4461
g61
(dp4462
g69
I1
ssg70
Nsg63
(lp4463
g56
(g72
g58
NtRp4464
(dp4465
g61
(dp4466
sg70
g4460
sg63
(lp4467
g56
(g77
g58
NtRp4468
(dp4469
g61
(dp4470
sg70
g4464
sg63
(lp4471
g56
(g57
g58
NtRp4472
(dp4473
g61
(dp4474
g69
I1
ssg70
g4468
sg63
(lp4475
g4119
(S's\x08\x00\x00\x00DB Model'
tRp4476
asbasbasbag56
(g72
g58
NtRp4477
(dp4478
g61
(dp4479
sg70
g4460
sg63
(lp4480
g56
(g77
g58
NtRp4481
(dp4482
g61
(dp4483
sg70
g4477
sg63
(lp4484
g56
(g57
g58
NtRp4485
(dp4486
g61
(dp4487
g69
I1
ssg70
g4481
sg63
(lp4488
I00
asbasbasbag56
(g72
g58
NtRp4489
(dp4490
g61
(dp4491
sg70
g4460
sg63
(lp4492
g56
(g77
g58
NtRp4493
(dp4494
g61
(dp4495
sg70
g4489
sg63
(lp4496
g56
(g57
g58
NtRp4497
(dp4498
g61
(dp4499
g69
I1
ssg70
g4493
sg63
(lp4500
S'/admin/default/edit/topoi/models/db.py'
p4501
asbasbasbasbasbasbasbag56
(g72
g58
NtRp4502
(dp4503
g61
(dp4504
sg70
g4228
sg63
(lp4505
g56
(g77
g58
NtRp4506
(dp4507
g61
(dp4508
sg70
g4502
sg63
(lp4509
g56
(g57
g58
NtRp4510
(dp4511
g61
(dp4512
g69
I2
ssg70
g4506
sg63
(lp4513
g56
(g65
g58
NtRp4514
(dp4515
g61
(dp4516
g69
I1
ssg70
Nsg63
(lp4517
g56
(g72
g58
NtRp4518
(dp4519
g61
(dp4520
sg70
g4514
sg63
(lp4521
g56
(g77
g58
NtRp4522
(dp4523
g61
(dp4524
sg70
g4518
sg63
(lp4525
g56
(g57
g58
NtRp4526
(dp4527
g61
(dp4528
g69
I1
ssg70
g4522
sg63
(lp4529
g4119
(S's\n\x00\x00\x00Menu Model'
tRp4530
asbasbasbag56
(g72
g58
NtRp4531
(dp4532
g61
(dp4533
sg70
g4514
sg63
(lp4534
g56
(g77
g58
NtRp4535
(dp4536
g61
(dp4537
sg70
g4531
sg63
(lp4538
g56
(g57
g58
NtRp4539
(dp4540
g61
(dp4541
g69
I1
ssg70
g4535
sg63
(lp4542
I00
asbasbasbag56
(g72
g58
NtRp4543
(dp4544
g61
(dp4545
sg70
g4514
sg63
(lp4546
g56
(g77
g58
NtRp4547
(dp4548
g61
(dp4549
sg70
g4543
sg63
(lp4550
g56
(g57
g58
NtRp4551
(dp4552
g61
(dp4553
g69
I1
ssg70
g4547
sg63
(lp4554
S'/admin/default/edit/topoi/models/menu.py'
p4555
asbasbasbasbasbasbasbag56
(g72
g58
NtRp4556
(dp4557
g61
(dp4558
sg70
g4228
sg63
(lp4559
g56
(g77
g58
NtRp4560
(dp4561
g61
(dp4562
sg70
g4556
sg63
(lp4563
g56
(g57
g58
NtRp4564
(dp4565
g61
(dp4566
g69
I2
ssg70
g4560
sg63
(lp4567
g56
(g65
g58
NtRp4568
(dp4569
g61
(dp4570
g69
I1
ssg70
Nsg63
(lp4571
g56
(g72
g58
NtRp4572
(dp4573
g61
(dp4574
sg70
g4568
sg63
(lp4575
g56
(g77
g58
NtRp4576
(dp4577
g61
(dp4578
sg70
g4572
sg63
(lp4579
g56
(g57
g58
NtRp4580
(dp4581
g61
(dp4582
g69
I1
ssg70
g4576
sg63
(lp4583
g4119
(S't\x08\x00\x00\x00Database'
tRp4584
asbasbasbag56
(g72
g58
NtRp4585
(dp4586
g61
(dp4587
sg70
g4568
sg63
(lp4588
g56
(g77
g58
NtRp4589
(dp4590
g61
(dp4591
sg70
g4585
sg63
(lp4592
g56
(g57
g58
NtRp4593
(dp4594
g61
(dp4595
g69
I1
ssg70
g4589
sg63
(lp4596
I00
asbasbasbag56
(g72
g58
NtRp4597
(dp4598
g61
(dp4599
sg70
g4568
sg63
(lp4600
g56
(g77
g58
NtRp4601
(dp4602
g61
(dp4603
sg70
g4597
sg63
(lp4604
g56
(g57
g58
NtRp4605
(dp4606
g61
(dp4607
g69
I1
ssg70
g4601
sg63
(lp4608
S'/topoi/appadmin/index'
p4609
asbasbasbasbasbasbasbag56
(g72
g58
NtRp4610
(dp4611
g61
(dp4612
sg70
g4228
sg63
(lp4613
g56
(g77
g58
NtRp4614
(dp4615
g61
(dp4616
sg70
g4610
sg63
(lp4617
g56
(g57
g58
NtRp4618
(dp4619
g61
(dp4620
g69
I2
ssg70
g4614
sg63
(lp4621
g56
(g65
g58
NtRp4622
(dp4623
g61
(dp4624
g69
I1
ssg70
Nsg63
(lp4625
g56
(g72
g58
NtRp4626
(dp4627
g61
(dp4628
sg70
g4622
sg63
(lp4629
g56
(g77
g58
NtRp4630
(dp4631
g61
(dp4632
sg70
g4626
sg63
(lp4633
g56
(g57
g58
NtRp4634
(dp4635
g61
(dp4636
g69
I1
ssg70
g4630
sg63
(lp4637
g4119
(S't\x06\x00\x00\x00Errors'
tRp4638
asbasbasbag56
(g72
g58
NtRp4639
(dp4640
g61
(dp4641
sg70
g4622
sg63
(lp4642
g56
(g77
g58
NtRp4643
(dp4644
g61
(dp4645
sg70
g4639
sg63
(lp4646
g56
(g57
g58
NtRp4647
(dp4648
g61
(dp4649
g69
I1
ssg70
g4643
sg63
(lp4650
I00
asbasbasbag56
(g72
g58
NtRp4651
(dp4652
g61
(dp4653
sg70
g4622
sg63
(lp4654
g56
(g77
g58
NtRp4655
(dp4656
g61
(dp4657
sg70
g4651
sg63
(lp4658
g56
(g57
g58
NtRp4659
(dp4660
g61
(dp4661
g69
I1
ssg70
g4655
sg63
(lp4662
S'/admin/default/errors/topoi'
p4663
asbasbasbasbasbasbasbag56
(g72
g58
NtRp4664
(dp4665
g61
(dp4666
sg70
g4228
sg63
(lp4667
g56
(g77
g58
NtRp4668
(dp4669
g61
(dp4670
sg70
g4664
sg63
(lp4671
g56
(g57
g58
NtRp4672
(dp4673
g61
(dp4674
g69
I2
ssg70
g4668
sg63
(lp4675
g56
(g65
g58
NtRp4676
(dp4677
g61
(dp4678
g69
I1
ssg70
Nsg63
(lp4679
g56
(g72
g58
NtRp4680
(dp4681
g61
(dp4682
sg70
g4676
sg63
(lp4683
g56
(g77
g58
NtRp4684
(dp4685
g61
(dp4686
sg70
g4680
sg63
(lp4687
g56
(g57
g58
NtRp4688
(dp4689
g61
(dp4690
g69
I1
ssg70
g4684
sg63
(lp4691
g4119
(S't\x05\x00\x00\x00About'
tRp4692
asbasbasbag56
(g72
g58
NtRp4693
(dp4694
g61
(dp4695
sg70
g4676
sg63
(lp4696
g56
(g77
g58
NtRp4697
(dp4698
g61
(dp4699
sg70
g4693
sg63
(lp4700
g56
(g57
g58
NtRp4701
(dp4702
g61
(dp4703
g69
I1
ssg70
g4697
sg63
(lp4704
I00
asbasbasbag56
(g72
g58
NtRp4705
(dp4706
g61
(dp4707
sg70
g4676
sg63
(lp4708
g56
(g77
g58
NtRp4709
(dp4710
g61
(dp4711
sg70
g4705
sg63
(lp4712
g56
(g57
g58
NtRp4713
(dp4714
g61
(dp4715
g69
I1
ssg70
g4709
sg63
(lp4716
S'/admin/default/about/topoi'
p4717
asbasbasbasbasbasbasbasbasbasbasbasbasbasbasbag56
(g72
g58
NtRp4718
(dp4719
g61
(dp4720
sg70
g4087
sg63
(lp4721
g56
(g77
g58
NtRp4722
(dp4723
g61
(dp4724
sg70
g4718
sg63
(lp4725
g56
(g57
g58
NtRp4726
(dp4727
g61
(dp4728
g69
I4
ssg70
g4722
sg63
(lp4729
g56
(g65
g58
NtRp4730
(dp4731
g61
(dp4732
g69
I3
ssg70
Nsg63
(lp4733
g56
(g72
g58
NtRp4734
(dp4735
g61
(dp4736
sg70
g4730
sg63
(lp4737
g56
(g77
g58
NtRp4738
(dp4739
g61
(dp4740
sg70
g4734
sg63
(lp4741
g56
(g57
g58
NtRp4742
(dp4743
g61
(dp4744
g69
I3
ssg70
g4738
sg63
(lp4745
g4119
(S't\t\x00\x00\x00Resources'
tRp4746
asbasbasbag56
(g72
g58
NtRp4747
(dp4748
g61
(dp4749
sg70
g4730
sg63
(lp4750
g56
(g77
g58
NtRp4751
(dp4752
g61
(dp4753
sg70
g4747
sg63
(lp4754
g56
(g57
g58
NtRp4755
(dp4756
g61
(dp4757
g69
I3
ssg70
g4751
sg63
(lp4758
g994
asbasbasbag56
(g72
g58
NtRp4759
(dp4760
g61
(dp4761
sg70
g4730
sg63
(lp4762
g56
(g77
g58
NtRp4763
(dp4764
g61
(dp4765
sg70
g4759
sg63
(lp4766
g56
(g57
g58
NtRp4767
(dp4768
g61
(dp4769
g69
I3
ssg70
g4763
sg63
(lp4770
S'None'
p4771
asbasbasbag56
(g72
g58
NtRp4772
(dp4773
g61
(dp4774
sg70
g4730
sg63
(lp4775
g56
(g77
g58
NtRp4776
(dp4777
g61
(dp4778
sg70
g4772
sg63
(lp4779
g56
(g57
g58
NtRp4780
(dp4781
g61
(dp4782
g69
I3
ssg70
g4776
sg63
(lp4783
g56
(g65
g58
NtRp4784
(dp4785
g61
(dp4786
g69
I2
ssg70
Nsg63
(lp4787
g56
(g72
g58
NtRp4788
(dp4789
g61
(dp4790
sg70
g4784
sg63
(lp4791
g56
(g77
g58
NtRp4792
(dp4793
g61
(dp4794
sg70
g4788
sg63
(lp4795
g56
(g57
g58
NtRp4796
(dp4797
g61
(dp4798
g69
I2
ssg70
g4792
sg63
(lp4799
g56
(g65
g58
NtRp4800
(dp4801
g61
(dp4802
g69
I1
ssg70
Nsg63
(lp4803
g56
(g72
g58
NtRp4804
(dp4805
g61
(dp4806
sg70
g4800
sg63
(lp4807
g56
(g77
g58
NtRp4808
(dp4809
g61
(dp4810
sg70
g4804
sg63
(lp4811
g56
(g57
g58
NtRp4812
(dp4813
g61
(dp4814
g69
I1
ssg70
g4808
sg63
(lp4815
g4119
(S't\r\x00\x00\x00Documentation'
tRp4816
asbasbasbag56
(g72
g58
NtRp4817
(dp4818
g61
(dp4819
sg70
g4800
sg63
(lp4820
g56
(g77
g58
NtRp4821
(dp4822
g61
(dp4823
sg70
g4817
sg63
(lp4824
g56
(g57
g58
NtRp4825
(dp4826
g61
(dp4827
g69
I1
ssg70
g4821
sg63
(lp4828
I00
asbasbasbag56
(g72
g58
NtRp4829
(dp4830
g61
(dp4831
sg70
g4800
sg63
(lp4832
g56
(g77
g58
NtRp4833
(dp4834
g61
(dp4835
sg70
g4829
sg63
(lp4836
g56
(g57
g58
NtRp4837
(dp4838
g61
(dp4839
g69
I1
ssg70
g4833
sg63
(lp4840
S'http://www.web2py.com/book'
p4841
asbasbasbag56
(g72
g58
NtRp4842
(dp4843
g61
(dp4844
sg70
g4800
sg63
(lp4845
g56
(g77
g58
NtRp4846
(dp4847
g61
(dp4848
sg70
g4842
sg63
(lp4849
g56
(g57
g58
NtRp4850
(dp4851
g61
(dp4852
g69
I1
ssg70
g4846
sg63
(lp4853
(lp4854
(g4119
(S't\x07\x00\x00\x00Preface'
tRp4855
I00
S'http://www.web2py.com/book/default/chapter/00'
tp4856
a(g4119
(S't\x0c\x00\x00\x00Introduction'
tRp4857
I00
S'http://www.web2py.com/book/default/chapter/01'
tp4858
a(g4119
(S't\x06\x00\x00\x00Python'
tRp4859
I00
S'http://www.web2py.com/book/default/chapter/02'
tp4860
a(g4119
(S't\x08\x00\x00\x00Overview'
tRp4861
I00
S'http://www.web2py.com/book/default/chapter/03'
tp4862
a(g4119
(S's\x08\x00\x00\x00The Core'
tRp4863
I00
S'http://www.web2py.com/book/default/chapter/04'
tp4864
a(g4119
(S's\t\x00\x00\x00The Views'
tRp4865
I00
S'http://www.web2py.com/book/default/chapter/05'
tp4866
a(g4119
(S't\x08\x00\x00\x00Database'
tRp4867
I00
S'http://www.web2py.com/book/default/chapter/06'
tp4868
a(g4119
(S's\x14\x00\x00\x00Forms and Validators'
tRp4869
I00
S'http://www.web2py.com/book/default/chapter/07'
tp4870
a(g4119
(S's\x0e\x00\x00\x00Access Control'
tRp4871
I00
S'http://www.web2py.com/book/default/chapter/08'
tp4872
a(g4119
(S't\x08\x00\x00\x00Services'
tRp4873
I00
S'http://www.web2py.com/book/default/chapter/09'
tp4874
a(g4119
(S's\x0c\x00\x00\x00Ajax Recipes'
tRp4875
I00
S'http://www.web2py.com/book/default/chapter/10'
tp4876
a(g4119
(S's\x12\x00\x00\x00Deployment Recipes'
tRp4877
I00
S'http://www.web2py.com/book/default/chapter/11'
tp4878
a(g4119
(S's\r\x00\x00\x00Other Recipes'
tRp4879
I00
S'http://www.web2py.com/book/default/chapter/12'
tp4880
a(g4119
(S's\r\x00\x00\x00Buy this book'
tRp4881
I00
S'http://stores.lulu.com/web2py'
tp4882
aasbasbasbasbasbasbasbag56
(g72
g58
NtRp4883
(dp4884
g61
(dp4885
sg70
g4784
sg63
(lp4886
g56
(g77
g58
NtRp4887
(dp4888
g61
(dp4889
sg70
g4883
sg63
(lp4890
g56
(g57
g58
NtRp4891
(dp4892
g61
(dp4893
g69
I2
ssg70
g4887
sg63
(lp4894
g56
(g65
g58
NtRp4895
(dp4896
g61
(dp4897
g69
I1
ssg70
Nsg63
(lp4898
g56
(g72
g58
NtRp4899
(dp4900
g61
(dp4901
sg70
g4895
sg63
(lp4902
g56
(g77
g58
NtRp4903
(dp4904
g61
(dp4905
sg70
g4899
sg63
(lp4906
g56
(g57
g58
NtRp4907
(dp4908
g61
(dp4909
g69
I1
ssg70
g4903
sg63
(lp4910
g4119
(S't\t\x00\x00\x00Community'
tRp4911
asbasbasbag56
(g72
g58
NtRp4912
(dp4913
g61
(dp4914
sg70
g4895
sg63
(lp4915
g56
(g77
g58
NtRp4916
(dp4917
g61
(dp4918
sg70
g4912
sg63
(lp4919
g56
(g57
g58
NtRp4920
(dp4921
g61
(dp4922
g69
I1
ssg70
g4916
sg63
(lp4923
I00
asbasbasbag56
(g72
g58
NtRp4924
(dp4925
g61
(dp4926
sg70
g4895
sg63
(lp4927
g56
(g77
g58
NtRp4928
(dp4929
g61
(dp4930
sg70
g4924
sg63
(lp4931
g56
(g57
g58
NtRp4932
(dp4933
g61
(dp4934
g69
I1
ssg70
g4928
sg63
(lp4935
Nasbasbasbag56
(g72
g58
NtRp4936
(dp4937
g61
(dp4938
sg70
g4895
sg63
(lp4939
g56
(g77
g58
NtRp4940
(dp4941
g61
(dp4942
sg70
g4936
sg63
(lp4943
g56
(g57
g58
NtRp4944
(dp4945
g61
(dp4946
g69
I1
ssg70
g4940
sg63
(lp4947
(lp4948
(g4119
(S't\x06\x00\x00\x00Groups'
tRp4949
I00
S'http://www.web2py.com/examples/default/usergroups'
tp4950
a(g4119
(S't\x07\x00\x00\x00Twitter'
tRp4951
I00
S'http://twitter.com/web2py'
tp4952
a(g4119
(S's\t\x00\x00\x00Live chat'
tRp4953
I00
S'http://mibbit.com/?channel=%23web2py&server=irc.mibbit.net'
tp4954
a(g4119
(S's\n\x00\x00\x00User Voice'
tRp4955
I00
S'http://web2py.uservoice.com/'
tp4956
aasbasbasbasbasbasbasbag56
(g72
g58
NtRp4957
(dp4958
g61
(dp4959
sg70
g4784
sg63
(lp4960
g56
(g77
g58
NtRp4961
(dp4962
g61
(dp4963
sg70
g4957
sg63
(lp4964
g56
(g57
g58
NtRp4965
(dp4966
g61
(dp4967
g69
I2
ssg70
g4961
sg63
(lp4968
g56
(g65
g58
NtRp4969
(dp4970
g61
(dp4971
g69
I1
ssg70
Nsg63
(lp4972
g56
(g72
g58
NtRp4973
(dp4974
g61
(dp4975
sg70
g4969
sg63
(lp4976
g56
(g77
g58
NtRp4977
(dp4978
g61
(dp4979
sg70
g4973
sg63
(lp4980
g56
(g57
g58
NtRp4981
(dp4982
g61
(dp4983
g69
I1
ssg70
g4977
sg63
(lp4984
g4119
(S't\x06\x00\x00\x00Web2py'
tRp4985
asbasbasbag56
(g72
g58
NtRp4986
(dp4987
g61
(dp4988
sg70
g4969
sg63
(lp4989
g56
(g77
g58
NtRp4990
(dp4991
g61
(dp4992
sg70
g4986
sg63
(lp4993
g56
(g57
g58
NtRp4994
(dp4995
g61
(dp4996
g69
I1
ssg70
g4990
sg63
(lp4997
I00
asbasbasbag56
(g72
g58
NtRp4998
(dp4999
g61
(dp5000
sg70
g4969
sg63
(lp5001
g56
(g77
g58
NtRp5002
(dp5003
g61
(dp5004
sg70
g4998
sg63
(lp5005
g56
(g57
g58
NtRp5006
(dp5007
g61
(dp5008
g69
I1
ssg70
g5002
sg63
(lp5009
S'http://www.web2py.com'
p5010
asbasbasbag56
(g72
g58
NtRp5011
(dp5012
g61
(dp5013
sg70
g4969
sg63
(lp5014
g56
(g77
g58
NtRp5015
(dp5016
g61
(dp5017
sg70
g5011
sg63
(lp5018
g56
(g57
g58
NtRp5019
(dp5020
g61
(dp5021
g69
I1
ssg70
g5015
sg63
(lp5022
(lp5023
(g4119
(S't\x08\x00\x00\x00Download'
tRp5024
I00
S'http://www.web2py.com/examples/default/download'
tp5025
a(g4119
(S't\x07\x00\x00\x00Support'
tRp5026
I00
S'http://www.web2py.com/examples/default/support'
tp5027
a(g4119
(S's\x0e\x00\x00\x00Quick Examples'
tRp5028
I00
S'http://web2py.com/examples/default/examples'
tp5029
a(g4119
(S't\x03\x00\x00\x00FAQ'
tRp5030
I00
S'http://web2py.com/AlterEgo'
tp5031
a(g4119
(S's\x11\x00\x00\x00Free Applications'
tRp5032
I00
S'http://web2py.com/appliances'
tp5033
a(g4119
(S't\x07\x00\x00\x00Plugins'
tRp5034
I00
S'http://web2py.com/plugins'
tp5035
a(g4119
(S't\x07\x00\x00\x00Recipes'
tRp5036
I00
S'http://web2pyslices.com/'
tp5037
a(g4119
(S't\x04\x00\x00\x00Demo'
tRp5038
I00
S'http://web2py.com/demo_admin'
tp5039
a(g4119
(S't\x08\x00\x00\x00Semantic'
tRp5040
I00
S'http://web2py.com/semantic'
tp5041
a(g4119
(S't\x07\x00\x00\x00Layouts'
tRp5042
I00
S'http://web2py.com/layouts'
tp5043
a(g4119
(S't\x06\x00\x00\x00Videos'
tRp5044
I00
S'http://www.web2py.com/examples/default/videos/'
tp5045
aasbasbasbasbasbasbasbasbasbasbasbasbasbasbasbasbasbasbasbag56
(g72
g58
NtRp5046
(dp5047
g61
(dp5048
sg70
g3614
sg63
(lp5049
g56
(g77
g58
NtRp5050
(dp5051
g61
(dp5052
g81
g82
ssg70
g5046
sg63
(lp5053
S'meta'
p5054
asbag56
(g77
g58
NtRp5055
(dp5056
g61
(dp5057
g88
g89
ssg70
g5046
sg63
(lp5058
S':'
asbag56
(g77
g58
NtRp5059
(dp5060
g61
(dp5061
sg70
g5046
sg63
(lp5062
g56
(g57
g58
NtRp5063
(dp5064
g61
(dp5065
g69
I5
ssg70
g5059
sg63
(lp5066
g56
(g65
g58
NtRp5067
(dp5068
g61
(dp5069
g69
I4
ssg70
Nsg63
(lp5070
g56
(g72
g58
NtRp5071
(dp5072
g61
(dp5073
sg70
g5067
sg63
(lp5074
g56
(g77
g58
NtRp5075
(dp5076
g61
(dp5077
g81
g82
ssg70
g5071
sg63
(lp5078
S'author'
p5079
asbag56
(g77
g58
NtRp5080
(dp5081
g61
(dp5082
g88
g89
ssg70
g5071
sg63
(lp5083
S':'
asbag56
(g77
g58
NtRp5084
(dp5085
g61
(dp5086
sg70
g5071
sg63
(lp5087
g56
(g57
g58
NtRp5088
(dp5089
g61
(dp5090
g69
I4
ssg70
g5084
sg63
(lp5091
S'you'
p5092
asbasbasbag56
(g72
g58
NtRp5093
(dp5094
g61
(dp5095
sg70
g5067
sg63
(lp5096
g56
(g77
g58
NtRp5097
(dp5098
g61
(dp5099
g81
g82
ssg70
g5093
sg63
(lp5100
S'copyright'
p5101
asbag56
(g77
g58
NtRp5102
(dp5103
g61
(dp5104
g88
g89
ssg70
g5093
sg63
(lp5105
S':'
asbag56
(g77
g58
NtRp5106
(dp5107
g61
(dp5108
sg70
g5093
sg63
(lp5109
g56
(g57
g58
NtRp5110
(dp5111
g61
(dp5112
g69
I4
ssg70
g5106
sg63
(lp5113
S'Copyright 2007-2010'
p5114
asbasbasbag56
(g72
g58
NtRp5115
(dp5116
g61
(dp5117
sg70
g5067
sg63
(lp5118
g56
(g77
g58
NtRp5119
(dp5120
g61
(dp5121
g81
g82
ssg70
g5115
sg63
(lp5122
S'description'
p5123
asbag56
(g77
g58
NtRp5124
(dp5125
g61
(dp5126
g88
g89
ssg70
g5115
sg63
(lp5127
S':'
asbag56
(g77
g58
NtRp5128
(dp5129
g61
(dp5130
sg70
g5115
sg63
(lp5131
g56
(g57
g58
NtRp5132
(dp5133
g61
(dp5134
g69
I4
ssg70
g5128
sg63
(lp5135
S'Free and open source full-stack enterprise framework for agile development of fast, scalable, secure and portable database-driven web-based applications. Written and programmable in Python'
p5136
asbasbasbag56
(g72
g58
NtRp5137
(dp5138
g61
(dp5139
sg70
g5067
sg63
(lp5140
g56
(g77
g58
NtRp5141
(dp5142
g61
(dp5143
g81
g82
ssg70
g5137
sg63
(lp5144
S'generator'
p5145
asbag56
(g77
g58
NtRp5146
(dp5147
g61
(dp5148
g88
g89
ssg70
g5137
sg63
(lp5149
S':'
asbag56
(g77
g58
NtRp5150
(dp5151
g61
(dp5152
sg70
g5137
sg63
(lp5153
g56
(g57
g58
NtRp5154
(dp5155
g61
(dp5156
g69
I4
ssg70
g5150
sg63
(lp5157
S'Web2py Enterprise Framework'
p5158
asbasbasbag56
(g72
g58
NtRp5159
(dp5160
g61
(dp5161
sg70
g5067
sg63
(lp5162
g56
(g77
g58
NtRp5163
(dp5164
g61
(dp5165
g81
g82
ssg70
g5159
sg63
(lp5166
S'keywords'
p5167
asbag56
(g77
g58
NtRp5168
(dp5169
g61
(dp5170
g88
g89
ssg70
g5159
sg63
(lp5171
S':'
asbag56
(g77
g58
NtRp5172
(dp5173
g61
(dp5174
sg70
g5159
sg63
(lp5175
g56
(g57
g58
NtRp5176
(dp5177
g61
(dp5178
g69
I4
ssg70
g5172
sg63
(lp5179
S'web2py, python, framework'
p5180
asbasbasbasbasbasbasbag56
(g72
g58
NtRp5181
(dp5182
g61
(dp5183
sg70
g3614
sg63
(lp5184
g56
(g77
g58
NtRp5185
(dp5186
g61
(dp5187
g81
g82
ssg70
g5181
sg63
(lp5188
S'postprocessing'
p5189
asbag56
(g77
g58
NtRp5190
(dp5191
g61
(dp5192
g88
g89
ssg70
g5181
sg63
(lp5193
S':'
asbag56
(g77
g58
NtRp5194
(dp5195
g61
(dp5196
sg70
g5181
sg63
(lp5197
g56
(g57
g58
NtRp5198
(dp5199
g61
(dp5200
g69
I5
ssg70
g5194
sg63
(lp5201
g56
(g65
g58
NtRp5202
(dp5203
g61
(dp5204
g69
I4
ssg70
Nsg63
(lp5205
sbasbasbasbag56
(g72
g58
NtRp5206
(dp5207
g61
(dp5208
sg70
g3614
sg63
(lp5209
g56
(g77
g58
NtRp5210
(dp5211
g61
(dp5212
g81
g82
ssg70
g5206
sg63
(lp5213
S'session_file'
p5214
asbag56
(g77
g58
NtRp5215
(dp5216
g61
(dp5217
g88
g89
ssg70
g5206
sg63
(lp5218
S':'
asbag56
(g77
g58
NtRp5219
(dp5220
g61
(dp5221
sg70
g5206
sg63
(lp5222
g56
(g57
g58
NtRp5223
(dp5224
g61
(dp5225
g69
I5
ssg70
g5219
sg63
(lp5226
S"<open file '/home/ian/web2py/applications/topoi/sessions/127.0.0.1-26891f27-7a1a-4fa5-81a0-16ff25069026', mode 'rb+' at 0x23f5540>"
p5227
asbasbasbag56
(g72
g58
NtRp5228
(dp5229
g61
(dp5230
sg70
g3614
sg63
(lp5231
g56
(g77
g58
NtRp5232
(dp5233
g61
(dp5234
g81
g82
ssg70
g5228
sg63
(lp5235
S'session_filename'
p5236
asbag56
(g77
g58
NtRp5237
(dp5238
g61
(dp5239
g88
g89
ssg70
g5228
sg63
(lp5240
S':'
asbag56
(g77
g58
NtRp5241
(dp5242
g61
(dp5243
sg70
g5228
sg63
(lp5244
g56
(g57
g58
NtRp5245
(dp5246
g61
(dp5247
g69
I5
ssg70
g5241
sg63
(lp5248
S'/home/ian/web2py/applications/topoi/sessions/127.0.0.1-26891f27-7a1a-4fa5-81a0-16ff25069026'
p5249
asbasbasbag56
(g72
g58
NtRp5250
(dp5251
g61
(dp5252
sg70
g3614
sg63
(lp5253
g56
(g77
g58
NtRp5254
(dp5255
g61
(dp5256
g81
g82
ssg70
g5250
sg63
(lp5257
S'session_id'
p5258
asbag56
(g77
g58
NtRp5259
(dp5260
g61
(dp5261
g88
g89
ssg70
g5250
sg63
(lp5262
S':'
asbag56
(g77
g58
NtRp5263
(dp5264
g61
(dp5265
sg70
g5250
sg63
(lp5266
g56
(g57
g58
NtRp5267
(dp5268
g61
(dp5269
g69
I5
ssg70
g5263
sg63
(lp5270
S'127.0.0.1-26891f27-7a1a-4fa5-81a0-16ff25069026'
p5271
asbasbasbag56
(g72
g58
NtRp5272
(dp5273
g61
(dp5274
sg70
g3614
sg63
(lp5275
g56
(g77
g58
NtRp5276
(dp5277
g61
(dp5278
g81
g82
ssg70
g5272
sg63
(lp5279
S'session_id_name'
p5280
asbag56
(g77
g58
NtRp5281
(dp5282
g61
(dp5283
g88
g89
ssg70
g5272
sg63
(lp5284
S':'
asbag56
(g77
g58
NtRp5285
(dp5286
g61
(dp5287
sg70
g5272
sg63
(lp5288
g56
(g57
g58
NtRp5289
(dp5290
g61
(dp5291
g69
I5
ssg70
g5285
sg63
(lp5292
g3671
asbasbasbag56
(g72
g58
NtRp5293
(dp5294
g61
(dp5295
sg70
g3614
sg63
(lp5296
g56
(g77
g58
NtRp5297
(dp5298
g61
(dp5299
g81
g82
ssg70
g5293
sg63
(lp5300
S'session_locked'
p5301
asbag56
(g77
g58
NtRp5302
(dp5303
g61
(dp5304
g88
g89
ssg70
g5293
sg63
(lp5305
S':'
asbag56
(g77
g58
NtRp5306
(dp5307
g61
(dp5308
sg70
g5293
sg63
(lp5309
g56
(g57
g58
NtRp5310
(dp5311
g61
(dp5312
g69
I5
ssg70
g5306
sg63
(lp5313
g99
asbasbasbag56
(g72
g58
NtRp5314
(dp5315
g61
(dp5316
sg70
g3614
sg63
(lp5317
g56
(g77
g58
NtRp5318
(dp5319
g61
(dp5320
g81
g82
ssg70
g5314
sg63
(lp5321
S'session_new'
p5322
asbag56
(g77
g58
NtRp5323
(dp5324
g61
(dp5325
g88
g89
ssg70
g5314
sg63
(lp5326
S':'
asbag56
(g77
g58
NtRp5327
(dp5328
g61
(dp5329
sg70
g5314
sg63
(lp5330
g56
(g57
g58
NtRp5331
(dp5332
g61
(dp5333
g69
I5
ssg70
g5327
sg63
(lp5334
g994
asbasbasbag56
(g72
g58
NtRp5335
(dp5336
g61
(dp5337
sg70
g3614
sg63
(lp5338
g56
(g77
g58
NtRp5339
(dp5340
g61
(dp5341
g81
g82
ssg70
g5335
sg63
(lp5342
S'status'
p5343
asbag56
(g77
g58
NtRp5344
(dp5345
g61
(dp5346
g88
g89
ssg70
g5335
sg63
(lp5347
S':'
asbag56
(g77
g58
NtRp5348
(dp5349
g61
(dp5350
sg70
g5335
sg63
(lp5351
g56
(g57
g58
NtRp5352
(dp5353
g61
(dp5354
g69
I5
ssg70
g5348
sg63
(lp5355
S'200'
p5356
asbasbasbag56
(g72
g58
NtRp5357
(dp5358
g61
(dp5359
sg70
g3614
sg63
(lp5360
g56
(g77
g58
NtRp5361
(dp5362
g61
(dp5363
g81
g82
ssg70
g5357
sg63
(lp5364
S'subtitle'
p5365
asbag56
(g77
g58
NtRp5366
(dp5367
g61
(dp5368
g88
g89
ssg70
g5357
sg63
(lp5369
S':'
asbag56
(g77
g58
NtRp5370
(dp5371
g61
(dp5372
sg70
g5357
sg63
(lp5373
g56
(g57
g58
NtRp5374
(dp5375
g61
(dp5376
g69
I5
ssg70
g5370
sg63
(lp5377
g4119
(S's\r\x00\x00\x00customize me!'
tRp5378
asbasbasbag56
(g72
g58
NtRp5379
(dp5380
g61
(dp5381
sg70
g3614
sg63
(lp5382
g56
(g77
g58
NtRp5383
(dp5384
g61
(dp5385
g81
g82
ssg70
g5379
sg63
(lp5386
S'title'
p5387
asbag56
(g77
g58
NtRp5388
(dp5389
g61
(dp5390
g88
g89
ssg70
g5379
sg63
(lp5391
S':'
asbag56
(g77
g58
NtRp5392
(dp5393
g61
(dp5394
sg70
g5379
sg63
(lp5395
g56
(g57
g58
NtRp5396
(dp5397
g61
(dp5398
g69
I5
ssg70
g5392
sg63
(lp5399
g121
asbasbasbag56
(g72
g58
NtRp5400
(dp5401
g61
(dp5402
sg70
g3614
sg63
(lp5403
g56
(g77
g58
NtRp5404
(dp5405
g61
(dp5406
g81
g82
ssg70
g5400
sg63
(lp5407
g2443
asbag56
(g77
g58
NtRp5408
(dp5409
g61
(dp5410
g88
g89
ssg70
g5400
sg63
(lp5411
S':'
asbag56
(g77
g58
NtRp5412
(dp5413
g61
(dp5414
sg70
g5400
sg63
(lp5415
g56
(g57
g58
NtRp5416
(dp5417
g61
(dp5418
g69
I5
ssg70
g5412
sg63
(lp5419
g2456
asbasbasbag56
(g72
g58
NtRp5420
(dp5421
g61
(dp5422
sg70
g3614
sg63
(lp5423
g56
(g77
g58
NtRp5424
(dp5425
g61
(dp5426
g81
g82
ssg70
g5420
sg63
(lp5427
S'view'
p5428
asbag56
(g77
g58
NtRp5429
(dp5430
g61
(dp5431
g88
g89
ssg70
g5420
sg63
(lp5432
S':'
asbag56
(g77
g58
NtRp5433
(dp5434
g61
(dp5435
sg70
g5420
sg63
(lp5436
g56
(g57
g58
NtRp5437
(dp5438
g61
(dp5439
g69
I5
ssg70
g5433
sg63
(lp5440
S'default/add.html'
p5441
asbasbasbasbasbsS'locals'
p5442
(dp5443
S'tb'
p5444
S"'authors'"
p5445
sssS'traceback'
p5446
S'Traceback (most recent call last):\n  File "/home/ian/web2py/gluon/restricted.py", line 194, in restricted\n    exec ccode in environment\n  File "/home/ian/web2py/applications/topoi/controllers/default.py", line 106, in <module>\n  File "/home/ian/web2py/gluon/globals.py", line 149, in <lambda>\n    self._caller = lambda f: f()\n  File "/home/ian/web2py/gluon/tools.py", line 2456, in f\n    return action(*a, **b)\n  File "/home/ian/web2py/applications/topoi/controllers/default.py", line 83, in add\n    the_table = "db.%" % tb\nValueError: incomplete format\n'
p5447
s.