(dp1
S'output'
p2
S''
sS'layer'
p3
S'/home/ian/web2py/applications/topoi/controllers/plugin_ajaxselect.py'
p4
sS'code'
p5
S'from gluon.sqlhtml import OptionsWidget\n\ndef set_widget():\n    """\n    creates an instance of the OptionsWidget class defined in gluon.sqlhtml and returns the result to populate the ajax LOAD field\n    """\n    field = request.args[0]\n    value = request.args[1]\n    w = OptionsWidget.widget(field, value)\n    return dict(widget = w)\n\nresponse._vars=response._caller(set_widget)\n'
p6
sS'snapshot'
p7
(dp8
S'exception'
p9
(dp10
S'__hash__'
p11
S"<method-wrapper '__hash__' of exceptions.AttributeError object>"
p12
sS'__setattr__'
p13
S"<method-wrapper '__setattr__' of exceptions.AttributeError object>"
p14
sS'__reduce_ex__'
p15
S'<built-in method __reduce_ex__ of exceptions.AttributeError object>'
p16
sS'__getslice__'
p17
S"<method-wrapper '__getslice__' of exceptions.AttributeError object>"
p18
sS'__getitem__'
p19
S"<method-wrapper '__getitem__' of exceptions.AttributeError object>"
p20
sS'__setstate__'
p21
S'<built-in method __setstate__ of exceptions.AttributeError object>'
p22
sS'args'
p23
S'("\'str\' object has no attribute \'_tablename\'",)'
p24
sS'__reduce__'
p25
S'<built-in method __reduce__ of exceptions.AttributeError object>'
p26
sS'__str__'
p27
S"<method-wrapper '__str__' of exceptions.AttributeError object>"
p28
sS'__format__'
p29
S'<built-in method __format__ of exceptions.AttributeError object>'
p30
sS'__getattribute__'
p31
S"<method-wrapper '__getattribute__' of exceptions.AttributeError object>"
p32
sS'__class__'
p33
S"<type 'exceptions.AttributeError'>"
p34
sS'__unicode__'
p35
S'<built-in method __unicode__ of exceptions.AttributeError object>'
p36
sS'__delattr__'
p37
S"<method-wrapper '__delattr__' of exceptions.AttributeError object>"
p38
sS'__subclasshook__'
p39
S'<built-in method __subclasshook__ of type object>'
p40
sS'__repr__'
p41
S"<method-wrapper '__repr__' of exceptions.AttributeError object>"
p42
sS'__dict__'
p43
S'{}'
p44
sS'__sizeof__'
p45
S'<built-in method __sizeof__ of exceptions.AttributeError object>'
p46
sS'__doc__'
p47
S"'Attribute not found.'"
p48
sS'__init__'
p49
S"<method-wrapper '__init__' of exceptions.AttributeError object>"
p50
sS'__new__'
p51
S'<built-in method __new__ of type object>'
p52
ssS'evalue'
p53
S"'str' object has no attribute '_tablename'"
p54
sS'request'
p55
ccopy_reg
_reconstructor
p56
(cgluon.html
BEAUTIFY
p57
c__builtin__
object
p58
NtRp59
(dp60
S'attributes'
p61
(dp62
sS'components'
p63
(lp64
g56
(cgluon.html
TABLE
p65
g58
NtRp66
(dp67
g61
(dp68
S'level'
p69
I5
ssS'parent'
p70
Nsg63
(lp71
g56
(cgluon.html
TR
p72
g58
NtRp73
(dp74
g61
(dp75
sg70
g66
sg63
(lp76
g56
(cgluon.html
TD
p77
g58
NtRp78
(dp79
g61
(dp80
S'_style'
p81
S'font-weight:bold;'
p82
ssg70
g73
sg63
(lp83
S'ajax'
p84
asbag56
(g77
g58
NtRp85
(dp86
g61
(dp87
S'_valign'
p88
S'top'
p89
ssg70
g73
sg63
(lp90
S':'
asbag56
(g77
g58
NtRp91
(dp92
g61
(dp93
sg70
g73
sg63
(lp94
g56
(g57
g58
NtRp95
(dp96
g61
(dp97
g69
I5
ssg70
g91
sg63
(lp98
S'True'
p99
asbasbasbag56
(g72
g58
NtRp100
(dp101
g61
(dp102
sg70
g66
sg63
(lp103
g56
(g77
g58
NtRp104
(dp105
g61
(dp106
g81
g82
ssg70
g100
sg63
(lp107
S'application'
p108
asbag56
(g77
g58
NtRp109
(dp110
g61
(dp111
g88
g89
ssg70
g100
sg63
(lp112
S':'
asbag56
(g77
g58
NtRp113
(dp114
g61
(dp115
sg70
g100
sg63
(lp116
g56
(g57
g58
NtRp117
(dp118
g61
(dp119
g69
I5
ssg70
g113
sg63
(lp120
S'topoi'
p121
asbasbasbag56
(g72
g58
NtRp122
(dp123
g61
(dp124
sg70
g66
sg63
(lp125
g56
(g77
g58
NtRp126
(dp127
g61
(dp128
g81
g82
ssg70
g122
sg63
(lp129
g23
asbag56
(g77
g58
NtRp130
(dp131
g61
(dp132
g88
g89
ssg70
g122
sg63
(lp133
S':'
asbag56
(g77
g58
NtRp134
(dp135
g61
(dp136
sg70
g122
sg63
(lp137
g56
(g57
g58
NtRp138
(dp139
g61
(dp140
g69
I5
ssg70
g134
sg63
(lp141
g56
(g65
g58
NtRp142
(dp143
g61
(dp144
g69
I4
ssg70
Nsg63
(lp145
g56
(g72
g58
NtRp146
(dp147
g61
(dp148
sg70
g142
sg63
(lp149
g56
(g77
g58
NtRp150
(dp151
g61
(dp152
sg70
g146
sg63
(lp153
g56
(g57
g58
NtRp154
(dp155
g61
(dp156
g69
I4
ssg70
g150
sg63
(lp157
S'notes.author'
p158
asbasbasbag56
(g72
g58
NtRp159
(dp160
g61
(dp161
sg70
g142
sg63
(lp162
g56
(g77
g58
NtRp163
(dp164
g61
(dp165
sg70
g159
sg63
(lp166
g56
(g57
g58
NtRp167
(dp168
g61
(dp169
g69
I4
ssg70
g163
sg63
(lp170
S'10'
p171
asbasbasbasbasbasbasbag56
(g72
g58
NtRp172
(dp173
g61
(dp174
sg70
g66
sg63
(lp175
g56
(g77
g58
NtRp176
(dp177
g61
(dp178
g81
g82
ssg70
g172
sg63
(lp179
S'body'
p180
asbag56
(g77
g58
NtRp181
(dp182
g61
(dp183
g88
g89
ssg70
g172
sg63
(lp184
S':'
asbag56
(g77
g58
NtRp185
(dp186
g61
(dp187
sg70
g172
sg63
(lp188
g56
(g57
g58
NtRp189
(dp190
g61
(dp191
g69
I5
ssg70
g185
sg63
(lp192
S'<cStringIO.StringO object at 0x4805df8>'
p193
asbasbasbag56
(g72
g58
NtRp194
(dp195
g61
(dp196
sg70
g66
sg63
(lp197
g56
(g77
g58
NtRp198
(dp199
g61
(dp200
g81
g82
ssg70
g194
sg63
(lp201
S'cid'
p202
asbag56
(g77
g58
NtRp203
(dp204
g61
(dp205
g88
g89
ssg70
g194
sg63
(lp206
S':'
asbag56
(g77
g58
NtRp207
(dp208
g61
(dp209
sg70
g194
sg63
(lp210
g56
(g57
g58
NtRp211
(dp212
g61
(dp213
g69
I5
ssg70
g207
sg63
(lp214
S'c25511849305'
p215
asbasbasbag56
(g72
g58
NtRp216
(dp217
g61
(dp218
sg70
g66
sg63
(lp219
g56
(g77
g58
NtRp220
(dp221
g61
(dp222
g81
g82
ssg70
g216
sg63
(lp223
S'client'
p224
asbag56
(g77
g58
NtRp225
(dp226
g61
(dp227
g88
g89
ssg70
g216
sg63
(lp228
S':'
asbag56
(g77
g58
NtRp229
(dp230
g61
(dp231
sg70
g216
sg63
(lp232
g56
(g57
g58
NtRp233
(dp234
g61
(dp235
g69
I5
ssg70
g229
sg63
(lp236
S'127.0.0.1'
p237
asbasbasbag56
(g72
g58
NtRp238
(dp239
g61
(dp240
sg70
g66
sg63
(lp241
g56
(g77
g58
NtRp242
(dp243
g61
(dp244
g81
g82
ssg70
g238
sg63
(lp245
S'controller'
p246
asbag56
(g77
g58
NtRp247
(dp248
g61
(dp249
g88
g89
ssg70
g238
sg63
(lp250
S':'
asbag56
(g77
g58
NtRp251
(dp252
g61
(dp253
sg70
g238
sg63
(lp254
g56
(g57
g58
NtRp255
(dp256
g61
(dp257
g69
I5
ssg70
g251
sg63
(lp258
S'plugin_ajaxselect'
p259
asbasbasbag56
(g72
g58
NtRp260
(dp261
g61
(dp262
sg70
g66
sg63
(lp263
g56
(g77
g58
NtRp264
(dp265
g61
(dp266
g81
g82
ssg70
g260
sg63
(lp267
S'cookies'
p268
asbag56
(g77
g58
NtRp269
(dp270
g61
(dp271
g88
g89
ssg70
g260
sg63
(lp272
S':'
asbag56
(g77
g58
NtRp273
(dp274
g61
(dp275
sg70
g260
sg63
(lp276
g56
(g57
g58
NtRp277
(dp278
g61
(dp279
g69
I5
ssg70
g273
sg63
(lp280
g56
(g65
g58
NtRp281
(dp282
g61
(dp283
g69
I4
ssg70
Nsg63
(lp284
g56
(g72
g58
NtRp285
(dp286
g61
(dp287
sg70
g281
sg63
(lp288
g56
(g77
g58
NtRp289
(dp290
g61
(dp291
g81
g82
ssg70
g285
sg63
(lp292
S'session_id_admin'
p293
asbag56
(g77
g58
NtRp294
(dp295
g61
(dp296
g88
g89
ssg70
g285
sg63
(lp297
S':'
asbag56
(g77
g58
NtRp298
(dp299
g61
(dp300
sg70
g285
sg63
(lp301
g56
(g57
g58
NtRp302
(dp303
g61
(dp304
g69
I4
ssg70
g298
sg63
(lp305
g56
(g65
g58
NtRp306
(dp307
g61
(dp308
g69
I3
ssg70
Nsg63
(lp309
g56
(g72
g58
NtRp310
(dp311
g61
(dp312
sg70
g306
sg63
(lp313
g56
(g77
g58
NtRp314
(dp315
g61
(dp316
g81
g82
ssg70
g310
sg63
(lp317
S'comment'
p318
asbag56
(g77
g58
NtRp319
(dp320
g61
(dp321
g88
g89
ssg70
g310
sg63
(lp322
S':'
asbag56
(g77
g58
NtRp323
(dp324
g61
(dp325
sg70
g310
sg63
(lp326
g56
(g57
g58
NtRp327
(dp328
g61
(dp329
g69
I3
ssg70
g323
sg63
(lp330
S''
asbasbasbag56
(g72
g58
NtRp331
(dp332
g61
(dp333
sg70
g306
sg63
(lp334
g56
(g77
g58
NtRp335
(dp336
g61
(dp337
g81
g82
ssg70
g331
sg63
(lp338
S'domain'
p339
asbag56
(g77
g58
NtRp340
(dp341
g61
(dp342
g88
g89
ssg70
g331
sg63
(lp343
S':'
asbag56
(g77
g58
NtRp344
(dp345
g61
(dp346
sg70
g331
sg63
(lp347
g56
(g57
g58
NtRp348
(dp349
g61
(dp350
g69
I3
ssg70
g344
sg63
(lp351
S''
asbasbasbag56
(g72
g58
NtRp352
(dp353
g61
(dp354
sg70
g306
sg63
(lp355
g56
(g77
g58
NtRp356
(dp357
g61
(dp358
g81
g82
ssg70
g352
sg63
(lp359
S'expires'
p360
asbag56
(g77
g58
NtRp361
(dp362
g61
(dp363
g88
g89
ssg70
g352
sg63
(lp364
S':'
asbag56
(g77
g58
NtRp365
(dp366
g61
(dp367
sg70
g352
sg63
(lp368
g56
(g57
g58
NtRp369
(dp370
g61
(dp371
g69
I3
ssg70
g365
sg63
(lp372
S''
asbasbasbag56
(g72
g58
NtRp373
(dp374
g61
(dp375
sg70
g306
sg63
(lp376
g56
(g77
g58
NtRp377
(dp378
g61
(dp379
g81
g82
ssg70
g373
sg63
(lp380
S'httponly'
p381
asbag56
(g77
g58
NtRp382
(dp383
g61
(dp384
g88
g89
ssg70
g373
sg63
(lp385
S':'
asbag56
(g77
g58
NtRp386
(dp387
g61
(dp388
sg70
g373
sg63
(lp389
g56
(g57
g58
NtRp390
(dp391
g61
(dp392
g69
I3
ssg70
g386
sg63
(lp393
S''
asbasbasbag56
(g72
g58
NtRp394
(dp395
g61
(dp396
sg70
g306
sg63
(lp397
g56
(g77
g58
NtRp398
(dp399
g61
(dp400
g81
g82
ssg70
g394
sg63
(lp401
S'max-age'
p402
asbag56
(g77
g58
NtRp403
(dp404
g61
(dp405
g88
g89
ssg70
g394
sg63
(lp406
S':'
asbag56
(g77
g58
NtRp407
(dp408
g61
(dp409
sg70
g394
sg63
(lp410
g56
(g57
g58
NtRp411
(dp412
g61
(dp413
g69
I3
ssg70
g407
sg63
(lp414
S''
asbasbasbag56
(g72
g58
NtRp415
(dp416
g61
(dp417
sg70
g306
sg63
(lp418
g56
(g77
g58
NtRp419
(dp420
g61
(dp421
g81
g82
ssg70
g415
sg63
(lp422
S'path'
p423
asbag56
(g77
g58
NtRp424
(dp425
g61
(dp426
g88
g89
ssg70
g415
sg63
(lp427
S':'
asbag56
(g77
g58
NtRp428
(dp429
g61
(dp430
sg70
g415
sg63
(lp431
g56
(g57
g58
NtRp432
(dp433
g61
(dp434
g69
I3
ssg70
g428
sg63
(lp435
S''
asbasbasbag56
(g72
g58
NtRp436
(dp437
g61
(dp438
sg70
g306
sg63
(lp439
g56
(g77
g58
NtRp440
(dp441
g61
(dp442
g81
g82
ssg70
g436
sg63
(lp443
S'secure'
p444
asbag56
(g77
g58
NtRp445
(dp446
g61
(dp447
g88
g89
ssg70
g436
sg63
(lp448
S':'
asbag56
(g77
g58
NtRp449
(dp450
g61
(dp451
sg70
g436
sg63
(lp452
g56
(g57
g58
NtRp453
(dp454
g61
(dp455
g69
I3
ssg70
g449
sg63
(lp456
S''
asbasbasbag56
(g72
g58
NtRp457
(dp458
g61
(dp459
sg70
g306
sg63
(lp460
g56
(g77
g58
NtRp461
(dp462
g61
(dp463
g81
g82
ssg70
g457
sg63
(lp464
S'version'
p465
asbag56
(g77
g58
NtRp466
(dp467
g61
(dp468
g88
g89
ssg70
g457
sg63
(lp469
S':'
asbag56
(g77
g58
NtRp470
(dp471
g61
(dp472
sg70
g457
sg63
(lp473
g56
(g57
g58
NtRp474
(dp475
g61
(dp476
g69
I3
ssg70
g470
sg63
(lp477
S''
asbasbasbasbasbasbasbag56
(g72
g58
NtRp478
(dp479
g61
(dp480
sg70
g281
sg63
(lp481
g56
(g77
g58
NtRp482
(dp483
g61
(dp484
g81
g82
ssg70
g478
sg63
(lp485
S'session_id_topoi'
p486
asbag56
(g77
g58
NtRp487
(dp488
g61
(dp489
g88
g89
ssg70
g478
sg63
(lp490
S':'
asbag56
(g77
g58
NtRp491
(dp492
g61
(dp493
sg70
g478
sg63
(lp494
g56
(g57
g58
NtRp495
(dp496
g61
(dp497
g69
I4
ssg70
g491
sg63
(lp498
g56
(g65
g58
NtRp499
(dp500
g61
(dp501
g69
I3
ssg70
Nsg63
(lp502
g56
(g72
g58
NtRp503
(dp504
g61
(dp505
sg70
g499
sg63
(lp506
g56
(g77
g58
NtRp507
(dp508
g61
(dp509
g81
g82
ssg70
g503
sg63
(lp510
g318
asbag56
(g77
g58
NtRp511
(dp512
g61
(dp513
g88
g89
ssg70
g503
sg63
(lp514
S':'
asbag56
(g77
g58
NtRp515
(dp516
g61
(dp517
sg70
g503
sg63
(lp518
g56
(g57
g58
NtRp519
(dp520
g61
(dp521
g69
I3
ssg70
g515
sg63
(lp522
S''
asbasbasbag56
(g72
g58
NtRp523
(dp524
g61
(dp525
sg70
g499
sg63
(lp526
g56
(g77
g58
NtRp527
(dp528
g61
(dp529
g81
g82
ssg70
g523
sg63
(lp530
g339
asbag56
(g77
g58
NtRp531
(dp532
g61
(dp533
g88
g89
ssg70
g523
sg63
(lp534
S':'
asbag56
(g77
g58
NtRp535
(dp536
g61
(dp537
sg70
g523
sg63
(lp538
g56
(g57
g58
NtRp539
(dp540
g61
(dp541
g69
I3
ssg70
g535
sg63
(lp542
S''
asbasbasbag56
(g72
g58
NtRp543
(dp544
g61
(dp545
sg70
g499
sg63
(lp546
g56
(g77
g58
NtRp547
(dp548
g61
(dp549
g81
g82
ssg70
g543
sg63
(lp550
g360
asbag56
(g77
g58
NtRp551
(dp552
g61
(dp553
g88
g89
ssg70
g543
sg63
(lp554
S':'
asbag56
(g77
g58
NtRp555
(dp556
g61
(dp557
sg70
g543
sg63
(lp558
g56
(g57
g58
NtRp559
(dp560
g61
(dp561
g69
I3
ssg70
g555
sg63
(lp562
S''
asbasbasbag56
(g72
g58
NtRp563
(dp564
g61
(dp565
sg70
g499
sg63
(lp566
g56
(g77
g58
NtRp567
(dp568
g61
(dp569
g81
g82
ssg70
g563
sg63
(lp570
g381
asbag56
(g77
g58
NtRp571
(dp572
g61
(dp573
g88
g89
ssg70
g563
sg63
(lp574
S':'
asbag56
(g77
g58
NtRp575
(dp576
g61
(dp577
sg70
g563
sg63
(lp578
g56
(g57
g58
NtRp579
(dp580
g61
(dp581
g69
I3
ssg70
g575
sg63
(lp582
S''
asbasbasbag56
(g72
g58
NtRp583
(dp584
g61
(dp585
sg70
g499
sg63
(lp586
g56
(g77
g58
NtRp587
(dp588
g61
(dp589
g81
g82
ssg70
g583
sg63
(lp590
g402
asbag56
(g77
g58
NtRp591
(dp592
g61
(dp593
g88
g89
ssg70
g583
sg63
(lp594
S':'
asbag56
(g77
g58
NtRp595
(dp596
g61
(dp597
sg70
g583
sg63
(lp598
g56
(g57
g58
NtRp599
(dp600
g61
(dp601
g69
I3
ssg70
g595
sg63
(lp602
S''
asbasbasbag56
(g72
g58
NtRp603
(dp604
g61
(dp605
sg70
g499
sg63
(lp606
g56
(g77
g58
NtRp607
(dp608
g61
(dp609
g81
g82
ssg70
g603
sg63
(lp610
g423
asbag56
(g77
g58
NtRp611
(dp612
g61
(dp613
g88
g89
ssg70
g603
sg63
(lp614
S':'
asbag56
(g77
g58
NtRp615
(dp616
g61
(dp617
sg70
g603
sg63
(lp618
g56
(g57
g58
NtRp619
(dp620
g61
(dp621
g69
I3
ssg70
g615
sg63
(lp622
S''
asbasbasbag56
(g72
g58
NtRp623
(dp624
g61
(dp625
sg70
g499
sg63
(lp626
g56
(g77
g58
NtRp627
(dp628
g61
(dp629
g81
g82
ssg70
g623
sg63
(lp630
g444
asbag56
(g77
g58
NtRp631
(dp632
g61
(dp633
g88
g89
ssg70
g623
sg63
(lp634
S':'
asbag56
(g77
g58
NtRp635
(dp636
g61
(dp637
sg70
g623
sg63
(lp638
g56
(g57
g58
NtRp639
(dp640
g61
(dp641
g69
I3
ssg70
g635
sg63
(lp642
S''
asbasbasbag56
(g72
g58
NtRp643
(dp644
g61
(dp645
sg70
g499
sg63
(lp646
g56
(g77
g58
NtRp647
(dp648
g61
(dp649
g81
g82
ssg70
g643
sg63
(lp650
g465
asbag56
(g77
g58
NtRp651
(dp652
g61
(dp653
g88
g89
ssg70
g643
sg63
(lp654
S':'
asbag56
(g77
g58
NtRp655
(dp656
g61
(dp657
sg70
g643
sg63
(lp658
g56
(g57
g58
NtRp659
(dp660
g61
(dp661
g69
I3
ssg70
g655
sg63
(lp662
S''
asbasbasbasbasbasbasbag56
(g72
g58
NtRp663
(dp664
g61
(dp665
sg70
g281
sg63
(lp666
g56
(g77
g58
NtRp667
(dp668
g61
(dp669
g81
g82
ssg70
g663
sg63
(lp670
S'session_id_welcome'
p671
asbag56
(g77
g58
NtRp672
(dp673
g61
(dp674
g88
g89
ssg70
g663
sg63
(lp675
S':'
asbag56
(g77
g58
NtRp676
(dp677
g61
(dp678
sg70
g663
sg63
(lp679
g56
(g57
g58
NtRp680
(dp681
g61
(dp682
g69
I4
ssg70
g676
sg63
(lp683
g56
(g65
g58
NtRp684
(dp685
g61
(dp686
g69
I3
ssg70
Nsg63
(lp687
g56
(g72
g58
NtRp688
(dp689
g61
(dp690
sg70
g684
sg63
(lp691
g56
(g77
g58
NtRp692
(dp693
g61
(dp694
g81
g82
ssg70
g688
sg63
(lp695
g318
asbag56
(g77
g58
NtRp696
(dp697
g61
(dp698
g88
g89
ssg70
g688
sg63
(lp699
S':'
asbag56
(g77
g58
NtRp700
(dp701
g61
(dp702
sg70
g688
sg63
(lp703
g56
(g57
g58
NtRp704
(dp705
g61
(dp706
g69
I3
ssg70
g700
sg63
(lp707
S''
asbasbasbag56
(g72
g58
NtRp708
(dp709
g61
(dp710
sg70
g684
sg63
(lp711
g56
(g77
g58
NtRp712
(dp713
g61
(dp714
g81
g82
ssg70
g708
sg63
(lp715
g339
asbag56
(g77
g58
NtRp716
(dp717
g61
(dp718
g88
g89
ssg70
g708
sg63
(lp719
S':'
asbag56
(g77
g58
NtRp720
(dp721
g61
(dp722
sg70
g708
sg63
(lp723
g56
(g57
g58
NtRp724
(dp725
g61
(dp726
g69
I3
ssg70
g720
sg63
(lp727
S''
asbasbasbag56
(g72
g58
NtRp728
(dp729
g61
(dp730
sg70
g684
sg63
(lp731
g56
(g77
g58
NtRp732
(dp733
g61
(dp734
g81
g82
ssg70
g728
sg63
(lp735
g360
asbag56
(g77
g58
NtRp736
(dp737
g61
(dp738
g88
g89
ssg70
g728
sg63
(lp739
S':'
asbag56
(g77
g58
NtRp740
(dp741
g61
(dp742
sg70
g728
sg63
(lp743
g56
(g57
g58
NtRp744
(dp745
g61
(dp746
g69
I3
ssg70
g740
sg63
(lp747
S''
asbasbasbag56
(g72
g58
NtRp748
(dp749
g61
(dp750
sg70
g684
sg63
(lp751
g56
(g77
g58
NtRp752
(dp753
g61
(dp754
g81
g82
ssg70
g748
sg63
(lp755
g381
asbag56
(g77
g58
NtRp756
(dp757
g61
(dp758
g88
g89
ssg70
g748
sg63
(lp759
S':'
asbag56
(g77
g58
NtRp760
(dp761
g61
(dp762
sg70
g748
sg63
(lp763
g56
(g57
g58
NtRp764
(dp765
g61
(dp766
g69
I3
ssg70
g760
sg63
(lp767
S''
asbasbasbag56
(g72
g58
NtRp768
(dp769
g61
(dp770
sg70
g684
sg63
(lp771
g56
(g77
g58
NtRp772
(dp773
g61
(dp774
g81
g82
ssg70
g768
sg63
(lp775
g402
asbag56
(g77
g58
NtRp776
(dp777
g61
(dp778
g88
g89
ssg70
g768
sg63
(lp779
S':'
asbag56
(g77
g58
NtRp780
(dp781
g61
(dp782
sg70
g768
sg63
(lp783
g56
(g57
g58
NtRp784
(dp785
g61
(dp786
g69
I3
ssg70
g780
sg63
(lp787
S''
asbasbasbag56
(g72
g58
NtRp788
(dp789
g61
(dp790
sg70
g684
sg63
(lp791
g56
(g77
g58
NtRp792
(dp793
g61
(dp794
g81
g82
ssg70
g788
sg63
(lp795
g423
asbag56
(g77
g58
NtRp796
(dp797
g61
(dp798
g88
g89
ssg70
g788
sg63
(lp799
S':'
asbag56
(g77
g58
NtRp800
(dp801
g61
(dp802
sg70
g788
sg63
(lp803
g56
(g57
g58
NtRp804
(dp805
g61
(dp806
g69
I3
ssg70
g800
sg63
(lp807
S''
asbasbasbag56
(g72
g58
NtRp808
(dp809
g61
(dp810
sg70
g684
sg63
(lp811
g56
(g77
g58
NtRp812
(dp813
g61
(dp814
g81
g82
ssg70
g808
sg63
(lp815
g444
asbag56
(g77
g58
NtRp816
(dp817
g61
(dp818
g88
g89
ssg70
g808
sg63
(lp819
S':'
asbag56
(g77
g58
NtRp820
(dp821
g61
(dp822
sg70
g808
sg63
(lp823
g56
(g57
g58
NtRp824
(dp825
g61
(dp826
g69
I3
ssg70
g820
sg63
(lp827
S''
asbasbasbag56
(g72
g58
NtRp828
(dp829
g61
(dp830
sg70
g684
sg63
(lp831
g56
(g77
g58
NtRp832
(dp833
g61
(dp834
g81
g82
ssg70
g828
sg63
(lp835
g465
asbag56
(g77
g58
NtRp836
(dp837
g61
(dp838
g88
g89
ssg70
g828
sg63
(lp839
S':'
asbag56
(g77
g58
NtRp840
(dp841
g61
(dp842
sg70
g828
sg63
(lp843
g56
(g57
g58
NtRp844
(dp845
g61
(dp846
g69
I3
ssg70
g840
sg63
(lp847
S''
asbasbasbasbasbasbasbasbasbasbasbag56
(g72
g58
NtRp848
(dp849
g61
(dp850
sg70
g66
sg63
(lp851
g56
(g77
g58
NtRp852
(dp853
g61
(dp854
g81
g82
ssg70
g848
sg63
(lp855
S'env'
p856
asbag56
(g77
g58
NtRp857
(dp858
g61
(dp859
g88
g89
ssg70
g848
sg63
(lp860
S':'
asbag56
(g77
g58
NtRp861
(dp862
g61
(dp863
sg70
g848
sg63
(lp864
g56
(g57
g58
NtRp865
(dp866
g61
(dp867
g69
I5
ssg70
g861
sg63
(lp868
g56
(g65
g58
NtRp869
(dp870
g61
(dp871
g69
I4
ssg70
Nsg63
(lp872
g56
(g72
g58
NtRp873
(dp874
g61
(dp875
sg70
g869
sg63
(lp876
g56
(g77
g58
NtRp877
(dp878
g61
(dp879
g81
g82
ssg70
g873
sg63
(lp880
S'app_folders'
p881
asbag56
(g77
g58
NtRp882
(dp883
g61
(dp884
g88
g89
ssg70
g873
sg63
(lp885
S':'
asbag56
(g77
g58
NtRp886
(dp887
g61
(dp888
sg70
g873
sg63
(lp889
g56
(g57
g58
NtRp890
(dp891
g61
(dp892
g69
I4
ssg70
g886
sg63
(lp893
S"set(['/home/ian/web2py/applications/topoi/', '/home/ian/web2py/applications/welcome/', '/home/ian/web2py/applications/admin/'])"
p894
asbasbasbag56
(g72
g58
NtRp895
(dp896
g61
(dp897
sg70
g869
sg63
(lp898
g56
(g77
g58
NtRp899
(dp900
g61
(dp901
g81
g82
ssg70
g895
sg63
(lp902
S'applications_parent'
p903
asbag56
(g77
g58
NtRp904
(dp905
g61
(dp906
g88
g89
ssg70
g895
sg63
(lp907
S':'
asbag56
(g77
g58
NtRp908
(dp909
g61
(dp910
sg70
g895
sg63
(lp911
g56
(g57
g58
NtRp912
(dp913
g61
(dp914
g69
I4
ssg70
g908
sg63
(lp915
S'/home/ian/web2py'
p916
asbasbasbag56
(g72
g58
NtRp917
(dp918
g61
(dp919
sg70
g869
sg63
(lp920
g56
(g77
g58
NtRp921
(dp922
g61
(dp923
g81
g82
ssg70
g917
sg63
(lp924
S'cmd_args'
p925
asbag56
(g77
g58
NtRp926
(dp927
g61
(dp928
g88
g89
ssg70
g917
sg63
(lp929
S':'
asbag56
(g77
g58
NtRp930
(dp931
g61
(dp932
sg70
g917
sg63
(lp933
g56
(g57
g58
NtRp934
(dp935
g61
(dp936
g69
I4
ssg70
g930
sg63
(lp937
g56
(g65
g58
NtRp938
(dp939
g61
(dp940
g69
I3
ssg70
Nsg63
(lp941
sbasbasbasbag56
(g72
g58
NtRp942
(dp943
g61
(dp944
sg70
g869
sg63
(lp945
g56
(g77
g58
NtRp946
(dp947
g61
(dp948
g81
g82
ssg70
g942
sg63
(lp949
S'cmd_options'
p950
asbag56
(g77
g58
NtRp951
(dp952
g61
(dp953
g88
g89
ssg70
g942
sg63
(lp954
S':'
asbag56
(g77
g58
NtRp955
(dp956
g61
(dp957
sg70
g942
sg63
(lp958
g56
(g57
g58
NtRp959
(dp960
g61
(dp961
g69
I4
ssg70
g955
sg63
(lp962
S"<Values at 0x2e417e8: {'verbose': False, 'ip': '127.0.0.1', 'shutdown_timeout': 5, 'taskbar': False, 'nocron': False, 'pid_filename': 'httpserver.pid', 'maxthreads': None, 'softcron': False, 'server_name': 'Ariel-ubuntu', 'bpython': False, 'nogui': False, 'port': 8000, 'extcron': False, 'debuglevel': 30, 'test': None, 'folder': '/home/ian/web2py', 'config': '', 'import_models': False, 'winservice': '', 'shell': None, 'run': '', 'log_filename': 'httpserver.log', 'args': [''], 'ssl_ca_certificate': None, 'scheduler': None, 'profiler_filename': None, 'ssl_private_key': '', 'password': '<ask>', 'request_queue_size': 5, 'ssl_certificate': '', 'cronjob': False, 'plain': False, 'quiet': False, 'interfaces': None, 'minthreads': None, 'timeout': 10, 'numthreads': None, 'nobanner': False}>"
p963
asbasbasbag56
(g72
g58
NtRp964
(dp965
g61
(dp966
sg70
g869
sg63
(lp967
g56
(g77
g58
NtRp968
(dp969
g61
(dp970
g81
g82
ssg70
g964
sg63
(lp971
S'db_sessions'
p972
asbag56
(g77
g58
NtRp973
(dp974
g61
(dp975
g88
g89
ssg70
g964
sg63
(lp976
S':'
asbag56
(g77
g58
NtRp977
(dp978
g61
(dp979
sg70
g964
sg63
(lp980
g56
(g57
g58
NtRp981
(dp982
g61
(dp983
g69
I4
ssg70
g977
sg63
(lp984
S'set([])'
p985
asbasbasbag56
(g72
g58
NtRp986
(dp987
g61
(dp988
sg70
g869
sg63
(lp989
g56
(g77
g58
NtRp990
(dp991
g61
(dp992
g81
g82
ssg70
g986
sg63
(lp993
S'debugging'
p994
asbag56
(g77
g58
NtRp995
(dp996
g61
(dp997
g88
g89
ssg70
g986
sg63
(lp998
S':'
asbag56
(g77
g58
NtRp999
(dp1000
g61
(dp1001
sg70
g986
sg63
(lp1002
g56
(g57
g58
NtRp1003
(dp1004
g61
(dp1005
g69
I4
ssg70
g999
sg63
(lp1006
S'False'
p1007
asbasbasbag56
(g72
g58
NtRp1008
(dp1009
g61
(dp1010
sg70
g869
sg63
(lp1011
g56
(g77
g58
NtRp1012
(dp1013
g61
(dp1014
g81
g82
ssg70
g1008
sg63
(lp1015
S'gluon_parent'
p1016
asbag56
(g77
g58
NtRp1017
(dp1018
g61
(dp1019
g88
g89
ssg70
g1008
sg63
(lp1020
S':'
asbag56
(g77
g58
NtRp1021
(dp1022
g61
(dp1023
sg70
g1008
sg63
(lp1024
g56
(g57
g58
NtRp1025
(dp1026
g61
(dp1027
g69
I4
ssg70
g1021
sg63
(lp1028
S'/home/ian/web2py'
p1029
asbasbasbag56
(g72
g58
NtRp1030
(dp1031
g61
(dp1032
sg70
g869
sg63
(lp1033
g56
(g77
g58
NtRp1034
(dp1035
g61
(dp1036
g81
g82
ssg70
g1030
sg63
(lp1037
S'http_accept'
p1038
asbag56
(g77
g58
NtRp1039
(dp1040
g61
(dp1041
g88
g89
ssg70
g1030
sg63
(lp1042
S':'
asbag56
(g77
g58
NtRp1043
(dp1044
g61
(dp1045
sg70
g1030
sg63
(lp1046
g56
(g57
g58
NtRp1047
(dp1048
g61
(dp1049
g69
I4
ssg70
g1043
sg63
(lp1050
S'*/*'
p1051
asbasbasbag56
(g72
g58
NtRp1052
(dp1053
g61
(dp1054
sg70
g869
sg63
(lp1055
g56
(g77
g58
NtRp1056
(dp1057
g61
(dp1058
g81
g82
ssg70
g1052
sg63
(lp1059
S'http_accept_charset'
p1060
asbag56
(g77
g58
NtRp1061
(dp1062
g61
(dp1063
g88
g89
ssg70
g1052
sg63
(lp1064
S':'
asbag56
(g77
g58
NtRp1065
(dp1066
g61
(dp1067
sg70
g1052
sg63
(lp1068
g56
(g57
g58
NtRp1069
(dp1070
g61
(dp1071
g69
I4
ssg70
g1065
sg63
(lp1072
S'ISO-8859-1,utf-8;q=0.7,*;q=0.7'
p1073
asbasbasbag56
(g72
g58
NtRp1074
(dp1075
g61
(dp1076
sg70
g869
sg63
(lp1077
g56
(g77
g58
NtRp1078
(dp1079
g61
(dp1080
g81
g82
ssg70
g1074
sg63
(lp1081
S'http_accept_encoding'
p1082
asbag56
(g77
g58
NtRp1083
(dp1084
g61
(dp1085
g88
g89
ssg70
g1074
sg63
(lp1086
S':'
asbag56
(g77
g58
NtRp1087
(dp1088
g61
(dp1089
sg70
g1074
sg63
(lp1090
g56
(g57
g58
NtRp1091
(dp1092
g61
(dp1093
g69
I4
ssg70
g1087
sg63
(lp1094
S'gzip, deflate'
p1095
asbasbasbag56
(g72
g58
NtRp1096
(dp1097
g61
(dp1098
sg70
g869
sg63
(lp1099
g56
(g77
g58
NtRp1100
(dp1101
g61
(dp1102
g81
g82
ssg70
g1096
sg63
(lp1103
S'http_accept_language'
p1104
asbag56
(g77
g58
NtRp1105
(dp1106
g61
(dp1107
g88
g89
ssg70
g1096
sg63
(lp1108
S':'
asbag56
(g77
g58
NtRp1109
(dp1110
g61
(dp1111
sg70
g1096
sg63
(lp1112
g56
(g57
g58
NtRp1113
(dp1114
g61
(dp1115
g69
I4
ssg70
g1109
sg63
(lp1116
S'en-us,en;q=0.5'
p1117
asbasbasbag56
(g72
g58
NtRp1118
(dp1119
g61
(dp1120
sg70
g869
sg63
(lp1121
g56
(g77
g58
NtRp1122
(dp1123
g61
(dp1124
g81
g82
ssg70
g1118
sg63
(lp1125
S'http_connection'
p1126
asbag56
(g77
g58
NtRp1127
(dp1128
g61
(dp1129
g88
g89
ssg70
g1118
sg63
(lp1130
S':'
asbag56
(g77
g58
NtRp1131
(dp1132
g61
(dp1133
sg70
g1118
sg63
(lp1134
g56
(g57
g58
NtRp1135
(dp1136
g61
(dp1137
g69
I4
ssg70
g1131
sg63
(lp1138
S'keep-alive'
p1139
asbasbasbag56
(g72
g58
NtRp1140
(dp1141
g61
(dp1142
sg70
g869
sg63
(lp1143
g56
(g77
g58
NtRp1144
(dp1145
g61
(dp1146
g81
g82
ssg70
g1140
sg63
(lp1147
S'http_cookie'
p1148
asbag56
(g77
g58
NtRp1149
(dp1150
g61
(dp1151
g88
g89
ssg70
g1140
sg63
(lp1152
S':'
asbag56
(g77
g58
NtRp1153
(dp1154
g61
(dp1155
sg70
g1140
sg63
(lp1156
g56
(g57
g58
NtRp1157
(dp1158
g61
(dp1159
g69
I4
ssg70
g1153
sg63
(lp1160
S'__utma_a2a=9789918665.1351576430.1320019504.1320019504.1320019504.1; session_id_welcome=127.0.0.1-3b61e359-77dc-44a3-a88f-7ba0dc0145f6; session_id_topoi=127.0.0.1-0588fa82-2e60-4d5b-a573-6149f0d086d8; session_id_admin=127.0.0.1-de344155-f777-4bb2-a85e-2986ae0ec0ee'
p1161
asbasbasbag56
(g72
g58
NtRp1162
(dp1163
g61
(dp1164
sg70
g869
sg63
(lp1165
g56
(g77
g58
NtRp1166
(dp1167
g61
(dp1168
g81
g82
ssg70
g1162
sg63
(lp1169
S'http_host'
p1170
asbag56
(g77
g58
NtRp1171
(dp1172
g61
(dp1173
g88
g89
ssg70
g1162
sg63
(lp1174
S':'
asbag56
(g77
g58
NtRp1175
(dp1176
g61
(dp1177
sg70
g1162
sg63
(lp1178
g56
(g57
g58
NtRp1179
(dp1180
g61
(dp1181
g69
I4
ssg70
g1175
sg63
(lp1182
S'127.0.0.1:8000'
p1183
asbasbasbag56
(g72
g58
NtRp1184
(dp1185
g61
(dp1186
sg70
g869
sg63
(lp1187
g56
(g77
g58
NtRp1188
(dp1189
g61
(dp1190
g81
g82
ssg70
g1184
sg63
(lp1191
S'http_referer'
p1192
asbag56
(g77
g58
NtRp1193
(dp1194
g61
(dp1195
g88
g89
ssg70
g1184
sg63
(lp1196
S':'
asbag56
(g77
g58
NtRp1197
(dp1198
g61
(dp1199
sg70
g1184
sg63
(lp1200
g56
(g57
g58
NtRp1201
(dp1202
g61
(dp1203
g69
I4
ssg70
g1197
sg63
(lp1204
S'http://127.0.0.1:8000/topoi/plugin_listandedit/list/notes/1?fields=author&fields=work&fields=reference'
p1205
asbasbasbag56
(g72
g58
NtRp1206
(dp1207
g61
(dp1208
sg70
g869
sg63
(lp1209
g56
(g77
g58
NtRp1210
(dp1211
g61
(dp1212
g81
g82
ssg70
g1206
sg63
(lp1213
S'http_user_agent'
p1214
asbag56
(g77
g58
NtRp1215
(dp1216
g61
(dp1217
g88
g89
ssg70
g1206
sg63
(lp1218
S':'
asbag56
(g77
g58
NtRp1219
(dp1220
g61
(dp1221
sg70
g1206
sg63
(lp1222
g56
(g57
g58
NtRp1223
(dp1224
g61
(dp1225
g69
I4
ssg70
g1219
sg63
(lp1226
S'Mozilla/5.0 (Ubuntu; X11; Linux x86_64; rv:8.0) Gecko/20100101 Firefox/8.0'
p1227
asbasbasbag56
(g72
g58
NtRp1228
(dp1229
g61
(dp1230
sg70
g869
sg63
(lp1231
g56
(g77
g58
NtRp1232
(dp1233
g61
(dp1234
g81
g82
ssg70
g1228
sg63
(lp1235
S'http_web2py_component_element'
p1236
asbag56
(g77
g58
NtRp1237
(dp1238
g61
(dp1239
g88
g89
ssg70
g1228
sg63
(lp1240
S':'
asbag56
(g77
g58
NtRp1241
(dp1242
g61
(dp1243
sg70
g1228
sg63
(lp1244
g56
(g57
g58
NtRp1245
(dp1246
g61
(dp1247
g69
I4
ssg70
g1241
sg63
(lp1248
g215
asbasbasbag56
(g72
g58
NtRp1249
(dp1250
g61
(dp1251
sg70
g869
sg63
(lp1252
g56
(g77
g58
NtRp1253
(dp1254
g61
(dp1255
g81
g82
ssg70
g1249
sg63
(lp1256
S'http_web2py_component_location'
p1257
asbag56
(g77
g58
NtRp1258
(dp1259
g61
(dp1260
g88
g89
ssg70
g1249
sg63
(lp1261
S':'
asbag56
(g77
g58
NtRp1262
(dp1263
g61
(dp1264
sg70
g1249
sg63
(lp1265
g56
(g57
g58
NtRp1266
(dp1267
g61
(dp1268
g69
I4
ssg70
g1262
sg63
(lp1269
S'http://127.0.0.1:8000/topoi/plugin_listandedit/list/notes/1?fields=author&fields=work&fields=reference'
p1270
asbasbasbag56
(g72
g58
NtRp1271
(dp1272
g61
(dp1273
sg70
g869
sg63
(lp1274
g56
(g77
g58
NtRp1275
(dp1276
g61
(dp1277
g81
g82
ssg70
g1271
sg63
(lp1278
S'http_x_requested_with'
p1279
asbag56
(g77
g58
NtRp1280
(dp1281
g61
(dp1282
g88
g89
ssg70
g1271
sg63
(lp1283
S':'
asbag56
(g77
g58
NtRp1284
(dp1285
g61
(dp1286
sg70
g1271
sg63
(lp1287
g56
(g57
g58
NtRp1288
(dp1289
g61
(dp1290
g69
I4
ssg70
g1284
sg63
(lp1291
S'XMLHttpRequest'
p1292
asbasbasbag56
(g72
g58
NtRp1293
(dp1294
g61
(dp1295
sg70
g869
sg63
(lp1296
g56
(g77
g58
NtRp1297
(dp1298
g61
(dp1299
g81
g82
ssg70
g1293
sg63
(lp1300
S'is_jython'
p1301
asbag56
(g77
g58
NtRp1302
(dp1303
g61
(dp1304
g88
g89
ssg70
g1293
sg63
(lp1305
S':'
asbag56
(g77
g58
NtRp1306
(dp1307
g61
(dp1308
sg70
g1293
sg63
(lp1309
g56
(g57
g58
NtRp1310
(dp1311
g61
(dp1312
g69
I4
ssg70
g1306
sg63
(lp1313
g1007
asbasbasbag56
(g72
g58
NtRp1314
(dp1315
g61
(dp1316
sg70
g869
sg63
(lp1317
g56
(g77
g58
NtRp1318
(dp1319
g61
(dp1320
g81
g82
ssg70
g1314
sg63
(lp1321
S'path_info'
p1322
asbag56
(g77
g58
NtRp1323
(dp1324
g61
(dp1325
g88
g89
ssg70
g1314
sg63
(lp1326
S':'
asbag56
(g77
g58
NtRp1327
(dp1328
g61
(dp1329
sg70
g1314
sg63
(lp1330
g56
(g57
g58
NtRp1331
(dp1332
g61
(dp1333
g69
I4
ssg70
g1327
sg63
(lp1334
S'/topoi/plugin_ajaxselect/set_widget.load/notes.author/10'
p1335
asbasbasbag56
(g72
g58
NtRp1336
(dp1337
g61
(dp1338
sg70
g869
sg63
(lp1339
g56
(g77
g58
NtRp1340
(dp1341
g61
(dp1342
g81
g82
ssg70
g1336
sg63
(lp1343
S'query_string'
p1344
asbag56
(g77
g58
NtRp1345
(dp1346
g61
(dp1347
g88
g89
ssg70
g1336
sg63
(lp1348
S':'
asbag56
(g77
g58
NtRp1349
(dp1350
g61
(dp1351
sg70
g1336
sg63
(lp1352
g56
(g57
g58
NtRp1353
(dp1354
g61
(dp1355
g69
I4
ssg70
g1349
sg63
(lp1356
S''
asbasbasbag56
(g72
g58
NtRp1357
(dp1358
g61
(dp1359
sg70
g869
sg63
(lp1360
g56
(g77
g58
NtRp1361
(dp1362
g61
(dp1363
g81
g82
ssg70
g1357
sg63
(lp1364
S'remote_addr'
p1365
asbag56
(g77
g58
NtRp1366
(dp1367
g61
(dp1368
g88
g89
ssg70
g1357
sg63
(lp1369
S':'
asbag56
(g77
g58
NtRp1370
(dp1371
g61
(dp1372
sg70
g1357
sg63
(lp1373
g56
(g57
g58
NtRp1374
(dp1375
g61
(dp1376
g69
I4
ssg70
g1370
sg63
(lp1377
g237
asbasbasbag56
(g72
g58
NtRp1378
(dp1379
g61
(dp1380
sg70
g869
sg63
(lp1381
g56
(g77
g58
NtRp1382
(dp1383
g61
(dp1384
g81
g82
ssg70
g1378
sg63
(lp1385
S'remote_port'
p1386
asbag56
(g77
g58
NtRp1387
(dp1388
g61
(dp1389
g88
g89
ssg70
g1378
sg63
(lp1390
S':'
asbag56
(g77
g58
NtRp1391
(dp1392
g61
(dp1393
sg70
g1378
sg63
(lp1394
g56
(g57
g58
NtRp1395
(dp1396
g61
(dp1397
g69
I4
ssg70
g1391
sg63
(lp1398
S'51922'
p1399
asbasbasbag56
(g72
g58
NtRp1400
(dp1401
g61
(dp1402
sg70
g869
sg63
(lp1403
g56
(g77
g58
NtRp1404
(dp1405
g61
(dp1406
g81
g82
ssg70
g1400
sg63
(lp1407
S'request_method'
p1408
asbag56
(g77
g58
NtRp1409
(dp1410
g61
(dp1411
g88
g89
ssg70
g1400
sg63
(lp1412
S':'
asbag56
(g77
g58
NtRp1413
(dp1414
g61
(dp1415
sg70
g1400
sg63
(lp1416
g56
(g57
g58
NtRp1417
(dp1418
g61
(dp1419
g69
I4
ssg70
g1413
sg63
(lp1420
S'GET'
p1421
asbasbasbag56
(g72
g58
NtRp1422
(dp1423
g61
(dp1424
sg70
g869
sg63
(lp1425
g56
(g77
g58
NtRp1426
(dp1427
g61
(dp1428
g81
g82
ssg70
g1422
sg63
(lp1429
S'script_name'
p1430
asbag56
(g77
g58
NtRp1431
(dp1432
g61
(dp1433
g88
g89
ssg70
g1422
sg63
(lp1434
S':'
asbag56
(g77
g58
NtRp1435
(dp1436
g61
(dp1437
sg70
g1422
sg63
(lp1438
g56
(g57
g58
NtRp1439
(dp1440
g61
(dp1441
g69
I4
ssg70
g1435
sg63
(lp1442
S''
asbasbasbag56
(g72
g58
NtRp1443
(dp1444
g61
(dp1445
sg70
g869
sg63
(lp1446
g56
(g77
g58
NtRp1447
(dp1448
g61
(dp1449
g81
g82
ssg70
g1443
sg63
(lp1450
S'server_name'
p1451
asbag56
(g77
g58
NtRp1452
(dp1453
g61
(dp1454
g88
g89
ssg70
g1443
sg63
(lp1455
S':'
asbag56
(g77
g58
NtRp1456
(dp1457
g61
(dp1458
sg70
g1443
sg63
(lp1459
g56
(g57
g58
NtRp1460
(dp1461
g61
(dp1462
g69
I4
ssg70
g1456
sg63
(lp1463
S'Ariel-ubuntu'
p1464
asbasbasbag56
(g72
g58
NtRp1465
(dp1466
g61
(dp1467
sg70
g869
sg63
(lp1468
g56
(g77
g58
NtRp1469
(dp1470
g61
(dp1471
g81
g82
ssg70
g1465
sg63
(lp1472
S'server_port'
p1473
asbag56
(g77
g58
NtRp1474
(dp1475
g61
(dp1476
g88
g89
ssg70
g1465
sg63
(lp1477
S':'
asbag56
(g77
g58
NtRp1478
(dp1479
g61
(dp1480
sg70
g1465
sg63
(lp1481
g56
(g57
g58
NtRp1482
(dp1483
g61
(dp1484
g69
I4
ssg70
g1478
sg63
(lp1485
S'8000'
p1486
asbasbasbag56
(g72
g58
NtRp1487
(dp1488
g61
(dp1489
sg70
g869
sg63
(lp1490
g56
(g77
g58
NtRp1491
(dp1492
g61
(dp1493
g81
g82
ssg70
g1487
sg63
(lp1494
S'server_protocol'
p1495
asbag56
(g77
g58
NtRp1496
(dp1497
g61
(dp1498
g88
g89
ssg70
g1487
sg63
(lp1499
S':'
asbag56
(g77
g58
NtRp1500
(dp1501
g61
(dp1502
sg70
g1487
sg63
(lp1503
g56
(g57
g58
NtRp1504
(dp1505
g61
(dp1506
g69
I4
ssg70
g1500
sg63
(lp1507
S'HTTP/1.1'
p1508
asbasbasbag56
(g72
g58
NtRp1509
(dp1510
g61
(dp1511
sg70
g869
sg63
(lp1512
g56
(g77
g58
NtRp1513
(dp1514
g61
(dp1515
g81
g82
ssg70
g1509
sg63
(lp1516
S'server_software'
p1517
asbag56
(g77
g58
NtRp1518
(dp1519
g61
(dp1520
g88
g89
ssg70
g1509
sg63
(lp1521
S':'
asbag56
(g77
g58
NtRp1522
(dp1523
g61
(dp1524
sg70
g1509
sg63
(lp1525
g56
(g57
g58
NtRp1526
(dp1527
g61
(dp1528
g69
I4
ssg70
g1522
sg63
(lp1529
S'Rocket 1.2.4'
p1530
asbasbasbag56
(g72
g58
NtRp1531
(dp1532
g61
(dp1533
sg70
g869
sg63
(lp1534
g56
(g77
g58
NtRp1535
(dp1536
g61
(dp1537
g81
g82
ssg70
g1531
sg63
(lp1538
S'web2py_crontype'
p1539
asbag56
(g77
g58
NtRp1540
(dp1541
g61
(dp1542
g88
g89
ssg70
g1531
sg63
(lp1543
S':'
asbag56
(g77
g58
NtRp1544
(dp1545
g61
(dp1546
sg70
g1531
sg63
(lp1547
g56
(g57
g58
NtRp1548
(dp1549
g61
(dp1550
g69
I4
ssg70
g1544
sg63
(lp1551
S'hard'
p1552
asbasbasbag56
(g72
g58
NtRp1553
(dp1554
g61
(dp1555
sg70
g869
sg63
(lp1556
g56
(g77
g58
NtRp1557
(dp1558
g61
(dp1559
g81
g82
ssg70
g1553
sg63
(lp1560
S'web2py_path'
p1561
asbag56
(g77
g58
NtRp1562
(dp1563
g61
(dp1564
g88
g89
ssg70
g1553
sg63
(lp1565
S':'
asbag56
(g77
g58
NtRp1566
(dp1567
g61
(dp1568
sg70
g1553
sg63
(lp1569
g56
(g57
g58
NtRp1570
(dp1571
g61
(dp1572
g69
I4
ssg70
g1566
sg63
(lp1573
g916
asbasbasbag56
(g72
g58
NtRp1574
(dp1575
g61
(dp1576
sg70
g869
sg63
(lp1577
g56
(g77
g58
NtRp1578
(dp1579
g61
(dp1580
g81
g82
ssg70
g1574
sg63
(lp1581
S'web2py_version'
p1582
asbag56
(g77
g58
NtRp1583
(dp1584
g61
(dp1585
g88
g89
ssg70
g1574
sg63
(lp1586
S':'
asbag56
(g77
g58
NtRp1587
(dp1588
g61
(dp1589
sg70
g1574
sg63
(lp1590
g56
(g57
g58
NtRp1591
(dp1592
g61
(dp1593
g69
I4
ssg70
g1587
sg63
(lp1594
g56
(g65
g58
NtRp1595
(dp1596
g61
(dp1597
g69
I3
ssg70
Nsg63
(lp1598
g56
(g72
g58
NtRp1599
(dp1600
g61
(dp1601
sg70
g1595
sg63
(lp1602
g56
(g77
g58
NtRp1603
(dp1604
g61
(dp1605
sg70
g1599
sg63
(lp1606
g56
(g57
g58
NtRp1607
(dp1608
g61
(dp1609
g69
I3
ssg70
g1603
sg63
(lp1610
S'1'
asbasbasbag56
(g72
g58
NtRp1611
(dp1612
g61
(dp1613
sg70
g1595
sg63
(lp1614
g56
(g77
g58
NtRp1615
(dp1616
g61
(dp1617
sg70
g1611
sg63
(lp1618
g56
(g57
g58
NtRp1619
(dp1620
g61
(dp1621
g69
I3
ssg70
g1615
sg63
(lp1622
S'99'
p1623
asbasbasbag56
(g72
g58
NtRp1624
(dp1625
g61
(dp1626
sg70
g1595
sg63
(lp1627
g56
(g77
g58
NtRp1628
(dp1629
g61
(dp1630
sg70
g1624
sg63
(lp1631
g56
(g57
g58
NtRp1632
(dp1633
g61
(dp1634
g69
I3
ssg70
g1628
sg63
(lp1635
S'2'
asbasbasbag56
(g72
g58
NtRp1636
(dp1637
g61
(dp1638
sg70
g1595
sg63
(lp1639
g56
(g77
g58
NtRp1640
(dp1641
g61
(dp1642
sg70
g1636
sg63
(lp1643
g56
(g57
g58
NtRp1644
(dp1645
g61
(dp1646
g69
I3
ssg70
g1640
sg63
(lp1647
S'datetime.datetime(2011, 9, 26, 6, 55, 33)'
p1648
asbasbasbag56
(g72
g58
NtRp1649
(dp1650
g61
(dp1651
sg70
g1595
sg63
(lp1652
g56
(g77
g58
NtRp1653
(dp1654
g61
(dp1655
sg70
g1649
sg63
(lp1656
g56
(g57
g58
NtRp1657
(dp1658
g61
(dp1659
g69
I3
ssg70
g1653
sg63
(lp1660
S'stable'
p1661
asbasbasbasbasbasbasbag56
(g72
g58
NtRp1662
(dp1663
g61
(dp1664
sg70
g869
sg63
(lp1665
g56
(g77
g58
NtRp1666
(dp1667
g61
(dp1668
g81
g82
ssg70
g1662
sg63
(lp1669
S'wsgi_errors'
p1670
asbag56
(g77
g58
NtRp1671
(dp1672
g61
(dp1673
g88
g89
ssg70
g1662
sg63
(lp1674
S':'
asbag56
(g77
g58
NtRp1675
(dp1676
g61
(dp1677
sg70
g1662
sg63
(lp1678
g56
(g57
g58
NtRp1679
(dp1680
g61
(dp1681
g69
I4
ssg70
g1675
sg63
(lp1682
S"<open file '<stderr>', mode 'w' at 0x7f70b615b270>"
p1683
asbasbasbag56
(g72
g58
NtRp1684
(dp1685
g61
(dp1686
sg70
g869
sg63
(lp1687
g56
(g77
g58
NtRp1688
(dp1689
g61
(dp1690
g81
g82
ssg70
g1684
sg63
(lp1691
S'wsgi_file_wrapper'
p1692
asbag56
(g77
g58
NtRp1693
(dp1694
g61
(dp1695
g88
g89
ssg70
g1684
sg63
(lp1696
S':'
asbag56
(g77
g58
NtRp1697
(dp1698
g61
(dp1699
sg70
g1684
sg63
(lp1700
g56
(g57
g58
NtRp1701
(dp1702
g61
(dp1703
g69
I4
ssg70
g1697
sg63
(lp1704
S'<class wsgiref.util.FileWrapper at 0x2d0c7a0>'
p1705
asbasbasbag56
(g72
g58
NtRp1706
(dp1707
g61
(dp1708
sg70
g869
sg63
(lp1709
g56
(g77
g58
NtRp1710
(dp1711
g61
(dp1712
g81
g82
ssg70
g1706
sg63
(lp1713
S'wsgi_input'
p1714
asbag56
(g77
g58
NtRp1715
(dp1716
g61
(dp1717
g88
g89
ssg70
g1706
sg63
(lp1718
S':'
asbag56
(g77
g58
NtRp1719
(dp1720
g61
(dp1721
sg70
g1706
sg63
(lp1722
g56
(g57
g58
NtRp1723
(dp1724
g61
(dp1725
g69
I4
ssg70
g1719
sg63
(lp1726
S'<socket._fileobject object at 0x33cc7d0>'
p1727
asbasbasbag56
(g72
g58
NtRp1728
(dp1729
g61
(dp1730
sg70
g869
sg63
(lp1731
g56
(g77
g58
NtRp1732
(dp1733
g61
(dp1734
g81
g82
ssg70
g1728
sg63
(lp1735
S'wsgi_multiprocess'
p1736
asbag56
(g77
g58
NtRp1737
(dp1738
g61
(dp1739
g88
g89
ssg70
g1728
sg63
(lp1740
S':'
asbag56
(g77
g58
NtRp1741
(dp1742
g61
(dp1743
sg70
g1728
sg63
(lp1744
g56
(g57
g58
NtRp1745
(dp1746
g61
(dp1747
g69
I4
ssg70
g1741
sg63
(lp1748
g1007
asbasbasbag56
(g72
g58
NtRp1749
(dp1750
g61
(dp1751
sg70
g869
sg63
(lp1752
g56
(g77
g58
NtRp1753
(dp1754
g61
(dp1755
g81
g82
ssg70
g1749
sg63
(lp1756
S'wsgi_multithread'
p1757
asbag56
(g77
g58
NtRp1758
(dp1759
g61
(dp1760
g88
g89
ssg70
g1749
sg63
(lp1761
S':'
asbag56
(g77
g58
NtRp1762
(dp1763
g61
(dp1764
sg70
g1749
sg63
(lp1765
g56
(g57
g58
NtRp1766
(dp1767
g61
(dp1768
g69
I4
ssg70
g1762
sg63
(lp1769
g99
asbasbasbag56
(g72
g58
NtRp1770
(dp1771
g61
(dp1772
sg70
g869
sg63
(lp1773
g56
(g77
g58
NtRp1774
(dp1775
g61
(dp1776
g81
g82
ssg70
g1770
sg63
(lp1777
S'wsgi_run_once'
p1778
asbag56
(g77
g58
NtRp1779
(dp1780
g61
(dp1781
g88
g89
ssg70
g1770
sg63
(lp1782
S':'
asbag56
(g77
g58
NtRp1783
(dp1784
g61
(dp1785
sg70
g1770
sg63
(lp1786
g56
(g57
g58
NtRp1787
(dp1788
g61
(dp1789
g69
I4
ssg70
g1783
sg63
(lp1790
g1007
asbasbasbag56
(g72
g58
NtRp1791
(dp1792
g61
(dp1793
sg70
g869
sg63
(lp1794
g56
(g77
g58
NtRp1795
(dp1796
g61
(dp1797
g81
g82
ssg70
g1791
sg63
(lp1798
S'wsgi_url_scheme'
p1799
asbag56
(g77
g58
NtRp1800
(dp1801
g61
(dp1802
g88
g89
ssg70
g1791
sg63
(lp1803
S':'
asbag56
(g77
g58
NtRp1804
(dp1805
g61
(dp1806
sg70
g1791
sg63
(lp1807
g56
(g57
g58
NtRp1808
(dp1809
g61
(dp1810
g69
I4
ssg70
g1804
sg63
(lp1811
S'http'
p1812
asbasbasbag56
(g72
g58
NtRp1813
(dp1814
g61
(dp1815
sg70
g869
sg63
(lp1816
g56
(g77
g58
NtRp1817
(dp1818
g61
(dp1819
g81
g82
ssg70
g1813
sg63
(lp1820
S'wsgi_version'
p1821
asbag56
(g77
g58
NtRp1822
(dp1823
g61
(dp1824
g88
g89
ssg70
g1813
sg63
(lp1825
S':'
asbag56
(g77
g58
NtRp1826
(dp1827
g61
(dp1828
sg70
g1813
sg63
(lp1829
g56
(g57
g58
NtRp1830
(dp1831
g61
(dp1832
g69
I4
ssg70
g1826
sg63
(lp1833
g56
(g65
g58
NtRp1834
(dp1835
g61
(dp1836
g69
I3
ssg70
Nsg63
(lp1837
g56
(g72
g58
NtRp1838
(dp1839
g61
(dp1840
sg70
g1834
sg63
(lp1841
g56
(g77
g58
NtRp1842
(dp1843
g61
(dp1844
sg70
g1838
sg63
(lp1845
g56
(g57
g58
NtRp1846
(dp1847
g61
(dp1848
g69
I3
ssg70
g1842
sg63
(lp1849
S'1'
asbasbasbag56
(g72
g58
NtRp1850
(dp1851
g61
(dp1852
sg70
g1834
sg63
(lp1853
g56
(g77
g58
NtRp1854
(dp1855
g61
(dp1856
sg70
g1850
sg63
(lp1857
g56
(g57
g58
NtRp1858
(dp1859
g61
(dp1860
g69
I3
ssg70
g1854
sg63
(lp1861
S'0'
asbasbasbasbasbasbasbasbasbasbasbag56
(g72
g58
NtRp1862
(dp1863
g61
(dp1864
sg70
g66
sg63
(lp1865
g56
(g77
g58
NtRp1866
(dp1867
g61
(dp1868
g81
g82
ssg70
g1862
sg63
(lp1869
S'extension'
p1870
asbag56
(g77
g58
NtRp1871
(dp1872
g61
(dp1873
g88
g89
ssg70
g1862
sg63
(lp1874
S':'
asbag56
(g77
g58
NtRp1875
(dp1876
g61
(dp1877
sg70
g1862
sg63
(lp1878
g56
(g57
g58
NtRp1879
(dp1880
g61
(dp1881
g69
I5
ssg70
g1875
sg63
(lp1882
S'load'
p1883
asbasbasbag56
(g72
g58
NtRp1884
(dp1885
g61
(dp1886
sg70
g66
sg63
(lp1887
g56
(g77
g58
NtRp1888
(dp1889
g61
(dp1890
g81
g82
ssg70
g1884
sg63
(lp1891
S'folder'
p1892
asbag56
(g77
g58
NtRp1893
(dp1894
g61
(dp1895
g88
g89
ssg70
g1884
sg63
(lp1896
S':'
asbag56
(g77
g58
NtRp1897
(dp1898
g61
(dp1899
sg70
g1884
sg63
(lp1900
g56
(g57
g58
NtRp1901
(dp1902
g61
(dp1903
g69
I5
ssg70
g1897
sg63
(lp1904
S'/home/ian/web2py/applications/topoi/'
p1905
asbasbasbag56
(g72
g58
NtRp1906
(dp1907
g61
(dp1908
sg70
g66
sg63
(lp1909
g56
(g77
g58
NtRp1910
(dp1911
g61
(dp1912
g81
g82
ssg70
g1906
sg63
(lp1913
S'function'
p1914
asbag56
(g77
g58
NtRp1915
(dp1916
g61
(dp1917
g88
g89
ssg70
g1906
sg63
(lp1918
S':'
asbag56
(g77
g58
NtRp1919
(dp1920
g61
(dp1921
sg70
g1906
sg63
(lp1922
g56
(g57
g58
NtRp1923
(dp1924
g61
(dp1925
g69
I5
ssg70
g1919
sg63
(lp1926
S'set_widget'
p1927
asbasbasbag56
(g72
g58
NtRp1928
(dp1929
g61
(dp1930
sg70
g66
sg63
(lp1931
g56
(g77
g58
NtRp1932
(dp1933
g61
(dp1934
g81
g82
ssg70
g1928
sg63
(lp1935
S'get_vars'
p1936
asbag56
(g77
g58
NtRp1937
(dp1938
g61
(dp1939
g88
g89
ssg70
g1928
sg63
(lp1940
S':'
asbag56
(g77
g58
NtRp1941
(dp1942
g61
(dp1943
sg70
g1928
sg63
(lp1944
g56
(g57
g58
NtRp1945
(dp1946
g61
(dp1947
g69
I5
ssg70
g1941
sg63
(lp1948
g56
(g65
g58
NtRp1949
(dp1950
g61
(dp1951
g69
I4
ssg70
Nsg63
(lp1952
sbasbasbasbag56
(g72
g58
NtRp1953
(dp1954
g61
(dp1955
sg70
g66
sg63
(lp1956
g56
(g77
g58
NtRp1957
(dp1958
g61
(dp1959
g81
g82
ssg70
g1953
sg63
(lp1960
S'global_settings'
p1961
asbag56
(g77
g58
NtRp1962
(dp1963
g61
(dp1964
g88
g89
ssg70
g1953
sg63
(lp1965
S':'
asbag56
(g77
g58
NtRp1966
(dp1967
g61
(dp1968
sg70
g1953
sg63
(lp1969
g56
(g57
g58
NtRp1970
(dp1971
g61
(dp1972
g69
I5
ssg70
g1966
sg63
(lp1973
g56
(g65
g58
NtRp1974
(dp1975
g61
(dp1976
g69
I4
ssg70
Nsg63
(lp1977
g56
(g72
g58
NtRp1978
(dp1979
g61
(dp1980
sg70
g1974
sg63
(lp1981
g56
(g77
g58
NtRp1982
(dp1983
g61
(dp1984
g81
g82
ssg70
g1978
sg63
(lp1985
g881
asbag56
(g77
g58
NtRp1986
(dp1987
g61
(dp1988
g88
g89
ssg70
g1978
sg63
(lp1989
S':'
asbag56
(g77
g58
NtRp1990
(dp1991
g61
(dp1992
sg70
g1978
sg63
(lp1993
g56
(g57
g58
NtRp1994
(dp1995
g61
(dp1996
g69
I4
ssg70
g1990
sg63
(lp1997
S"set(['/home/ian/web2py/applications/topoi/', '/home/ian/web2py/applications/welcome/', '/home/ian/web2py/applications/admin/'])"
p1998
asbasbasbag56
(g72
g58
NtRp1999
(dp2000
g61
(dp2001
sg70
g1974
sg63
(lp2002
g56
(g77
g58
NtRp2003
(dp2004
g61
(dp2005
g81
g82
ssg70
g1999
sg63
(lp2006
g903
asbag56
(g77
g58
NtRp2007
(dp2008
g61
(dp2009
g88
g89
ssg70
g1999
sg63
(lp2010
S':'
asbag56
(g77
g58
NtRp2011
(dp2012
g61
(dp2013
sg70
g1999
sg63
(lp2014
g56
(g57
g58
NtRp2015
(dp2016
g61
(dp2017
g69
I4
ssg70
g2011
sg63
(lp2018
g916
asbasbasbag56
(g72
g58
NtRp2019
(dp2020
g61
(dp2021
sg70
g1974
sg63
(lp2022
g56
(g77
g58
NtRp2023
(dp2024
g61
(dp2025
g81
g82
ssg70
g2019
sg63
(lp2026
g925
asbag56
(g77
g58
NtRp2027
(dp2028
g61
(dp2029
g88
g89
ssg70
g2019
sg63
(lp2030
S':'
asbag56
(g77
g58
NtRp2031
(dp2032
g61
(dp2033
sg70
g2019
sg63
(lp2034
g56
(g57
g58
NtRp2035
(dp2036
g61
(dp2037
g69
I4
ssg70
g2031
sg63
(lp2038
g56
(g65
g58
NtRp2039
(dp2040
g61
(dp2041
g69
I3
ssg70
Nsg63
(lp2042
sbasbasbasbag56
(g72
g58
NtRp2043
(dp2044
g61
(dp2045
sg70
g1974
sg63
(lp2046
g56
(g77
g58
NtRp2047
(dp2048
g61
(dp2049
g81
g82
ssg70
g2043
sg63
(lp2050
g950
asbag56
(g77
g58
NtRp2051
(dp2052
g61
(dp2053
g88
g89
ssg70
g2043
sg63
(lp2054
S':'
asbag56
(g77
g58
NtRp2055
(dp2056
g61
(dp2057
sg70
g2043
sg63
(lp2058
g56
(g57
g58
NtRp2059
(dp2060
g61
(dp2061
g69
I4
ssg70
g2055
sg63
(lp2062
S"<Values at 0x2e417e8: {'verbose': False, 'ip': '127.0.0.1', 'shutdown_timeout': 5, 'taskbar': False, 'nocron': False, 'pid_filename': 'httpserver.pid', 'maxthreads': None, 'softcron': False, 'server_name': 'Ariel-ubuntu', 'bpython': False, 'nogui': False, 'port': 8000, 'extcron': False, 'debuglevel': 30, 'test': None, 'folder': '/home/ian/web2py', 'config': '', 'import_models': False, 'winservice': '', 'shell': None, 'run': '', 'log_filename': 'httpserver.log', 'args': [''], 'ssl_ca_certificate': None, 'scheduler': None, 'profiler_filename': None, 'ssl_private_key': '', 'password': '<ask>', 'request_queue_size': 5, 'ssl_certificate': '', 'cronjob': False, 'plain': False, 'quiet': False, 'interfaces': None, 'minthreads': None, 'timeout': 10, 'numthreads': None, 'nobanner': False}>"
p2063
asbasbasbag56
(g72
g58
NtRp2064
(dp2065
g61
(dp2066
sg70
g1974
sg63
(lp2067
g56
(g77
g58
NtRp2068
(dp2069
g61
(dp2070
g81
g82
ssg70
g2064
sg63
(lp2071
g972
asbag56
(g77
g58
NtRp2072
(dp2073
g61
(dp2074
g88
g89
ssg70
g2064
sg63
(lp2075
S':'
asbag56
(g77
g58
NtRp2076
(dp2077
g61
(dp2078
sg70
g2064
sg63
(lp2079
g56
(g57
g58
NtRp2080
(dp2081
g61
(dp2082
g69
I4
ssg70
g2076
sg63
(lp2083
S'set([])'
p2084
asbasbasbag56
(g72
g58
NtRp2085
(dp2086
g61
(dp2087
sg70
g1974
sg63
(lp2088
g56
(g77
g58
NtRp2089
(dp2090
g61
(dp2091
g81
g82
ssg70
g2085
sg63
(lp2092
g994
asbag56
(g77
g58
NtRp2093
(dp2094
g61
(dp2095
g88
g89
ssg70
g2085
sg63
(lp2096
S':'
asbag56
(g77
g58
NtRp2097
(dp2098
g61
(dp2099
sg70
g2085
sg63
(lp2100
g56
(g57
g58
NtRp2101
(dp2102
g61
(dp2103
g69
I4
ssg70
g2097
sg63
(lp2104
g1007
asbasbasbag56
(g72
g58
NtRp2105
(dp2106
g61
(dp2107
sg70
g1974
sg63
(lp2108
g56
(g77
g58
NtRp2109
(dp2110
g61
(dp2111
g81
g82
ssg70
g2105
sg63
(lp2112
g1016
asbag56
(g77
g58
NtRp2113
(dp2114
g61
(dp2115
g88
g89
ssg70
g2105
sg63
(lp2116
S':'
asbag56
(g77
g58
NtRp2117
(dp2118
g61
(dp2119
sg70
g2105
sg63
(lp2120
g56
(g57
g58
NtRp2121
(dp2122
g61
(dp2123
g69
I4
ssg70
g2117
sg63
(lp2124
g1029
asbasbasbag56
(g72
g58
NtRp2125
(dp2126
g61
(dp2127
sg70
g1974
sg63
(lp2128
g56
(g77
g58
NtRp2129
(dp2130
g61
(dp2131
g81
g82
ssg70
g2125
sg63
(lp2132
g1301
asbag56
(g77
g58
NtRp2133
(dp2134
g61
(dp2135
g88
g89
ssg70
g2125
sg63
(lp2136
S':'
asbag56
(g77
g58
NtRp2137
(dp2138
g61
(dp2139
sg70
g2125
sg63
(lp2140
g56
(g57
g58
NtRp2141
(dp2142
g61
(dp2143
g69
I4
ssg70
g2137
sg63
(lp2144
g1007
asbasbasbag56
(g72
g58
NtRp2145
(dp2146
g61
(dp2147
sg70
g1974
sg63
(lp2148
g56
(g77
g58
NtRp2149
(dp2150
g61
(dp2151
g81
g82
ssg70
g2145
sg63
(lp2152
g1539
asbag56
(g77
g58
NtRp2153
(dp2154
g61
(dp2155
g88
g89
ssg70
g2145
sg63
(lp2156
S':'
asbag56
(g77
g58
NtRp2157
(dp2158
g61
(dp2159
sg70
g2145
sg63
(lp2160
g56
(g57
g58
NtRp2161
(dp2162
g61
(dp2163
g69
I4
ssg70
g2157
sg63
(lp2164
g1552
asbasbasbag56
(g72
g58
NtRp2165
(dp2166
g61
(dp2167
sg70
g1974
sg63
(lp2168
g56
(g77
g58
NtRp2169
(dp2170
g61
(dp2171
g81
g82
ssg70
g2165
sg63
(lp2172
g1582
asbag56
(g77
g58
NtRp2173
(dp2174
g61
(dp2175
g88
g89
ssg70
g2165
sg63
(lp2176
S':'
asbag56
(g77
g58
NtRp2177
(dp2178
g61
(dp2179
sg70
g2165
sg63
(lp2180
g56
(g57
g58
NtRp2181
(dp2182
g61
(dp2183
g69
I4
ssg70
g2177
sg63
(lp2184
g56
(g65
g58
NtRp2185
(dp2186
g61
(dp2187
g69
I3
ssg70
Nsg63
(lp2188
g56
(g72
g58
NtRp2189
(dp2190
g61
(dp2191
sg70
g2185
sg63
(lp2192
g56
(g77
g58
NtRp2193
(dp2194
g61
(dp2195
sg70
g2189
sg63
(lp2196
g56
(g57
g58
NtRp2197
(dp2198
g61
(dp2199
g69
I3
ssg70
g2193
sg63
(lp2200
S'1'
asbasbasbag56
(g72
g58
NtRp2201
(dp2202
g61
(dp2203
sg70
g2185
sg63
(lp2204
g56
(g77
g58
NtRp2205
(dp2206
g61
(dp2207
sg70
g2201
sg63
(lp2208
g56
(g57
g58
NtRp2209
(dp2210
g61
(dp2211
g69
I3
ssg70
g2205
sg63
(lp2212
S'99'
p2213
asbasbasbag56
(g72
g58
NtRp2214
(dp2215
g61
(dp2216
sg70
g2185
sg63
(lp2217
g56
(g77
g58
NtRp2218
(dp2219
g61
(dp2220
sg70
g2214
sg63
(lp2221
g56
(g57
g58
NtRp2222
(dp2223
g61
(dp2224
g69
I3
ssg70
g2218
sg63
(lp2225
S'2'
asbasbasbag56
(g72
g58
NtRp2226
(dp2227
g61
(dp2228
sg70
g2185
sg63
(lp2229
g56
(g77
g58
NtRp2230
(dp2231
g61
(dp2232
sg70
g2226
sg63
(lp2233
g56
(g57
g58
NtRp2234
(dp2235
g61
(dp2236
g69
I3
ssg70
g2230
sg63
(lp2237
S'datetime.datetime(2011, 9, 26, 6, 55, 33)'
p2238
asbasbasbag56
(g72
g58
NtRp2239
(dp2240
g61
(dp2241
sg70
g2185
sg63
(lp2242
g56
(g77
g58
NtRp2243
(dp2244
g61
(dp2245
sg70
g2239
sg63
(lp2246
g56
(g57
g58
NtRp2247
(dp2248
g61
(dp2249
g69
I3
ssg70
g2243
sg63
(lp2250
g1661
asbasbasbasbasbasbasbasbasbasbasbag56
(g72
g58
NtRp2251
(dp2252
g61
(dp2253
sg70
g66
sg63
(lp2254
g56
(g77
g58
NtRp2255
(dp2256
g61
(dp2257
g81
g82
ssg70
g2251
sg63
(lp2258
S'is_https'
p2259
asbag56
(g77
g58
NtRp2260
(dp2261
g61
(dp2262
g88
g89
ssg70
g2251
sg63
(lp2263
S':'
asbag56
(g77
g58
NtRp2264
(dp2265
g61
(dp2266
sg70
g2251
sg63
(lp2267
g56
(g57
g58
NtRp2268
(dp2269
g61
(dp2270
g69
I5
ssg70
g2264
sg63
(lp2271
g1007
asbasbasbag56
(g72
g58
NtRp2272
(dp2273
g61
(dp2274
sg70
g66
sg63
(lp2275
g56
(g77
g58
NtRp2276
(dp2277
g61
(dp2278
g81
g82
ssg70
g2272
sg63
(lp2279
S'is_local'
p2280
asbag56
(g77
g58
NtRp2281
(dp2282
g61
(dp2283
g88
g89
ssg70
g2272
sg63
(lp2284
S':'
asbag56
(g77
g58
NtRp2285
(dp2286
g61
(dp2287
sg70
g2272
sg63
(lp2288
g56
(g57
g58
NtRp2289
(dp2290
g61
(dp2291
g69
I5
ssg70
g2285
sg63
(lp2292
g99
asbasbasbag56
(g72
g58
NtRp2293
(dp2294
g61
(dp2295
sg70
g66
sg63
(lp2296
g56
(g77
g58
NtRp2297
(dp2298
g61
(dp2299
g81
g82
ssg70
g2293
sg63
(lp2300
S'is_restful'
p2301
asbag56
(g77
g58
NtRp2302
(dp2303
g61
(dp2304
g88
g89
ssg70
g2293
sg63
(lp2305
S':'
asbag56
(g77
g58
NtRp2306
(dp2307
g61
(dp2308
sg70
g2293
sg63
(lp2309
g56
(g57
g58
NtRp2310
(dp2311
g61
(dp2312
g69
I5
ssg70
g2306
sg63
(lp2313
g1007
asbasbasbag56
(g72
g58
NtRp2314
(dp2315
g61
(dp2316
sg70
g66
sg63
(lp2317
g56
(g77
g58
NtRp2318
(dp2319
g61
(dp2320
g81
g82
ssg70
g2314
sg63
(lp2321
S'now'
p2322
asbag56
(g77
g58
NtRp2323
(dp2324
g61
(dp2325
g88
g89
ssg70
g2314
sg63
(lp2326
S':'
asbag56
(g77
g58
NtRp2327
(dp2328
g61
(dp2329
sg70
g2314
sg63
(lp2330
g56
(g57
g58
NtRp2331
(dp2332
g61
(dp2333
g69
I5
ssg70
g2327
sg63
(lp2334
S'datetime.datetime(2011, 12, 11, 15, 49, 45, 719236)'
p2335
asbasbasbag56
(g72
g58
NtRp2336
(dp2337
g61
(dp2338
sg70
g66
sg63
(lp2339
g56
(g77
g58
NtRp2340
(dp2341
g61
(dp2342
g81
g82
ssg70
g2336
sg63
(lp2343
S'post_vars'
p2344
asbag56
(g77
g58
NtRp2345
(dp2346
g61
(dp2347
g88
g89
ssg70
g2336
sg63
(lp2348
S':'
asbag56
(g77
g58
NtRp2349
(dp2350
g61
(dp2351
sg70
g2336
sg63
(lp2352
g56
(g57
g58
NtRp2353
(dp2354
g61
(dp2355
g69
I5
ssg70
g2349
sg63
(lp2356
g56
(g65
g58
NtRp2357
(dp2358
g61
(dp2359
g69
I4
ssg70
Nsg63
(lp2360
sbasbasbasbag56
(g72
g58
NtRp2361
(dp2362
g61
(dp2363
sg70
g66
sg63
(lp2364
g56
(g77
g58
NtRp2365
(dp2366
g61
(dp2367
g81
g82
ssg70
g2361
sg63
(lp2368
S'raw_args'
p2369
asbag56
(g77
g58
NtRp2370
(dp2371
g61
(dp2372
g88
g89
ssg70
g2361
sg63
(lp2373
S':'
asbag56
(g77
g58
NtRp2374
(dp2375
g61
(dp2376
sg70
g2361
sg63
(lp2377
g56
(g57
g58
NtRp2378
(dp2379
g61
(dp2380
g69
I5
ssg70
g2374
sg63
(lp2381
S'notes.author/10'
p2382
asbasbasbag56
(g72
g58
NtRp2383
(dp2384
g61
(dp2385
sg70
g66
sg63
(lp2386
g56
(g77
g58
NtRp2387
(dp2388
g61
(dp2389
g81
g82
ssg70
g2383
sg63
(lp2390
S'raw_extension'
p2391
asbag56
(g77
g58
NtRp2392
(dp2393
g61
(dp2394
g88
g89
ssg70
g2383
sg63
(lp2395
S':'
asbag56
(g77
g58
NtRp2396
(dp2397
g61
(dp2398
sg70
g2383
sg63
(lp2399
g56
(g57
g58
NtRp2400
(dp2401
g61
(dp2402
g69
I5
ssg70
g2396
sg63
(lp2403
g1883
asbasbasbag56
(g72
g58
NtRp2404
(dp2405
g61
(dp2406
sg70
g66
sg63
(lp2407
g56
(g77
g58
NtRp2408
(dp2409
g61
(dp2410
g81
g82
ssg70
g2404
sg63
(lp2411
S'url'
p2412
asbag56
(g77
g58
NtRp2413
(dp2414
g61
(dp2415
g88
g89
ssg70
g2404
sg63
(lp2416
S':'
asbag56
(g77
g58
NtRp2417
(dp2418
g61
(dp2419
sg70
g2404
sg63
(lp2420
g56
(g57
g58
NtRp2421
(dp2422
g61
(dp2423
g69
I5
ssg70
g2417
sg63
(lp2424
S'/topoi/plugin_ajaxselect/set_widget.load/notes.author/10'
p2425
asbasbasbag56
(g72
g58
NtRp2426
(dp2427
g61
(dp2428
sg70
g66
sg63
(lp2429
g56
(g77
g58
NtRp2430
(dp2431
g61
(dp2432
g81
g82
ssg70
g2426
sg63
(lp2433
S'utcnow'
p2434
asbag56
(g77
g58
NtRp2435
(dp2436
g61
(dp2437
g88
g89
ssg70
g2426
sg63
(lp2438
S':'
asbag56
(g77
g58
NtRp2439
(dp2440
g61
(dp2441
sg70
g2426
sg63
(lp2442
g56
(g57
g58
NtRp2443
(dp2444
g61
(dp2445
g69
I5
ssg70
g2439
sg63
(lp2446
S'datetime.datetime(2011, 12, 11, 20, 49, 45, 719281)'
p2447
asbasbasbag56
(g72
g58
NtRp2448
(dp2449
g61
(dp2450
sg70
g66
sg63
(lp2451
g56
(g77
g58
NtRp2452
(dp2453
g61
(dp2454
g81
g82
ssg70
g2448
sg63
(lp2455
S'uuid'
p2456
asbag56
(g77
g58
NtRp2457
(dp2458
g61
(dp2459
g88
g89
ssg70
g2448
sg63
(lp2460
S':'
asbag56
(g77
g58
NtRp2461
(dp2462
g61
(dp2463
sg70
g2448
sg63
(lp2464
g56
(g57
g58
NtRp2465
(dp2466
g61
(dp2467
g69
I5
ssg70
g2461
sg63
(lp2468
S'topoi/127.0.0.1.2011-12-11.15-49-45.fd567862-f58e-4de3-88f5-fa83189e468d'
p2469
asbasbasbag56
(g72
g58
NtRp2470
(dp2471
g61
(dp2472
sg70
g66
sg63
(lp2473
g56
(g77
g58
NtRp2474
(dp2475
g61
(dp2476
g81
g82
ssg70
g2470
sg63
(lp2477
S'vars'
p2478
asbag56
(g77
g58
NtRp2479
(dp2480
g61
(dp2481
g88
g89
ssg70
g2470
sg63
(lp2482
S':'
asbag56
(g77
g58
NtRp2483
(dp2484
g61
(dp2485
sg70
g2470
sg63
(lp2486
g56
(g57
g58
NtRp2487
(dp2488
g61
(dp2489
g69
I5
ssg70
g2483
sg63
(lp2490
g56
(g65
g58
NtRp2491
(dp2492
g61
(dp2493
g69
I4
ssg70
Nsg63
(lp2494
sbasbasbasbag56
(g72
g58
NtRp2495
(dp2496
g61
(dp2497
sg70
g66
sg63
(lp2498
g56
(g77
g58
NtRp2499
(dp2500
g61
(dp2501
g81
g82
ssg70
g2495
sg63
(lp2502
S'wsgi'
p2503
asbag56
(g77
g58
NtRp2504
(dp2505
g61
(dp2506
g88
g89
ssg70
g2495
sg63
(lp2507
S':'
asbag56
(g77
g58
NtRp2508
(dp2509
g61
(dp2510
sg70
g2495
sg63
(lp2511
g56
(g57
g58
NtRp2512
(dp2513
g61
(dp2514
g69
I5
ssg70
g2508
sg63
(lp2515
g56
(g65
g58
NtRp2516
(dp2517
g61
(dp2518
g69
I4
ssg70
Nsg63
(lp2519
g56
(g72
g58
NtRp2520
(dp2521
g61
(dp2522
sg70
g2516
sg63
(lp2523
g56
(g77
g58
NtRp2524
(dp2525
g61
(dp2526
g81
g82
ssg70
g2520
sg63
(lp2527
S'environ'
p2528
asbag56
(g77
g58
NtRp2529
(dp2530
g61
(dp2531
g88
g89
ssg70
g2520
sg63
(lp2532
S':'
asbag56
(g77
g58
NtRp2533
(dp2534
g61
(dp2535
sg70
g2520
sg63
(lp2536
g56
(g57
g58
NtRp2537
(dp2538
g61
(dp2539
g69
I4
ssg70
g2533
sg63
(lp2540
g56
(g65
g58
NtRp2541
(dp2542
g61
(dp2543
g69
I3
ssg70
Nsg63
(lp2544
g56
(g72
g58
NtRp2545
(dp2546
g61
(dp2547
sg70
g2541
sg63
(lp2548
g56
(g77
g58
NtRp2549
(dp2550
g61
(dp2551
g81
g82
ssg70
g2545
sg63
(lp2552
S'HTTP_ACCEPT'
p2553
asbag56
(g77
g58
NtRp2554
(dp2555
g61
(dp2556
g88
g89
ssg70
g2545
sg63
(lp2557
S':'
asbag56
(g77
g58
NtRp2558
(dp2559
g61
(dp2560
sg70
g2545
sg63
(lp2561
g56
(g57
g58
NtRp2562
(dp2563
g61
(dp2564
g69
I3
ssg70
g2558
sg63
(lp2565
g1051
asbasbasbag56
(g72
g58
NtRp2566
(dp2567
g61
(dp2568
sg70
g2541
sg63
(lp2569
g56
(g77
g58
NtRp2570
(dp2571
g61
(dp2572
g81
g82
ssg70
g2566
sg63
(lp2573
S'HTTP_ACCEPT_CHARSET'
p2574
asbag56
(g77
g58
NtRp2575
(dp2576
g61
(dp2577
g88
g89
ssg70
g2566
sg63
(lp2578
S':'
asbag56
(g77
g58
NtRp2579
(dp2580
g61
(dp2581
sg70
g2566
sg63
(lp2582
g56
(g57
g58
NtRp2583
(dp2584
g61
(dp2585
g69
I3
ssg70
g2579
sg63
(lp2586
g1073
asbasbasbag56
(g72
g58
NtRp2587
(dp2588
g61
(dp2589
sg70
g2541
sg63
(lp2590
g56
(g77
g58
NtRp2591
(dp2592
g61
(dp2593
g81
g82
ssg70
g2587
sg63
(lp2594
S'HTTP_ACCEPT_ENCODING'
p2595
asbag56
(g77
g58
NtRp2596
(dp2597
g61
(dp2598
g88
g89
ssg70
g2587
sg63
(lp2599
S':'
asbag56
(g77
g58
NtRp2600
(dp2601
g61
(dp2602
sg70
g2587
sg63
(lp2603
g56
(g57
g58
NtRp2604
(dp2605
g61
(dp2606
g69
I3
ssg70
g2600
sg63
(lp2607
g1095
asbasbasbag56
(g72
g58
NtRp2608
(dp2609
g61
(dp2610
sg70
g2541
sg63
(lp2611
g56
(g77
g58
NtRp2612
(dp2613
g61
(dp2614
g81
g82
ssg70
g2608
sg63
(lp2615
S'HTTP_ACCEPT_LANGUAGE'
p2616
asbag56
(g77
g58
NtRp2617
(dp2618
g61
(dp2619
g88
g89
ssg70
g2608
sg63
(lp2620
S':'
asbag56
(g77
g58
NtRp2621
(dp2622
g61
(dp2623
sg70
g2608
sg63
(lp2624
g56
(g57
g58
NtRp2625
(dp2626
g61
(dp2627
g69
I3
ssg70
g2621
sg63
(lp2628
g1117
asbasbasbag56
(g72
g58
NtRp2629
(dp2630
g61
(dp2631
sg70
g2541
sg63
(lp2632
g56
(g77
g58
NtRp2633
(dp2634
g61
(dp2635
g81
g82
ssg70
g2629
sg63
(lp2636
S'HTTP_CONNECTION'
p2637
asbag56
(g77
g58
NtRp2638
(dp2639
g61
(dp2640
g88
g89
ssg70
g2629
sg63
(lp2641
S':'
asbag56
(g77
g58
NtRp2642
(dp2643
g61
(dp2644
sg70
g2629
sg63
(lp2645
g56
(g57
g58
NtRp2646
(dp2647
g61
(dp2648
g69
I3
ssg70
g2642
sg63
(lp2649
g1139
asbasbasbag56
(g72
g58
NtRp2650
(dp2651
g61
(dp2652
sg70
g2541
sg63
(lp2653
g56
(g77
g58
NtRp2654
(dp2655
g61
(dp2656
g81
g82
ssg70
g2650
sg63
(lp2657
S'HTTP_COOKIE'
p2658
asbag56
(g77
g58
NtRp2659
(dp2660
g61
(dp2661
g88
g89
ssg70
g2650
sg63
(lp2662
S':'
asbag56
(g77
g58
NtRp2663
(dp2664
g61
(dp2665
sg70
g2650
sg63
(lp2666
g56
(g57
g58
NtRp2667
(dp2668
g61
(dp2669
g69
I3
ssg70
g2663
sg63
(lp2670
g1161
asbasbasbag56
(g72
g58
NtRp2671
(dp2672
g61
(dp2673
sg70
g2541
sg63
(lp2674
g56
(g77
g58
NtRp2675
(dp2676
g61
(dp2677
g81
g82
ssg70
g2671
sg63
(lp2678
S'HTTP_HOST'
p2679
asbag56
(g77
g58
NtRp2680
(dp2681
g61
(dp2682
g88
g89
ssg70
g2671
sg63
(lp2683
S':'
asbag56
(g77
g58
NtRp2684
(dp2685
g61
(dp2686
sg70
g2671
sg63
(lp2687
g56
(g57
g58
NtRp2688
(dp2689
g61
(dp2690
g69
I3
ssg70
g2684
sg63
(lp2691
g1183
asbasbasbag56
(g72
g58
NtRp2692
(dp2693
g61
(dp2694
sg70
g2541
sg63
(lp2695
g56
(g77
g58
NtRp2696
(dp2697
g61
(dp2698
g81
g82
ssg70
g2692
sg63
(lp2699
S'HTTP_REFERER'
p2700
asbag56
(g77
g58
NtRp2701
(dp2702
g61
(dp2703
g88
g89
ssg70
g2692
sg63
(lp2704
S':'
asbag56
(g77
g58
NtRp2705
(dp2706
g61
(dp2707
sg70
g2692
sg63
(lp2708
g56
(g57
g58
NtRp2709
(dp2710
g61
(dp2711
g69
I3
ssg70
g2705
sg63
(lp2712
g1205
asbasbasbag56
(g72
g58
NtRp2713
(dp2714
g61
(dp2715
sg70
g2541
sg63
(lp2716
g56
(g77
g58
NtRp2717
(dp2718
g61
(dp2719
g81
g82
ssg70
g2713
sg63
(lp2720
S'HTTP_USER_AGENT'
p2721
asbag56
(g77
g58
NtRp2722
(dp2723
g61
(dp2724
g88
g89
ssg70
g2713
sg63
(lp2725
S':'
asbag56
(g77
g58
NtRp2726
(dp2727
g61
(dp2728
sg70
g2713
sg63
(lp2729
g56
(g57
g58
NtRp2730
(dp2731
g61
(dp2732
g69
I3
ssg70
g2726
sg63
(lp2733
g1227
asbasbasbag56
(g72
g58
NtRp2734
(dp2735
g61
(dp2736
sg70
g2541
sg63
(lp2737
g56
(g77
g58
NtRp2738
(dp2739
g61
(dp2740
g81
g82
ssg70
g2734
sg63
(lp2741
S'HTTP_WEB2PY_COMPONENT_ELEMENT'
p2742
asbag56
(g77
g58
NtRp2743
(dp2744
g61
(dp2745
g88
g89
ssg70
g2734
sg63
(lp2746
S':'
asbag56
(g77
g58
NtRp2747
(dp2748
g61
(dp2749
sg70
g2734
sg63
(lp2750
g56
(g57
g58
NtRp2751
(dp2752
g61
(dp2753
g69
I3
ssg70
g2747
sg63
(lp2754
g215
asbasbasbag56
(g72
g58
NtRp2755
(dp2756
g61
(dp2757
sg70
g2541
sg63
(lp2758
g56
(g77
g58
NtRp2759
(dp2760
g61
(dp2761
g81
g82
ssg70
g2755
sg63
(lp2762
S'HTTP_WEB2PY_COMPONENT_LOCATION'
p2763
asbag56
(g77
g58
NtRp2764
(dp2765
g61
(dp2766
g88
g89
ssg70
g2755
sg63
(lp2767
S':'
asbag56
(g77
g58
NtRp2768
(dp2769
g61
(dp2770
sg70
g2755
sg63
(lp2771
g56
(g57
g58
NtRp2772
(dp2773
g61
(dp2774
g69
I3
ssg70
g2768
sg63
(lp2775
g1270
asbasbasbag56
(g72
g58
NtRp2776
(dp2777
g61
(dp2778
sg70
g2541
sg63
(lp2779
g56
(g77
g58
NtRp2780
(dp2781
g61
(dp2782
g81
g82
ssg70
g2776
sg63
(lp2783
S'HTTP_X_REQUESTED_WITH'
p2784
asbag56
(g77
g58
NtRp2785
(dp2786
g61
(dp2787
g88
g89
ssg70
g2776
sg63
(lp2788
S':'
asbag56
(g77
g58
NtRp2789
(dp2790
g61
(dp2791
sg70
g2776
sg63
(lp2792
g56
(g57
g58
NtRp2793
(dp2794
g61
(dp2795
g69
I3
ssg70
g2789
sg63
(lp2796
g1292
asbasbasbag56
(g72
g58
NtRp2797
(dp2798
g61
(dp2799
sg70
g2541
sg63
(lp2800
g56
(g77
g58
NtRp2801
(dp2802
g61
(dp2803
g81
g82
ssg70
g2797
sg63
(lp2804
S'PATH_INFO'
p2805
asbag56
(g77
g58
NtRp2806
(dp2807
g61
(dp2808
g88
g89
ssg70
g2797
sg63
(lp2809
S':'
asbag56
(g77
g58
NtRp2810
(dp2811
g61
(dp2812
sg70
g2797
sg63
(lp2813
g56
(g57
g58
NtRp2814
(dp2815
g61
(dp2816
g69
I3
ssg70
g2810
sg63
(lp2817
g1335
asbasbasbag56
(g72
g58
NtRp2818
(dp2819
g61
(dp2820
sg70
g2541
sg63
(lp2821
g56
(g77
g58
NtRp2822
(dp2823
g61
(dp2824
g81
g82
ssg70
g2818
sg63
(lp2825
S'QUERY_STRING'
p2826
asbag56
(g77
g58
NtRp2827
(dp2828
g61
(dp2829
g88
g89
ssg70
g2818
sg63
(lp2830
S':'
asbag56
(g77
g58
NtRp2831
(dp2832
g61
(dp2833
sg70
g2818
sg63
(lp2834
g56
(g57
g58
NtRp2835
(dp2836
g61
(dp2837
g69
I3
ssg70
g2831
sg63
(lp2838
S''
asbasbasbag56
(g72
g58
NtRp2839
(dp2840
g61
(dp2841
sg70
g2541
sg63
(lp2842
g56
(g77
g58
NtRp2843
(dp2844
g61
(dp2845
g81
g82
ssg70
g2839
sg63
(lp2846
S'REMOTE_ADDR'
p2847
asbag56
(g77
g58
NtRp2848
(dp2849
g61
(dp2850
g88
g89
ssg70
g2839
sg63
(lp2851
S':'
asbag56
(g77
g58
NtRp2852
(dp2853
g61
(dp2854
sg70
g2839
sg63
(lp2855
g56
(g57
g58
NtRp2856
(dp2857
g61
(dp2858
g69
I3
ssg70
g2852
sg63
(lp2859
g237
asbasbasbag56
(g72
g58
NtRp2860
(dp2861
g61
(dp2862
sg70
g2541
sg63
(lp2863
g56
(g77
g58
NtRp2864
(dp2865
g61
(dp2866
g81
g82
ssg70
g2860
sg63
(lp2867
S'REMOTE_PORT'
p2868
asbag56
(g77
g58
NtRp2869
(dp2870
g61
(dp2871
g88
g89
ssg70
g2860
sg63
(lp2872
S':'
asbag56
(g77
g58
NtRp2873
(dp2874
g61
(dp2875
sg70
g2860
sg63
(lp2876
g56
(g57
g58
NtRp2877
(dp2878
g61
(dp2879
g69
I3
ssg70
g2873
sg63
(lp2880
g1399
asbasbasbag56
(g72
g58
NtRp2881
(dp2882
g61
(dp2883
sg70
g2541
sg63
(lp2884
g56
(g77
g58
NtRp2885
(dp2886
g61
(dp2887
g81
g82
ssg70
g2881
sg63
(lp2888
S'REQUEST_METHOD'
p2889
asbag56
(g77
g58
NtRp2890
(dp2891
g61
(dp2892
g88
g89
ssg70
g2881
sg63
(lp2893
S':'
asbag56
(g77
g58
NtRp2894
(dp2895
g61
(dp2896
sg70
g2881
sg63
(lp2897
g56
(g57
g58
NtRp2898
(dp2899
g61
(dp2900
g69
I3
ssg70
g2894
sg63
(lp2901
g1421
asbasbasbag56
(g72
g58
NtRp2902
(dp2903
g61
(dp2904
sg70
g2541
sg63
(lp2905
g56
(g77
g58
NtRp2906
(dp2907
g61
(dp2908
g81
g82
ssg70
g2902
sg63
(lp2909
S'SCRIPT_NAME'
p2910
asbag56
(g77
g58
NtRp2911
(dp2912
g61
(dp2913
g88
g89
ssg70
g2902
sg63
(lp2914
S':'
asbag56
(g77
g58
NtRp2915
(dp2916
g61
(dp2917
sg70
g2902
sg63
(lp2918
g56
(g57
g58
NtRp2919
(dp2920
g61
(dp2921
g69
I3
ssg70
g2915
sg63
(lp2922
S''
asbasbasbag56
(g72
g58
NtRp2923
(dp2924
g61
(dp2925
sg70
g2541
sg63
(lp2926
g56
(g77
g58
NtRp2927
(dp2928
g61
(dp2929
g81
g82
ssg70
g2923
sg63
(lp2930
S'SERVER_NAME'
p2931
asbag56
(g77
g58
NtRp2932
(dp2933
g61
(dp2934
g88
g89
ssg70
g2923
sg63
(lp2935
S':'
asbag56
(g77
g58
NtRp2936
(dp2937
g61
(dp2938
sg70
g2923
sg63
(lp2939
g56
(g57
g58
NtRp2940
(dp2941
g61
(dp2942
g69
I3
ssg70
g2936
sg63
(lp2943
g1464
asbasbasbag56
(g72
g58
NtRp2944
(dp2945
g61
(dp2946
sg70
g2541
sg63
(lp2947
g56
(g77
g58
NtRp2948
(dp2949
g61
(dp2950
g81
g82
ssg70
g2944
sg63
(lp2951
S'SERVER_PORT'
p2952
asbag56
(g77
g58
NtRp2953
(dp2954
g61
(dp2955
g88
g89
ssg70
g2944
sg63
(lp2956
S':'
asbag56
(g77
g58
NtRp2957
(dp2958
g61
(dp2959
sg70
g2944
sg63
(lp2960
g56
(g57
g58
NtRp2961
(dp2962
g61
(dp2963
g69
I3
ssg70
g2957
sg63
(lp2964
g1486
asbasbasbag56
(g72
g58
NtRp2965
(dp2966
g61
(dp2967
sg70
g2541
sg63
(lp2968
g56
(g77
g58
NtRp2969
(dp2970
g61
(dp2971
g81
g82
ssg70
g2965
sg63
(lp2972
S'SERVER_PROTOCOL'
p2973
asbag56
(g77
g58
NtRp2974
(dp2975
g61
(dp2976
g88
g89
ssg70
g2965
sg63
(lp2977
S':'
asbag56
(g77
g58
NtRp2978
(dp2979
g61
(dp2980
sg70
g2965
sg63
(lp2981
g56
(g57
g58
NtRp2982
(dp2983
g61
(dp2984
g69
I3
ssg70
g2978
sg63
(lp2985
g1508
asbasbasbag56
(g72
g58
NtRp2986
(dp2987
g61
(dp2988
sg70
g2541
sg63
(lp2989
g56
(g77
g58
NtRp2990
(dp2991
g61
(dp2992
g81
g82
ssg70
g2986
sg63
(lp2993
S'SERVER_SOFTWARE'
p2994
asbag56
(g77
g58
NtRp2995
(dp2996
g61
(dp2997
g88
g89
ssg70
g2986
sg63
(lp2998
S':'
asbag56
(g77
g58
NtRp2999
(dp3000
g61
(dp3001
sg70
g2986
sg63
(lp3002
g56
(g57
g58
NtRp3003
(dp3004
g61
(dp3005
g69
I3
ssg70
g2999
sg63
(lp3006
g1530
asbasbasbag56
(g72
g58
NtRp3007
(dp3008
g61
(dp3009
sg70
g2541
sg63
(lp3010
g56
(g77
g58
NtRp3011
(dp3012
g61
(dp3013
g81
g82
ssg70
g3007
sg63
(lp3014
S'wsgi.errors'
p3015
asbag56
(g77
g58
NtRp3016
(dp3017
g61
(dp3018
g88
g89
ssg70
g3007
sg63
(lp3019
S':'
asbag56
(g77
g58
NtRp3020
(dp3021
g61
(dp3022
sg70
g3007
sg63
(lp3023
g56
(g57
g58
NtRp3024
(dp3025
g61
(dp3026
g69
I3
ssg70
g3020
sg63
(lp3027
S"<open file '<stderr>', mode 'w' at 0x7f70b615b270>"
p3028
asbasbasbag56
(g72
g58
NtRp3029
(dp3030
g61
(dp3031
sg70
g2541
sg63
(lp3032
g56
(g77
g58
NtRp3033
(dp3034
g61
(dp3035
g81
g82
ssg70
g3029
sg63
(lp3036
S'wsgi.file_wrapper'
p3037
asbag56
(g77
g58
NtRp3038
(dp3039
g61
(dp3040
g88
g89
ssg70
g3029
sg63
(lp3041
S':'
asbag56
(g77
g58
NtRp3042
(dp3043
g61
(dp3044
sg70
g3029
sg63
(lp3045
g56
(g57
g58
NtRp3046
(dp3047
g61
(dp3048
g69
I3
ssg70
g3042
sg63
(lp3049
S'<class wsgiref.util.FileWrapper at 0x2d0c7a0>'
p3050
asbasbasbag56
(g72
g58
NtRp3051
(dp3052
g61
(dp3053
sg70
g2541
sg63
(lp3054
g56
(g77
g58
NtRp3055
(dp3056
g61
(dp3057
g81
g82
ssg70
g3051
sg63
(lp3058
S'wsgi.input'
p3059
asbag56
(g77
g58
NtRp3060
(dp3061
g61
(dp3062
g88
g89
ssg70
g3051
sg63
(lp3063
S':'
asbag56
(g77
g58
NtRp3064
(dp3065
g61
(dp3066
sg70
g3051
sg63
(lp3067
g56
(g57
g58
NtRp3068
(dp3069
g61
(dp3070
g69
I3
ssg70
g3064
sg63
(lp3071
S'<cStringIO.StringO object at 0x4805df8>'
p3072
asbasbasbag56
(g72
g58
NtRp3073
(dp3074
g61
(dp3075
sg70
g2541
sg63
(lp3076
g56
(g77
g58
NtRp3077
(dp3078
g61
(dp3079
g81
g82
ssg70
g3073
sg63
(lp3080
S'wsgi.multiprocess'
p3081
asbag56
(g77
g58
NtRp3082
(dp3083
g61
(dp3084
g88
g89
ssg70
g3073
sg63
(lp3085
S':'
asbag56
(g77
g58
NtRp3086
(dp3087
g61
(dp3088
sg70
g3073
sg63
(lp3089
g56
(g57
g58
NtRp3090
(dp3091
g61
(dp3092
g69
I3
ssg70
g3086
sg63
(lp3093
g1007
asbasbasbag56
(g72
g58
NtRp3094
(dp3095
g61
(dp3096
sg70
g2541
sg63
(lp3097
g56
(g77
g58
NtRp3098
(dp3099
g61
(dp3100
g81
g82
ssg70
g3094
sg63
(lp3101
S'wsgi.multithread'
p3102
asbag56
(g77
g58
NtRp3103
(dp3104
g61
(dp3105
g88
g89
ssg70
g3094
sg63
(lp3106
S':'
asbag56
(g77
g58
NtRp3107
(dp3108
g61
(dp3109
sg70
g3094
sg63
(lp3110
g56
(g57
g58
NtRp3111
(dp3112
g61
(dp3113
g69
I3
ssg70
g3107
sg63
(lp3114
g99
asbasbasbag56
(g72
g58
NtRp3115
(dp3116
g61
(dp3117
sg70
g2541
sg63
(lp3118
g56
(g77
g58
NtRp3119
(dp3120
g61
(dp3121
g81
g82
ssg70
g3115
sg63
(lp3122
S'wsgi.run_once'
p3123
asbag56
(g77
g58
NtRp3124
(dp3125
g61
(dp3126
g88
g89
ssg70
g3115
sg63
(lp3127
S':'
asbag56
(g77
g58
NtRp3128
(dp3129
g61
(dp3130
sg70
g3115
sg63
(lp3131
g56
(g57
g58
NtRp3132
(dp3133
g61
(dp3134
g69
I3
ssg70
g3128
sg63
(lp3135
g1007
asbasbasbag56
(g72
g58
NtRp3136
(dp3137
g61
(dp3138
sg70
g2541
sg63
(lp3139
g56
(g77
g58
NtRp3140
(dp3141
g61
(dp3142
g81
g82
ssg70
g3136
sg63
(lp3143
S'wsgi.url_scheme'
p3144
asbag56
(g77
g58
NtRp3145
(dp3146
g61
(dp3147
g88
g89
ssg70
g3136
sg63
(lp3148
S':'
asbag56
(g77
g58
NtRp3149
(dp3150
g61
(dp3151
sg70
g3136
sg63
(lp3152
g56
(g57
g58
NtRp3153
(dp3154
g61
(dp3155
g69
I3
ssg70
g3149
sg63
(lp3156
g1812
asbasbasbag56
(g72
g58
NtRp3157
(dp3158
g61
(dp3159
sg70
g2541
sg63
(lp3160
g56
(g77
g58
NtRp3161
(dp3162
g61
(dp3163
g81
g82
ssg70
g3157
sg63
(lp3164
S'wsgi.version'
p3165
asbag56
(g77
g58
NtRp3166
(dp3167
g61
(dp3168
g88
g89
ssg70
g3157
sg63
(lp3169
S':'
asbag56
(g77
g58
NtRp3170
(dp3171
g61
(dp3172
sg70
g3157
sg63
(lp3173
g56
(g57
g58
NtRp3174
(dp3175
g61
(dp3176
g69
I3
ssg70
g3170
sg63
(lp3177
S'1'
asbasbasbasbasbasbasbasbasbasbasbasbasbsS'frames'
p3178
(lp3179
(dp3180
S'file'
p3181
S'/home/ian/web2py/gluon/restricted.py'
p3182
sS'dump'
p3183
(dp3184
S'environment'
p3185
S"{'A': <class 'gluon.html.A'>, 'AjaxSelect': <class applications.topoi.modules.plugin_ajaxselect.AjaxSelect>, 'Auth': <class 'gluon.tools.Auth'>, 'B': <class 'gluon.html.B'>, 'BEAUTIFY': <class 'gluon.html.BEAUTIFY'>, 'BODY': <class 'gluon.html.BODY'>, 'BR': <class 'gluon.html.BR'>, 'BUTTON': <class 'gluon.html.BUTTON'>, 'CAT': <class 'gluon.html.CAT'>, 'CENTER': <class 'gluon.html.CENTER'>, ...}"
p3186
sS'ccode'
p3187
S'<code object <module> at 0x33ccdb0, file "/home/.../topoi/controllers/plugin_ajaxselect.py", line 1>'
p3188
ssS'lnum'
p3189
I194
sS'lines'
p3190
(dp3191
I192
S'        else:'
p3192
sI193
S'            ccode = compile2(code,layer)'
p3193
sI194
S'        exec ccode in environment'
p3194
sI195
S'    except HTTP:'
p3195
sI196
S'        raise'
p3196
sI197
S'    except Exception, error:'
p3197
sI198
S'        # XXX Show exception in Wing IDE if running in debugger'
p3198
sI189
S'    try:'
p3199
sI190
S'        if type(code) == types.CodeType:'
p3200
sI191
S'            ccode = code'
p3201
ssS'call'
p3202
S"(code='from gluon.sqlhtml import OptionsWidget\\n\\ndef set... w)\\n\\nresponse._vars=response._caller(set_widget)\\n', environment={'A': <class 'gluon.html.A'>, 'AjaxSelect': <class applications.topoi.modules.plugin_ajaxselect.AjaxSelect>, 'Auth': <class 'gluon.tools.Auth'>, 'B': <class 'gluon.html.B'>, 'BEAUTIFY': <class 'gluon.html.BEAUTIFY'>, 'BODY': <class 'gluon.html.BODY'>, 'BR': <class 'gluon.html.BR'>, 'BUTTON': <class 'gluon.html.BUTTON'>, 'CAT': <class 'gluon.html.CAT'>, 'CENTER': <class 'gluon.html.CENTER'>, ...}, layer='/home/ian/web2py/applications/topoi/controllers/plugin_ajaxselect.py')"
p3203
sS'func'
p3204
S'restricted'
p3205
sa(dp3206
g3181
S'/home/ian/web2py/applications/topoi/controllers/plugin_ajaxselect.py'
p3207
sg3183
(dp3208
sg3189
I12
sg3190
(dp3209
I1
S'from gluon.sqlhtml import OptionsWidget'
p3210
sI2
S''
sI3
S'def set_widget():'
p3211
sI4
S'    """'
p3212
sI5
S'    creates an instance of the OptionsWidget class defined in gluon.sqlhtml and returns the result to populate the ajax LOAD field'
p3213
sI6
S'    """'
p3214
sI7
S'    field = request.args[0]'
p3215
sI8
S'    value = request.args[1]'
p3216
sI9
S'    w = OptionsWidget.widget(field, value)'
p3217
sI10
S'    return dict(widget = w)'
p3218
ssg3202
S'()'
p3219
sg3204
S'<module>'
p3220
sa(dp3221
g3181
S'/home/ian/web2py/gluon/globals.py'
p3222
sg3183
(dp3223
S'self'
p3224
S'undefined'
p3225
sS'f'
S'<function set_widget>'
p3226
ssg3189
I149
sg3190
(dp3227
I144
S'        self.meta = Storage()      # used by web2py_ajax.html'
p3228
sI145
S'        self.menu = []             # used by the default view layout'
p3229
sI146
S'        self.files = []            # used by web2py_ajax.html'
p3230
sI147
S'        self.generic_patterns = [] # patterns to allow generic views'
p3231
sI148
S'        self._vars = None'
p3232
sI149
S'        self._caller = lambda f: f()'
p3233
sI150
S'        self._view_environment = None'
p3234
sI151
S'        self._custom_commit = None'
p3235
sI152
S'        self._custom_rollback = None'
p3236
sI153
S''
ssg3202
S'(f=<function set_widget>)'
p3237
sg3204
S'<lambda>'
p3238
sa(dp3239
g3181
S'/home/ian/web2py/applications/topoi/controllers/plugin_ajaxselect.py'
p3240
sg3183
(dp3241
S'field'
p3242
S"'notes.author'"
p3243
sS'global OptionsWidget'
p3244
S"<class 'gluon.sqlhtml.OptionsWidget'>"
p3245
sS'OptionsWidget.widget'
p3246
S'<function widget>'
p3247
sS'value'
p3248
S"'10'"
p3249
sS'w'
g3225
ssg3189
I9
sg3190
(dp3250
I1
S'from gluon.sqlhtml import OptionsWidget'
p3251
sI2
S''
sI3
S'def set_widget():'
p3252
sI4
S'    """'
p3253
sI5
S'    creates an instance of the OptionsWidget class defined in gluon.sqlhtml and returns the result to populate the ajax LOAD field'
p3254
sI6
S'    """'
p3255
sI7
S'    field = request.args[0]'
p3256
sI8
S'    value = request.args[1]'
p3257
sI9
S'    w = OptionsWidget.widget(field, value)'
p3258
sI10
S'    return dict(widget = w)'
p3259
ssg3202
S'()'
p3260
sg3204
S'set_widget'
p3261
sa(dp3262
g3181
S'/home/ian/web2py/gluon/sqlhtml.py'
p3263
sg3183
(dp3264
S'OptionsWidget._attributes'
p3265
S'<function _attributes>'
p3266
sS'attr'
p3267
g3225
sS'default'
p3268
S"{'value': '10'}"
p3269
sS'field'
p3270
S"'notes.author'"
p3271
sS'global OptionsWidget'
p3272
S"<class 'gluon.sqlhtml.OptionsWidget'>"
p3273
sS'attributes'
p3274
g44
ssg3189
I210
sg3190
(dp3275
I205
S'        see also: :meth:`FormWidget.widget`'
p3276
sI206
S'        """'
p3277
sI207
S'        default = dict('
p3278
sI208
S'            value=value,'
p3279
sI209
S'            )'
p3280
sI210
S'        attr = OptionsWidget._attributes(field, default, **attributes)'
p3281
sI211
S''
sI212
S'        requires = field.requires'
p3282
sI213
S'        if not isinstance(requires, (list, tuple)):'
p3283
sI214
S'            requires = [requires]'
p3284
ssg3202
S"(field='notes.author', value='10', **attributes={})"
p3285
sg3204
S'widget'
p3286
sa(dp3287
g3181
S'/home/ian/web2py/gluon/sqlhtml.py'
p3288
sg3183
(dp3289
S'field'
p3290
S"'notes.author'"
p3291
sS'field._tablename'
p3292
g3225
sS'_id'
p3293
g3225
sS'field.name'
p3294
g3225
ssg3189
I74
sg3190
(dp3295
I69
S'        :param field: the field involved, some attributes are derived from this'
p3296
sI70
S'        :param widget_attributes:  widget related attributes'
p3297
sI71
S'        :param attributes: any other supplied attributes'
p3298
sI72
S'        """'
p3299
sI73
S'        attr = dict('
p3300
sI74
S"            _id = '%s_%s' % (field._tablename, field.name),"
p3301
sI75
S'            _class = widget_class.match(str(field.type)).group(),'
p3302
sI76
S'            _name = field.name,'
p3303
sI77
S'            requires = field.requires,'
p3304
sI78
S'            )'
p3305
ssg3202
S"(field='notes.author', widget_attributes={'value': '10'}, **attributes={})"
p3306
sg3204
S'_attributes'
p3307
sasS'pyver'
p3308
S'Python 2.7.2+: /usr/bin/python2.7'
p3309
sS'session'
p3310
g56
(g57
g58
NtRp3311
(dp3312
g61
(dp3313
sg63
(lp3314
g56
(g65
g58
NtRp3315
(dp3316
g61
(dp3317
g69
I5
ssg70
Nsg63
(lp3318
sbasbsS'etype'
p3319
S"<type 'exceptions.AttributeError'>"
p3320
sS'date'
p3321
S'Sun Dec 11 15:49:45 2011'
p3322
sS'response'
p3323
g56
(g57
g58
NtRp3324
(dp3325
g61
(dp3326
sg63
(lp3327
g56
(g65
g58
NtRp3328
(dp3329
g61
(dp3330
g69
I5
ssg70
Nsg63
(lp3331
g56
(g72
g58
NtRp3332
(dp3333
g61
(dp3334
sg70
g3328
sg63
(lp3335
g56
(g77
g58
NtRp3336
(dp3337
g61
(dp3338
g81
g82
ssg70
g3332
sg63
(lp3339
g180
asbag56
(g77
g58
NtRp3340
(dp3341
g61
(dp3342
g88
g89
ssg70
g3332
sg63
(lp3343
S':'
asbag56
(g77
g58
NtRp3344
(dp3345
g61
(dp3346
sg70
g3332
sg63
(lp3347
g56
(g57
g58
NtRp3348
(dp3349
g61
(dp3350
g69
I5
ssg70
g3344
sg63
(lp3351
S'<cStringIO.StringO object at 0x33ca570>'
p3352
asbasbasbag56
(g72
g58
NtRp3353
(dp3354
g61
(dp3355
sg70
g3328
sg63
(lp3356
g56
(g77
g58
NtRp3357
(dp3358
g61
(dp3359
g81
g82
ssg70
g3353
sg63
(lp3360
g268
asbag56
(g77
g58
NtRp3361
(dp3362
g61
(dp3363
g88
g89
ssg70
g3353
sg63
(lp3364
S':'
asbag56
(g77
g58
NtRp3365
(dp3366
g61
(dp3367
sg70
g3353
sg63
(lp3368
g56
(g57
g58
NtRp3369
(dp3370
g61
(dp3371
g69
I5
ssg70
g3365
sg63
(lp3372
g56
(g65
g58
NtRp3373
(dp3374
g61
(dp3375
g69
I4
ssg70
Nsg63
(lp3376
g56
(g72
g58
NtRp3377
(dp3378
g61
(dp3379
sg70
g3373
sg63
(lp3380
g56
(g77
g58
NtRp3381
(dp3382
g61
(dp3383
g81
g82
ssg70
g3377
sg63
(lp3384
S'session_id_topoi'
p3385
asbag56
(g77
g58
NtRp3386
(dp3387
g61
(dp3388
g88
g89
ssg70
g3377
sg63
(lp3389
S':'
asbag56
(g77
g58
NtRp3390
(dp3391
g61
(dp3392
sg70
g3377
sg63
(lp3393
g56
(g57
g58
NtRp3394
(dp3395
g61
(dp3396
g69
I4
ssg70
g3390
sg63
(lp3397
g56
(g65
g58
NtRp3398
(dp3399
g61
(dp3400
g69
I3
ssg70
Nsg63
(lp3401
g56
(g72
g58
NtRp3402
(dp3403
g61
(dp3404
sg70
g3398
sg63
(lp3405
g56
(g77
g58
NtRp3406
(dp3407
g61
(dp3408
g81
g82
ssg70
g3402
sg63
(lp3409
g318
asbag56
(g77
g58
NtRp3410
(dp3411
g61
(dp3412
g88
g89
ssg70
g3402
sg63
(lp3413
S':'
asbag56
(g77
g58
NtRp3414
(dp3415
g61
(dp3416
sg70
g3402
sg63
(lp3417
g56
(g57
g58
NtRp3418
(dp3419
g61
(dp3420
g69
I3
ssg70
g3414
sg63
(lp3421
S''
asbasbasbag56
(g72
g58
NtRp3422
(dp3423
g61
(dp3424
sg70
g3398
sg63
(lp3425
g56
(g77
g58
NtRp3426
(dp3427
g61
(dp3428
g81
g82
ssg70
g3422
sg63
(lp3429
g339
asbag56
(g77
g58
NtRp3430
(dp3431
g61
(dp3432
g88
g89
ssg70
g3422
sg63
(lp3433
S':'
asbag56
(g77
g58
NtRp3434
(dp3435
g61
(dp3436
sg70
g3422
sg63
(lp3437
g56
(g57
g58
NtRp3438
(dp3439
g61
(dp3440
g69
I3
ssg70
g3434
sg63
(lp3441
S''
asbasbasbag56
(g72
g58
NtRp3442
(dp3443
g61
(dp3444
sg70
g3398
sg63
(lp3445
g56
(g77
g58
NtRp3446
(dp3447
g61
(dp3448
g81
g82
ssg70
g3442
sg63
(lp3449
g360
asbag56
(g77
g58
NtRp3450
(dp3451
g61
(dp3452
g88
g89
ssg70
g3442
sg63
(lp3453
S':'
asbag56
(g77
g58
NtRp3454
(dp3455
g61
(dp3456
sg70
g3442
sg63
(lp3457
g56
(g57
g58
NtRp3458
(dp3459
g61
(dp3460
g69
I3
ssg70
g3454
sg63
(lp3461
S''
asbasbasbag56
(g72
g58
NtRp3462
(dp3463
g61
(dp3464
sg70
g3398
sg63
(lp3465
g56
(g77
g58
NtRp3466
(dp3467
g61
(dp3468
g81
g82
ssg70
g3462
sg63
(lp3469
g381
asbag56
(g77
g58
NtRp3470
(dp3471
g61
(dp3472
g88
g89
ssg70
g3462
sg63
(lp3473
S':'
asbag56
(g77
g58
NtRp3474
(dp3475
g61
(dp3476
sg70
g3462
sg63
(lp3477
g56
(g57
g58
NtRp3478
(dp3479
g61
(dp3480
g69
I3
ssg70
g3474
sg63
(lp3481
S''
asbasbasbag56
(g72
g58
NtRp3482
(dp3483
g61
(dp3484
sg70
g3398
sg63
(lp3485
g56
(g77
g58
NtRp3486
(dp3487
g61
(dp3488
g81
g82
ssg70
g3482
sg63
(lp3489
g402
asbag56
(g77
g58
NtRp3490
(dp3491
g61
(dp3492
g88
g89
ssg70
g3482
sg63
(lp3493
S':'
asbag56
(g77
g58
NtRp3494
(dp3495
g61
(dp3496
sg70
g3482
sg63
(lp3497
g56
(g57
g58
NtRp3498
(dp3499
g61
(dp3500
g69
I3
ssg70
g3494
sg63
(lp3501
S''
asbasbasbag56
(g72
g58
NtRp3502
(dp3503
g61
(dp3504
sg70
g3398
sg63
(lp3505
g56
(g77
g58
NtRp3506
(dp3507
g61
(dp3508
g81
g82
ssg70
g3502
sg63
(lp3509
g423
asbag56
(g77
g58
NtRp3510
(dp3511
g61
(dp3512
g88
g89
ssg70
g3502
sg63
(lp3513
S':'
asbag56
(g77
g58
NtRp3514
(dp3515
g61
(dp3516
sg70
g3502
sg63
(lp3517
g56
(g57
g58
NtRp3518
(dp3519
g61
(dp3520
g69
I3
ssg70
g3514
sg63
(lp3521
S'/'
asbasbasbag56
(g72
g58
NtRp3522
(dp3523
g61
(dp3524
sg70
g3398
sg63
(lp3525
g56
(g77
g58
NtRp3526
(dp3527
g61
(dp3528
g81
g82
ssg70
g3522
sg63
(lp3529
g444
asbag56
(g77
g58
NtRp3530
(dp3531
g61
(dp3532
g88
g89
ssg70
g3522
sg63
(lp3533
S':'
asbag56
(g77
g58
NtRp3534
(dp3535
g61
(dp3536
sg70
g3522
sg63
(lp3537
g56
(g57
g58
NtRp3538
(dp3539
g61
(dp3540
g69
I3
ssg70
g3534
sg63
(lp3541
S''
asbasbasbag56
(g72
g58
NtRp3542
(dp3543
g61
(dp3544
sg70
g3398
sg63
(lp3545
g56
(g77
g58
NtRp3546
(dp3547
g61
(dp3548
g81
g82
ssg70
g3542
sg63
(lp3549
g465
asbag56
(g77
g58
NtRp3550
(dp3551
g61
(dp3552
g88
g89
ssg70
g3542
sg63
(lp3553
S':'
asbag56
(g77
g58
NtRp3554
(dp3555
g61
(dp3556
sg70
g3542
sg63
(lp3557
g56
(g57
g58
NtRp3558
(dp3559
g61
(dp3560
g69
I3
ssg70
g3554
sg63
(lp3561
S''
asbasbasbasbasbasbasbasbasbasbasbag56
(g72
g58
NtRp3562
(dp3563
g61
(dp3564
sg70
g3328
sg63
(lp3565
g56
(g77
g58
NtRp3566
(dp3567
g61
(dp3568
g81
g82
ssg70
g3562
sg63
(lp3569
S'files'
p3570
asbag56
(g77
g58
NtRp3571
(dp3572
g61
(dp3573
g88
g89
ssg70
g3562
sg63
(lp3574
S':'
asbag56
(g77
g58
NtRp3575
(dp3576
g61
(dp3577
sg70
g3562
sg63
(lp3578
g56
(g57
g58
NtRp3579
(dp3580
g61
(dp3581
g69
I5
ssg70
g3575
sg63
(lp3582
g56
(g65
g58
NtRp3583
(dp3584
g61
(dp3585
g69
I4
ssg70
Nsg63
(lp3586
sbasbasbasbag56
(g72
g58
NtRp3587
(dp3588
g61
(dp3589
sg70
g3328
sg63
(lp3590
g56
(g77
g58
NtRp3591
(dp3592
g61
(dp3593
g81
g82
ssg70
g3587
sg63
(lp3594
S'flash'
p3595
asbag56
(g77
g58
NtRp3596
(dp3597
g61
(dp3598
g88
g89
ssg70
g3587
sg63
(lp3599
S':'
asbag56
(g77
g58
NtRp3600
(dp3601
g61
(dp3602
sg70
g3587
sg63
(lp3603
g56
(g57
g58
NtRp3604
(dp3605
g61
(dp3606
g69
I5
ssg70
g3600
sg63
(lp3607
S''
asbasbasbag56
(g72
g58
NtRp3608
(dp3609
g61
(dp3610
sg70
g3328
sg63
(lp3611
g56
(g77
g58
NtRp3612
(dp3613
g61
(dp3614
g81
g82
ssg70
g3608
sg63
(lp3615
S'generic_patterns'
p3616
asbag56
(g77
g58
NtRp3617
(dp3618
g61
(dp3619
g88
g89
ssg70
g3608
sg63
(lp3620
S':'
asbag56
(g77
g58
NtRp3621
(dp3622
g61
(dp3623
sg70
g3608
sg63
(lp3624
g56
(g57
g58
NtRp3625
(dp3626
g61
(dp3627
g69
I5
ssg70
g3621
sg63
(lp3628
g56
(g65
g58
NtRp3629
(dp3630
g61
(dp3631
g69
I4
ssg70
Nsg63
(lp3632
g56
(g72
g58
NtRp3633
(dp3634
g61
(dp3635
sg70
g3629
sg63
(lp3636
g56
(g77
g58
NtRp3637
(dp3638
g61
(dp3639
sg70
g3633
sg63
(lp3640
g56
(g57
g58
NtRp3641
(dp3642
g61
(dp3643
g69
I4
ssg70
g3637
sg63
(lp3644
S'*'
asbasbasbasbasbasbasbag56
(g72
g58
NtRp3645
(dp3646
g61
(dp3647
sg70
g3328
sg63
(lp3648
g56
(g77
g58
NtRp3649
(dp3650
g61
(dp3651
g81
g82
ssg70
g3645
sg63
(lp3652
S'headers'
p3653
asbag56
(g77
g58
NtRp3654
(dp3655
g61
(dp3656
g88
g89
ssg70
g3645
sg63
(lp3657
S':'
asbag56
(g77
g58
NtRp3658
(dp3659
g61
(dp3660
sg70
g3645
sg63
(lp3661
g56
(g57
g58
NtRp3662
(dp3663
g61
(dp3664
g69
I5
ssg70
g3658
sg63
(lp3665
g56
(g65
g58
NtRp3666
(dp3667
g61
(dp3668
g69
I4
ssg70
Nsg63
(lp3669
g56
(g72
g58
NtRp3670
(dp3671
g61
(dp3672
sg70
g3666
sg63
(lp3673
g56
(g77
g58
NtRp3674
(dp3675
g61
(dp3676
g81
g82
ssg70
g3670
sg63
(lp3677
S'Cache-Control'
p3678
asbag56
(g77
g58
NtRp3679
(dp3680
g61
(dp3681
g88
g89
ssg70
g3670
sg63
(lp3682
S':'
asbag56
(g77
g58
NtRp3683
(dp3684
g61
(dp3685
sg70
g3670
sg63
(lp3686
g56
(g57
g58
NtRp3687
(dp3688
g61
(dp3689
g69
I4
ssg70
g3683
sg63
(lp3690
S'no-store, no-cache, must-revalidate, post-check=0, pre-check=0'
p3691
asbasbasbag56
(g72
g58
NtRp3692
(dp3693
g61
(dp3694
sg70
g3666
sg63
(lp3695
g56
(g77
g58
NtRp3696
(dp3697
g61
(dp3698
g81
g82
ssg70
g3692
sg63
(lp3699
S'Content-Type'
p3700
asbag56
(g77
g58
NtRp3701
(dp3702
g61
(dp3703
g88
g89
ssg70
g3692
sg63
(lp3704
S':'
asbag56
(g77
g58
NtRp3705
(dp3706
g61
(dp3707
sg70
g3692
sg63
(lp3708
g56
(g57
g58
NtRp3709
(dp3710
g61
(dp3711
g69
I4
ssg70
g3705
sg63
(lp3712
S'text/html; charset=utf-8'
p3713
asbasbasbag56
(g72
g58
NtRp3714
(dp3715
g61
(dp3716
sg70
g3666
sg63
(lp3717
g56
(g77
g58
NtRp3718
(dp3719
g61
(dp3720
g81
g82
ssg70
g3714
sg63
(lp3721
S'Expires'
p3722
asbag56
(g77
g58
NtRp3723
(dp3724
g61
(dp3725
g88
g89
ssg70
g3714
sg63
(lp3726
S':'
asbag56
(g77
g58
NtRp3727
(dp3728
g61
(dp3729
sg70
g3714
sg63
(lp3730
g56
(g57
g58
NtRp3731
(dp3732
g61
(dp3733
g69
I4
ssg70
g3727
sg63
(lp3734
S'Sun, 11 Dec 2011 20:49:45 GMT'
p3735
asbasbasbag56
(g72
g58
NtRp3736
(dp3737
g61
(dp3738
sg70
g3666
sg63
(lp3739
g56
(g77
g58
NtRp3740
(dp3741
g61
(dp3742
g81
g82
ssg70
g3736
sg63
(lp3743
S'Pragma'
p3744
asbag56
(g77
g58
NtRp3745
(dp3746
g61
(dp3747
g88
g89
ssg70
g3736
sg63
(lp3748
S':'
asbag56
(g77
g58
NtRp3749
(dp3750
g61
(dp3751
sg70
g3736
sg63
(lp3752
g56
(g57
g58
NtRp3753
(dp3754
g61
(dp3755
g69
I4
ssg70
g3749
sg63
(lp3756
S'no-cache'
p3757
asbasbasbag56
(g72
g58
NtRp3758
(dp3759
g61
(dp3760
sg70
g3666
sg63
(lp3761
g56
(g77
g58
NtRp3762
(dp3763
g61
(dp3764
g81
g82
ssg70
g3758
sg63
(lp3765
S'X-Powered-By'
p3766
asbag56
(g77
g58
NtRp3767
(dp3768
g61
(dp3769
g88
g89
ssg70
g3758
sg63
(lp3770
S':'
asbag56
(g77
g58
NtRp3771
(dp3772
g61
(dp3773
sg70
g3758
sg63
(lp3774
g56
(g57
g58
NtRp3775
(dp3776
g61
(dp3777
g69
I4
ssg70
g3771
sg63
(lp3778
S'web2py'
p3779
asbasbasbasbasbasbasbag56
(g72
g58
NtRp3780
(dp3781
g61
(dp3782
sg70
g3328
sg63
(lp3783
g56
(g77
g58
NtRp3784
(dp3785
g61
(dp3786
g81
g82
ssg70
g3780
sg63
(lp3787
S'menu'
p3788
asbag56
(g77
g58
NtRp3789
(dp3790
g61
(dp3791
g88
g89
ssg70
g3780
sg63
(lp3792
S':'
asbag56
(g77
g58
NtRp3793
(dp3794
g61
(dp3795
sg70
g3780
sg63
(lp3796
g56
(g57
g58
NtRp3797
(dp3798
g61
(dp3799
g69
I5
ssg70
g3793
sg63
(lp3800
g56
(g65
g58
NtRp3801
(dp3802
g61
(dp3803
g69
I4
ssg70
Nsg63
(lp3804
g56
(g72
g58
NtRp3805
(dp3806
g61
(dp3807
sg70
g3801
sg63
(lp3808
g56
(g77
g58
NtRp3809
(dp3810
g61
(dp3811
sg70
g3805
sg63
(lp3812
g56
(g57
g58
NtRp3813
(dp3814
g61
(dp3815
g69
I4
ssg70
g3809
sg63
(lp3816
g56
(g65
g58
NtRp3817
(dp3818
g61
(dp3819
g69
I3
ssg70
Nsg63
(lp3820
g56
(g72
g58
NtRp3821
(dp3822
g61
(dp3823
sg70
g3817
sg63
(lp3824
g56
(g77
g58
NtRp3825
(dp3826
g61
(dp3827
sg70
g3821
sg63
(lp3828
g56
(g57
g58
NtRp3829
(dp3830
g61
(dp3831
g69
I3
ssg70
g3825
sg63
(lp3832
cgluon.languages
lazyT_unpickle
p3833
(S't\x04\x00\x00\x00Home'
tRp3834
asbasbasbag56
(g72
g58
NtRp3835
(dp3836
g61
(dp3837
sg70
g3817
sg63
(lp3838
g56
(g77
g58
NtRp3839
(dp3840
g61
(dp3841
sg70
g3835
sg63
(lp3842
g56
(g57
g58
NtRp3843
(dp3844
g61
(dp3845
g69
I3
ssg70
g3839
sg63
(lp3846
g1007
asbasbasbag56
(g72
g58
NtRp3847
(dp3848
g61
(dp3849
sg70
g3817
sg63
(lp3850
g56
(g77
g58
NtRp3851
(dp3852
g61
(dp3853
sg70
g3847
sg63
(lp3854
g56
(g57
g58
NtRp3855
(dp3856
g61
(dp3857
g69
I3
ssg70
g3851
sg63
(lp3858
S'/topoi/default/index.load'
p3859
asbasbasbag56
(g72
g58
NtRp3860
(dp3861
g61
(dp3862
sg70
g3817
sg63
(lp3863
g56
(g77
g58
NtRp3864
(dp3865
g61
(dp3866
sg70
g3860
sg63
(lp3867
g56
(g57
g58
NtRp3868
(dp3869
g61
(dp3870
g69
I3
ssg70
g3864
sg63
(lp3871
g56
(g65
g58
NtRp3872
(dp3873
g61
(dp3874
g69
I2
ssg70
Nsg63
(lp3875
sbasbasbasbasbasbasbasbag56
(g72
g58
NtRp3876
(dp3877
g61
(dp3878
sg70
g3801
sg63
(lp3879
g56
(g77
g58
NtRp3880
(dp3881
g61
(dp3882
sg70
g3876
sg63
(lp3883
g56
(g57
g58
NtRp3884
(dp3885
g61
(dp3886
g69
I4
ssg70
g3880
sg63
(lp3887
g56
(g65
g58
NtRp3888
(dp3889
g61
(dp3890
g69
I3
ssg70
Nsg63
(lp3891
g56
(g72
g58
NtRp3892
(dp3893
g61
(dp3894
sg70
g3888
sg63
(lp3895
g56
(g77
g58
NtRp3896
(dp3897
g61
(dp3898
sg70
g3892
sg63
(lp3899
g56
(g57
g58
NtRp3900
(dp3901
g61
(dp3902
g69
I3
ssg70
g3896
sg63
(lp3903
g3833
(S't\x01\x00\x00\x00S'
tRp3904
asbasbasbag56
(g72
g58
NtRp3905
(dp3906
g61
(dp3907
sg70
g3888
sg63
(lp3908
g56
(g77
g58
NtRp3909
(dp3910
g61
(dp3911
sg70
g3905
sg63
(lp3912
g56
(g57
g58
NtRp3913
(dp3914
g61
(dp3915
g69
I3
ssg70
g3909
sg63
(lp3916
g1007
asbasbasbag56
(g72
g58
NtRp3917
(dp3918
g61
(dp3919
sg70
g3888
sg63
(lp3920
g56
(g77
g58
NtRp3921
(dp3922
g61
(dp3923
sg70
g3917
sg63
(lp3924
g56
(g57
g58
NtRp3925
(dp3926
g61
(dp3927
g69
I3
ssg70
g3921
sg63
(lp3928
S'/admin/default/design/topoi.load'
p3929
asbasbasbag56
(g72
g58
NtRp3930
(dp3931
g61
(dp3932
sg70
g3888
sg63
(lp3933
g56
(g77
g58
NtRp3934
(dp3935
g61
(dp3936
sg70
g3930
sg63
(lp3937
g56
(g57
g58
NtRp3938
(dp3939
g61
(dp3940
g69
I3
ssg70
g3934
sg63
(lp3941
g56
(g65
g58
NtRp3942
(dp3943
g61
(dp3944
g69
I2
ssg70
Nsg63
(lp3945
g56
(g72
g58
NtRp3946
(dp3947
g61
(dp3948
sg70
g3942
sg63
(lp3949
g56
(g77
g58
NtRp3950
(dp3951
g61
(dp3952
sg70
g3946
sg63
(lp3953
g56
(g57
g58
NtRp3954
(dp3955
g61
(dp3956
g69
I2
ssg70
g3950
sg63
(lp3957
g56
(g65
g58
NtRp3958
(dp3959
g61
(dp3960
g69
I1
ssg70
Nsg63
(lp3961
g56
(g72
g58
NtRp3962
(dp3963
g61
(dp3964
sg70
g3958
sg63
(lp3965
g56
(g77
g58
NtRp3966
(dp3967
g61
(dp3968
sg70
g3962
sg63
(lp3969
g56
(g57
g58
NtRp3970
(dp3971
g61
(dp3972
g69
I1
ssg70
g3966
sg63
(lp3973
g3833
(S't\n\x00\x00\x00Controller'
tRp3974
asbasbasbag56
(g72
g58
NtRp3975
(dp3976
g61
(dp3977
sg70
g3958
sg63
(lp3978
g56
(g77
g58
NtRp3979
(dp3980
g61
(dp3981
sg70
g3975
sg63
(lp3982
g56
(g57
g58
NtRp3983
(dp3984
g61
(dp3985
g69
I1
ssg70
g3979
sg63
(lp3986
I00
asbasbasbag56
(g72
g58
NtRp3987
(dp3988
g61
(dp3989
sg70
g3958
sg63
(lp3990
g56
(g77
g58
NtRp3991
(dp3992
g61
(dp3993
sg70
g3987
sg63
(lp3994
g56
(g57
g58
NtRp3995
(dp3996
g61
(dp3997
g69
I1
ssg70
g3991
sg63
(lp3998
S'/admin/default/edit/topoi/controllers/plugin_ajaxselect.py'
p3999
asbasbasbasbasbasbasbag56
(g72
g58
NtRp4000
(dp4001
g61
(dp4002
sg70
g3942
sg63
(lp4003
g56
(g77
g58
NtRp4004
(dp4005
g61
(dp4006
sg70
g4000
sg63
(lp4007
g56
(g57
g58
NtRp4008
(dp4009
g61
(dp4010
g69
I2
ssg70
g4004
sg63
(lp4011
g56
(g65
g58
NtRp4012
(dp4013
g61
(dp4014
g69
I1
ssg70
Nsg63
(lp4015
g56
(g72
g58
NtRp4016
(dp4017
g61
(dp4018
sg70
g4012
sg63
(lp4019
g56
(g77
g58
NtRp4020
(dp4021
g61
(dp4022
sg70
g4016
sg63
(lp4023
g56
(g57
g58
NtRp4024
(dp4025
g61
(dp4026
g69
I1
ssg70
g4020
sg63
(lp4027
g3833
(S't\x04\x00\x00\x00View'
tRp4028
asbasbasbag56
(g72
g58
NtRp4029
(dp4030
g61
(dp4031
sg70
g4012
sg63
(lp4032
g56
(g77
g58
NtRp4033
(dp4034
g61
(dp4035
sg70
g4029
sg63
(lp4036
g56
(g57
g58
NtRp4037
(dp4038
g61
(dp4039
g69
I1
ssg70
g4033
sg63
(lp4040
I00
asbasbasbag56
(g72
g58
NtRp4041
(dp4042
g61
(dp4043
sg70
g4012
sg63
(lp4044
g56
(g77
g58
NtRp4045
(dp4046
g61
(dp4047
sg70
g4041
sg63
(lp4048
g56
(g57
g58
NtRp4049
(dp4050
g61
(dp4051
g69
I1
ssg70
g4045
sg63
(lp4052
S'/admin/default/edit/topoi/views/plugin_ajaxselect/set_widget.load'
p4053
asbasbasbasbasbasbasbag56
(g72
g58
NtRp4054
(dp4055
g61
(dp4056
sg70
g3942
sg63
(lp4057
g56
(g77
g58
NtRp4058
(dp4059
g61
(dp4060
sg70
g4054
sg63
(lp4061
g56
(g57
g58
NtRp4062
(dp4063
g61
(dp4064
g69
I2
ssg70
g4058
sg63
(lp4065
g56
(g65
g58
NtRp4066
(dp4067
g61
(dp4068
g69
I1
ssg70
Nsg63
(lp4069
g56
(g72
g58
NtRp4070
(dp4071
g61
(dp4072
sg70
g4066
sg63
(lp4073
g56
(g77
g58
NtRp4074
(dp4075
g61
(dp4076
sg70
g4070
sg63
(lp4077
g56
(g57
g58
NtRp4078
(dp4079
g61
(dp4080
g69
I1
ssg70
g4074
sg63
(lp4081
g3833
(S't\x06\x00\x00\x00Layout'
tRp4082
asbasbasbag56
(g72
g58
NtRp4083
(dp4084
g61
(dp4085
sg70
g4066
sg63
(lp4086
g56
(g77
g58
NtRp4087
(dp4088
g61
(dp4089
sg70
g4083
sg63
(lp4090
g56
(g57
g58
NtRp4091
(dp4092
g61
(dp4093
g69
I1
ssg70
g4087
sg63
(lp4094
I00
asbasbasbag56
(g72
g58
NtRp4095
(dp4096
g61
(dp4097
sg70
g4066
sg63
(lp4098
g56
(g77
g58
NtRp4099
(dp4100
g61
(dp4101
sg70
g4095
sg63
(lp4102
g56
(g57
g58
NtRp4103
(dp4104
g61
(dp4105
g69
I1
ssg70
g4099
sg63
(lp4106
S'/admin/default/edit/topoi/views/layout.html'
p4107
asbasbasbasbasbasbasbag56
(g72
g58
NtRp4108
(dp4109
g61
(dp4110
sg70
g3942
sg63
(lp4111
g56
(g77
g58
NtRp4112
(dp4113
g61
(dp4114
sg70
g4108
sg63
(lp4115
g56
(g57
g58
NtRp4116
(dp4117
g61
(dp4118
g69
I2
ssg70
g4112
sg63
(lp4119
g56
(g65
g58
NtRp4120
(dp4121
g61
(dp4122
g69
I1
ssg70
Nsg63
(lp4123
g56
(g72
g58
NtRp4124
(dp4125
g61
(dp4126
sg70
g4120
sg63
(lp4127
g56
(g77
g58
NtRp4128
(dp4129
g61
(dp4130
sg70
g4124
sg63
(lp4131
g56
(g57
g58
NtRp4132
(dp4133
g61
(dp4134
g69
I1
ssg70
g4128
sg63
(lp4135
g3833
(S't\n\x00\x00\x00Stylesheet'
tRp4136
asbasbasbag56
(g72
g58
NtRp4137
(dp4138
g61
(dp4139
sg70
g4120
sg63
(lp4140
g56
(g77
g58
NtRp4141
(dp4142
g61
(dp4143
sg70
g4137
sg63
(lp4144
g56
(g57
g58
NtRp4145
(dp4146
g61
(dp4147
g69
I1
ssg70
g4141
sg63
(lp4148
I00
asbasbasbag56
(g72
g58
NtRp4149
(dp4150
g61
(dp4151
sg70
g4120
sg63
(lp4152
g56
(g77
g58
NtRp4153
(dp4154
g61
(dp4155
sg70
g4149
sg63
(lp4156
g56
(g57
g58
NtRp4157
(dp4158
g61
(dp4159
g69
I1
ssg70
g4153
sg63
(lp4160
S'/admin/default/edit/topoi/static/base.css'
p4161
asbasbasbasbasbasbasbag56
(g72
g58
NtRp4162
(dp4163
g61
(dp4164
sg70
g3942
sg63
(lp4165
g56
(g77
g58
NtRp4166
(dp4167
g61
(dp4168
sg70
g4162
sg63
(lp4169
g56
(g57
g58
NtRp4170
(dp4171
g61
(dp4172
g69
I2
ssg70
g4166
sg63
(lp4173
g56
(g65
g58
NtRp4174
(dp4175
g61
(dp4176
g69
I1
ssg70
Nsg63
(lp4177
g56
(g72
g58
NtRp4178
(dp4179
g61
(dp4180
sg70
g4174
sg63
(lp4181
g56
(g77
g58
NtRp4182
(dp4183
g61
(dp4184
sg70
g4178
sg63
(lp4185
g56
(g57
g58
NtRp4186
(dp4187
g61
(dp4188
g69
I1
ssg70
g4182
sg63
(lp4189
g3833
(S's\x08\x00\x00\x00DB Model'
tRp4190
asbasbasbag56
(g72
g58
NtRp4191
(dp4192
g61
(dp4193
sg70
g4174
sg63
(lp4194
g56
(g77
g58
NtRp4195
(dp4196
g61
(dp4197
sg70
g4191
sg63
(lp4198
g56
(g57
g58
NtRp4199
(dp4200
g61
(dp4201
g69
I1
ssg70
g4195
sg63
(lp4202
I00
asbasbasbag56
(g72
g58
NtRp4203
(dp4204
g61
(dp4205
sg70
g4174
sg63
(lp4206
g56
(g77
g58
NtRp4207
(dp4208
g61
(dp4209
sg70
g4203
sg63
(lp4210
g56
(g57
g58
NtRp4211
(dp4212
g61
(dp4213
g69
I1
ssg70
g4207
sg63
(lp4214
S'/admin/default/edit/topoi/models/db.py'
p4215
asbasbasbasbasbasbasbag56
(g72
g58
NtRp4216
(dp4217
g61
(dp4218
sg70
g3942
sg63
(lp4219
g56
(g77
g58
NtRp4220
(dp4221
g61
(dp4222
sg70
g4216
sg63
(lp4223
g56
(g57
g58
NtRp4224
(dp4225
g61
(dp4226
g69
I2
ssg70
g4220
sg63
(lp4227
g56
(g65
g58
NtRp4228
(dp4229
g61
(dp4230
g69
I1
ssg70
Nsg63
(lp4231
g56
(g72
g58
NtRp4232
(dp4233
g61
(dp4234
sg70
g4228
sg63
(lp4235
g56
(g77
g58
NtRp4236
(dp4237
g61
(dp4238
sg70
g4232
sg63
(lp4239
g56
(g57
g58
NtRp4240
(dp4241
g61
(dp4242
g69
I1
ssg70
g4236
sg63
(lp4243
g3833
(S's\n\x00\x00\x00Menu Model'
tRp4244
asbasbasbag56
(g72
g58
NtRp4245
(dp4246
g61
(dp4247
sg70
g4228
sg63
(lp4248
g56
(g77
g58
NtRp4249
(dp4250
g61
(dp4251
sg70
g4245
sg63
(lp4252
g56
(g57
g58
NtRp4253
(dp4254
g61
(dp4255
g69
I1
ssg70
g4249
sg63
(lp4256
I00
asbasbasbag56
(g72
g58
NtRp4257
(dp4258
g61
(dp4259
sg70
g4228
sg63
(lp4260
g56
(g77
g58
NtRp4261
(dp4262
g61
(dp4263
sg70
g4257
sg63
(lp4264
g56
(g57
g58
NtRp4265
(dp4266
g61
(dp4267
g69
I1
ssg70
g4261
sg63
(lp4268
S'/admin/default/edit/topoi/models/menu.py'
p4269
asbasbasbasbasbasbasbag56
(g72
g58
NtRp4270
(dp4271
g61
(dp4272
sg70
g3942
sg63
(lp4273
g56
(g77
g58
NtRp4274
(dp4275
g61
(dp4276
sg70
g4270
sg63
(lp4277
g56
(g57
g58
NtRp4278
(dp4279
g61
(dp4280
g69
I2
ssg70
g4274
sg63
(lp4281
g56
(g65
g58
NtRp4282
(dp4283
g61
(dp4284
g69
I1
ssg70
Nsg63
(lp4285
g56
(g72
g58
NtRp4286
(dp4287
g61
(dp4288
sg70
g4282
sg63
(lp4289
g56
(g77
g58
NtRp4290
(dp4291
g61
(dp4292
sg70
g4286
sg63
(lp4293
g56
(g57
g58
NtRp4294
(dp4295
g61
(dp4296
g69
I1
ssg70
g4290
sg63
(lp4297
g3833
(S't\x08\x00\x00\x00Database'
tRp4298
asbasbasbag56
(g72
g58
NtRp4299
(dp4300
g61
(dp4301
sg70
g4282
sg63
(lp4302
g56
(g77
g58
NtRp4303
(dp4304
g61
(dp4305
sg70
g4299
sg63
(lp4306
g56
(g57
g58
NtRp4307
(dp4308
g61
(dp4309
g69
I1
ssg70
g4303
sg63
(lp4310
I00
asbasbasbag56
(g72
g58
NtRp4311
(dp4312
g61
(dp4313
sg70
g4282
sg63
(lp4314
g56
(g77
g58
NtRp4315
(dp4316
g61
(dp4317
sg70
g4311
sg63
(lp4318
g56
(g57
g58
NtRp4319
(dp4320
g61
(dp4321
g69
I1
ssg70
g4315
sg63
(lp4322
S'/topoi/appadmin/index.load'
p4323
asbasbasbasbasbasbasbag56
(g72
g58
NtRp4324
(dp4325
g61
(dp4326
sg70
g3942
sg63
(lp4327
g56
(g77
g58
NtRp4328
(dp4329
g61
(dp4330
sg70
g4324
sg63
(lp4331
g56
(g57
g58
NtRp4332
(dp4333
g61
(dp4334
g69
I2
ssg70
g4328
sg63
(lp4335
g56
(g65
g58
NtRp4336
(dp4337
g61
(dp4338
g69
I1
ssg70
Nsg63
(lp4339
g56
(g72
g58
NtRp4340
(dp4341
g61
(dp4342
sg70
g4336
sg63
(lp4343
g56
(g77
g58
NtRp4344
(dp4345
g61
(dp4346
sg70
g4340
sg63
(lp4347
g56
(g57
g58
NtRp4348
(dp4349
g61
(dp4350
g69
I1
ssg70
g4344
sg63
(lp4351
g3833
(S't\x06\x00\x00\x00Errors'
tRp4352
asbasbasbag56
(g72
g58
NtRp4353
(dp4354
g61
(dp4355
sg70
g4336
sg63
(lp4356
g56
(g77
g58
NtRp4357
(dp4358
g61
(dp4359
sg70
g4353
sg63
(lp4360
g56
(g57
g58
NtRp4361
(dp4362
g61
(dp4363
g69
I1
ssg70
g4357
sg63
(lp4364
I00
asbasbasbag56
(g72
g58
NtRp4365
(dp4366
g61
(dp4367
sg70
g4336
sg63
(lp4368
g56
(g77
g58
NtRp4369
(dp4370
g61
(dp4371
sg70
g4365
sg63
(lp4372
g56
(g57
g58
NtRp4373
(dp4374
g61
(dp4375
g69
I1
ssg70
g4369
sg63
(lp4376
S'/admin/default/errors/topoi.load'
p4377
asbasbasbasbasbasbasbag56
(g72
g58
NtRp4378
(dp4379
g61
(dp4380
sg70
g3942
sg63
(lp4381
g56
(g77
g58
NtRp4382
(dp4383
g61
(dp4384
sg70
g4378
sg63
(lp4385
g56
(g57
g58
NtRp4386
(dp4387
g61
(dp4388
g69
I2
ssg70
g4382
sg63
(lp4389
g56
(g65
g58
NtRp4390
(dp4391
g61
(dp4392
g69
I1
ssg70
Nsg63
(lp4393
g56
(g72
g58
NtRp4394
(dp4395
g61
(dp4396
sg70
g4390
sg63
(lp4397
g56
(g77
g58
NtRp4398
(dp4399
g61
(dp4400
sg70
g4394
sg63
(lp4401
g56
(g57
g58
NtRp4402
(dp4403
g61
(dp4404
g69
I1
ssg70
g4398
sg63
(lp4405
g3833
(S't\x05\x00\x00\x00About'
tRp4406
asbasbasbag56
(g72
g58
NtRp4407
(dp4408
g61
(dp4409
sg70
g4390
sg63
(lp4410
g56
(g77
g58
NtRp4411
(dp4412
g61
(dp4413
sg70
g4407
sg63
(lp4414
g56
(g57
g58
NtRp4415
(dp4416
g61
(dp4417
g69
I1
ssg70
g4411
sg63
(lp4418
I00
asbasbasbag56
(g72
g58
NtRp4419
(dp4420
g61
(dp4421
sg70
g4390
sg63
(lp4422
g56
(g77
g58
NtRp4423
(dp4424
g61
(dp4425
sg70
g4419
sg63
(lp4426
g56
(g57
g58
NtRp4427
(dp4428
g61
(dp4429
g69
I1
ssg70
g4423
sg63
(lp4430
S'/admin/default/about/topoi.load'
p4431
asbasbasbasbasbasbasbasbasbasbasbasbasbasbasbasbasbasbasbag56
(g72
g58
NtRp4432
(dp4433
g61
(dp4434
sg70
g3328
sg63
(lp4435
g56
(g77
g58
NtRp4436
(dp4437
g61
(dp4438
g81
g82
ssg70
g4432
sg63
(lp4439
S'meta'
p4440
asbag56
(g77
g58
NtRp4441
(dp4442
g61
(dp4443
g88
g89
ssg70
g4432
sg63
(lp4444
S':'
asbag56
(g77
g58
NtRp4445
(dp4446
g61
(dp4447
sg70
g4432
sg63
(lp4448
g56
(g57
g58
NtRp4449
(dp4450
g61
(dp4451
g69
I5
ssg70
g4445
sg63
(lp4452
g56
(g65
g58
NtRp4453
(dp4454
g61
(dp4455
g69
I4
ssg70
Nsg63
(lp4456
g56
(g72
g58
NtRp4457
(dp4458
g61
(dp4459
sg70
g4453
sg63
(lp4460
g56
(g77
g58
NtRp4461
(dp4462
g61
(dp4463
g81
g82
ssg70
g4457
sg63
(lp4464
S'author'
p4465
asbag56
(g77
g58
NtRp4466
(dp4467
g61
(dp4468
g88
g89
ssg70
g4457
sg63
(lp4469
S':'
asbag56
(g77
g58
NtRp4470
(dp4471
g61
(dp4472
sg70
g4457
sg63
(lp4473
g56
(g57
g58
NtRp4474
(dp4475
g61
(dp4476
g69
I4
ssg70
g4470
sg63
(lp4477
S'Ian W. Scott'
p4478
asbasbasbag56
(g72
g58
NtRp4479
(dp4480
g61
(dp4481
sg70
g4453
sg63
(lp4482
g56
(g77
g58
NtRp4483
(dp4484
g61
(dp4485
g81
g82
ssg70
g4479
sg63
(lp4486
S'copyright'
p4487
asbag56
(g77
g58
NtRp4488
(dp4489
g61
(dp4490
g88
g89
ssg70
g4479
sg63
(lp4491
S':'
asbag56
(g77
g58
NtRp4492
(dp4493
g61
(dp4494
sg70
g4479
sg63
(lp4495
g56
(g57
g58
NtRp4496
(dp4497
g61
(dp4498
g69
I4
ssg70
g4492
sg63
(lp4499
S'Copyright 2011'
p4500
asbasbasbag56
(g72
g58
NtRp4501
(dp4502
g61
(dp4503
sg70
g4453
sg63
(lp4504
g56
(g77
g58
NtRp4505
(dp4506
g61
(dp4507
g81
g82
ssg70
g4501
sg63
(lp4508
S'description'
p4509
asbag56
(g77
g58
NtRp4510
(dp4511
g61
(dp4512
g88
g89
ssg70
g4501
sg63
(lp4513
S':'
asbag56
(g77
g58
NtRp4514
(dp4515
g61
(dp4516
sg70
g4501
sg63
(lp4517
g56
(g57
g58
NtRp4518
(dp4519
g61
(dp4520
g69
I4
ssg70
g4514
sg63
(lp4521
S'A web-app for managing primary-text research in the humanities.'
p4522
asbasbasbag56
(g72
g58
NtRp4523
(dp4524
g61
(dp4525
sg70
g4453
sg63
(lp4526
g56
(g77
g58
NtRp4527
(dp4528
g61
(dp4529
g81
g82
ssg70
g4523
sg63
(lp4530
S'generator'
p4531
asbag56
(g77
g58
NtRp4532
(dp4533
g61
(dp4534
g88
g89
ssg70
g4523
sg63
(lp4535
S':'
asbag56
(g77
g58
NtRp4536
(dp4537
g61
(dp4538
sg70
g4523
sg63
(lp4539
g56
(g57
g58
NtRp4540
(dp4541
g61
(dp4542
g69
I4
ssg70
g4536
sg63
(lp4543
S'Web2py Enterprise Framework'
p4544
asbasbasbag56
(g72
g58
NtRp4545
(dp4546
g61
(dp4547
sg70
g4453
sg63
(lp4548
g56
(g77
g58
NtRp4549
(dp4550
g61
(dp4551
g81
g82
ssg70
g4545
sg63
(lp4552
S'keywords'
p4553
asbag56
(g77
g58
NtRp4554
(dp4555
g61
(dp4556
g88
g89
ssg70
g4545
sg63
(lp4557
S':'
asbag56
(g77
g58
NtRp4558
(dp4559
g61
(dp4560
sg70
g4545
sg63
(lp4561
g56
(g57
g58
NtRp4562
(dp4563
g61
(dp4564
g69
I4
ssg70
g4558
sg63
(lp4565
S'research, humanities, biblical'
p4566
asbasbasbasbasbasbasbag56
(g72
g58
NtRp4567
(dp4568
g61
(dp4569
sg70
g3328
sg63
(lp4570
g56
(g77
g58
NtRp4571
(dp4572
g61
(dp4573
g81
g82
ssg70
g4567
sg63
(lp4574
S'postprocessing'
p4575
asbag56
(g77
g58
NtRp4576
(dp4577
g61
(dp4578
g88
g89
ssg70
g4567
sg63
(lp4579
S':'
asbag56
(g77
g58
NtRp4580
(dp4581
g61
(dp4582
sg70
g4567
sg63
(lp4583
g56
(g57
g58
NtRp4584
(dp4585
g61
(dp4586
g69
I5
ssg70
g4580
sg63
(lp4587
g56
(g65
g58
NtRp4588
(dp4589
g61
(dp4590
g69
I4
ssg70
Nsg63
(lp4591
sbasbasbasbag56
(g72
g58
NtRp4592
(dp4593
g61
(dp4594
sg70
g3328
sg63
(lp4595
g56
(g77
g58
NtRp4596
(dp4597
g61
(dp4598
g81
g82
ssg70
g4592
sg63
(lp4599
S'session_file'
p4600
asbag56
(g77
g58
NtRp4601
(dp4602
g61
(dp4603
g88
g89
ssg70
g4592
sg63
(lp4604
S':'
asbag56
(g77
g58
NtRp4605
(dp4606
g61
(dp4607
sg70
g4592
sg63
(lp4608
g56
(g57
g58
NtRp4609
(dp4610
g61
(dp4611
g69
I5
ssg70
g4605
sg63
(lp4612
S"<open file '/home/ian/web2py/applications/topoi/sessions/127.0.0.1-0588fa82-2e60-4d5b-a573-6149f0d086d8', mode 'rb+' at 0x3700b70>"
p4613
asbasbasbag56
(g72
g58
NtRp4614
(dp4615
g61
(dp4616
sg70
g3328
sg63
(lp4617
g56
(g77
g58
NtRp4618
(dp4619
g61
(dp4620
g81
g82
ssg70
g4614
sg63
(lp4621
S'session_filename'
p4622
asbag56
(g77
g58
NtRp4623
(dp4624
g61
(dp4625
g88
g89
ssg70
g4614
sg63
(lp4626
S':'
asbag56
(g77
g58
NtRp4627
(dp4628
g61
(dp4629
sg70
g4614
sg63
(lp4630
g56
(g57
g58
NtRp4631
(dp4632
g61
(dp4633
g69
I5
ssg70
g4627
sg63
(lp4634
S'/home/ian/web2py/applications/topoi/sessions/127.0.0.1-0588fa82-2e60-4d5b-a573-6149f0d086d8'
p4635
asbasbasbag56
(g72
g58
NtRp4636
(dp4637
g61
(dp4638
sg70
g3328
sg63
(lp4639
g56
(g77
g58
NtRp4640
(dp4641
g61
(dp4642
g81
g82
ssg70
g4636
sg63
(lp4643
S'session_id'
p4644
asbag56
(g77
g58
NtRp4645
(dp4646
g61
(dp4647
g88
g89
ssg70
g4636
sg63
(lp4648
S':'
asbag56
(g77
g58
NtRp4649
(dp4650
g61
(dp4651
sg70
g4636
sg63
(lp4652
g56
(g57
g58
NtRp4653
(dp4654
g61
(dp4655
g69
I5
ssg70
g4649
sg63
(lp4656
S'127.0.0.1-0588fa82-2e60-4d5b-a573-6149f0d086d8'
p4657
asbasbasbag56
(g72
g58
NtRp4658
(dp4659
g61
(dp4660
sg70
g3328
sg63
(lp4661
g56
(g77
g58
NtRp4662
(dp4663
g61
(dp4664
g81
g82
ssg70
g4658
sg63
(lp4665
S'session_id_name'
p4666
asbag56
(g77
g58
NtRp4667
(dp4668
g61
(dp4669
g88
g89
ssg70
g4658
sg63
(lp4670
S':'
asbag56
(g77
g58
NtRp4671
(dp4672
g61
(dp4673
sg70
g4658
sg63
(lp4674
g56
(g57
g58
NtRp4675
(dp4676
g61
(dp4677
g69
I5
ssg70
g4671
sg63
(lp4678
g3385
asbasbasbag56
(g72
g58
NtRp4679
(dp4680
g61
(dp4681
sg70
g3328
sg63
(lp4682
g56
(g77
g58
NtRp4683
(dp4684
g61
(dp4685
g81
g82
ssg70
g4679
sg63
(lp4686
S'session_locked'
p4687
asbag56
(g77
g58
NtRp4688
(dp4689
g61
(dp4690
g88
g89
ssg70
g4679
sg63
(lp4691
S':'
asbag56
(g77
g58
NtRp4692
(dp4693
g61
(dp4694
sg70
g4679
sg63
(lp4695
g56
(g57
g58
NtRp4696
(dp4697
g61
(dp4698
g69
I5
ssg70
g4692
sg63
(lp4699
g99
asbasbasbag56
(g72
g58
NtRp4700
(dp4701
g61
(dp4702
sg70
g3328
sg63
(lp4703
g56
(g77
g58
NtRp4704
(dp4705
g61
(dp4706
g81
g82
ssg70
g4700
sg63
(lp4707
S'session_new'
p4708
asbag56
(g77
g58
NtRp4709
(dp4710
g61
(dp4711
g88
g89
ssg70
g4700
sg63
(lp4712
S':'
asbag56
(g77
g58
NtRp4713
(dp4714
g61
(dp4715
sg70
g4700
sg63
(lp4716
g56
(g57
g58
NtRp4717
(dp4718
g61
(dp4719
g69
I5
ssg70
g4713
sg63
(lp4720
g1007
asbasbasbag56
(g72
g58
NtRp4721
(dp4722
g61
(dp4723
sg70
g3328
sg63
(lp4724
g56
(g77
g58
NtRp4725
(dp4726
g61
(dp4727
g81
g82
ssg70
g4721
sg63
(lp4728
S'status'
p4729
asbag56
(g77
g58
NtRp4730
(dp4731
g61
(dp4732
g88
g89
ssg70
g4721
sg63
(lp4733
S':'
asbag56
(g77
g58
NtRp4734
(dp4735
g61
(dp4736
sg70
g4721
sg63
(lp4737
g56
(g57
g58
NtRp4738
(dp4739
g61
(dp4740
g69
I5
ssg70
g4734
sg63
(lp4741
S'200'
p4742
asbasbasbag56
(g72
g58
NtRp4743
(dp4744
g61
(dp4745
sg70
g3328
sg63
(lp4746
g56
(g77
g58
NtRp4747
(dp4748
g61
(dp4749
g81
g82
ssg70
g4743
sg63
(lp4750
S'subtitle'
p4751
asbag56
(g77
g58
NtRp4752
(dp4753
g61
(dp4754
g88
g89
ssg70
g4743
sg63
(lp4755
S':'
asbag56
(g77
g58
NtRp4756
(dp4757
g61
(dp4758
sg70
g4743
sg63
(lp4759
g56
(g57
g58
NtRp4760
(dp4761
g61
(dp4762
g69
I5
ssg70
g4756
sg63
(lp4763
g3833
(S's;\x00\x00\x00A tool for managing primary-text research in the humanities'
tRp4764
asbasbasbag56
(g72
g58
NtRp4765
(dp4766
g61
(dp4767
sg70
g3328
sg63
(lp4768
g56
(g77
g58
NtRp4769
(dp4770
g61
(dp4771
g81
g82
ssg70
g4765
sg63
(lp4772
S'title'
p4773
asbag56
(g77
g58
NtRp4774
(dp4775
g61
(dp4776
g88
g89
ssg70
g4765
sg63
(lp4777
S':'
asbag56
(g77
g58
NtRp4778
(dp4779
g61
(dp4780
sg70
g4765
sg63
(lp4781
g56
(g57
g58
NtRp4782
(dp4783
g61
(dp4784
g69
I5
ssg70
g4778
sg63
(lp4785
g121
asbasbasbag56
(g72
g58
NtRp4786
(dp4787
g61
(dp4788
sg70
g3328
sg63
(lp4789
g56
(g77
g58
NtRp4790
(dp4791
g61
(dp4792
g81
g82
ssg70
g4786
sg63
(lp4793
g2456
asbag56
(g77
g58
NtRp4794
(dp4795
g61
(dp4796
g88
g89
ssg70
g4786
sg63
(lp4797
S':'
asbag56
(g77
g58
NtRp4798
(dp4799
g61
(dp4800
sg70
g4786
sg63
(lp4801
g56
(g57
g58
NtRp4802
(dp4803
g61
(dp4804
g69
I5
ssg70
g4798
sg63
(lp4805
g2469
asbasbasbag56
(g72
g58
NtRp4806
(dp4807
g61
(dp4808
sg70
g3328
sg63
(lp4809
g56
(g77
g58
NtRp4810
(dp4811
g61
(dp4812
g81
g82
ssg70
g4806
sg63
(lp4813
S'view'
p4814
asbag56
(g77
g58
NtRp4815
(dp4816
g61
(dp4817
g88
g89
ssg70
g4806
sg63
(lp4818
S':'
asbag56
(g77
g58
NtRp4819
(dp4820
g61
(dp4821
sg70
g4806
sg63
(lp4822
g56
(g57
g58
NtRp4823
(dp4824
g61
(dp4825
g69
I5
ssg70
g4819
sg63
(lp4826
S'plugin_ajaxselect/set_widget.load'
p4827
asbasbasbasbasbsS'locals'
p4828
(dp4829
g61
g44
sS'widget_attributes'
p4830
S"{'value': '10'}"
p4831
sS'field'
p4832
S"'notes.author'"
p4833
sssS'traceback'
p4834
S'Traceback (most recent call last):\n  File "/home/ian/web2py/gluon/restricted.py", line 194, in restricted\n    exec ccode in environment\n  File "/home/ian/web2py/applications/topoi/controllers/plugin_ajaxselect.py", line 12, in <module>\n  File "/home/ian/web2py/gluon/globals.py", line 149, in <lambda>\n    self._caller = lambda f: f()\n  File "/home/ian/web2py/applications/topoi/controllers/plugin_ajaxselect.py", line 9, in set_widget\n    w = OptionsWidget.widget(field, value)\n  File "/home/ian/web2py/gluon/sqlhtml.py", line 210, in widget\n    attr = OptionsWidget._attributes(field, default, **attributes)\n  File "/home/ian/web2py/gluon/sqlhtml.py", line 74, in _attributes\n    _id = \'%s_%s\' % (field._tablename, field.name),\nAttributeError: \'str\' object has no attribute \'_tablename\'\n'
p4835
s.