(dp1
S'output'
p2
S''
sS'layer'
p3
S'/home/ian/web2py/applications/topoi/models/topoi.py'
p4
sS'code'
p5
S'# coding: utf8\nfrom plugin_selectoradd import SELECT_OR_ADD_OPTION\nfrom plugin_multiselect_widget import hmultiselect_widget, vmultiselect_widget\nimport datetime\n\nadd_option = SELECT_OR_ADD_OPTION(form_title="Add new", controller="plugin_selectoradd", function="add", button_text = "Add New", dialog_width=500)\n\ndb.define_table(\'locations\',\n    Field(\'location\', \'string\'),\n    format=\'%(location)s\')\n\ndb.define_table(\'authors\', \n    Field(\'name\', \'string\', default=\'anonymous\'),\n    Field(\'location\', db.locations),\n    Field(\'lived\', \'string\'), \n    format=\'%(name)s\')\ndb.authors.location.widget = add_option.widget \n        \ndb.define_table(\'works\',\n    Field(\'title\', \'string\'),\n    Field(\'author\', db.authors),\n    Field(\'date_earliest\'),\n    Field(\'date_latest\'),\n    Field(\'date_likely\'),\n    Field(\'genre\'),\n    Field(\'source\'),\n    Field(\'comments\'),\n    format=\'%(title)s\')\n\ndb.define_table(\'projects\',\n    Field(\'projectname\', \'string\'),\n    Field(\'owner\', db.auth_user, default=auth.user_id),\n    Field(\'description\', \'text\'),\n    format=\'%(projectname)s\')\n\ndb.define_table(\'tags\',\n    Field(\'tagname\', \'string\'),\n    Field(\'creator\', db.auth_user, default=auth.user_id),\n    Field(\'project\', db.projects),\n    format=\'%(tagname)s\')\n    \ndb.define_table(\'notes\',\n    Field(\'label\', \'string\'),\n    Field(\'user\', db.auth_user, default=auth.user_id),\n    Field(\'author\', db.authors),\n    Field(\'work\', db.works),\n    Field(\'reference\'),\n    Field(\'excerpt\'),\n    Field(\'body\', \'text\'),\n    Field(\'tags\', \'list:reference db.tags\'),\n    Field(\'last_edited\', \'datetime\', default=datetime.datetime.utcnow()),\n    Field(\'project\', db.projects),\n    format=\'%(label)s\')\n#Initialize the add-or-select widget\ndb.notes.author.widget = add_option.widget\ndb.notes.work.widget = add_option.widget\ndb.notes.tags.requires = IS_IN_DB(db, \'tags.id\', db.tags._format, multiple = True)\ndb.notes.tags.widget = hmultiselect_widget\ndb.notes.project.widget = add_option.widget\n'
p6
sS'snapshot'
p7
(dp8
S'exception'
p9
(dp10
S'__hash__'
p11
S"<method-wrapper '__hash__' of exceptions.ImportError object>"
p12
sS'__setattr__'
p13
S"<method-wrapper '__setattr__' of exceptions.ImportError object>"
p14
sS'__reduce_ex__'
p15
S'<built-in method __reduce_ex__ of exceptions.ImportError object>'
p16
sS'__getslice__'
p17
S"<method-wrapper '__getslice__' of exceptions.ImportError object>"
p18
sS'__getitem__'
p19
S"<method-wrapper '__getitem__' of exceptions.ImportError object>"
p20
sS'__setstate__'
p21
S'<built-in method __setstate__ of exceptions.ImportError object>'
p22
sS'args'
p23
S"('No module named plugin_selectoradd',)"
p24
sS'__reduce__'
p25
S'<built-in method __reduce__ of exceptions.ImportError object>'
p26
sS'__str__'
p27
S"<method-wrapper '__str__' of exceptions.ImportError object>"
p28
sS'__format__'
p29
S'<built-in method __format__ of exceptions.ImportError object>'
p30
sS'__getattribute__'
p31
S"<method-wrapper '__getattribute__' of exceptions.ImportError object>"
p32
sS'__class__'
p33
S"<type 'exceptions.ImportError'>"
p34
sS'__unicode__'
p35
S'<built-in method __unicode__ of exceptions.ImportError object>'
p36
sS'__delattr__'
p37
S"<method-wrapper '__delattr__' of exceptions.ImportError object>"
p38
sS'__subclasshook__'
p39
S'<built-in method __subclasshook__ of type object>'
p40
sS'__repr__'
p41
S"<method-wrapper '__repr__' of exceptions.ImportError object>"
p42
sS'__dict__'
p43
S'{}'
p44
sS'__sizeof__'
p45
S'<built-in method __sizeof__ of exceptions.ImportError object>'
p46
sS'__doc__'
p47
S'"Import can\'t find module, or can\'t find name in module."'
p48
sS'__init__'
p49
S"<method-wrapper '__init__' of exceptions.ImportError object>"
p50
sS'__new__'
p51
S'<built-in method __new__ of type object>'
p52
ssS'evalue'
p53
S'No module named plugin_selectoradd'
p54
sS'request'
p55
ccopy_reg
_reconstructor
p56
(cgluon.html
BEAUTIFY
p57
c__builtin__
object
p58
NtRp59
(dp60
S'attributes'
p61
(dp62
sS'components'
p63
(lp64
g56
(cgluon.html
TABLE
p65
g58
NtRp66
(dp67
g61
(dp68
S'level'
p69
I5
ssS'parent'
p70
Nsg63
(lp71
g56
(cgluon.html
TR
p72
g58
NtRp73
(dp74
g61
(dp75
sg70
g66
sg63
(lp76
g56
(cgluon.html
TD
p77
g58
NtRp78
(dp79
g61
(dp80
S'_style'
p81
S'font-weight:bold;'
p82
ssg70
g73
sg63
(lp83
S'ajax'
p84
asbag56
(g77
g58
NtRp85
(dp86
g61
(dp87
S'_valign'
p88
S'top'
p89
ssg70
g73
sg63
(lp90
S':'
asbag56
(g77
g58
NtRp91
(dp92
g61
(dp93
sg70
g73
sg63
(lp94
g56
(g57
g58
NtRp95
(dp96
g61
(dp97
g69
I5
ssg70
g91
sg63
(lp98
S'False'
p99
asbasbasbag56
(g72
g58
NtRp100
(dp101
g61
(dp102
sg70
g66
sg63
(lp103
g56
(g77
g58
NtRp104
(dp105
g61
(dp106
g81
g82
ssg70
g100
sg63
(lp107
S'application'
p108
asbag56
(g77
g58
NtRp109
(dp110
g61
(dp111
g88
g89
ssg70
g100
sg63
(lp112
S':'
asbag56
(g77
g58
NtRp113
(dp114
g61
(dp115
sg70
g100
sg63
(lp116
g56
(g57
g58
NtRp117
(dp118
g61
(dp119
g69
I5
ssg70
g113
sg63
(lp120
S'topoi'
p121
asbasbasbag56
(g72
g58
NtRp122
(dp123
g61
(dp124
sg70
g66
sg63
(lp125
g56
(g77
g58
NtRp126
(dp127
g61
(dp128
g81
g82
ssg70
g122
sg63
(lp129
g23
asbag56
(g77
g58
NtRp130
(dp131
g61
(dp132
g88
g89
ssg70
g122
sg63
(lp133
S':'
asbag56
(g77
g58
NtRp134
(dp135
g61
(dp136
sg70
g122
sg63
(lp137
g56
(g57
g58
NtRp138
(dp139
g61
(dp140
g69
I5
ssg70
g134
sg63
(lp141
g56
(g65
g58
NtRp142
(dp143
g61
(dp144
g69
I4
ssg70
Nsg63
(lp145
g56
(g72
g58
NtRp146
(dp147
g61
(dp148
sg70
g142
sg63
(lp149
g56
(g77
g58
NtRp150
(dp151
g61
(dp152
sg70
g146
sg63
(lp153
g56
(g57
g58
NtRp154
(dp155
g61
(dp156
g69
I4
ssg70
g150
sg63
(lp157
S'note'
p158
asbasbasbag56
(g72
g58
NtRp159
(dp160
g61
(dp161
sg70
g142
sg63
(lp162
g56
(g77
g58
NtRp163
(dp164
g61
(dp165
sg70
g159
sg63
(lp166
g56
(g57
g58
NtRp167
(dp168
g61
(dp169
g69
I4
ssg70
g163
sg63
(lp170
S'1'
asbasbasbasbasbasbasbag56
(g72
g58
NtRp171
(dp172
g61
(dp173
sg70
g66
sg63
(lp174
g56
(g77
g58
NtRp175
(dp176
g61
(dp177
g81
g82
ssg70
g171
sg63
(lp178
S'body'
p179
asbag56
(g77
g58
NtRp180
(dp181
g61
(dp182
g88
g89
ssg70
g171
sg63
(lp183
S':'
asbag56
(g77
g58
NtRp184
(dp185
g61
(dp186
sg70
g171
sg63
(lp187
g56
(g57
g58
NtRp188
(dp189
g61
(dp190
g69
I5
ssg70
g184
sg63
(lp191
S'<cStringIO.StringO object at 0x451dc70>'
p192
asbasbasbag56
(g72
g58
NtRp193
(dp194
g61
(dp195
sg70
g66
sg63
(lp196
g56
(g77
g58
NtRp197
(dp198
g61
(dp199
g81
g82
ssg70
g193
sg63
(lp200
S'client'
p201
asbag56
(g77
g58
NtRp202
(dp203
g61
(dp204
g88
g89
ssg70
g193
sg63
(lp205
S':'
asbag56
(g77
g58
NtRp206
(dp207
g61
(dp208
sg70
g193
sg63
(lp209
g56
(g57
g58
NtRp210
(dp211
g61
(dp212
g69
I5
ssg70
g206
sg63
(lp213
S'127.0.0.1'
p214
asbasbasbag56
(g72
g58
NtRp215
(dp216
g61
(dp217
sg70
g66
sg63
(lp218
g56
(g77
g58
NtRp219
(dp220
g61
(dp221
g81
g82
ssg70
g215
sg63
(lp222
S'controller'
p223
asbag56
(g77
g58
NtRp224
(dp225
g61
(dp226
g88
g89
ssg70
g215
sg63
(lp227
S':'
asbag56
(g77
g58
NtRp228
(dp229
g61
(dp230
sg70
g215
sg63
(lp231
g56
(g57
g58
NtRp232
(dp233
g61
(dp234
g69
I5
ssg70
g228
sg63
(lp235
S'plugin_listandedit'
p236
asbasbasbag56
(g72
g58
NtRp237
(dp238
g61
(dp239
sg70
g66
sg63
(lp240
g56
(g77
g58
NtRp241
(dp242
g61
(dp243
g81
g82
ssg70
g237
sg63
(lp244
S'cookies'
p245
asbag56
(g77
g58
NtRp246
(dp247
g61
(dp248
g88
g89
ssg70
g237
sg63
(lp249
S':'
asbag56
(g77
g58
NtRp250
(dp251
g61
(dp252
sg70
g237
sg63
(lp253
g56
(g57
g58
NtRp254
(dp255
g61
(dp256
g69
I5
ssg70
g250
sg63
(lp257
g56
(g65
g58
NtRp258
(dp259
g61
(dp260
g69
I4
ssg70
Nsg63
(lp261
g56
(g72
g58
NtRp262
(dp263
g61
(dp264
sg70
g258
sg63
(lp265
g56
(g77
g58
NtRp266
(dp267
g61
(dp268
g81
g82
ssg70
g262
sg63
(lp269
S'session_id_admin'
p270
asbag56
(g77
g58
NtRp271
(dp272
g61
(dp273
g88
g89
ssg70
g262
sg63
(lp274
S':'
asbag56
(g77
g58
NtRp275
(dp276
g61
(dp277
sg70
g262
sg63
(lp278
g56
(g57
g58
NtRp279
(dp280
g61
(dp281
g69
I4
ssg70
g275
sg63
(lp282
g56
(g65
g58
NtRp283
(dp284
g61
(dp285
g69
I3
ssg70
Nsg63
(lp286
g56
(g72
g58
NtRp287
(dp288
g61
(dp289
sg70
g283
sg63
(lp290
g56
(g77
g58
NtRp291
(dp292
g61
(dp293
g81
g82
ssg70
g287
sg63
(lp294
S'comment'
p295
asbag56
(g77
g58
NtRp296
(dp297
g61
(dp298
g88
g89
ssg70
g287
sg63
(lp299
S':'
asbag56
(g77
g58
NtRp300
(dp301
g61
(dp302
sg70
g287
sg63
(lp303
g56
(g57
g58
NtRp304
(dp305
g61
(dp306
g69
I3
ssg70
g300
sg63
(lp307
S''
asbasbasbag56
(g72
g58
NtRp308
(dp309
g61
(dp310
sg70
g283
sg63
(lp311
g56
(g77
g58
NtRp312
(dp313
g61
(dp314
g81
g82
ssg70
g308
sg63
(lp315
S'domain'
p316
asbag56
(g77
g58
NtRp317
(dp318
g61
(dp319
g88
g89
ssg70
g308
sg63
(lp320
S':'
asbag56
(g77
g58
NtRp321
(dp322
g61
(dp323
sg70
g308
sg63
(lp324
g56
(g57
g58
NtRp325
(dp326
g61
(dp327
g69
I3
ssg70
g321
sg63
(lp328
S''
asbasbasbag56
(g72
g58
NtRp329
(dp330
g61
(dp331
sg70
g283
sg63
(lp332
g56
(g77
g58
NtRp333
(dp334
g61
(dp335
g81
g82
ssg70
g329
sg63
(lp336
S'expires'
p337
asbag56
(g77
g58
NtRp338
(dp339
g61
(dp340
g88
g89
ssg70
g329
sg63
(lp341
S':'
asbag56
(g77
g58
NtRp342
(dp343
g61
(dp344
sg70
g329
sg63
(lp345
g56
(g57
g58
NtRp346
(dp347
g61
(dp348
g69
I3
ssg70
g342
sg63
(lp349
S''
asbasbasbag56
(g72
g58
NtRp350
(dp351
g61
(dp352
sg70
g283
sg63
(lp353
g56
(g77
g58
NtRp354
(dp355
g61
(dp356
g81
g82
ssg70
g350
sg63
(lp357
S'httponly'
p358
asbag56
(g77
g58
NtRp359
(dp360
g61
(dp361
g88
g89
ssg70
g350
sg63
(lp362
S':'
asbag56
(g77
g58
NtRp363
(dp364
g61
(dp365
sg70
g350
sg63
(lp366
g56
(g57
g58
NtRp367
(dp368
g61
(dp369
g69
I3
ssg70
g363
sg63
(lp370
S''
asbasbasbag56
(g72
g58
NtRp371
(dp372
g61
(dp373
sg70
g283
sg63
(lp374
g56
(g77
g58
NtRp375
(dp376
g61
(dp377
g81
g82
ssg70
g371
sg63
(lp378
S'max-age'
p379
asbag56
(g77
g58
NtRp380
(dp381
g61
(dp382
g88
g89
ssg70
g371
sg63
(lp383
S':'
asbag56
(g77
g58
NtRp384
(dp385
g61
(dp386
sg70
g371
sg63
(lp387
g56
(g57
g58
NtRp388
(dp389
g61
(dp390
g69
I3
ssg70
g384
sg63
(lp391
S''
asbasbasbag56
(g72
g58
NtRp392
(dp393
g61
(dp394
sg70
g283
sg63
(lp395
g56
(g77
g58
NtRp396
(dp397
g61
(dp398
g81
g82
ssg70
g392
sg63
(lp399
S'path'
p400
asbag56
(g77
g58
NtRp401
(dp402
g61
(dp403
g88
g89
ssg70
g392
sg63
(lp404
S':'
asbag56
(g77
g58
NtRp405
(dp406
g61
(dp407
sg70
g392
sg63
(lp408
g56
(g57
g58
NtRp409
(dp410
g61
(dp411
g69
I3
ssg70
g405
sg63
(lp412
S''
asbasbasbag56
(g72
g58
NtRp413
(dp414
g61
(dp415
sg70
g283
sg63
(lp416
g56
(g77
g58
NtRp417
(dp418
g61
(dp419
g81
g82
ssg70
g413
sg63
(lp420
S'secure'
p421
asbag56
(g77
g58
NtRp422
(dp423
g61
(dp424
g88
g89
ssg70
g413
sg63
(lp425
S':'
asbag56
(g77
g58
NtRp426
(dp427
g61
(dp428
sg70
g413
sg63
(lp429
g56
(g57
g58
NtRp430
(dp431
g61
(dp432
g69
I3
ssg70
g426
sg63
(lp433
S''
asbasbasbag56
(g72
g58
NtRp434
(dp435
g61
(dp436
sg70
g283
sg63
(lp437
g56
(g77
g58
NtRp438
(dp439
g61
(dp440
g81
g82
ssg70
g434
sg63
(lp441
S'version'
p442
asbag56
(g77
g58
NtRp443
(dp444
g61
(dp445
g88
g89
ssg70
g434
sg63
(lp446
S':'
asbag56
(g77
g58
NtRp447
(dp448
g61
(dp449
sg70
g434
sg63
(lp450
g56
(g57
g58
NtRp451
(dp452
g61
(dp453
g69
I3
ssg70
g447
sg63
(lp454
S''
asbasbasbasbasbasbasbag56
(g72
g58
NtRp455
(dp456
g61
(dp457
sg70
g258
sg63
(lp458
g56
(g77
g58
NtRp459
(dp460
g61
(dp461
g81
g82
ssg70
g455
sg63
(lp462
S'session_id_paideia'
p463
asbag56
(g77
g58
NtRp464
(dp465
g61
(dp466
g88
g89
ssg70
g455
sg63
(lp467
S':'
asbag56
(g77
g58
NtRp468
(dp469
g61
(dp470
sg70
g455
sg63
(lp471
g56
(g57
g58
NtRp472
(dp473
g61
(dp474
g69
I4
ssg70
g468
sg63
(lp475
g56
(g65
g58
NtRp476
(dp477
g61
(dp478
g69
I3
ssg70
Nsg63
(lp479
g56
(g72
g58
NtRp480
(dp481
g61
(dp482
sg70
g476
sg63
(lp483
g56
(g77
g58
NtRp484
(dp485
g61
(dp486
g81
g82
ssg70
g480
sg63
(lp487
g295
asbag56
(g77
g58
NtRp488
(dp489
g61
(dp490
g88
g89
ssg70
g480
sg63
(lp491
S':'
asbag56
(g77
g58
NtRp492
(dp493
g61
(dp494
sg70
g480
sg63
(lp495
g56
(g57
g58
NtRp496
(dp497
g61
(dp498
g69
I3
ssg70
g492
sg63
(lp499
S''
asbasbasbag56
(g72
g58
NtRp500
(dp501
g61
(dp502
sg70
g476
sg63
(lp503
g56
(g77
g58
NtRp504
(dp505
g61
(dp506
g81
g82
ssg70
g500
sg63
(lp507
g316
asbag56
(g77
g58
NtRp508
(dp509
g61
(dp510
g88
g89
ssg70
g500
sg63
(lp511
S':'
asbag56
(g77
g58
NtRp512
(dp513
g61
(dp514
sg70
g500
sg63
(lp515
g56
(g57
g58
NtRp516
(dp517
g61
(dp518
g69
I3
ssg70
g512
sg63
(lp519
S''
asbasbasbag56
(g72
g58
NtRp520
(dp521
g61
(dp522
sg70
g476
sg63
(lp523
g56
(g77
g58
NtRp524
(dp525
g61
(dp526
g81
g82
ssg70
g520
sg63
(lp527
g337
asbag56
(g77
g58
NtRp528
(dp529
g61
(dp530
g88
g89
ssg70
g520
sg63
(lp531
S':'
asbag56
(g77
g58
NtRp532
(dp533
g61
(dp534
sg70
g520
sg63
(lp535
g56
(g57
g58
NtRp536
(dp537
g61
(dp538
g69
I3
ssg70
g532
sg63
(lp539
S''
asbasbasbag56
(g72
g58
NtRp540
(dp541
g61
(dp542
sg70
g476
sg63
(lp543
g56
(g77
g58
NtRp544
(dp545
g61
(dp546
g81
g82
ssg70
g540
sg63
(lp547
g358
asbag56
(g77
g58
NtRp548
(dp549
g61
(dp550
g88
g89
ssg70
g540
sg63
(lp551
S':'
asbag56
(g77
g58
NtRp552
(dp553
g61
(dp554
sg70
g540
sg63
(lp555
g56
(g57
g58
NtRp556
(dp557
g61
(dp558
g69
I3
ssg70
g552
sg63
(lp559
S''
asbasbasbag56
(g72
g58
NtRp560
(dp561
g61
(dp562
sg70
g476
sg63
(lp563
g56
(g77
g58
NtRp564
(dp565
g61
(dp566
g81
g82
ssg70
g560
sg63
(lp567
g379
asbag56
(g77
g58
NtRp568
(dp569
g61
(dp570
g88
g89
ssg70
g560
sg63
(lp571
S':'
asbag56
(g77
g58
NtRp572
(dp573
g61
(dp574
sg70
g560
sg63
(lp575
g56
(g57
g58
NtRp576
(dp577
g61
(dp578
g69
I3
ssg70
g572
sg63
(lp579
S''
asbasbasbag56
(g72
g58
NtRp580
(dp581
g61
(dp582
sg70
g476
sg63
(lp583
g56
(g77
g58
NtRp584
(dp585
g61
(dp586
g81
g82
ssg70
g580
sg63
(lp587
g400
asbag56
(g77
g58
NtRp588
(dp589
g61
(dp590
g88
g89
ssg70
g580
sg63
(lp591
S':'
asbag56
(g77
g58
NtRp592
(dp593
g61
(dp594
sg70
g580
sg63
(lp595
g56
(g57
g58
NtRp596
(dp597
g61
(dp598
g69
I3
ssg70
g592
sg63
(lp599
S''
asbasbasbag56
(g72
g58
NtRp600
(dp601
g61
(dp602
sg70
g476
sg63
(lp603
g56
(g77
g58
NtRp604
(dp605
g61
(dp606
g81
g82
ssg70
g600
sg63
(lp607
g421
asbag56
(g77
g58
NtRp608
(dp609
g61
(dp610
g88
g89
ssg70
g600
sg63
(lp611
S':'
asbag56
(g77
g58
NtRp612
(dp613
g61
(dp614
sg70
g600
sg63
(lp615
g56
(g57
g58
NtRp616
(dp617
g61
(dp618
g69
I3
ssg70
g612
sg63
(lp619
S''
asbasbasbag56
(g72
g58
NtRp620
(dp621
g61
(dp622
sg70
g476
sg63
(lp623
g56
(g77
g58
NtRp624
(dp625
g61
(dp626
g81
g82
ssg70
g620
sg63
(lp627
g442
asbag56
(g77
g58
NtRp628
(dp629
g61
(dp630
g88
g89
ssg70
g620
sg63
(lp631
S':'
asbag56
(g77
g58
NtRp632
(dp633
g61
(dp634
sg70
g620
sg63
(lp635
g56
(g57
g58
NtRp636
(dp637
g61
(dp638
g69
I3
ssg70
g632
sg63
(lp639
S''
asbasbasbasbasbasbasbag56
(g72
g58
NtRp640
(dp641
g61
(dp642
sg70
g258
sg63
(lp643
g56
(g77
g58
NtRp644
(dp645
g61
(dp646
g81
g82
ssg70
g640
sg63
(lp647
S'session_id_topoi'
p648
asbag56
(g77
g58
NtRp649
(dp650
g61
(dp651
g88
g89
ssg70
g640
sg63
(lp652
S':'
asbag56
(g77
g58
NtRp653
(dp654
g61
(dp655
sg70
g640
sg63
(lp656
g56
(g57
g58
NtRp657
(dp658
g61
(dp659
g69
I4
ssg70
g653
sg63
(lp660
g56
(g65
g58
NtRp661
(dp662
g61
(dp663
g69
I3
ssg70
Nsg63
(lp664
g56
(g72
g58
NtRp665
(dp666
g61
(dp667
sg70
g661
sg63
(lp668
g56
(g77
g58
NtRp669
(dp670
g61
(dp671
g81
g82
ssg70
g665
sg63
(lp672
g295
asbag56
(g77
g58
NtRp673
(dp674
g61
(dp675
g88
g89
ssg70
g665
sg63
(lp676
S':'
asbag56
(g77
g58
NtRp677
(dp678
g61
(dp679
sg70
g665
sg63
(lp680
g56
(g57
g58
NtRp681
(dp682
g61
(dp683
g69
I3
ssg70
g677
sg63
(lp684
S''
asbasbasbag56
(g72
g58
NtRp685
(dp686
g61
(dp687
sg70
g661
sg63
(lp688
g56
(g77
g58
NtRp689
(dp690
g61
(dp691
g81
g82
ssg70
g685
sg63
(lp692
g316
asbag56
(g77
g58
NtRp693
(dp694
g61
(dp695
g88
g89
ssg70
g685
sg63
(lp696
S':'
asbag56
(g77
g58
NtRp697
(dp698
g61
(dp699
sg70
g685
sg63
(lp700
g56
(g57
g58
NtRp701
(dp702
g61
(dp703
g69
I3
ssg70
g697
sg63
(lp704
S''
asbasbasbag56
(g72
g58
NtRp705
(dp706
g61
(dp707
sg70
g661
sg63
(lp708
g56
(g77
g58
NtRp709
(dp710
g61
(dp711
g81
g82
ssg70
g705
sg63
(lp712
g337
asbag56
(g77
g58
NtRp713
(dp714
g61
(dp715
g88
g89
ssg70
g705
sg63
(lp716
S':'
asbag56
(g77
g58
NtRp717
(dp718
g61
(dp719
sg70
g705
sg63
(lp720
g56
(g57
g58
NtRp721
(dp722
g61
(dp723
g69
I3
ssg70
g717
sg63
(lp724
S''
asbasbasbag56
(g72
g58
NtRp725
(dp726
g61
(dp727
sg70
g661
sg63
(lp728
g56
(g77
g58
NtRp729
(dp730
g61
(dp731
g81
g82
ssg70
g725
sg63
(lp732
g358
asbag56
(g77
g58
NtRp733
(dp734
g61
(dp735
g88
g89
ssg70
g725
sg63
(lp736
S':'
asbag56
(g77
g58
NtRp737
(dp738
g61
(dp739
sg70
g725
sg63
(lp740
g56
(g57
g58
NtRp741
(dp742
g61
(dp743
g69
I3
ssg70
g737
sg63
(lp744
S''
asbasbasbag56
(g72
g58
NtRp745
(dp746
g61
(dp747
sg70
g661
sg63
(lp748
g56
(g77
g58
NtRp749
(dp750
g61
(dp751
g81
g82
ssg70
g745
sg63
(lp752
g379
asbag56
(g77
g58
NtRp753
(dp754
g61
(dp755
g88
g89
ssg70
g745
sg63
(lp756
S':'
asbag56
(g77
g58
NtRp757
(dp758
g61
(dp759
sg70
g745
sg63
(lp760
g56
(g57
g58
NtRp761
(dp762
g61
(dp763
g69
I3
ssg70
g757
sg63
(lp764
S''
asbasbasbag56
(g72
g58
NtRp765
(dp766
g61
(dp767
sg70
g661
sg63
(lp768
g56
(g77
g58
NtRp769
(dp770
g61
(dp771
g81
g82
ssg70
g765
sg63
(lp772
g400
asbag56
(g77
g58
NtRp773
(dp774
g61
(dp775
g88
g89
ssg70
g765
sg63
(lp776
S':'
asbag56
(g77
g58
NtRp777
(dp778
g61
(dp779
sg70
g765
sg63
(lp780
g56
(g57
g58
NtRp781
(dp782
g61
(dp783
g69
I3
ssg70
g777
sg63
(lp784
S''
asbasbasbag56
(g72
g58
NtRp785
(dp786
g61
(dp787
sg70
g661
sg63
(lp788
g56
(g77
g58
NtRp789
(dp790
g61
(dp791
g81
g82
ssg70
g785
sg63
(lp792
g421
asbag56
(g77
g58
NtRp793
(dp794
g61
(dp795
g88
g89
ssg70
g785
sg63
(lp796
S':'
asbag56
(g77
g58
NtRp797
(dp798
g61
(dp799
sg70
g785
sg63
(lp800
g56
(g57
g58
NtRp801
(dp802
g61
(dp803
g69
I3
ssg70
g797
sg63
(lp804
S''
asbasbasbag56
(g72
g58
NtRp805
(dp806
g61
(dp807
sg70
g661
sg63
(lp808
g56
(g77
g58
NtRp809
(dp810
g61
(dp811
g81
g82
ssg70
g805
sg63
(lp812
g442
asbag56
(g77
g58
NtRp813
(dp814
g61
(dp815
g88
g89
ssg70
g805
sg63
(lp816
S':'
asbag56
(g77
g58
NtRp817
(dp818
g61
(dp819
sg70
g805
sg63
(lp820
g56
(g57
g58
NtRp821
(dp822
g61
(dp823
g69
I3
ssg70
g817
sg63
(lp824
S''
asbasbasbasbasbasbasbag56
(g72
g58
NtRp825
(dp826
g61
(dp827
sg70
g258
sg63
(lp828
g56
(g77
g58
NtRp829
(dp830
g61
(dp831
g81
g82
ssg70
g825
sg63
(lp832
S'session_id_welcome'
p833
asbag56
(g77
g58
NtRp834
(dp835
g61
(dp836
g88
g89
ssg70
g825
sg63
(lp837
S':'
asbag56
(g77
g58
NtRp838
(dp839
g61
(dp840
sg70
g825
sg63
(lp841
g56
(g57
g58
NtRp842
(dp843
g61
(dp844
g69
I4
ssg70
g838
sg63
(lp845
g56
(g65
g58
NtRp846
(dp847
g61
(dp848
g69
I3
ssg70
Nsg63
(lp849
g56
(g72
g58
NtRp850
(dp851
g61
(dp852
sg70
g846
sg63
(lp853
g56
(g77
g58
NtRp854
(dp855
g61
(dp856
g81
g82
ssg70
g850
sg63
(lp857
g295
asbag56
(g77
g58
NtRp858
(dp859
g61
(dp860
g88
g89
ssg70
g850
sg63
(lp861
S':'
asbag56
(g77
g58
NtRp862
(dp863
g61
(dp864
sg70
g850
sg63
(lp865
g56
(g57
g58
NtRp866
(dp867
g61
(dp868
g69
I3
ssg70
g862
sg63
(lp869
S''
asbasbasbag56
(g72
g58
NtRp870
(dp871
g61
(dp872
sg70
g846
sg63
(lp873
g56
(g77
g58
NtRp874
(dp875
g61
(dp876
g81
g82
ssg70
g870
sg63
(lp877
g316
asbag56
(g77
g58
NtRp878
(dp879
g61
(dp880
g88
g89
ssg70
g870
sg63
(lp881
S':'
asbag56
(g77
g58
NtRp882
(dp883
g61
(dp884
sg70
g870
sg63
(lp885
g56
(g57
g58
NtRp886
(dp887
g61
(dp888
g69
I3
ssg70
g882
sg63
(lp889
S''
asbasbasbag56
(g72
g58
NtRp890
(dp891
g61
(dp892
sg70
g846
sg63
(lp893
g56
(g77
g58
NtRp894
(dp895
g61
(dp896
g81
g82
ssg70
g890
sg63
(lp897
g337
asbag56
(g77
g58
NtRp898
(dp899
g61
(dp900
g88
g89
ssg70
g890
sg63
(lp901
S':'
asbag56
(g77
g58
NtRp902
(dp903
g61
(dp904
sg70
g890
sg63
(lp905
g56
(g57
g58
NtRp906
(dp907
g61
(dp908
g69
I3
ssg70
g902
sg63
(lp909
S''
asbasbasbag56
(g72
g58
NtRp910
(dp911
g61
(dp912
sg70
g846
sg63
(lp913
g56
(g77
g58
NtRp914
(dp915
g61
(dp916
g81
g82
ssg70
g910
sg63
(lp917
g358
asbag56
(g77
g58
NtRp918
(dp919
g61
(dp920
g88
g89
ssg70
g910
sg63
(lp921
S':'
asbag56
(g77
g58
NtRp922
(dp923
g61
(dp924
sg70
g910
sg63
(lp925
g56
(g57
g58
NtRp926
(dp927
g61
(dp928
g69
I3
ssg70
g922
sg63
(lp929
S''
asbasbasbag56
(g72
g58
NtRp930
(dp931
g61
(dp932
sg70
g846
sg63
(lp933
g56
(g77
g58
NtRp934
(dp935
g61
(dp936
g81
g82
ssg70
g930
sg63
(lp937
g379
asbag56
(g77
g58
NtRp938
(dp939
g61
(dp940
g88
g89
ssg70
g930
sg63
(lp941
S':'
asbag56
(g77
g58
NtRp942
(dp943
g61
(dp944
sg70
g930
sg63
(lp945
g56
(g57
g58
NtRp946
(dp947
g61
(dp948
g69
I3
ssg70
g942
sg63
(lp949
S''
asbasbasbag56
(g72
g58
NtRp950
(dp951
g61
(dp952
sg70
g846
sg63
(lp953
g56
(g77
g58
NtRp954
(dp955
g61
(dp956
g81
g82
ssg70
g950
sg63
(lp957
g400
asbag56
(g77
g58
NtRp958
(dp959
g61
(dp960
g88
g89
ssg70
g950
sg63
(lp961
S':'
asbag56
(g77
g58
NtRp962
(dp963
g61
(dp964
sg70
g950
sg63
(lp965
g56
(g57
g58
NtRp966
(dp967
g61
(dp968
g69
I3
ssg70
g962
sg63
(lp969
S''
asbasbasbag56
(g72
g58
NtRp970
(dp971
g61
(dp972
sg70
g846
sg63
(lp973
g56
(g77
g58
NtRp974
(dp975
g61
(dp976
g81
g82
ssg70
g970
sg63
(lp977
g421
asbag56
(g77
g58
NtRp978
(dp979
g61
(dp980
g88
g89
ssg70
g970
sg63
(lp981
S':'
asbag56
(g77
g58
NtRp982
(dp983
g61
(dp984
sg70
g970
sg63
(lp985
g56
(g57
g58
NtRp986
(dp987
g61
(dp988
g69
I3
ssg70
g982
sg63
(lp989
S''
asbasbasbag56
(g72
g58
NtRp990
(dp991
g61
(dp992
sg70
g846
sg63
(lp993
g56
(g77
g58
NtRp994
(dp995
g61
(dp996
g81
g82
ssg70
g990
sg63
(lp997
g442
asbag56
(g77
g58
NtRp998
(dp999
g61
(dp1000
g88
g89
ssg70
g990
sg63
(lp1001
S':'
asbag56
(g77
g58
NtRp1002
(dp1003
g61
(dp1004
sg70
g990
sg63
(lp1005
g56
(g57
g58
NtRp1006
(dp1007
g61
(dp1008
g69
I3
ssg70
g1002
sg63
(lp1009
S''
asbasbasbasbasbasbasbasbasbasbasbag56
(g72
g58
NtRp1010
(dp1011
g61
(dp1012
sg70
g66
sg63
(lp1013
g56
(g77
g58
NtRp1014
(dp1015
g61
(dp1016
g81
g82
ssg70
g1010
sg63
(lp1017
S'env'
p1018
asbag56
(g77
g58
NtRp1019
(dp1020
g61
(dp1021
g88
g89
ssg70
g1010
sg63
(lp1022
S':'
asbag56
(g77
g58
NtRp1023
(dp1024
g61
(dp1025
sg70
g1010
sg63
(lp1026
g56
(g57
g58
NtRp1027
(dp1028
g61
(dp1029
g69
I5
ssg70
g1023
sg63
(lp1030
g56
(g65
g58
NtRp1031
(dp1032
g61
(dp1033
g69
I4
ssg70
Nsg63
(lp1034
g56
(g72
g58
NtRp1035
(dp1036
g61
(dp1037
sg70
g1031
sg63
(lp1038
g56
(g77
g58
NtRp1039
(dp1040
g61
(dp1041
g81
g82
ssg70
g1035
sg63
(lp1042
S'app_folders'
p1043
asbag56
(g77
g58
NtRp1044
(dp1045
g61
(dp1046
g88
g89
ssg70
g1035
sg63
(lp1047
S':'
asbag56
(g77
g58
NtRp1048
(dp1049
g61
(dp1050
sg70
g1035
sg63
(lp1051
g56
(g57
g58
NtRp1052
(dp1053
g61
(dp1054
g69
I4
ssg70
g1048
sg63
(lp1055
S"set(['/home/ian/web2py/applications/topoi/', '/home/ian/web2py/applications/welcome/', '/home/ian/web2py/applications/admin/'])"
p1056
asbasbasbag56
(g72
g58
NtRp1057
(dp1058
g61
(dp1059
sg70
g1031
sg63
(lp1060
g56
(g77
g58
NtRp1061
(dp1062
g61
(dp1063
g81
g82
ssg70
g1057
sg63
(lp1064
S'applications_parent'
p1065
asbag56
(g77
g58
NtRp1066
(dp1067
g61
(dp1068
g88
g89
ssg70
g1057
sg63
(lp1069
S':'
asbag56
(g77
g58
NtRp1070
(dp1071
g61
(dp1072
sg70
g1057
sg63
(lp1073
g56
(g57
g58
NtRp1074
(dp1075
g61
(dp1076
g69
I4
ssg70
g1070
sg63
(lp1077
S'/home/ian/web2py'
p1078
asbasbasbag56
(g72
g58
NtRp1079
(dp1080
g61
(dp1081
sg70
g1031
sg63
(lp1082
g56
(g77
g58
NtRp1083
(dp1084
g61
(dp1085
g81
g82
ssg70
g1079
sg63
(lp1086
S'cmd_args'
p1087
asbag56
(g77
g58
NtRp1088
(dp1089
g61
(dp1090
g88
g89
ssg70
g1079
sg63
(lp1091
S':'
asbag56
(g77
g58
NtRp1092
(dp1093
g61
(dp1094
sg70
g1079
sg63
(lp1095
g56
(g57
g58
NtRp1096
(dp1097
g61
(dp1098
g69
I4
ssg70
g1092
sg63
(lp1099
g56
(g65
g58
NtRp1100
(dp1101
g61
(dp1102
g69
I3
ssg70
Nsg63
(lp1103
sbasbasbasbag56
(g72
g58
NtRp1104
(dp1105
g61
(dp1106
sg70
g1031
sg63
(lp1107
g56
(g77
g58
NtRp1108
(dp1109
g61
(dp1110
g81
g82
ssg70
g1104
sg63
(lp1111
S'cmd_options'
p1112
asbag56
(g77
g58
NtRp1113
(dp1114
g61
(dp1115
g88
g89
ssg70
g1104
sg63
(lp1116
S':'
asbag56
(g77
g58
NtRp1117
(dp1118
g61
(dp1119
sg70
g1104
sg63
(lp1120
g56
(g57
g58
NtRp1121
(dp1122
g61
(dp1123
g69
I4
ssg70
g1117
sg63
(lp1124
S"<Values at 0x2b68758: {'verbose': False, 'ip': '127.0.0.1', 'shutdown_timeout': 5, 'taskbar': False, 'nocron': False, 'pid_filename': 'httpserver.pid', 'maxthreads': None, 'softcron': False, 'server_name': 'uriel', 'bpython': False, 'nogui': False, 'port': 8000, 'extcron': False, 'debuglevel': 30, 'test': None, 'folder': '/home/ian/web2py', 'config': '', 'import_models': False, 'winservice': '', 'shell': None, 'run': '', 'log_filename': 'httpserver.log', 'args': [''], 'ssl_ca_certificate': None, 'scheduler': None, 'profiler_filename': None, 'ssl_private_key': '', 'password': '<ask>', 'request_queue_size': 5, 'ssl_certificate': '', 'cronjob': False, 'plain': False, 'quiet': False, 'interfaces': None, 'minthreads': None, 'timeout': 10, 'numthreads': None, 'nobanner': False}>"
p1125
asbasbasbag56
(g72
g58
NtRp1126
(dp1127
g61
(dp1128
sg70
g1031
sg63
(lp1129
g56
(g77
g58
NtRp1130
(dp1131
g61
(dp1132
g81
g82
ssg70
g1126
sg63
(lp1133
S'db_sessions'
p1134
asbag56
(g77
g58
NtRp1135
(dp1136
g61
(dp1137
g88
g89
ssg70
g1126
sg63
(lp1138
S':'
asbag56
(g77
g58
NtRp1139
(dp1140
g61
(dp1141
sg70
g1126
sg63
(lp1142
g56
(g57
g58
NtRp1143
(dp1144
g61
(dp1145
g69
I4
ssg70
g1139
sg63
(lp1146
S'set([])'
p1147
asbasbasbag56
(g72
g58
NtRp1148
(dp1149
g61
(dp1150
sg70
g1031
sg63
(lp1151
g56
(g77
g58
NtRp1152
(dp1153
g61
(dp1154
g81
g82
ssg70
g1148
sg63
(lp1155
S'debugging'
p1156
asbag56
(g77
g58
NtRp1157
(dp1158
g61
(dp1159
g88
g89
ssg70
g1148
sg63
(lp1160
S':'
asbag56
(g77
g58
NtRp1161
(dp1162
g61
(dp1163
sg70
g1148
sg63
(lp1164
g56
(g57
g58
NtRp1165
(dp1166
g61
(dp1167
g69
I4
ssg70
g1161
sg63
(lp1168
g99
asbasbasbag56
(g72
g58
NtRp1169
(dp1170
g61
(dp1171
sg70
g1031
sg63
(lp1172
g56
(g77
g58
NtRp1173
(dp1174
g61
(dp1175
g81
g82
ssg70
g1169
sg63
(lp1176
S'gluon_parent'
p1177
asbag56
(g77
g58
NtRp1178
(dp1179
g61
(dp1180
g88
g89
ssg70
g1169
sg63
(lp1181
S':'
asbag56
(g77
g58
NtRp1182
(dp1183
g61
(dp1184
sg70
g1169
sg63
(lp1185
g56
(g57
g58
NtRp1186
(dp1187
g61
(dp1188
g69
I4
ssg70
g1182
sg63
(lp1189
S'/home/ian/web2py'
p1190
asbasbasbag56
(g72
g58
NtRp1191
(dp1192
g61
(dp1193
sg70
g1031
sg63
(lp1194
g56
(g77
g58
NtRp1195
(dp1196
g61
(dp1197
g81
g82
ssg70
g1191
sg63
(lp1198
S'http_accept'
p1199
asbag56
(g77
g58
NtRp1200
(dp1201
g61
(dp1202
g88
g89
ssg70
g1191
sg63
(lp1203
S':'
asbag56
(g77
g58
NtRp1204
(dp1205
g61
(dp1206
sg70
g1191
sg63
(lp1207
g56
(g57
g58
NtRp1208
(dp1209
g61
(dp1210
g69
I4
ssg70
g1204
sg63
(lp1211
S'text/html,application/xhtml+xml,application/xml;q=0.9,*/*;q=0.8'
p1212
asbasbasbag56
(g72
g58
NtRp1213
(dp1214
g61
(dp1215
sg70
g1031
sg63
(lp1216
g56
(g77
g58
NtRp1217
(dp1218
g61
(dp1219
g81
g82
ssg70
g1213
sg63
(lp1220
S'http_accept_encoding'
p1221
asbag56
(g77
g58
NtRp1222
(dp1223
g61
(dp1224
g88
g89
ssg70
g1213
sg63
(lp1225
S':'
asbag56
(g77
g58
NtRp1226
(dp1227
g61
(dp1228
sg70
g1213
sg63
(lp1229
g56
(g57
g58
NtRp1230
(dp1231
g61
(dp1232
g69
I4
ssg70
g1226
sg63
(lp1233
S'gzip, deflate'
p1234
asbasbasbag56
(g72
g58
NtRp1235
(dp1236
g61
(dp1237
sg70
g1031
sg63
(lp1238
g56
(g77
g58
NtRp1239
(dp1240
g61
(dp1241
g81
g82
ssg70
g1235
sg63
(lp1242
S'http_accept_language'
p1243
asbag56
(g77
g58
NtRp1244
(dp1245
g61
(dp1246
g88
g89
ssg70
g1235
sg63
(lp1247
S':'
asbag56
(g77
g58
NtRp1248
(dp1249
g61
(dp1250
sg70
g1235
sg63
(lp1251
g56
(g57
g58
NtRp1252
(dp1253
g61
(dp1254
g69
I4
ssg70
g1248
sg63
(lp1255
S'en-us,en;q=0.5'
p1256
asbasbasbag56
(g72
g58
NtRp1257
(dp1258
g61
(dp1259
sg70
g1031
sg63
(lp1260
g56
(g77
g58
NtRp1261
(dp1262
g61
(dp1263
g81
g82
ssg70
g1257
sg63
(lp1264
S'http_cache_control'
p1265
asbag56
(g77
g58
NtRp1266
(dp1267
g61
(dp1268
g88
g89
ssg70
g1257
sg63
(lp1269
S':'
asbag56
(g77
g58
NtRp1270
(dp1271
g61
(dp1272
sg70
g1257
sg63
(lp1273
g56
(g57
g58
NtRp1274
(dp1275
g61
(dp1276
g69
I4
ssg70
g1270
sg63
(lp1277
S'max-age=0'
p1278
asbasbasbag56
(g72
g58
NtRp1279
(dp1280
g61
(dp1281
sg70
g1031
sg63
(lp1282
g56
(g77
g58
NtRp1283
(dp1284
g61
(dp1285
g81
g82
ssg70
g1279
sg63
(lp1286
S'http_connection'
p1287
asbag56
(g77
g58
NtRp1288
(dp1289
g61
(dp1290
g88
g89
ssg70
g1279
sg63
(lp1291
S':'
asbag56
(g77
g58
NtRp1292
(dp1293
g61
(dp1294
sg70
g1279
sg63
(lp1295
g56
(g57
g58
NtRp1296
(dp1297
g61
(dp1298
g69
I4
ssg70
g1292
sg63
(lp1299
S'keep-alive'
p1300
asbasbasbag56
(g72
g58
NtRp1301
(dp1302
g61
(dp1303
sg70
g1031
sg63
(lp1304
g56
(g77
g58
NtRp1305
(dp1306
g61
(dp1307
g81
g82
ssg70
g1301
sg63
(lp1308
S'http_cookie'
p1309
asbag56
(g77
g58
NtRp1310
(dp1311
g61
(dp1312
g88
g89
ssg70
g1301
sg63
(lp1313
S':'
asbag56
(g77
g58
NtRp1314
(dp1315
g61
(dp1316
sg70
g1301
sg63
(lp1317
g56
(g57
g58
NtRp1318
(dp1319
g61
(dp1320
g69
I4
ssg70
g1314
sg63
(lp1321
S'session_id_paideia=127.0.0.1-5296f1e9-849e-4717-b7d4-f5f298041148; session_id_welcome=127.0.0.1-a9b7d1e8-cd85-40d2-a4de-50abd19db48d; session_id_admin=127.0.0.1-e0d2a4b1-fc7a-4493-8d0c-6f26697a60b8; session_id_topoi=127.0.0.1-a7b4904b-4b43-4c03-b4f2-1f17e08d14ea'
p1322
asbasbasbag56
(g72
g58
NtRp1323
(dp1324
g61
(dp1325
sg70
g1031
sg63
(lp1326
g56
(g77
g58
NtRp1327
(dp1328
g61
(dp1329
g81
g82
ssg70
g1323
sg63
(lp1330
S'http_host'
p1331
asbag56
(g77
g58
NtRp1332
(dp1333
g61
(dp1334
g88
g89
ssg70
g1323
sg63
(lp1335
S':'
asbag56
(g77
g58
NtRp1336
(dp1337
g61
(dp1338
sg70
g1323
sg63
(lp1339
g56
(g57
g58
NtRp1340
(dp1341
g61
(dp1342
g69
I4
ssg70
g1336
sg63
(lp1343
S'127.0.0.1:8000'
p1344
asbasbasbag56
(g72
g58
NtRp1345
(dp1346
g61
(dp1347
sg70
g1031
sg63
(lp1348
g56
(g77
g58
NtRp1349
(dp1350
g61
(dp1351
g81
g82
ssg70
g1345
sg63
(lp1352
S'http_referer'
p1353
asbag56
(g77
g58
NtRp1354
(dp1355
g61
(dp1356
g88
g89
ssg70
g1345
sg63
(lp1357
S':'
asbag56
(g77
g58
NtRp1358
(dp1359
g61
(dp1360
sg70
g1345
sg63
(lp1361
g56
(g57
g58
NtRp1362
(dp1363
g61
(dp1364
g69
I4
ssg70
g1358
sg63
(lp1365
S'http://127.0.0.1:8000/topoi'
p1366
asbasbasbag56
(g72
g58
NtRp1367
(dp1368
g61
(dp1369
sg70
g1031
sg63
(lp1370
g56
(g77
g58
NtRp1371
(dp1372
g61
(dp1373
g81
g82
ssg70
g1367
sg63
(lp1374
S'http_user_agent'
p1375
asbag56
(g77
g58
NtRp1376
(dp1377
g61
(dp1378
g88
g89
ssg70
g1367
sg63
(lp1379
S':'
asbag56
(g77
g58
NtRp1380
(dp1381
g61
(dp1382
sg70
g1367
sg63
(lp1383
g56
(g57
g58
NtRp1384
(dp1385
g61
(dp1386
g69
I4
ssg70
g1380
sg63
(lp1387
S'Mozilla/5.0 (X11; Linux x86_64; rv:8.0) Gecko/20100101 Firefox/8.0'
p1388
asbasbasbag56
(g72
g58
NtRp1389
(dp1390
g61
(dp1391
sg70
g1031
sg63
(lp1392
g56
(g77
g58
NtRp1393
(dp1394
g61
(dp1395
g81
g82
ssg70
g1389
sg63
(lp1396
S'is_jython'
p1397
asbag56
(g77
g58
NtRp1398
(dp1399
g61
(dp1400
g88
g89
ssg70
g1389
sg63
(lp1401
S':'
asbag56
(g77
g58
NtRp1402
(dp1403
g61
(dp1404
sg70
g1389
sg63
(lp1405
g56
(g57
g58
NtRp1406
(dp1407
g61
(dp1408
g69
I4
ssg70
g1402
sg63
(lp1409
g99
asbasbasbag56
(g72
g58
NtRp1410
(dp1411
g61
(dp1412
sg70
g1031
sg63
(lp1413
g56
(g77
g58
NtRp1414
(dp1415
g61
(dp1416
g81
g82
ssg70
g1410
sg63
(lp1417
S'path_info'
p1418
asbag56
(g77
g58
NtRp1419
(dp1420
g61
(dp1421
g88
g89
ssg70
g1410
sg63
(lp1422
S':'
asbag56
(g77
g58
NtRp1423
(dp1424
g61
(dp1425
sg70
g1410
sg63
(lp1426
g56
(g57
g58
NtRp1427
(dp1428
g61
(dp1429
g69
I4
ssg70
g1423
sg63
(lp1430
S'/topoi/plugin_listandedit/list/note/1'
p1431
asbasbasbag56
(g72
g58
NtRp1432
(dp1433
g61
(dp1434
sg70
g1031
sg63
(lp1435
g56
(g77
g58
NtRp1436
(dp1437
g61
(dp1438
g81
g82
ssg70
g1432
sg63
(lp1439
S'query_string'
p1440
asbag56
(g77
g58
NtRp1441
(dp1442
g61
(dp1443
g88
g89
ssg70
g1432
sg63
(lp1444
S':'
asbag56
(g77
g58
NtRp1445
(dp1446
g61
(dp1447
sg70
g1432
sg63
(lp1448
g56
(g57
g58
NtRp1449
(dp1450
g61
(dp1451
g69
I4
ssg70
g1445
sg63
(lp1452
S''
asbasbasbag56
(g72
g58
NtRp1453
(dp1454
g61
(dp1455
sg70
g1031
sg63
(lp1456
g56
(g77
g58
NtRp1457
(dp1458
g61
(dp1459
g81
g82
ssg70
g1453
sg63
(lp1460
S'remote_addr'
p1461
asbag56
(g77
g58
NtRp1462
(dp1463
g61
(dp1464
g88
g89
ssg70
g1453
sg63
(lp1465
S':'
asbag56
(g77
g58
NtRp1466
(dp1467
g61
(dp1468
sg70
g1453
sg63
(lp1469
g56
(g57
g58
NtRp1470
(dp1471
g61
(dp1472
g69
I4
ssg70
g1466
sg63
(lp1473
g214
asbasbasbag56
(g72
g58
NtRp1474
(dp1475
g61
(dp1476
sg70
g1031
sg63
(lp1477
g56
(g77
g58
NtRp1478
(dp1479
g61
(dp1480
g81
g82
ssg70
g1474
sg63
(lp1481
S'remote_port'
p1482
asbag56
(g77
g58
NtRp1483
(dp1484
g61
(dp1485
g88
g89
ssg70
g1474
sg63
(lp1486
S':'
asbag56
(g77
g58
NtRp1487
(dp1488
g61
(dp1489
sg70
g1474
sg63
(lp1490
g56
(g57
g58
NtRp1491
(dp1492
g61
(dp1493
g69
I4
ssg70
g1487
sg63
(lp1494
S'36491'
p1495
asbasbasbag56
(g72
g58
NtRp1496
(dp1497
g61
(dp1498
sg70
g1031
sg63
(lp1499
g56
(g77
g58
NtRp1500
(dp1501
g61
(dp1502
g81
g82
ssg70
g1496
sg63
(lp1503
S'request_method'
p1504
asbag56
(g77
g58
NtRp1505
(dp1506
g61
(dp1507
g88
g89
ssg70
g1496
sg63
(lp1508
S':'
asbag56
(g77
g58
NtRp1509
(dp1510
g61
(dp1511
sg70
g1496
sg63
(lp1512
g56
(g57
g58
NtRp1513
(dp1514
g61
(dp1515
g69
I4
ssg70
g1509
sg63
(lp1516
S'GET'
p1517
asbasbasbag56
(g72
g58
NtRp1518
(dp1519
g61
(dp1520
sg70
g1031
sg63
(lp1521
g56
(g77
g58
NtRp1522
(dp1523
g61
(dp1524
g81
g82
ssg70
g1518
sg63
(lp1525
S'script_name'
p1526
asbag56
(g77
g58
NtRp1527
(dp1528
g61
(dp1529
g88
g89
ssg70
g1518
sg63
(lp1530
S':'
asbag56
(g77
g58
NtRp1531
(dp1532
g61
(dp1533
sg70
g1518
sg63
(lp1534
g56
(g57
g58
NtRp1535
(dp1536
g61
(dp1537
g69
I4
ssg70
g1531
sg63
(lp1538
S''
asbasbasbag56
(g72
g58
NtRp1539
(dp1540
g61
(dp1541
sg70
g1031
sg63
(lp1542
g56
(g77
g58
NtRp1543
(dp1544
g61
(dp1545
g81
g82
ssg70
g1539
sg63
(lp1546
S'server_name'
p1547
asbag56
(g77
g58
NtRp1548
(dp1549
g61
(dp1550
g88
g89
ssg70
g1539
sg63
(lp1551
S':'
asbag56
(g77
g58
NtRp1552
(dp1553
g61
(dp1554
sg70
g1539
sg63
(lp1555
g56
(g57
g58
NtRp1556
(dp1557
g61
(dp1558
g69
I4
ssg70
g1552
sg63
(lp1559
S'uriel'
p1560
asbasbasbag56
(g72
g58
NtRp1561
(dp1562
g61
(dp1563
sg70
g1031
sg63
(lp1564
g56
(g77
g58
NtRp1565
(dp1566
g61
(dp1567
g81
g82
ssg70
g1561
sg63
(lp1568
S'server_port'
p1569
asbag56
(g77
g58
NtRp1570
(dp1571
g61
(dp1572
g88
g89
ssg70
g1561
sg63
(lp1573
S':'
asbag56
(g77
g58
NtRp1574
(dp1575
g61
(dp1576
sg70
g1561
sg63
(lp1577
g56
(g57
g58
NtRp1578
(dp1579
g61
(dp1580
g69
I4
ssg70
g1574
sg63
(lp1581
S'8000'
p1582
asbasbasbag56
(g72
g58
NtRp1583
(dp1584
g61
(dp1585
sg70
g1031
sg63
(lp1586
g56
(g77
g58
NtRp1587
(dp1588
g61
(dp1589
g81
g82
ssg70
g1583
sg63
(lp1590
S'server_protocol'
p1591
asbag56
(g77
g58
NtRp1592
(dp1593
g61
(dp1594
g88
g89
ssg70
g1583
sg63
(lp1595
S':'
asbag56
(g77
g58
NtRp1596
(dp1597
g61
(dp1598
sg70
g1583
sg63
(lp1599
g56
(g57
g58
NtRp1600
(dp1601
g61
(dp1602
g69
I4
ssg70
g1596
sg63
(lp1603
S'HTTP/1.1'
p1604
asbasbasbag56
(g72
g58
NtRp1605
(dp1606
g61
(dp1607
sg70
g1031
sg63
(lp1608
g56
(g77
g58
NtRp1609
(dp1610
g61
(dp1611
g81
g82
ssg70
g1605
sg63
(lp1612
S'server_software'
p1613
asbag56
(g77
g58
NtRp1614
(dp1615
g61
(dp1616
g88
g89
ssg70
g1605
sg63
(lp1617
S':'
asbag56
(g77
g58
NtRp1618
(dp1619
g61
(dp1620
sg70
g1605
sg63
(lp1621
g56
(g57
g58
NtRp1622
(dp1623
g61
(dp1624
g69
I4
ssg70
g1618
sg63
(lp1625
S'Rocket 1.2.4'
p1626
asbasbasbag56
(g72
g58
NtRp1627
(dp1628
g61
(dp1629
sg70
g1031
sg63
(lp1630
g56
(g77
g58
NtRp1631
(dp1632
g61
(dp1633
g81
g82
ssg70
g1627
sg63
(lp1634
S'web2py_crontype'
p1635
asbag56
(g77
g58
NtRp1636
(dp1637
g61
(dp1638
g88
g89
ssg70
g1627
sg63
(lp1639
S':'
asbag56
(g77
g58
NtRp1640
(dp1641
g61
(dp1642
sg70
g1627
sg63
(lp1643
g56
(g57
g58
NtRp1644
(dp1645
g61
(dp1646
g69
I4
ssg70
g1640
sg63
(lp1647
S'hard'
p1648
asbasbasbag56
(g72
g58
NtRp1649
(dp1650
g61
(dp1651
sg70
g1031
sg63
(lp1652
g56
(g77
g58
NtRp1653
(dp1654
g61
(dp1655
g81
g82
ssg70
g1649
sg63
(lp1656
S'web2py_path'
p1657
asbag56
(g77
g58
NtRp1658
(dp1659
g61
(dp1660
g88
g89
ssg70
g1649
sg63
(lp1661
S':'
asbag56
(g77
g58
NtRp1662
(dp1663
g61
(dp1664
sg70
g1649
sg63
(lp1665
g56
(g57
g58
NtRp1666
(dp1667
g61
(dp1668
g69
I4
ssg70
g1662
sg63
(lp1669
g1078
asbasbasbag56
(g72
g58
NtRp1670
(dp1671
g61
(dp1672
sg70
g1031
sg63
(lp1673
g56
(g77
g58
NtRp1674
(dp1675
g61
(dp1676
g81
g82
ssg70
g1670
sg63
(lp1677
S'web2py_version'
p1678
asbag56
(g77
g58
NtRp1679
(dp1680
g61
(dp1681
g88
g89
ssg70
g1670
sg63
(lp1682
S':'
asbag56
(g77
g58
NtRp1683
(dp1684
g61
(dp1685
sg70
g1670
sg63
(lp1686
g56
(g57
g58
NtRp1687
(dp1688
g61
(dp1689
g69
I4
ssg70
g1683
sg63
(lp1690
g56
(g65
g58
NtRp1691
(dp1692
g61
(dp1693
g69
I3
ssg70
Nsg63
(lp1694
g56
(g72
g58
NtRp1695
(dp1696
g61
(dp1697
sg70
g1691
sg63
(lp1698
g56
(g77
g58
NtRp1699
(dp1700
g61
(dp1701
sg70
g1695
sg63
(lp1702
g56
(g57
g58
NtRp1703
(dp1704
g61
(dp1705
g69
I3
ssg70
g1699
sg63
(lp1706
S'1'
asbasbasbag56
(g72
g58
NtRp1707
(dp1708
g61
(dp1709
sg70
g1691
sg63
(lp1710
g56
(g77
g58
NtRp1711
(dp1712
g61
(dp1713
sg70
g1707
sg63
(lp1714
g56
(g57
g58
NtRp1715
(dp1716
g61
(dp1717
g69
I3
ssg70
g1711
sg63
(lp1718
S'99'
p1719
asbasbasbag56
(g72
g58
NtRp1720
(dp1721
g61
(dp1722
sg70
g1691
sg63
(lp1723
g56
(g77
g58
NtRp1724
(dp1725
g61
(dp1726
sg70
g1720
sg63
(lp1727
g56
(g57
g58
NtRp1728
(dp1729
g61
(dp1730
g69
I3
ssg70
g1724
sg63
(lp1731
S'2'
asbasbasbag56
(g72
g58
NtRp1732
(dp1733
g61
(dp1734
sg70
g1691
sg63
(lp1735
g56
(g77
g58
NtRp1736
(dp1737
g61
(dp1738
sg70
g1732
sg63
(lp1739
g56
(g57
g58
NtRp1740
(dp1741
g61
(dp1742
g69
I3
ssg70
g1736
sg63
(lp1743
S'datetime.datetime(2011, 9, 26, 6, 55, 33)'
p1744
asbasbasbag56
(g72
g58
NtRp1745
(dp1746
g61
(dp1747
sg70
g1691
sg63
(lp1748
g56
(g77
g58
NtRp1749
(dp1750
g61
(dp1751
sg70
g1745
sg63
(lp1752
g56
(g57
g58
NtRp1753
(dp1754
g61
(dp1755
g69
I3
ssg70
g1749
sg63
(lp1756
S'stable'
p1757
asbasbasbasbasbasbasbag56
(g72
g58
NtRp1758
(dp1759
g61
(dp1760
sg70
g1031
sg63
(lp1761
g56
(g77
g58
NtRp1762
(dp1763
g61
(dp1764
g81
g82
ssg70
g1758
sg63
(lp1765
S'wsgi_errors'
p1766
asbag56
(g77
g58
NtRp1767
(dp1768
g61
(dp1769
g88
g89
ssg70
g1758
sg63
(lp1770
S':'
asbag56
(g77
g58
NtRp1771
(dp1772
g61
(dp1773
sg70
g1758
sg63
(lp1774
g56
(g57
g58
NtRp1775
(dp1776
g61
(dp1777
g69
I4
ssg70
g1771
sg63
(lp1778
S"<open file '<stderr>', mode 'w' at 0x7f4f55905270>"
p1779
asbasbasbag56
(g72
g58
NtRp1780
(dp1781
g61
(dp1782
sg70
g1031
sg63
(lp1783
g56
(g77
g58
NtRp1784
(dp1785
g61
(dp1786
g81
g82
ssg70
g1780
sg63
(lp1787
S'wsgi_file_wrapper'
p1788
asbag56
(g77
g58
NtRp1789
(dp1790
g61
(dp1791
g88
g89
ssg70
g1780
sg63
(lp1792
S':'
asbag56
(g77
g58
NtRp1793
(dp1794
g61
(dp1795
sg70
g1780
sg63
(lp1796
g56
(g57
g58
NtRp1797
(dp1798
g61
(dp1799
g69
I4
ssg70
g1793
sg63
(lp1800
S'<class wsgiref.util.FileWrapper at 0x2a33870>'
p1801
asbasbasbag56
(g72
g58
NtRp1802
(dp1803
g61
(dp1804
sg70
g1031
sg63
(lp1805
g56
(g77
g58
NtRp1806
(dp1807
g61
(dp1808
g81
g82
ssg70
g1802
sg63
(lp1809
S'wsgi_input'
p1810
asbag56
(g77
g58
NtRp1811
(dp1812
g61
(dp1813
g88
g89
ssg70
g1802
sg63
(lp1814
S':'
asbag56
(g77
g58
NtRp1815
(dp1816
g61
(dp1817
sg70
g1802
sg63
(lp1818
g56
(g57
g58
NtRp1819
(dp1820
g61
(dp1821
g69
I4
ssg70
g1815
sg63
(lp1822
S'<socket._fileobject object at 0x362c850>'
p1823
asbasbasbag56
(g72
g58
NtRp1824
(dp1825
g61
(dp1826
sg70
g1031
sg63
(lp1827
g56
(g77
g58
NtRp1828
(dp1829
g61
(dp1830
g81
g82
ssg70
g1824
sg63
(lp1831
S'wsgi_multiprocess'
p1832
asbag56
(g77
g58
NtRp1833
(dp1834
g61
(dp1835
g88
g89
ssg70
g1824
sg63
(lp1836
S':'
asbag56
(g77
g58
NtRp1837
(dp1838
g61
(dp1839
sg70
g1824
sg63
(lp1840
g56
(g57
g58
NtRp1841
(dp1842
g61
(dp1843
g69
I4
ssg70
g1837
sg63
(lp1844
g99
asbasbasbag56
(g72
g58
NtRp1845
(dp1846
g61
(dp1847
sg70
g1031
sg63
(lp1848
g56
(g77
g58
NtRp1849
(dp1850
g61
(dp1851
g81
g82
ssg70
g1845
sg63
(lp1852
S'wsgi_multithread'
p1853
asbag56
(g77
g58
NtRp1854
(dp1855
g61
(dp1856
g88
g89
ssg70
g1845
sg63
(lp1857
S':'
asbag56
(g77
g58
NtRp1858
(dp1859
g61
(dp1860
sg70
g1845
sg63
(lp1861
g56
(g57
g58
NtRp1862
(dp1863
g61
(dp1864
g69
I4
ssg70
g1858
sg63
(lp1865
S'True'
p1866
asbasbasbag56
(g72
g58
NtRp1867
(dp1868
g61
(dp1869
sg70
g1031
sg63
(lp1870
g56
(g77
g58
NtRp1871
(dp1872
g61
(dp1873
g81
g82
ssg70
g1867
sg63
(lp1874
S'wsgi_run_once'
p1875
asbag56
(g77
g58
NtRp1876
(dp1877
g61
(dp1878
g88
g89
ssg70
g1867
sg63
(lp1879
S':'
asbag56
(g77
g58
NtRp1880
(dp1881
g61
(dp1882
sg70
g1867
sg63
(lp1883
g56
(g57
g58
NtRp1884
(dp1885
g61
(dp1886
g69
I4
ssg70
g1880
sg63
(lp1887
g99
asbasbasbag56
(g72
g58
NtRp1888
(dp1889
g61
(dp1890
sg70
g1031
sg63
(lp1891
g56
(g77
g58
NtRp1892
(dp1893
g61
(dp1894
g81
g82
ssg70
g1888
sg63
(lp1895
S'wsgi_url_scheme'
p1896
asbag56
(g77
g58
NtRp1897
(dp1898
g61
(dp1899
g88
g89
ssg70
g1888
sg63
(lp1900
S':'
asbag56
(g77
g58
NtRp1901
(dp1902
g61
(dp1903
sg70
g1888
sg63
(lp1904
g56
(g57
g58
NtRp1905
(dp1906
g61
(dp1907
g69
I4
ssg70
g1901
sg63
(lp1908
S'http'
p1909
asbasbasbag56
(g72
g58
NtRp1910
(dp1911
g61
(dp1912
sg70
g1031
sg63
(lp1913
g56
(g77
g58
NtRp1914
(dp1915
g61
(dp1916
g81
g82
ssg70
g1910
sg63
(lp1917
S'wsgi_version'
p1918
asbag56
(g77
g58
NtRp1919
(dp1920
g61
(dp1921
g88
g89
ssg70
g1910
sg63
(lp1922
S':'
asbag56
(g77
g58
NtRp1923
(dp1924
g61
(dp1925
sg70
g1910
sg63
(lp1926
g56
(g57
g58
NtRp1927
(dp1928
g61
(dp1929
g69
I4
ssg70
g1923
sg63
(lp1930
g56
(g65
g58
NtRp1931
(dp1932
g61
(dp1933
g69
I3
ssg70
Nsg63
(lp1934
g56
(g72
g58
NtRp1935
(dp1936
g61
(dp1937
sg70
g1931
sg63
(lp1938
g56
(g77
g58
NtRp1939
(dp1940
g61
(dp1941
sg70
g1935
sg63
(lp1942
g56
(g57
g58
NtRp1943
(dp1944
g61
(dp1945
g69
I3
ssg70
g1939
sg63
(lp1946
S'1'
asbasbasbag56
(g72
g58
NtRp1947
(dp1948
g61
(dp1949
sg70
g1931
sg63
(lp1950
g56
(g77
g58
NtRp1951
(dp1952
g61
(dp1953
sg70
g1947
sg63
(lp1954
g56
(g57
g58
NtRp1955
(dp1956
g61
(dp1957
g69
I3
ssg70
g1951
sg63
(lp1958
S'0'
asbasbasbasbasbasbasbasbasbasbasbag56
(g72
g58
NtRp1959
(dp1960
g61
(dp1961
sg70
g66
sg63
(lp1962
g56
(g77
g58
NtRp1963
(dp1964
g61
(dp1965
g81
g82
ssg70
g1959
sg63
(lp1966
S'extension'
p1967
asbag56
(g77
g58
NtRp1968
(dp1969
g61
(dp1970
g88
g89
ssg70
g1959
sg63
(lp1971
S':'
asbag56
(g77
g58
NtRp1972
(dp1973
g61
(dp1974
sg70
g1959
sg63
(lp1975
g56
(g57
g58
NtRp1976
(dp1977
g61
(dp1978
g69
I5
ssg70
g1972
sg63
(lp1979
S'html'
p1980
asbasbasbag56
(g72
g58
NtRp1981
(dp1982
g61
(dp1983
sg70
g66
sg63
(lp1984
g56
(g77
g58
NtRp1985
(dp1986
g61
(dp1987
g81
g82
ssg70
g1981
sg63
(lp1988
S'folder'
p1989
asbag56
(g77
g58
NtRp1990
(dp1991
g61
(dp1992
g88
g89
ssg70
g1981
sg63
(lp1993
S':'
asbag56
(g77
g58
NtRp1994
(dp1995
g61
(dp1996
sg70
g1981
sg63
(lp1997
g56
(g57
g58
NtRp1998
(dp1999
g61
(dp2000
g69
I5
ssg70
g1994
sg63
(lp2001
S'/home/ian/web2py/applications/topoi/'
p2002
asbasbasbag56
(g72
g58
NtRp2003
(dp2004
g61
(dp2005
sg70
g66
sg63
(lp2006
g56
(g77
g58
NtRp2007
(dp2008
g61
(dp2009
g81
g82
ssg70
g2003
sg63
(lp2010
S'function'
p2011
asbag56
(g77
g58
NtRp2012
(dp2013
g61
(dp2014
g88
g89
ssg70
g2003
sg63
(lp2015
S':'
asbag56
(g77
g58
NtRp2016
(dp2017
g61
(dp2018
sg70
g2003
sg63
(lp2019
g56
(g57
g58
NtRp2020
(dp2021
g61
(dp2022
g69
I5
ssg70
g2016
sg63
(lp2023
S'list'
p2024
asbasbasbag56
(g72
g58
NtRp2025
(dp2026
g61
(dp2027
sg70
g66
sg63
(lp2028
g56
(g77
g58
NtRp2029
(dp2030
g61
(dp2031
g81
g82
ssg70
g2025
sg63
(lp2032
S'get_vars'
p2033
asbag56
(g77
g58
NtRp2034
(dp2035
g61
(dp2036
g88
g89
ssg70
g2025
sg63
(lp2037
S':'
asbag56
(g77
g58
NtRp2038
(dp2039
g61
(dp2040
sg70
g2025
sg63
(lp2041
g56
(g57
g58
NtRp2042
(dp2043
g61
(dp2044
g69
I5
ssg70
g2038
sg63
(lp2045
g56
(g65
g58
NtRp2046
(dp2047
g61
(dp2048
g69
I4
ssg70
Nsg63
(lp2049
sbasbasbasbag56
(g72
g58
NtRp2050
(dp2051
g61
(dp2052
sg70
g66
sg63
(lp2053
g56
(g77
g58
NtRp2054
(dp2055
g61
(dp2056
g81
g82
ssg70
g2050
sg63
(lp2057
S'global_settings'
p2058
asbag56
(g77
g58
NtRp2059
(dp2060
g61
(dp2061
g88
g89
ssg70
g2050
sg63
(lp2062
S':'
asbag56
(g77
g58
NtRp2063
(dp2064
g61
(dp2065
sg70
g2050
sg63
(lp2066
g56
(g57
g58
NtRp2067
(dp2068
g61
(dp2069
g69
I5
ssg70
g2063
sg63
(lp2070
g56
(g65
g58
NtRp2071
(dp2072
g61
(dp2073
g69
I4
ssg70
Nsg63
(lp2074
g56
(g72
g58
NtRp2075
(dp2076
g61
(dp2077
sg70
g2071
sg63
(lp2078
g56
(g77
g58
NtRp2079
(dp2080
g61
(dp2081
g81
g82
ssg70
g2075
sg63
(lp2082
g1043
asbag56
(g77
g58
NtRp2083
(dp2084
g61
(dp2085
g88
g89
ssg70
g2075
sg63
(lp2086
S':'
asbag56
(g77
g58
NtRp2087
(dp2088
g61
(dp2089
sg70
g2075
sg63
(lp2090
g56
(g57
g58
NtRp2091
(dp2092
g61
(dp2093
g69
I4
ssg70
g2087
sg63
(lp2094
S"set(['/home/ian/web2py/applications/topoi/', '/home/ian/web2py/applications/welcome/', '/home/ian/web2py/applications/admin/'])"
p2095
asbasbasbag56
(g72
g58
NtRp2096
(dp2097
g61
(dp2098
sg70
g2071
sg63
(lp2099
g56
(g77
g58
NtRp2100
(dp2101
g61
(dp2102
g81
g82
ssg70
g2096
sg63
(lp2103
g1065
asbag56
(g77
g58
NtRp2104
(dp2105
g61
(dp2106
g88
g89
ssg70
g2096
sg63
(lp2107
S':'
asbag56
(g77
g58
NtRp2108
(dp2109
g61
(dp2110
sg70
g2096
sg63
(lp2111
g56
(g57
g58
NtRp2112
(dp2113
g61
(dp2114
g69
I4
ssg70
g2108
sg63
(lp2115
g1078
asbasbasbag56
(g72
g58
NtRp2116
(dp2117
g61
(dp2118
sg70
g2071
sg63
(lp2119
g56
(g77
g58
NtRp2120
(dp2121
g61
(dp2122
g81
g82
ssg70
g2116
sg63
(lp2123
g1087
asbag56
(g77
g58
NtRp2124
(dp2125
g61
(dp2126
g88
g89
ssg70
g2116
sg63
(lp2127
S':'
asbag56
(g77
g58
NtRp2128
(dp2129
g61
(dp2130
sg70
g2116
sg63
(lp2131
g56
(g57
g58
NtRp2132
(dp2133
g61
(dp2134
g69
I4
ssg70
g2128
sg63
(lp2135
g56
(g65
g58
NtRp2136
(dp2137
g61
(dp2138
g69
I3
ssg70
Nsg63
(lp2139
sbasbasbasbag56
(g72
g58
NtRp2140
(dp2141
g61
(dp2142
sg70
g2071
sg63
(lp2143
g56
(g77
g58
NtRp2144
(dp2145
g61
(dp2146
g81
g82
ssg70
g2140
sg63
(lp2147
g1112
asbag56
(g77
g58
NtRp2148
(dp2149
g61
(dp2150
g88
g89
ssg70
g2140
sg63
(lp2151
S':'
asbag56
(g77
g58
NtRp2152
(dp2153
g61
(dp2154
sg70
g2140
sg63
(lp2155
g56
(g57
g58
NtRp2156
(dp2157
g61
(dp2158
g69
I4
ssg70
g2152
sg63
(lp2159
S"<Values at 0x2b68758: {'verbose': False, 'ip': '127.0.0.1', 'shutdown_timeout': 5, 'taskbar': False, 'nocron': False, 'pid_filename': 'httpserver.pid', 'maxthreads': None, 'softcron': False, 'server_name': 'uriel', 'bpython': False, 'nogui': False, 'port': 8000, 'extcron': False, 'debuglevel': 30, 'test': None, 'folder': '/home/ian/web2py', 'config': '', 'import_models': False, 'winservice': '', 'shell': None, 'run': '', 'log_filename': 'httpserver.log', 'args': [''], 'ssl_ca_certificate': None, 'scheduler': None, 'profiler_filename': None, 'ssl_private_key': '', 'password': '<ask>', 'request_queue_size': 5, 'ssl_certificate': '', 'cronjob': False, 'plain': False, 'quiet': False, 'interfaces': None, 'minthreads': None, 'timeout': 10, 'numthreads': None, 'nobanner': False}>"
p2160
asbasbasbag56
(g72
g58
NtRp2161
(dp2162
g61
(dp2163
sg70
g2071
sg63
(lp2164
g56
(g77
g58
NtRp2165
(dp2166
g61
(dp2167
g81
g82
ssg70
g2161
sg63
(lp2168
g1134
asbag56
(g77
g58
NtRp2169
(dp2170
g61
(dp2171
g88
g89
ssg70
g2161
sg63
(lp2172
S':'
asbag56
(g77
g58
NtRp2173
(dp2174
g61
(dp2175
sg70
g2161
sg63
(lp2176
g56
(g57
g58
NtRp2177
(dp2178
g61
(dp2179
g69
I4
ssg70
g2173
sg63
(lp2180
S'set([])'
p2181
asbasbasbag56
(g72
g58
NtRp2182
(dp2183
g61
(dp2184
sg70
g2071
sg63
(lp2185
g56
(g77
g58
NtRp2186
(dp2187
g61
(dp2188
g81
g82
ssg70
g2182
sg63
(lp2189
g1156
asbag56
(g77
g58
NtRp2190
(dp2191
g61
(dp2192
g88
g89
ssg70
g2182
sg63
(lp2193
S':'
asbag56
(g77
g58
NtRp2194
(dp2195
g61
(dp2196
sg70
g2182
sg63
(lp2197
g56
(g57
g58
NtRp2198
(dp2199
g61
(dp2200
g69
I4
ssg70
g2194
sg63
(lp2201
g99
asbasbasbag56
(g72
g58
NtRp2202
(dp2203
g61
(dp2204
sg70
g2071
sg63
(lp2205
g56
(g77
g58
NtRp2206
(dp2207
g61
(dp2208
g81
g82
ssg70
g2202
sg63
(lp2209
g1177
asbag56
(g77
g58
NtRp2210
(dp2211
g61
(dp2212
g88
g89
ssg70
g2202
sg63
(lp2213
S':'
asbag56
(g77
g58
NtRp2214
(dp2215
g61
(dp2216
sg70
g2202
sg63
(lp2217
g56
(g57
g58
NtRp2218
(dp2219
g61
(dp2220
g69
I4
ssg70
g2214
sg63
(lp2221
g1190
asbasbasbag56
(g72
g58
NtRp2222
(dp2223
g61
(dp2224
sg70
g2071
sg63
(lp2225
g56
(g77
g58
NtRp2226
(dp2227
g61
(dp2228
g81
g82
ssg70
g2222
sg63
(lp2229
g1397
asbag56
(g77
g58
NtRp2230
(dp2231
g61
(dp2232
g88
g89
ssg70
g2222
sg63
(lp2233
S':'
asbag56
(g77
g58
NtRp2234
(dp2235
g61
(dp2236
sg70
g2222
sg63
(lp2237
g56
(g57
g58
NtRp2238
(dp2239
g61
(dp2240
g69
I4
ssg70
g2234
sg63
(lp2241
g99
asbasbasbag56
(g72
g58
NtRp2242
(dp2243
g61
(dp2244
sg70
g2071
sg63
(lp2245
g56
(g77
g58
NtRp2246
(dp2247
g61
(dp2248
g81
g82
ssg70
g2242
sg63
(lp2249
g1635
asbag56
(g77
g58
NtRp2250
(dp2251
g61
(dp2252
g88
g89
ssg70
g2242
sg63
(lp2253
S':'
asbag56
(g77
g58
NtRp2254
(dp2255
g61
(dp2256
sg70
g2242
sg63
(lp2257
g56
(g57
g58
NtRp2258
(dp2259
g61
(dp2260
g69
I4
ssg70
g2254
sg63
(lp2261
g1648
asbasbasbag56
(g72
g58
NtRp2262
(dp2263
g61
(dp2264
sg70
g2071
sg63
(lp2265
g56
(g77
g58
NtRp2266
(dp2267
g61
(dp2268
g81
g82
ssg70
g2262
sg63
(lp2269
g1678
asbag56
(g77
g58
NtRp2270
(dp2271
g61
(dp2272
g88
g89
ssg70
g2262
sg63
(lp2273
S':'
asbag56
(g77
g58
NtRp2274
(dp2275
g61
(dp2276
sg70
g2262
sg63
(lp2277
g56
(g57
g58
NtRp2278
(dp2279
g61
(dp2280
g69
I4
ssg70
g2274
sg63
(lp2281
g56
(g65
g58
NtRp2282
(dp2283
g61
(dp2284
g69
I3
ssg70
Nsg63
(lp2285
g56
(g72
g58
NtRp2286
(dp2287
g61
(dp2288
sg70
g2282
sg63
(lp2289
g56
(g77
g58
NtRp2290
(dp2291
g61
(dp2292
sg70
g2286
sg63
(lp2293
g56
(g57
g58
NtRp2294
(dp2295
g61
(dp2296
g69
I3
ssg70
g2290
sg63
(lp2297
S'1'
asbasbasbag56
(g72
g58
NtRp2298
(dp2299
g61
(dp2300
sg70
g2282
sg63
(lp2301
g56
(g77
g58
NtRp2302
(dp2303
g61
(dp2304
sg70
g2298
sg63
(lp2305
g56
(g57
g58
NtRp2306
(dp2307
g61
(dp2308
g69
I3
ssg70
g2302
sg63
(lp2309
S'99'
p2310
asbasbasbag56
(g72
g58
NtRp2311
(dp2312
g61
(dp2313
sg70
g2282
sg63
(lp2314
g56
(g77
g58
NtRp2315
(dp2316
g61
(dp2317
sg70
g2311
sg63
(lp2318
g56
(g57
g58
NtRp2319
(dp2320
g61
(dp2321
g69
I3
ssg70
g2315
sg63
(lp2322
S'2'
asbasbasbag56
(g72
g58
NtRp2323
(dp2324
g61
(dp2325
sg70
g2282
sg63
(lp2326
g56
(g77
g58
NtRp2327
(dp2328
g61
(dp2329
sg70
g2323
sg63
(lp2330
g56
(g57
g58
NtRp2331
(dp2332
g61
(dp2333
g69
I3
ssg70
g2327
sg63
(lp2334
S'datetime.datetime(2011, 9, 26, 6, 55, 33)'
p2335
asbasbasbag56
(g72
g58
NtRp2336
(dp2337
g61
(dp2338
sg70
g2282
sg63
(lp2339
g56
(g77
g58
NtRp2340
(dp2341
g61
(dp2342
sg70
g2336
sg63
(lp2343
g56
(g57
g58
NtRp2344
(dp2345
g61
(dp2346
g69
I3
ssg70
g2340
sg63
(lp2347
g1757
asbasbasbasbasbasbasbasbasbasbasbag56
(g72
g58
NtRp2348
(dp2349
g61
(dp2350
sg70
g66
sg63
(lp2351
g56
(g77
g58
NtRp2352
(dp2353
g61
(dp2354
g81
g82
ssg70
g2348
sg63
(lp2355
S'is_https'
p2356
asbag56
(g77
g58
NtRp2357
(dp2358
g61
(dp2359
g88
g89
ssg70
g2348
sg63
(lp2360
S':'
asbag56
(g77
g58
NtRp2361
(dp2362
g61
(dp2363
sg70
g2348
sg63
(lp2364
g56
(g57
g58
NtRp2365
(dp2366
g61
(dp2367
g69
I5
ssg70
g2361
sg63
(lp2368
g99
asbasbasbag56
(g72
g58
NtRp2369
(dp2370
g61
(dp2371
sg70
g66
sg63
(lp2372
g56
(g77
g58
NtRp2373
(dp2374
g61
(dp2375
g81
g82
ssg70
g2369
sg63
(lp2376
S'is_local'
p2377
asbag56
(g77
g58
NtRp2378
(dp2379
g61
(dp2380
g88
g89
ssg70
g2369
sg63
(lp2381
S':'
asbag56
(g77
g58
NtRp2382
(dp2383
g61
(dp2384
sg70
g2369
sg63
(lp2385
g56
(g57
g58
NtRp2386
(dp2387
g61
(dp2388
g69
I5
ssg70
g2382
sg63
(lp2389
g1866
asbasbasbag56
(g72
g58
NtRp2390
(dp2391
g61
(dp2392
sg70
g66
sg63
(lp2393
g56
(g77
g58
NtRp2394
(dp2395
g61
(dp2396
g81
g82
ssg70
g2390
sg63
(lp2397
S'is_restful'
p2398
asbag56
(g77
g58
NtRp2399
(dp2400
g61
(dp2401
g88
g89
ssg70
g2390
sg63
(lp2402
S':'
asbag56
(g77
g58
NtRp2403
(dp2404
g61
(dp2405
sg70
g2390
sg63
(lp2406
g56
(g57
g58
NtRp2407
(dp2408
g61
(dp2409
g69
I5
ssg70
g2403
sg63
(lp2410
g99
asbasbasbag56
(g72
g58
NtRp2411
(dp2412
g61
(dp2413
sg70
g66
sg63
(lp2414
g56
(g77
g58
NtRp2415
(dp2416
g61
(dp2417
g81
g82
ssg70
g2411
sg63
(lp2418
S'now'
p2419
asbag56
(g77
g58
NtRp2420
(dp2421
g61
(dp2422
g88
g89
ssg70
g2411
sg63
(lp2423
S':'
asbag56
(g77
g58
NtRp2424
(dp2425
g61
(dp2426
sg70
g2411
sg63
(lp2427
g56
(g57
g58
NtRp2428
(dp2429
g61
(dp2430
g69
I5
ssg70
g2424
sg63
(lp2431
S'datetime.datetime(2011, 11, 25, 15, 6, 31, 467406)'
p2432
asbasbasbag56
(g72
g58
NtRp2433
(dp2434
g61
(dp2435
sg70
g66
sg63
(lp2436
g56
(g77
g58
NtRp2437
(dp2438
g61
(dp2439
g81
g82
ssg70
g2433
sg63
(lp2440
S'post_vars'
p2441
asbag56
(g77
g58
NtRp2442
(dp2443
g61
(dp2444
g88
g89
ssg70
g2433
sg63
(lp2445
S':'
asbag56
(g77
g58
NtRp2446
(dp2447
g61
(dp2448
sg70
g2433
sg63
(lp2449
g56
(g57
g58
NtRp2450
(dp2451
g61
(dp2452
g69
I5
ssg70
g2446
sg63
(lp2453
g56
(g65
g58
NtRp2454
(dp2455
g61
(dp2456
g69
I4
ssg70
Nsg63
(lp2457
sbasbasbasbag56
(g72
g58
NtRp2458
(dp2459
g61
(dp2460
sg70
g66
sg63
(lp2461
g56
(g77
g58
NtRp2462
(dp2463
g61
(dp2464
g81
g82
ssg70
g2458
sg63
(lp2465
S'raw_args'
p2466
asbag56
(g77
g58
NtRp2467
(dp2468
g61
(dp2469
g88
g89
ssg70
g2458
sg63
(lp2470
S':'
asbag56
(g77
g58
NtRp2471
(dp2472
g61
(dp2473
sg70
g2458
sg63
(lp2474
g56
(g57
g58
NtRp2475
(dp2476
g61
(dp2477
g69
I5
ssg70
g2471
sg63
(lp2478
S'note/1'
p2479
asbasbasbag56
(g72
g58
NtRp2480
(dp2481
g61
(dp2482
sg70
g66
sg63
(lp2483
g56
(g77
g58
NtRp2484
(dp2485
g61
(dp2486
g81
g82
ssg70
g2480
sg63
(lp2487
S'url'
p2488
asbag56
(g77
g58
NtRp2489
(dp2490
g61
(dp2491
g88
g89
ssg70
g2480
sg63
(lp2492
S':'
asbag56
(g77
g58
NtRp2493
(dp2494
g61
(dp2495
sg70
g2480
sg63
(lp2496
g56
(g57
g58
NtRp2497
(dp2498
g61
(dp2499
g69
I5
ssg70
g2493
sg63
(lp2500
S'/topoi/plugin_listandedit/list/note/1'
p2501
asbasbasbag56
(g72
g58
NtRp2502
(dp2503
g61
(dp2504
sg70
g66
sg63
(lp2505
g56
(g77
g58
NtRp2506
(dp2507
g61
(dp2508
g81
g82
ssg70
g2502
sg63
(lp2509
S'utcnow'
p2510
asbag56
(g77
g58
NtRp2511
(dp2512
g61
(dp2513
g88
g89
ssg70
g2502
sg63
(lp2514
S':'
asbag56
(g77
g58
NtRp2515
(dp2516
g61
(dp2517
sg70
g2502
sg63
(lp2518
g56
(g57
g58
NtRp2519
(dp2520
g61
(dp2521
g69
I5
ssg70
g2515
sg63
(lp2522
S'datetime.datetime(2011, 11, 25, 20, 6, 31, 467463)'
p2523
asbasbasbag56
(g72
g58
NtRp2524
(dp2525
g61
(dp2526
sg70
g66
sg63
(lp2527
g56
(g77
g58
NtRp2528
(dp2529
g61
(dp2530
g81
g82
ssg70
g2524
sg63
(lp2531
S'uuid'
p2532
asbag56
(g77
g58
NtRp2533
(dp2534
g61
(dp2535
g88
g89
ssg70
g2524
sg63
(lp2536
S':'
asbag56
(g77
g58
NtRp2537
(dp2538
g61
(dp2539
sg70
g2524
sg63
(lp2540
g56
(g57
g58
NtRp2541
(dp2542
g61
(dp2543
g69
I5
ssg70
g2537
sg63
(lp2544
S'topoi/127.0.0.1.2011-11-25.15-06-31.2b08c134-8f6e-4b2a-8c31-0bdc56c24f83'
p2545
asbasbasbag56
(g72
g58
NtRp2546
(dp2547
g61
(dp2548
sg70
g66
sg63
(lp2549
g56
(g77
g58
NtRp2550
(dp2551
g61
(dp2552
g81
g82
ssg70
g2546
sg63
(lp2553
S'vars'
p2554
asbag56
(g77
g58
NtRp2555
(dp2556
g61
(dp2557
g88
g89
ssg70
g2546
sg63
(lp2558
S':'
asbag56
(g77
g58
NtRp2559
(dp2560
g61
(dp2561
sg70
g2546
sg63
(lp2562
g56
(g57
g58
NtRp2563
(dp2564
g61
(dp2565
g69
I5
ssg70
g2559
sg63
(lp2566
g56
(g65
g58
NtRp2567
(dp2568
g61
(dp2569
g69
I4
ssg70
Nsg63
(lp2570
sbasbasbasbag56
(g72
g58
NtRp2571
(dp2572
g61
(dp2573
sg70
g66
sg63
(lp2574
g56
(g77
g58
NtRp2575
(dp2576
g61
(dp2577
g81
g82
ssg70
g2571
sg63
(lp2578
S'wsgi'
p2579
asbag56
(g77
g58
NtRp2580
(dp2581
g61
(dp2582
g88
g89
ssg70
g2571
sg63
(lp2583
S':'
asbag56
(g77
g58
NtRp2584
(dp2585
g61
(dp2586
sg70
g2571
sg63
(lp2587
g56
(g57
g58
NtRp2588
(dp2589
g61
(dp2590
g69
I5
ssg70
g2584
sg63
(lp2591
g56
(g65
g58
NtRp2592
(dp2593
g61
(dp2594
g69
I4
ssg70
Nsg63
(lp2595
g56
(g72
g58
NtRp2596
(dp2597
g61
(dp2598
sg70
g2592
sg63
(lp2599
g56
(g77
g58
NtRp2600
(dp2601
g61
(dp2602
g81
g82
ssg70
g2596
sg63
(lp2603
S'environ'
p2604
asbag56
(g77
g58
NtRp2605
(dp2606
g61
(dp2607
g88
g89
ssg70
g2596
sg63
(lp2608
S':'
asbag56
(g77
g58
NtRp2609
(dp2610
g61
(dp2611
sg70
g2596
sg63
(lp2612
g56
(g57
g58
NtRp2613
(dp2614
g61
(dp2615
g69
I4
ssg70
g2609
sg63
(lp2616
g56
(g65
g58
NtRp2617
(dp2618
g61
(dp2619
g69
I3
ssg70
Nsg63
(lp2620
g56
(g72
g58
NtRp2621
(dp2622
g61
(dp2623
sg70
g2617
sg63
(lp2624
g56
(g77
g58
NtRp2625
(dp2626
g61
(dp2627
g81
g82
ssg70
g2621
sg63
(lp2628
S'HTTP_ACCEPT'
p2629
asbag56
(g77
g58
NtRp2630
(dp2631
g61
(dp2632
g88
g89
ssg70
g2621
sg63
(lp2633
S':'
asbag56
(g77
g58
NtRp2634
(dp2635
g61
(dp2636
sg70
g2621
sg63
(lp2637
g56
(g57
g58
NtRp2638
(dp2639
g61
(dp2640
g69
I3
ssg70
g2634
sg63
(lp2641
g1212
asbasbasbag56
(g72
g58
NtRp2642
(dp2643
g61
(dp2644
sg70
g2617
sg63
(lp2645
g56
(g77
g58
NtRp2646
(dp2647
g61
(dp2648
g81
g82
ssg70
g2642
sg63
(lp2649
S'HTTP_ACCEPT_ENCODING'
p2650
asbag56
(g77
g58
NtRp2651
(dp2652
g61
(dp2653
g88
g89
ssg70
g2642
sg63
(lp2654
S':'
asbag56
(g77
g58
NtRp2655
(dp2656
g61
(dp2657
sg70
g2642
sg63
(lp2658
g56
(g57
g58
NtRp2659
(dp2660
g61
(dp2661
g69
I3
ssg70
g2655
sg63
(lp2662
g1234
asbasbasbag56
(g72
g58
NtRp2663
(dp2664
g61
(dp2665
sg70
g2617
sg63
(lp2666
g56
(g77
g58
NtRp2667
(dp2668
g61
(dp2669
g81
g82
ssg70
g2663
sg63
(lp2670
S'HTTP_ACCEPT_LANGUAGE'
p2671
asbag56
(g77
g58
NtRp2672
(dp2673
g61
(dp2674
g88
g89
ssg70
g2663
sg63
(lp2675
S':'
asbag56
(g77
g58
NtRp2676
(dp2677
g61
(dp2678
sg70
g2663
sg63
(lp2679
g56
(g57
g58
NtRp2680
(dp2681
g61
(dp2682
g69
I3
ssg70
g2676
sg63
(lp2683
g1256
asbasbasbag56
(g72
g58
NtRp2684
(dp2685
g61
(dp2686
sg70
g2617
sg63
(lp2687
g56
(g77
g58
NtRp2688
(dp2689
g61
(dp2690
g81
g82
ssg70
g2684
sg63
(lp2691
S'HTTP_CACHE_CONTROL'
p2692
asbag56
(g77
g58
NtRp2693
(dp2694
g61
(dp2695
g88
g89
ssg70
g2684
sg63
(lp2696
S':'
asbag56
(g77
g58
NtRp2697
(dp2698
g61
(dp2699
sg70
g2684
sg63
(lp2700
g56
(g57
g58
NtRp2701
(dp2702
g61
(dp2703
g69
I3
ssg70
g2697
sg63
(lp2704
g1278
asbasbasbag56
(g72
g58
NtRp2705
(dp2706
g61
(dp2707
sg70
g2617
sg63
(lp2708
g56
(g77
g58
NtRp2709
(dp2710
g61
(dp2711
g81
g82
ssg70
g2705
sg63
(lp2712
S'HTTP_CONNECTION'
p2713
asbag56
(g77
g58
NtRp2714
(dp2715
g61
(dp2716
g88
g89
ssg70
g2705
sg63
(lp2717
S':'
asbag56
(g77
g58
NtRp2718
(dp2719
g61
(dp2720
sg70
g2705
sg63
(lp2721
g56
(g57
g58
NtRp2722
(dp2723
g61
(dp2724
g69
I3
ssg70
g2718
sg63
(lp2725
g1300
asbasbasbag56
(g72
g58
NtRp2726
(dp2727
g61
(dp2728
sg70
g2617
sg63
(lp2729
g56
(g77
g58
NtRp2730
(dp2731
g61
(dp2732
g81
g82
ssg70
g2726
sg63
(lp2733
S'HTTP_COOKIE'
p2734
asbag56
(g77
g58
NtRp2735
(dp2736
g61
(dp2737
g88
g89
ssg70
g2726
sg63
(lp2738
S':'
asbag56
(g77
g58
NtRp2739
(dp2740
g61
(dp2741
sg70
g2726
sg63
(lp2742
g56
(g57
g58
NtRp2743
(dp2744
g61
(dp2745
g69
I3
ssg70
g2739
sg63
(lp2746
g1322
asbasbasbag56
(g72
g58
NtRp2747
(dp2748
g61
(dp2749
sg70
g2617
sg63
(lp2750
g56
(g77
g58
NtRp2751
(dp2752
g61
(dp2753
g81
g82
ssg70
g2747
sg63
(lp2754
S'HTTP_HOST'
p2755
asbag56
(g77
g58
NtRp2756
(dp2757
g61
(dp2758
g88
g89
ssg70
g2747
sg63
(lp2759
S':'
asbag56
(g77
g58
NtRp2760
(dp2761
g61
(dp2762
sg70
g2747
sg63
(lp2763
g56
(g57
g58
NtRp2764
(dp2765
g61
(dp2766
g69
I3
ssg70
g2760
sg63
(lp2767
g1344
asbasbasbag56
(g72
g58
NtRp2768
(dp2769
g61
(dp2770
sg70
g2617
sg63
(lp2771
g56
(g77
g58
NtRp2772
(dp2773
g61
(dp2774
g81
g82
ssg70
g2768
sg63
(lp2775
S'HTTP_REFERER'
p2776
asbag56
(g77
g58
NtRp2777
(dp2778
g61
(dp2779
g88
g89
ssg70
g2768
sg63
(lp2780
S':'
asbag56
(g77
g58
NtRp2781
(dp2782
g61
(dp2783
sg70
g2768
sg63
(lp2784
g56
(g57
g58
NtRp2785
(dp2786
g61
(dp2787
g69
I3
ssg70
g2781
sg63
(lp2788
g1366
asbasbasbag56
(g72
g58
NtRp2789
(dp2790
g61
(dp2791
sg70
g2617
sg63
(lp2792
g56
(g77
g58
NtRp2793
(dp2794
g61
(dp2795
g81
g82
ssg70
g2789
sg63
(lp2796
S'HTTP_USER_AGENT'
p2797
asbag56
(g77
g58
NtRp2798
(dp2799
g61
(dp2800
g88
g89
ssg70
g2789
sg63
(lp2801
S':'
asbag56
(g77
g58
NtRp2802
(dp2803
g61
(dp2804
sg70
g2789
sg63
(lp2805
g56
(g57
g58
NtRp2806
(dp2807
g61
(dp2808
g69
I3
ssg70
g2802
sg63
(lp2809
g1388
asbasbasbag56
(g72
g58
NtRp2810
(dp2811
g61
(dp2812
sg70
g2617
sg63
(lp2813
g56
(g77
g58
NtRp2814
(dp2815
g61
(dp2816
g81
g82
ssg70
g2810
sg63
(lp2817
S'PATH_INFO'
p2818
asbag56
(g77
g58
NtRp2819
(dp2820
g61
(dp2821
g88
g89
ssg70
g2810
sg63
(lp2822
S':'
asbag56
(g77
g58
NtRp2823
(dp2824
g61
(dp2825
sg70
g2810
sg63
(lp2826
g56
(g57
g58
NtRp2827
(dp2828
g61
(dp2829
g69
I3
ssg70
g2823
sg63
(lp2830
g1431
asbasbasbag56
(g72
g58
NtRp2831
(dp2832
g61
(dp2833
sg70
g2617
sg63
(lp2834
g56
(g77
g58
NtRp2835
(dp2836
g61
(dp2837
g81
g82
ssg70
g2831
sg63
(lp2838
S'QUERY_STRING'
p2839
asbag56
(g77
g58
NtRp2840
(dp2841
g61
(dp2842
g88
g89
ssg70
g2831
sg63
(lp2843
S':'
asbag56
(g77
g58
NtRp2844
(dp2845
g61
(dp2846
sg70
g2831
sg63
(lp2847
g56
(g57
g58
NtRp2848
(dp2849
g61
(dp2850
g69
I3
ssg70
g2844
sg63
(lp2851
S''
asbasbasbag56
(g72
g58
NtRp2852
(dp2853
g61
(dp2854
sg70
g2617
sg63
(lp2855
g56
(g77
g58
NtRp2856
(dp2857
g61
(dp2858
g81
g82
ssg70
g2852
sg63
(lp2859
S'REMOTE_ADDR'
p2860
asbag56
(g77
g58
NtRp2861
(dp2862
g61
(dp2863
g88
g89
ssg70
g2852
sg63
(lp2864
S':'
asbag56
(g77
g58
NtRp2865
(dp2866
g61
(dp2867
sg70
g2852
sg63
(lp2868
g56
(g57
g58
NtRp2869
(dp2870
g61
(dp2871
g69
I3
ssg70
g2865
sg63
(lp2872
g214
asbasbasbag56
(g72
g58
NtRp2873
(dp2874
g61
(dp2875
sg70
g2617
sg63
(lp2876
g56
(g77
g58
NtRp2877
(dp2878
g61
(dp2879
g81
g82
ssg70
g2873
sg63
(lp2880
S'REMOTE_PORT'
p2881
asbag56
(g77
g58
NtRp2882
(dp2883
g61
(dp2884
g88
g89
ssg70
g2873
sg63
(lp2885
S':'
asbag56
(g77
g58
NtRp2886
(dp2887
g61
(dp2888
sg70
g2873
sg63
(lp2889
g56
(g57
g58
NtRp2890
(dp2891
g61
(dp2892
g69
I3
ssg70
g2886
sg63
(lp2893
g1495
asbasbasbag56
(g72
g58
NtRp2894
(dp2895
g61
(dp2896
sg70
g2617
sg63
(lp2897
g56
(g77
g58
NtRp2898
(dp2899
g61
(dp2900
g81
g82
ssg70
g2894
sg63
(lp2901
S'REQUEST_METHOD'
p2902
asbag56
(g77
g58
NtRp2903
(dp2904
g61
(dp2905
g88
g89
ssg70
g2894
sg63
(lp2906
S':'
asbag56
(g77
g58
NtRp2907
(dp2908
g61
(dp2909
sg70
g2894
sg63
(lp2910
g56
(g57
g58
NtRp2911
(dp2912
g61
(dp2913
g69
I3
ssg70
g2907
sg63
(lp2914
g1517
asbasbasbag56
(g72
g58
NtRp2915
(dp2916
g61
(dp2917
sg70
g2617
sg63
(lp2918
g56
(g77
g58
NtRp2919
(dp2920
g61
(dp2921
g81
g82
ssg70
g2915
sg63
(lp2922
S'SCRIPT_NAME'
p2923
asbag56
(g77
g58
NtRp2924
(dp2925
g61
(dp2926
g88
g89
ssg70
g2915
sg63
(lp2927
S':'
asbag56
(g77
g58
NtRp2928
(dp2929
g61
(dp2930
sg70
g2915
sg63
(lp2931
g56
(g57
g58
NtRp2932
(dp2933
g61
(dp2934
g69
I3
ssg70
g2928
sg63
(lp2935
S''
asbasbasbag56
(g72
g58
NtRp2936
(dp2937
g61
(dp2938
sg70
g2617
sg63
(lp2939
g56
(g77
g58
NtRp2940
(dp2941
g61
(dp2942
g81
g82
ssg70
g2936
sg63
(lp2943
S'SERVER_NAME'
p2944
asbag56
(g77
g58
NtRp2945
(dp2946
g61
(dp2947
g88
g89
ssg70
g2936
sg63
(lp2948
S':'
asbag56
(g77
g58
NtRp2949
(dp2950
g61
(dp2951
sg70
g2936
sg63
(lp2952
g56
(g57
g58
NtRp2953
(dp2954
g61
(dp2955
g69
I3
ssg70
g2949
sg63
(lp2956
g1560
asbasbasbag56
(g72
g58
NtRp2957
(dp2958
g61
(dp2959
sg70
g2617
sg63
(lp2960
g56
(g77
g58
NtRp2961
(dp2962
g61
(dp2963
g81
g82
ssg70
g2957
sg63
(lp2964
S'SERVER_PORT'
p2965
asbag56
(g77
g58
NtRp2966
(dp2967
g61
(dp2968
g88
g89
ssg70
g2957
sg63
(lp2969
S':'
asbag56
(g77
g58
NtRp2970
(dp2971
g61
(dp2972
sg70
g2957
sg63
(lp2973
g56
(g57
g58
NtRp2974
(dp2975
g61
(dp2976
g69
I3
ssg70
g2970
sg63
(lp2977
g1582
asbasbasbag56
(g72
g58
NtRp2978
(dp2979
g61
(dp2980
sg70
g2617
sg63
(lp2981
g56
(g77
g58
NtRp2982
(dp2983
g61
(dp2984
g81
g82
ssg70
g2978
sg63
(lp2985
S'SERVER_PROTOCOL'
p2986
asbag56
(g77
g58
NtRp2987
(dp2988
g61
(dp2989
g88
g89
ssg70
g2978
sg63
(lp2990
S':'
asbag56
(g77
g58
NtRp2991
(dp2992
g61
(dp2993
sg70
g2978
sg63
(lp2994
g56
(g57
g58
NtRp2995
(dp2996
g61
(dp2997
g69
I3
ssg70
g2991
sg63
(lp2998
g1604
asbasbasbag56
(g72
g58
NtRp2999
(dp3000
g61
(dp3001
sg70
g2617
sg63
(lp3002
g56
(g77
g58
NtRp3003
(dp3004
g61
(dp3005
g81
g82
ssg70
g2999
sg63
(lp3006
S'SERVER_SOFTWARE'
p3007
asbag56
(g77
g58
NtRp3008
(dp3009
g61
(dp3010
g88
g89
ssg70
g2999
sg63
(lp3011
S':'
asbag56
(g77
g58
NtRp3012
(dp3013
g61
(dp3014
sg70
g2999
sg63
(lp3015
g56
(g57
g58
NtRp3016
(dp3017
g61
(dp3018
g69
I3
ssg70
g3012
sg63
(lp3019
g1626
asbasbasbag56
(g72
g58
NtRp3020
(dp3021
g61
(dp3022
sg70
g2617
sg63
(lp3023
g56
(g77
g58
NtRp3024
(dp3025
g61
(dp3026
g81
g82
ssg70
g3020
sg63
(lp3027
S'wsgi.errors'
p3028
asbag56
(g77
g58
NtRp3029
(dp3030
g61
(dp3031
g88
g89
ssg70
g3020
sg63
(lp3032
S':'
asbag56
(g77
g58
NtRp3033
(dp3034
g61
(dp3035
sg70
g3020
sg63
(lp3036
g56
(g57
g58
NtRp3037
(dp3038
g61
(dp3039
g69
I3
ssg70
g3033
sg63
(lp3040
S"<open file '<stderr>', mode 'w' at 0x7f4f55905270>"
p3041
asbasbasbag56
(g72
g58
NtRp3042
(dp3043
g61
(dp3044
sg70
g2617
sg63
(lp3045
g56
(g77
g58
NtRp3046
(dp3047
g61
(dp3048
g81
g82
ssg70
g3042
sg63
(lp3049
S'wsgi.file_wrapper'
p3050
asbag56
(g77
g58
NtRp3051
(dp3052
g61
(dp3053
g88
g89
ssg70
g3042
sg63
(lp3054
S':'
asbag56
(g77
g58
NtRp3055
(dp3056
g61
(dp3057
sg70
g3042
sg63
(lp3058
g56
(g57
g58
NtRp3059
(dp3060
g61
(dp3061
g69
I3
ssg70
g3055
sg63
(lp3062
S'<class wsgiref.util.FileWrapper at 0x2a33870>'
p3063
asbasbasbag56
(g72
g58
NtRp3064
(dp3065
g61
(dp3066
sg70
g2617
sg63
(lp3067
g56
(g77
g58
NtRp3068
(dp3069
g61
(dp3070
g81
g82
ssg70
g3064
sg63
(lp3071
S'wsgi.input'
p3072
asbag56
(g77
g58
NtRp3073
(dp3074
g61
(dp3075
g88
g89
ssg70
g3064
sg63
(lp3076
S':'
asbag56
(g77
g58
NtRp3077
(dp3078
g61
(dp3079
sg70
g3064
sg63
(lp3080
g56
(g57
g58
NtRp3081
(dp3082
g61
(dp3083
g69
I3
ssg70
g3077
sg63
(lp3084
S'<cStringIO.StringO object at 0x451dc70>'
p3085
asbasbasbag56
(g72
g58
NtRp3086
(dp3087
g61
(dp3088
sg70
g2617
sg63
(lp3089
g56
(g77
g58
NtRp3090
(dp3091
g61
(dp3092
g81
g82
ssg70
g3086
sg63
(lp3093
S'wsgi.multiprocess'
p3094
asbag56
(g77
g58
NtRp3095
(dp3096
g61
(dp3097
g88
g89
ssg70
g3086
sg63
(lp3098
S':'
asbag56
(g77
g58
NtRp3099
(dp3100
g61
(dp3101
sg70
g3086
sg63
(lp3102
g56
(g57
g58
NtRp3103
(dp3104
g61
(dp3105
g69
I3
ssg70
g3099
sg63
(lp3106
g99
asbasbasbag56
(g72
g58
NtRp3107
(dp3108
g61
(dp3109
sg70
g2617
sg63
(lp3110
g56
(g77
g58
NtRp3111
(dp3112
g61
(dp3113
g81
g82
ssg70
g3107
sg63
(lp3114
S'wsgi.multithread'
p3115
asbag56
(g77
g58
NtRp3116
(dp3117
g61
(dp3118
g88
g89
ssg70
g3107
sg63
(lp3119
S':'
asbag56
(g77
g58
NtRp3120
(dp3121
g61
(dp3122
sg70
g3107
sg63
(lp3123
g56
(g57
g58
NtRp3124
(dp3125
g61
(dp3126
g69
I3
ssg70
g3120
sg63
(lp3127
g1866
asbasbasbag56
(g72
g58
NtRp3128
(dp3129
g61
(dp3130
sg70
g2617
sg63
(lp3131
g56
(g77
g58
NtRp3132
(dp3133
g61
(dp3134
g81
g82
ssg70
g3128
sg63
(lp3135
S'wsgi.run_once'
p3136
asbag56
(g77
g58
NtRp3137
(dp3138
g61
(dp3139
g88
g89
ssg70
g3128
sg63
(lp3140
S':'
asbag56
(g77
g58
NtRp3141
(dp3142
g61
(dp3143
sg70
g3128
sg63
(lp3144
g56
(g57
g58
NtRp3145
(dp3146
g61
(dp3147
g69
I3
ssg70
g3141
sg63
(lp3148
g99
asbasbasbag56
(g72
g58
NtRp3149
(dp3150
g61
(dp3151
sg70
g2617
sg63
(lp3152
g56
(g77
g58
NtRp3153
(dp3154
g61
(dp3155
g81
g82
ssg70
g3149
sg63
(lp3156
S'wsgi.url_scheme'
p3157
asbag56
(g77
g58
NtRp3158
(dp3159
g61
(dp3160
g88
g89
ssg70
g3149
sg63
(lp3161
S':'
asbag56
(g77
g58
NtRp3162
(dp3163
g61
(dp3164
sg70
g3149
sg63
(lp3165
g56
(g57
g58
NtRp3166
(dp3167
g61
(dp3168
g69
I3
ssg70
g3162
sg63
(lp3169
g1909
asbasbasbag56
(g72
g58
NtRp3170
(dp3171
g61
(dp3172
sg70
g2617
sg63
(lp3173
g56
(g77
g58
NtRp3174
(dp3175
g61
(dp3176
g81
g82
ssg70
g3170
sg63
(lp3177
S'wsgi.version'
p3178
asbag56
(g77
g58
NtRp3179
(dp3180
g61
(dp3181
g88
g89
ssg70
g3170
sg63
(lp3182
S':'
asbag56
(g77
g58
NtRp3183
(dp3184
g61
(dp3185
sg70
g3170
sg63
(lp3186
g56
(g57
g58
NtRp3187
(dp3188
g61
(dp3189
g69
I3
ssg70
g3183
sg63
(lp3190
S'1'
asbasbasbasbasbasbasbasbasbasbasbasbasbsS'frames'
p3191
(lp3192
(dp3193
S'file'
p3194
S'/home/ian/web2py/gluon/restricted.py'
p3195
sS'dump'
p3196
(dp3197
S'environment'
p3198
S"{'A': <class 'gluon.html.A'>, 'Auth': <class 'gluon.tools.Auth'>, 'B': <class 'gluon.html.B'>, 'BEAUTIFY': <class 'gluon.html.BEAUTIFY'>, 'BODY': <class 'gluon.html.BODY'>, 'BR': <class 'gluon.html.BR'>, 'BUTTON': <class 'gluon.html.BUTTON'>, 'CAT': <class 'gluon.html.CAT'>, 'CENTER': <class 'gluon.html.CENTER'>, 'CLEANUP': <class 'gluon.validators.CLEANUP'>, ...}"
p3199
sS'ccode'
p3200
S'<code object <module> at 0x42e44b0, file "/home/...b2py/applications/topoi/models/topoi.py", line 2>'
p3201
ssS'lnum'
p3202
I194
sS'lines'
p3203
(dp3204
I192
S'        else:'
p3205
sI193
S'            ccode = compile2(code,layer)'
p3206
sI194
S'        exec ccode in environment'
p3207
sI195
S'    except HTTP:'
p3208
sI196
S'        raise'
p3209
sI197
S'    except Exception, error:'
p3210
sI198
S'        # XXX Show exception in Wing IDE if running in debugger'
p3211
sI189
S'    try:'
p3212
sI190
S'        if type(code) == types.CodeType:'
p3213
sI191
S'            ccode = code'
p3214
ssS'call'
p3215
S"(code='# coding: utf8\\nfrom plugin_selectoradd import SE...dget\\ndb.notes.project.widget = add_option.widget\\n', environment={'A': <class 'gluon.html.A'>, 'Auth': <class 'gluon.tools.Auth'>, 'B': <class 'gluon.html.B'>, 'BEAUTIFY': <class 'gluon.html.BEAUTIFY'>, 'BODY': <class 'gluon.html.BODY'>, 'BR': <class 'gluon.html.BR'>, 'BUTTON': <class 'gluon.html.BUTTON'>, 'CAT': <class 'gluon.html.CAT'>, 'CENTER': <class 'gluon.html.CENTER'>, 'CLEANUP': <class 'gluon.validators.CLEANUP'>, ...}, layer='/home/ian/web2py/applications/topoi/models/topoi.py')"
p3216
sS'func'
p3217
S'restricted'
p3218
sa(dp3219
g3194
S'/home/ian/web2py/applications/topoi/models/topoi.py'
p3220
sg3196
(dp3221
S'SELECT_OR_ADD_OPTION'
p3222
S'undefined'
p3223
sS'plugin_selectoradd'
p3224
g3223
ssg3202
I2
sg3203
(dp3225
I2
S'from plugin_selectoradd import SELECT_OR_ADD_OPTION'
p3226
sI3
S'from plugin_multiselect_widget import hmultiselect_widget, vmultiselect_widget'
p3227
sI4
S'import datetime'
p3228
sI5
S''
sI6
S'add_option = SELECT_OR_ADD_OPTION(form_title="Add new", controller="plugin_selectoradd", function="add", button_text = "Add New", dialog_width=500)'
p3229
sI7
S''
sI8
S"db.define_table('locations',"
p3230
sI9
S"    Field('location', 'string'),"
p3231
sI10
S"    format='%(location)s')"
p3232
sI11
S''
ssg3215
S'()'
p3233
sg3217
S'<module>'
p3234
sa(dp3235
g3194
S'/home/ian/web2py/gluon/custom_import.py'
p3236
sg3196
(dp3237
S'fromlist'
p3238
S"('SELECT_OR_ADD_OPTION',)"
p3239
sS'level'
p3240
S'-1'
p3241
ssg3202
I294
sg3203
(dp3242
I289
S'                            .__call__(modules_prefix+"."+name,'
p3243
sI290
S'                                    globals, locals, fromlist, level)'
p3244
sI291
S'                except ImportError:'
p3245
sI292
S'                    pass'
p3246
sI293
S'        return super(_Web2pyImporter, self).__call__(name, globals, locals,'
p3247
sI294
S'                                                    fromlist, level)'
p3248
sI295
S'        #except Exception, e:'
p3249
sI296
S"        #    raise e  # Don't hide something that went wrong"
p3250
sI297
S'        #finally:'
p3251
sI298
S'        self.end()'
p3252
ssg3215
S"(self=<gluon.custom_import._Web2pyDateTrackerImporter object>, name='plugin_selectoradd', globals={'A': <class 'gluon.html.A'>, 'Auth': <class 'gluon.tools.Auth'>, 'B': <class 'gluon.html.B'>, 'BEAUTIFY': <class 'gluon.html.BEAUTIFY'>, 'BODY': <class 'gluon.html.BODY'>, 'BR': <class 'gluon.html.BR'>, 'BUTTON': <class 'gluon.html.BUTTON'>, 'CAT': <class 'gluon.html.CAT'>, 'CENTER': <class 'gluon.html.CENTER'>, 'CLEANUP': <class 'gluon.validators.CLEANUP'>, ...}, locals={'A': <class 'gluon.html.A'>, 'Auth': <class 'gluon.tools.Auth'>, 'B': <class 'gluon.html.B'>, 'BEAUTIFY': <class 'gluon.html.BEAUTIFY'>, 'BODY': <class 'gluon.html.BODY'>, 'BR': <class 'gluon.html.BR'>, 'BUTTON': <class 'gluon.html.BUTTON'>, 'CAT': <class 'gluon.html.CAT'>, 'CENTER': <class 'gluon.html.CENTER'>, 'CLEANUP': <class 'gluon.validators.CLEANUP'>, ...}, fromlist=('SELECT_OR_ADD_OPTION',), level=-1)"
p3253
sg3217
S'__call__'
p3254
sa(dp3255
g3194
S'/home/ian/web2py/gluon/custom_import.py'
p3256
sg3196
(dp3257
S'e'
S"ImportError('No module named plugin_selectoradd',)"
p3258
ssg3202
I133
sg3203
(dp3259
I128
S'              .__call__(name, globals, locals, fromlist, level)'
p3260
sI129
S'            # Module maybe loaded for the 1st time so we need to set the date'
p3261
sI130
S'            self._update_dates(name, fromlist)'
p3262
sI131
S'            return result'
p3263
sI132
S'        except Exception, e:'
p3264
sI133
S"            raise e  # Don't hide something that went wrong"
p3265
sI134
S'        finally:'
p3266
sI135
S'            if call_begin_end:'
p3267
sI136
S'                self.end()'
p3268
sI137
S''
ssg3215
S"(self=<gluon.custom_import._Web2pyDateTrackerImporter object>, name='plugin_selectoradd', globals={'A': <class 'gluon.html.A'>, 'Auth': <class 'gluon.tools.Auth'>, 'B': <class 'gluon.html.B'>, 'BEAUTIFY': <class 'gluon.html.BEAUTIFY'>, 'BODY': <class 'gluon.html.BODY'>, 'BR': <class 'gluon.html.BR'>, 'BUTTON': <class 'gluon.html.BUTTON'>, 'CAT': <class 'gluon.html.CAT'>, 'CENTER': <class 'gluon.html.CENTER'>, 'CLEANUP': <class 'gluon.validators.CLEANUP'>, ...}, locals={'A': <class 'gluon.html.A'>, 'Auth': <class 'gluon.tools.Auth'>, 'B': <class 'gluon.html.B'>, 'BEAUTIFY': <class 'gluon.html.BEAUTIFY'>, 'BODY': <class 'gluon.html.BODY'>, 'BR': <class 'gluon.html.BR'>, 'BUTTON': <class 'gluon.html.BUTTON'>, 'CAT': <class 'gluon.html.CAT'>, 'CENTER': <class 'gluon.html.CENTER'>, 'CLEANUP': <class 'gluon.validators.CLEANUP'>, ...}, fromlist=('SELECT_OR_ADD_OPTION',), level=-1)"
p3269
sg3217
g3254
sasS'pyver'
p3270
S'Python 2.7.2+: /usr/bin/python2.7'
p3271
sS'session'
p3272
g56
(g57
g58
NtRp3273
(dp3274
g61
(dp3275
sg63
(lp3276
g56
(g65
g58
NtRp3277
(dp3278
g61
(dp3279
g69
I5
ssg70
Nsg63
(lp3280
sbasbsS'etype'
p3281
S"<type 'exceptions.ImportError'>"
p3282
sS'date'
p3283
S'Fri Nov 25 15:06:31 2011'
p3284
sS'response'
p3285
g56
(g57
g58
NtRp3286
(dp3287
g61
(dp3288
sg63
(lp3289
g56
(g65
g58
NtRp3290
(dp3291
g61
(dp3292
g69
I5
ssg70
Nsg63
(lp3293
g56
(g72
g58
NtRp3294
(dp3295
g61
(dp3296
sg70
g3290
sg63
(lp3297
g56
(g77
g58
NtRp3298
(dp3299
g61
(dp3300
g81
g82
ssg70
g3294
sg63
(lp3301
g179
asbag56
(g77
g58
NtRp3302
(dp3303
g61
(dp3304
g88
g89
ssg70
g3294
sg63
(lp3305
S':'
asbag56
(g77
g58
NtRp3306
(dp3307
g61
(dp3308
sg70
g3294
sg63
(lp3309
g56
(g57
g58
NtRp3310
(dp3311
g61
(dp3312
g69
I5
ssg70
g3306
sg63
(lp3313
S'<cStringIO.StringO object at 0x37badc0>'
p3314
asbasbasbag56
(g72
g58
NtRp3315
(dp3316
g61
(dp3317
sg70
g3290
sg63
(lp3318
g56
(g77
g58
NtRp3319
(dp3320
g61
(dp3321
g81
g82
ssg70
g3315
sg63
(lp3322
g245
asbag56
(g77
g58
NtRp3323
(dp3324
g61
(dp3325
g88
g89
ssg70
g3315
sg63
(lp3326
S':'
asbag56
(g77
g58
NtRp3327
(dp3328
g61
(dp3329
sg70
g3315
sg63
(lp3330
g56
(g57
g58
NtRp3331
(dp3332
g61
(dp3333
g69
I5
ssg70
g3327
sg63
(lp3334
g56
(g65
g58
NtRp3335
(dp3336
g61
(dp3337
g69
I4
ssg70
Nsg63
(lp3338
g56
(g72
g58
NtRp3339
(dp3340
g61
(dp3341
sg70
g3335
sg63
(lp3342
g56
(g77
g58
NtRp3343
(dp3344
g61
(dp3345
g81
g82
ssg70
g3339
sg63
(lp3346
S'session_id_topoi'
p3347
asbag56
(g77
g58
NtRp3348
(dp3349
g61
(dp3350
g88
g89
ssg70
g3339
sg63
(lp3351
S':'
asbag56
(g77
g58
NtRp3352
(dp3353
g61
(dp3354
sg70
g3339
sg63
(lp3355
g56
(g57
g58
NtRp3356
(dp3357
g61
(dp3358
g69
I4
ssg70
g3352
sg63
(lp3359
g56
(g65
g58
NtRp3360
(dp3361
g61
(dp3362
g69
I3
ssg70
Nsg63
(lp3363
g56
(g72
g58
NtRp3364
(dp3365
g61
(dp3366
sg70
g3360
sg63
(lp3367
g56
(g77
g58
NtRp3368
(dp3369
g61
(dp3370
g81
g82
ssg70
g3364
sg63
(lp3371
g295
asbag56
(g77
g58
NtRp3372
(dp3373
g61
(dp3374
g88
g89
ssg70
g3364
sg63
(lp3375
S':'
asbag56
(g77
g58
NtRp3376
(dp3377
g61
(dp3378
sg70
g3364
sg63
(lp3379
g56
(g57
g58
NtRp3380
(dp3381
g61
(dp3382
g69
I3
ssg70
g3376
sg63
(lp3383
S''
asbasbasbag56
(g72
g58
NtRp3384
(dp3385
g61
(dp3386
sg70
g3360
sg63
(lp3387
g56
(g77
g58
NtRp3388
(dp3389
g61
(dp3390
g81
g82
ssg70
g3384
sg63
(lp3391
g316
asbag56
(g77
g58
NtRp3392
(dp3393
g61
(dp3394
g88
g89
ssg70
g3384
sg63
(lp3395
S':'
asbag56
(g77
g58
NtRp3396
(dp3397
g61
(dp3398
sg70
g3384
sg63
(lp3399
g56
(g57
g58
NtRp3400
(dp3401
g61
(dp3402
g69
I3
ssg70
g3396
sg63
(lp3403
S''
asbasbasbag56
(g72
g58
NtRp3404
(dp3405
g61
(dp3406
sg70
g3360
sg63
(lp3407
g56
(g77
g58
NtRp3408
(dp3409
g61
(dp3410
g81
g82
ssg70
g3404
sg63
(lp3411
g337
asbag56
(g77
g58
NtRp3412
(dp3413
g61
(dp3414
g88
g89
ssg70
g3404
sg63
(lp3415
S':'
asbag56
(g77
g58
NtRp3416
(dp3417
g61
(dp3418
sg70
g3404
sg63
(lp3419
g56
(g57
g58
NtRp3420
(dp3421
g61
(dp3422
g69
I3
ssg70
g3416
sg63
(lp3423
S''
asbasbasbag56
(g72
g58
NtRp3424
(dp3425
g61
(dp3426
sg70
g3360
sg63
(lp3427
g56
(g77
g58
NtRp3428
(dp3429
g61
(dp3430
g81
g82
ssg70
g3424
sg63
(lp3431
g358
asbag56
(g77
g58
NtRp3432
(dp3433
g61
(dp3434
g88
g89
ssg70
g3424
sg63
(lp3435
S':'
asbag56
(g77
g58
NtRp3436
(dp3437
g61
(dp3438
sg70
g3424
sg63
(lp3439
g56
(g57
g58
NtRp3440
(dp3441
g61
(dp3442
g69
I3
ssg70
g3436
sg63
(lp3443
S''
asbasbasbag56
(g72
g58
NtRp3444
(dp3445
g61
(dp3446
sg70
g3360
sg63
(lp3447
g56
(g77
g58
NtRp3448
(dp3449
g61
(dp3450
g81
g82
ssg70
g3444
sg63
(lp3451
g379
asbag56
(g77
g58
NtRp3452
(dp3453
g61
(dp3454
g88
g89
ssg70
g3444
sg63
(lp3455
S':'
asbag56
(g77
g58
NtRp3456
(dp3457
g61
(dp3458
sg70
g3444
sg63
(lp3459
g56
(g57
g58
NtRp3460
(dp3461
g61
(dp3462
g69
I3
ssg70
g3456
sg63
(lp3463
S''
asbasbasbag56
(g72
g58
NtRp3464
(dp3465
g61
(dp3466
sg70
g3360
sg63
(lp3467
g56
(g77
g58
NtRp3468
(dp3469
g61
(dp3470
g81
g82
ssg70
g3464
sg63
(lp3471
g400
asbag56
(g77
g58
NtRp3472
(dp3473
g61
(dp3474
g88
g89
ssg70
g3464
sg63
(lp3475
S':'
asbag56
(g77
g58
NtRp3476
(dp3477
g61
(dp3478
sg70
g3464
sg63
(lp3479
g56
(g57
g58
NtRp3480
(dp3481
g61
(dp3482
g69
I3
ssg70
g3476
sg63
(lp3483
S'/'
asbasbasbag56
(g72
g58
NtRp3484
(dp3485
g61
(dp3486
sg70
g3360
sg63
(lp3487
g56
(g77
g58
NtRp3488
(dp3489
g61
(dp3490
g81
g82
ssg70
g3484
sg63
(lp3491
g421
asbag56
(g77
g58
NtRp3492
(dp3493
g61
(dp3494
g88
g89
ssg70
g3484
sg63
(lp3495
S':'
asbag56
(g77
g58
NtRp3496
(dp3497
g61
(dp3498
sg70
g3484
sg63
(lp3499
g56
(g57
g58
NtRp3500
(dp3501
g61
(dp3502
g69
I3
ssg70
g3496
sg63
(lp3503
S''
asbasbasbag56
(g72
g58
NtRp3504
(dp3505
g61
(dp3506
sg70
g3360
sg63
(lp3507
g56
(g77
g58
NtRp3508
(dp3509
g61
(dp3510
g81
g82
ssg70
g3504
sg63
(lp3511
g442
asbag56
(g77
g58
NtRp3512
(dp3513
g61
(dp3514
g88
g89
ssg70
g3504
sg63
(lp3515
S':'
asbag56
(g77
g58
NtRp3516
(dp3517
g61
(dp3518
sg70
g3504
sg63
(lp3519
g56
(g57
g58
NtRp3520
(dp3521
g61
(dp3522
g69
I3
ssg70
g3516
sg63
(lp3523
S''
asbasbasbasbasbasbasbasbasbasbasbag56
(g72
g58
NtRp3524
(dp3525
g61
(dp3526
sg70
g3290
sg63
(lp3527
g56
(g77
g58
NtRp3528
(dp3529
g61
(dp3530
g81
g82
ssg70
g3524
sg63
(lp3531
S'files'
p3532
asbag56
(g77
g58
NtRp3533
(dp3534
g61
(dp3535
g88
g89
ssg70
g3524
sg63
(lp3536
S':'
asbag56
(g77
g58
NtRp3537
(dp3538
g61
(dp3539
sg70
g3524
sg63
(lp3540
g56
(g57
g58
NtRp3541
(dp3542
g61
(dp3543
g69
I5
ssg70
g3537
sg63
(lp3544
g56
(g65
g58
NtRp3545
(dp3546
g61
(dp3547
g69
I4
ssg70
Nsg63
(lp3548
sbasbasbasbag56
(g72
g58
NtRp3549
(dp3550
g61
(dp3551
sg70
g3290
sg63
(lp3552
g56
(g77
g58
NtRp3553
(dp3554
g61
(dp3555
g81
g82
ssg70
g3549
sg63
(lp3556
S'flash'
p3557
asbag56
(g77
g58
NtRp3558
(dp3559
g61
(dp3560
g88
g89
ssg70
g3549
sg63
(lp3561
S':'
asbag56
(g77
g58
NtRp3562
(dp3563
g61
(dp3564
sg70
g3549
sg63
(lp3565
g56
(g57
g58
NtRp3566
(dp3567
g61
(dp3568
g69
I5
ssg70
g3562
sg63
(lp3569
S''
asbasbasbag56
(g72
g58
NtRp3570
(dp3571
g61
(dp3572
sg70
g3290
sg63
(lp3573
g56
(g77
g58
NtRp3574
(dp3575
g61
(dp3576
g81
g82
ssg70
g3570
sg63
(lp3577
S'generic_patterns'
p3578
asbag56
(g77
g58
NtRp3579
(dp3580
g61
(dp3581
g88
g89
ssg70
g3570
sg63
(lp3582
S':'
asbag56
(g77
g58
NtRp3583
(dp3584
g61
(dp3585
sg70
g3570
sg63
(lp3586
g56
(g57
g58
NtRp3587
(dp3588
g61
(dp3589
g69
I5
ssg70
g3583
sg63
(lp3590
g56
(g65
g58
NtRp3591
(dp3592
g61
(dp3593
g69
I4
ssg70
Nsg63
(lp3594
g56
(g72
g58
NtRp3595
(dp3596
g61
(dp3597
sg70
g3591
sg63
(lp3598
g56
(g77
g58
NtRp3599
(dp3600
g61
(dp3601
sg70
g3595
sg63
(lp3602
g56
(g57
g58
NtRp3603
(dp3604
g61
(dp3605
g69
I4
ssg70
g3599
sg63
(lp3606
S'*'
asbasbasbasbasbasbasbag56
(g72
g58
NtRp3607
(dp3608
g61
(dp3609
sg70
g3290
sg63
(lp3610
g56
(g77
g58
NtRp3611
(dp3612
g61
(dp3613
g81
g82
ssg70
g3607
sg63
(lp3614
S'headers'
p3615
asbag56
(g77
g58
NtRp3616
(dp3617
g61
(dp3618
g88
g89
ssg70
g3607
sg63
(lp3619
S':'
asbag56
(g77
g58
NtRp3620
(dp3621
g61
(dp3622
sg70
g3607
sg63
(lp3623
g56
(g57
g58
NtRp3624
(dp3625
g61
(dp3626
g69
I5
ssg70
g3620
sg63
(lp3627
g56
(g65
g58
NtRp3628
(dp3629
g61
(dp3630
g69
I4
ssg70
Nsg63
(lp3631
g56
(g72
g58
NtRp3632
(dp3633
g61
(dp3634
sg70
g3628
sg63
(lp3635
g56
(g77
g58
NtRp3636
(dp3637
g61
(dp3638
g81
g82
ssg70
g3632
sg63
(lp3639
S'Cache-Control'
p3640
asbag56
(g77
g58
NtRp3641
(dp3642
g61
(dp3643
g88
g89
ssg70
g3632
sg63
(lp3644
S':'
asbag56
(g77
g58
NtRp3645
(dp3646
g61
(dp3647
sg70
g3632
sg63
(lp3648
g56
(g57
g58
NtRp3649
(dp3650
g61
(dp3651
g69
I4
ssg70
g3645
sg63
(lp3652
S'no-store, no-cache, must-revalidate, post-check=0, pre-check=0'
p3653
asbasbasbag56
(g72
g58
NtRp3654
(dp3655
g61
(dp3656
sg70
g3628
sg63
(lp3657
g56
(g77
g58
NtRp3658
(dp3659
g61
(dp3660
g81
g82
ssg70
g3654
sg63
(lp3661
S'Content-Type'
p3662
asbag56
(g77
g58
NtRp3663
(dp3664
g61
(dp3665
g88
g89
ssg70
g3654
sg63
(lp3666
S':'
asbag56
(g77
g58
NtRp3667
(dp3668
g61
(dp3669
sg70
g3654
sg63
(lp3670
g56
(g57
g58
NtRp3671
(dp3672
g61
(dp3673
g69
I4
ssg70
g3667
sg63
(lp3674
S'text/html; charset=utf-8'
p3675
asbasbasbag56
(g72
g58
NtRp3676
(dp3677
g61
(dp3678
sg70
g3628
sg63
(lp3679
g56
(g77
g58
NtRp3680
(dp3681
g61
(dp3682
g81
g82
ssg70
g3676
sg63
(lp3683
S'Expires'
p3684
asbag56
(g77
g58
NtRp3685
(dp3686
g61
(dp3687
g88
g89
ssg70
g3676
sg63
(lp3688
S':'
asbag56
(g77
g58
NtRp3689
(dp3690
g61
(dp3691
sg70
g3676
sg63
(lp3692
g56
(g57
g58
NtRp3693
(dp3694
g61
(dp3695
g69
I4
ssg70
g3689
sg63
(lp3696
S'Fri, 25 Nov 2011 20:06:31 GMT'
p3697
asbasbasbag56
(g72
g58
NtRp3698
(dp3699
g61
(dp3700
sg70
g3628
sg63
(lp3701
g56
(g77
g58
NtRp3702
(dp3703
g61
(dp3704
g81
g82
ssg70
g3698
sg63
(lp3705
S'Pragma'
p3706
asbag56
(g77
g58
NtRp3707
(dp3708
g61
(dp3709
g88
g89
ssg70
g3698
sg63
(lp3710
S':'
asbag56
(g77
g58
NtRp3711
(dp3712
g61
(dp3713
sg70
g3698
sg63
(lp3714
g56
(g57
g58
NtRp3715
(dp3716
g61
(dp3717
g69
I4
ssg70
g3711
sg63
(lp3718
S'no-cache'
p3719
asbasbasbag56
(g72
g58
NtRp3720
(dp3721
g61
(dp3722
sg70
g3628
sg63
(lp3723
g56
(g77
g58
NtRp3724
(dp3725
g61
(dp3726
g81
g82
ssg70
g3720
sg63
(lp3727
S'X-Powered-By'
p3728
asbag56
(g77
g58
NtRp3729
(dp3730
g61
(dp3731
g88
g89
ssg70
g3720
sg63
(lp3732
S':'
asbag56
(g77
g58
NtRp3733
(dp3734
g61
(dp3735
sg70
g3720
sg63
(lp3736
g56
(g57
g58
NtRp3737
(dp3738
g61
(dp3739
g69
I4
ssg70
g3733
sg63
(lp3740
S'web2py'
p3741
asbasbasbasbasbasbasbag56
(g72
g58
NtRp3742
(dp3743
g61
(dp3744
sg70
g3290
sg63
(lp3745
g56
(g77
g58
NtRp3746
(dp3747
g61
(dp3748
g81
g82
ssg70
g3742
sg63
(lp3749
S'menu'
p3750
asbag56
(g77
g58
NtRp3751
(dp3752
g61
(dp3753
g88
g89
ssg70
g3742
sg63
(lp3754
S':'
asbag56
(g77
g58
NtRp3755
(dp3756
g61
(dp3757
sg70
g3742
sg63
(lp3758
g56
(g57
g58
NtRp3759
(dp3760
g61
(dp3761
g69
I5
ssg70
g3755
sg63
(lp3762
g56
(g65
g58
NtRp3763
(dp3764
g61
(dp3765
g69
I4
ssg70
Nsg63
(lp3766
g56
(g72
g58
NtRp3767
(dp3768
g61
(dp3769
sg70
g3763
sg63
(lp3770
g56
(g77
g58
NtRp3771
(dp3772
g61
(dp3773
sg70
g3767
sg63
(lp3774
g56
(g57
g58
NtRp3775
(dp3776
g61
(dp3777
g69
I4
ssg70
g3771
sg63
(lp3778
g56
(g65
g58
NtRp3779
(dp3780
g61
(dp3781
g69
I3
ssg70
Nsg63
(lp3782
g56
(g72
g58
NtRp3783
(dp3784
g61
(dp3785
sg70
g3779
sg63
(lp3786
g56
(g77
g58
NtRp3787
(dp3788
g61
(dp3789
sg70
g3783
sg63
(lp3790
g56
(g57
g58
NtRp3791
(dp3792
g61
(dp3793
g69
I3
ssg70
g3787
sg63
(lp3794
cgluon.languages
lazyT_unpickle
p3795
(S't\x04\x00\x00\x00Home'
tRp3796
asbasbasbag56
(g72
g58
NtRp3797
(dp3798
g61
(dp3799
sg70
g3779
sg63
(lp3800
g56
(g77
g58
NtRp3801
(dp3802
g61
(dp3803
sg70
g3797
sg63
(lp3804
g56
(g57
g58
NtRp3805
(dp3806
g61
(dp3807
g69
I3
ssg70
g3801
sg63
(lp3808
g99
asbasbasbag56
(g72
g58
NtRp3809
(dp3810
g61
(dp3811
sg70
g3779
sg63
(lp3812
g56
(g77
g58
NtRp3813
(dp3814
g61
(dp3815
sg70
g3809
sg63
(lp3816
g56
(g57
g58
NtRp3817
(dp3818
g61
(dp3819
g69
I3
ssg70
g3813
sg63
(lp3820
S'/topoi/default/index'
p3821
asbasbasbag56
(g72
g58
NtRp3822
(dp3823
g61
(dp3824
sg70
g3779
sg63
(lp3825
g56
(g77
g58
NtRp3826
(dp3827
g61
(dp3828
sg70
g3822
sg63
(lp3829
g56
(g57
g58
NtRp3830
(dp3831
g61
(dp3832
g69
I3
ssg70
g3826
sg63
(lp3833
g56
(g65
g58
NtRp3834
(dp3835
g61
(dp3836
g69
I2
ssg70
Nsg63
(lp3837
sbasbasbasbasbasbasbasbag56
(g72
g58
NtRp3838
(dp3839
g61
(dp3840
sg70
g3763
sg63
(lp3841
g56
(g77
g58
NtRp3842
(dp3843
g61
(dp3844
sg70
g3838
sg63
(lp3845
g56
(g57
g58
NtRp3846
(dp3847
g61
(dp3848
g69
I4
ssg70
g3842
sg63
(lp3849
g56
(g65
g58
NtRp3850
(dp3851
g61
(dp3852
g69
I3
ssg70
Nsg63
(lp3853
g56
(g72
g58
NtRp3854
(dp3855
g61
(dp3856
sg70
g3850
sg63
(lp3857
g56
(g77
g58
NtRp3858
(dp3859
g61
(dp3860
sg70
g3854
sg63
(lp3861
g56
(g57
g58
NtRp3862
(dp3863
g61
(dp3864
g69
I3
ssg70
g3858
sg63
(lp3865
g3795
(S's\x08\x00\x00\x00This App'
tRp3866
asbasbasbag56
(g72
g58
NtRp3867
(dp3868
g61
(dp3869
sg70
g3850
sg63
(lp3870
g56
(g77
g58
NtRp3871
(dp3872
g61
(dp3873
sg70
g3867
sg63
(lp3874
g56
(g57
g58
NtRp3875
(dp3876
g61
(dp3877
g69
I3
ssg70
g3871
sg63
(lp3878
g99
asbasbasbag56
(g72
g58
NtRp3879
(dp3880
g61
(dp3881
sg70
g3850
sg63
(lp3882
g56
(g77
g58
NtRp3883
(dp3884
g61
(dp3885
sg70
g3879
sg63
(lp3886
g56
(g57
g58
NtRp3887
(dp3888
g61
(dp3889
g69
I3
ssg70
g3883
sg63
(lp3890
S'/admin/default/design/topoi'
p3891
asbasbasbag56
(g72
g58
NtRp3892
(dp3893
g61
(dp3894
sg70
g3850
sg63
(lp3895
g56
(g77
g58
NtRp3896
(dp3897
g61
(dp3898
sg70
g3892
sg63
(lp3899
g56
(g57
g58
NtRp3900
(dp3901
g61
(dp3902
g69
I3
ssg70
g3896
sg63
(lp3903
g56
(g65
g58
NtRp3904
(dp3905
g61
(dp3906
g69
I2
ssg70
Nsg63
(lp3907
g56
(g72
g58
NtRp3908
(dp3909
g61
(dp3910
sg70
g3904
sg63
(lp3911
g56
(g77
g58
NtRp3912
(dp3913
g61
(dp3914
sg70
g3908
sg63
(lp3915
g56
(g57
g58
NtRp3916
(dp3917
g61
(dp3918
g69
I2
ssg70
g3912
sg63
(lp3919
g56
(g65
g58
NtRp3920
(dp3921
g61
(dp3922
g69
I1
ssg70
Nsg63
(lp3923
g56
(g72
g58
NtRp3924
(dp3925
g61
(dp3926
sg70
g3920
sg63
(lp3927
g56
(g77
g58
NtRp3928
(dp3929
g61
(dp3930
sg70
g3924
sg63
(lp3931
g56
(g57
g58
NtRp3932
(dp3933
g61
(dp3934
g69
I1
ssg70
g3928
sg63
(lp3935
g3795
(S't\n\x00\x00\x00Controller'
tRp3936
asbasbasbag56
(g72
g58
NtRp3937
(dp3938
g61
(dp3939
sg70
g3920
sg63
(lp3940
g56
(g77
g58
NtRp3941
(dp3942
g61
(dp3943
sg70
g3937
sg63
(lp3944
g56
(g57
g58
NtRp3945
(dp3946
g61
(dp3947
g69
I1
ssg70
g3941
sg63
(lp3948
I00
asbasbasbag56
(g72
g58
NtRp3949
(dp3950
g61
(dp3951
sg70
g3920
sg63
(lp3952
g56
(g77
g58
NtRp3953
(dp3954
g61
(dp3955
sg70
g3949
sg63
(lp3956
g56
(g57
g58
NtRp3957
(dp3958
g61
(dp3959
g69
I1
ssg70
g3953
sg63
(lp3960
S'/admin/default/edit/topoi/controllers/plugin_listandedit.py'
p3961
asbasbasbasbasbasbasbag56
(g72
g58
NtRp3962
(dp3963
g61
(dp3964
sg70
g3904
sg63
(lp3965
g56
(g77
g58
NtRp3966
(dp3967
g61
(dp3968
sg70
g3962
sg63
(lp3969
g56
(g57
g58
NtRp3970
(dp3971
g61
(dp3972
g69
I2
ssg70
g3966
sg63
(lp3973
g56
(g65
g58
NtRp3974
(dp3975
g61
(dp3976
g69
I1
ssg70
Nsg63
(lp3977
g56
(g72
g58
NtRp3978
(dp3979
g61
(dp3980
sg70
g3974
sg63
(lp3981
g56
(g77
g58
NtRp3982
(dp3983
g61
(dp3984
sg70
g3978
sg63
(lp3985
g56
(g57
g58
NtRp3986
(dp3987
g61
(dp3988
g69
I1
ssg70
g3982
sg63
(lp3989
g3795
(S't\x04\x00\x00\x00View'
tRp3990
asbasbasbag56
(g72
g58
NtRp3991
(dp3992
g61
(dp3993
sg70
g3974
sg63
(lp3994
g56
(g77
g58
NtRp3995
(dp3996
g61
(dp3997
sg70
g3991
sg63
(lp3998
g56
(g57
g58
NtRp3999
(dp4000
g61
(dp4001
g69
I1
ssg70
g3995
sg63
(lp4002
I00
asbasbasbag56
(g72
g58
NtRp4003
(dp4004
g61
(dp4005
sg70
g3974
sg63
(lp4006
g56
(g77
g58
NtRp4007
(dp4008
g61
(dp4009
sg70
g4003
sg63
(lp4010
g56
(g57
g58
NtRp4011
(dp4012
g61
(dp4013
g69
I1
ssg70
g4007
sg63
(lp4014
S'/admin/default/edit/topoi/views/plugin_listandedit/list.html'
p4015
asbasbasbasbasbasbasbag56
(g72
g58
NtRp4016
(dp4017
g61
(dp4018
sg70
g3904
sg63
(lp4019
g56
(g77
g58
NtRp4020
(dp4021
g61
(dp4022
sg70
g4016
sg63
(lp4023
g56
(g57
g58
NtRp4024
(dp4025
g61
(dp4026
g69
I2
ssg70
g4020
sg63
(lp4027
g56
(g65
g58
NtRp4028
(dp4029
g61
(dp4030
g69
I1
ssg70
Nsg63
(lp4031
g56
(g72
g58
NtRp4032
(dp4033
g61
(dp4034
sg70
g4028
sg63
(lp4035
g56
(g77
g58
NtRp4036
(dp4037
g61
(dp4038
sg70
g4032
sg63
(lp4039
g56
(g57
g58
NtRp4040
(dp4041
g61
(dp4042
g69
I1
ssg70
g4036
sg63
(lp4043
g3795
(S't\x06\x00\x00\x00Layout'
tRp4044
asbasbasbag56
(g72
g58
NtRp4045
(dp4046
g61
(dp4047
sg70
g4028
sg63
(lp4048
g56
(g77
g58
NtRp4049
(dp4050
g61
(dp4051
sg70
g4045
sg63
(lp4052
g56
(g57
g58
NtRp4053
(dp4054
g61
(dp4055
g69
I1
ssg70
g4049
sg63
(lp4056
I00
asbasbasbag56
(g72
g58
NtRp4057
(dp4058
g61
(dp4059
sg70
g4028
sg63
(lp4060
g56
(g77
g58
NtRp4061
(dp4062
g61
(dp4063
sg70
g4057
sg63
(lp4064
g56
(g57
g58
NtRp4065
(dp4066
g61
(dp4067
g69
I1
ssg70
g4061
sg63
(lp4068
S'/admin/default/edit/topoi/views/layout.html'
p4069
asbasbasbasbasbasbasbag56
(g72
g58
NtRp4070
(dp4071
g61
(dp4072
sg70
g3904
sg63
(lp4073
g56
(g77
g58
NtRp4074
(dp4075
g61
(dp4076
sg70
g4070
sg63
(lp4077
g56
(g57
g58
NtRp4078
(dp4079
g61
(dp4080
g69
I2
ssg70
g4074
sg63
(lp4081
g56
(g65
g58
NtRp4082
(dp4083
g61
(dp4084
g69
I1
ssg70
Nsg63
(lp4085
g56
(g72
g58
NtRp4086
(dp4087
g61
(dp4088
sg70
g4082
sg63
(lp4089
g56
(g77
g58
NtRp4090
(dp4091
g61
(dp4092
sg70
g4086
sg63
(lp4093
g56
(g57
g58
NtRp4094
(dp4095
g61
(dp4096
g69
I1
ssg70
g4090
sg63
(lp4097
g3795
(S't\n\x00\x00\x00Stylesheet'
tRp4098
asbasbasbag56
(g72
g58
NtRp4099
(dp4100
g61
(dp4101
sg70
g4082
sg63
(lp4102
g56
(g77
g58
NtRp4103
(dp4104
g61
(dp4105
sg70
g4099
sg63
(lp4106
g56
(g57
g58
NtRp4107
(dp4108
g61
(dp4109
g69
I1
ssg70
g4103
sg63
(lp4110
I00
asbasbasbag56
(g72
g58
NtRp4111
(dp4112
g61
(dp4113
sg70
g4082
sg63
(lp4114
g56
(g77
g58
NtRp4115
(dp4116
g61
(dp4117
sg70
g4111
sg63
(lp4118
g56
(g57
g58
NtRp4119
(dp4120
g61
(dp4121
g69
I1
ssg70
g4115
sg63
(lp4122
S'/admin/default/edit/topoi/static/base.css'
p4123
asbasbasbasbasbasbasbag56
(g72
g58
NtRp4124
(dp4125
g61
(dp4126
sg70
g3904
sg63
(lp4127
g56
(g77
g58
NtRp4128
(dp4129
g61
(dp4130
sg70
g4124
sg63
(lp4131
g56
(g57
g58
NtRp4132
(dp4133
g61
(dp4134
g69
I2
ssg70
g4128
sg63
(lp4135
g56
(g65
g58
NtRp4136
(dp4137
g61
(dp4138
g69
I1
ssg70
Nsg63
(lp4139
g56
(g72
g58
NtRp4140
(dp4141
g61
(dp4142
sg70
g4136
sg63
(lp4143
g56
(g77
g58
NtRp4144
(dp4145
g61
(dp4146
sg70
g4140
sg63
(lp4147
g56
(g57
g58
NtRp4148
(dp4149
g61
(dp4150
g69
I1
ssg70
g4144
sg63
(lp4151
g3795
(S's\x08\x00\x00\x00DB Model'
tRp4152
asbasbasbag56
(g72
g58
NtRp4153
(dp4154
g61
(dp4155
sg70
g4136
sg63
(lp4156
g56
(g77
g58
NtRp4157
(dp4158
g61
(dp4159
sg70
g4153
sg63
(lp4160
g56
(g57
g58
NtRp4161
(dp4162
g61
(dp4163
g69
I1
ssg70
g4157
sg63
(lp4164
I00
asbasbasbag56
(g72
g58
NtRp4165
(dp4166
g61
(dp4167
sg70
g4136
sg63
(lp4168
g56
(g77
g58
NtRp4169
(dp4170
g61
(dp4171
sg70
g4165
sg63
(lp4172
g56
(g57
g58
NtRp4173
(dp4174
g61
(dp4175
g69
I1
ssg70
g4169
sg63
(lp4176
S'/admin/default/edit/topoi/models/db.py'
p4177
asbasbasbasbasbasbasbag56
(g72
g58
NtRp4178
(dp4179
g61
(dp4180
sg70
g3904
sg63
(lp4181
g56
(g77
g58
NtRp4182
(dp4183
g61
(dp4184
sg70
g4178
sg63
(lp4185
g56
(g57
g58
NtRp4186
(dp4187
g61
(dp4188
g69
I2
ssg70
g4182
sg63
(lp4189
g56
(g65
g58
NtRp4190
(dp4191
g61
(dp4192
g69
I1
ssg70
Nsg63
(lp4193
g56
(g72
g58
NtRp4194
(dp4195
g61
(dp4196
sg70
g4190
sg63
(lp4197
g56
(g77
g58
NtRp4198
(dp4199
g61
(dp4200
sg70
g4194
sg63
(lp4201
g56
(g57
g58
NtRp4202
(dp4203
g61
(dp4204
g69
I1
ssg70
g4198
sg63
(lp4205
g3795
(S's\n\x00\x00\x00Menu Model'
tRp4206
asbasbasbag56
(g72
g58
NtRp4207
(dp4208
g61
(dp4209
sg70
g4190
sg63
(lp4210
g56
(g77
g58
NtRp4211
(dp4212
g61
(dp4213
sg70
g4207
sg63
(lp4214
g56
(g57
g58
NtRp4215
(dp4216
g61
(dp4217
g69
I1
ssg70
g4211
sg63
(lp4218
I00
asbasbasbag56
(g72
g58
NtRp4219
(dp4220
g61
(dp4221
sg70
g4190
sg63
(lp4222
g56
(g77
g58
NtRp4223
(dp4224
g61
(dp4225
sg70
g4219
sg63
(lp4226
g56
(g57
g58
NtRp4227
(dp4228
g61
(dp4229
g69
I1
ssg70
g4223
sg63
(lp4230
S'/admin/default/edit/topoi/models/menu.py'
p4231
asbasbasbasbasbasbasbag56
(g72
g58
NtRp4232
(dp4233
g61
(dp4234
sg70
g3904
sg63
(lp4235
g56
(g77
g58
NtRp4236
(dp4237
g61
(dp4238
sg70
g4232
sg63
(lp4239
g56
(g57
g58
NtRp4240
(dp4241
g61
(dp4242
g69
I2
ssg70
g4236
sg63
(lp4243
g56
(g65
g58
NtRp4244
(dp4245
g61
(dp4246
g69
I1
ssg70
Nsg63
(lp4247
g56
(g72
g58
NtRp4248
(dp4249
g61
(dp4250
sg70
g4244
sg63
(lp4251
g56
(g77
g58
NtRp4252
(dp4253
g61
(dp4254
sg70
g4248
sg63
(lp4255
g56
(g57
g58
NtRp4256
(dp4257
g61
(dp4258
g69
I1
ssg70
g4252
sg63
(lp4259
g3795
(S't\x08\x00\x00\x00Database'
tRp4260
asbasbasbag56
(g72
g58
NtRp4261
(dp4262
g61
(dp4263
sg70
g4244
sg63
(lp4264
g56
(g77
g58
NtRp4265
(dp4266
g61
(dp4267
sg70
g4261
sg63
(lp4268
g56
(g57
g58
NtRp4269
(dp4270
g61
(dp4271
g69
I1
ssg70
g4265
sg63
(lp4272
I00
asbasbasbag56
(g72
g58
NtRp4273
(dp4274
g61
(dp4275
sg70
g4244
sg63
(lp4276
g56
(g77
g58
NtRp4277
(dp4278
g61
(dp4279
sg70
g4273
sg63
(lp4280
g56
(g57
g58
NtRp4281
(dp4282
g61
(dp4283
g69
I1
ssg70
g4277
sg63
(lp4284
S'/topoi/appadmin/index'
p4285
asbasbasbasbasbasbasbag56
(g72
g58
NtRp4286
(dp4287
g61
(dp4288
sg70
g3904
sg63
(lp4289
g56
(g77
g58
NtRp4290
(dp4291
g61
(dp4292
sg70
g4286
sg63
(lp4293
g56
(g57
g58
NtRp4294
(dp4295
g61
(dp4296
g69
I2
ssg70
g4290
sg63
(lp4297
g56
(g65
g58
NtRp4298
(dp4299
g61
(dp4300
g69
I1
ssg70
Nsg63
(lp4301
g56
(g72
g58
NtRp4302
(dp4303
g61
(dp4304
sg70
g4298
sg63
(lp4305
g56
(g77
g58
NtRp4306
(dp4307
g61
(dp4308
sg70
g4302
sg63
(lp4309
g56
(g57
g58
NtRp4310
(dp4311
g61
(dp4312
g69
I1
ssg70
g4306
sg63
(lp4313
g3795
(S't\x06\x00\x00\x00Errors'
tRp4314
asbasbasbag56
(g72
g58
NtRp4315
(dp4316
g61
(dp4317
sg70
g4298
sg63
(lp4318
g56
(g77
g58
NtRp4319
(dp4320
g61
(dp4321
sg70
g4315
sg63
(lp4322
g56
(g57
g58
NtRp4323
(dp4324
g61
(dp4325
g69
I1
ssg70
g4319
sg63
(lp4326
I00
asbasbasbag56
(g72
g58
NtRp4327
(dp4328
g61
(dp4329
sg70
g4298
sg63
(lp4330
g56
(g77
g58
NtRp4331
(dp4332
g61
(dp4333
sg70
g4327
sg63
(lp4334
g56
(g57
g58
NtRp4335
(dp4336
g61
(dp4337
g69
I1
ssg70
g4331
sg63
(lp4338
S'/admin/default/errors/topoi'
p4339
asbasbasbasbasbasbasbag56
(g72
g58
NtRp4340
(dp4341
g61
(dp4342
sg70
g3904
sg63
(lp4343
g56
(g77
g58
NtRp4344
(dp4345
g61
(dp4346
sg70
g4340
sg63
(lp4347
g56
(g57
g58
NtRp4348
(dp4349
g61
(dp4350
g69
I2
ssg70
g4344
sg63
(lp4351
g56
(g65
g58
NtRp4352
(dp4353
g61
(dp4354
g69
I1
ssg70
Nsg63
(lp4355
g56
(g72
g58
NtRp4356
(dp4357
g61
(dp4358
sg70
g4352
sg63
(lp4359
g56
(g77
g58
NtRp4360
(dp4361
g61
(dp4362
sg70
g4356
sg63
(lp4363
g56
(g57
g58
NtRp4364
(dp4365
g61
(dp4366
g69
I1
ssg70
g4360
sg63
(lp4367
g3795
(S't\x05\x00\x00\x00About'
tRp4368
asbasbasbag56
(g72
g58
NtRp4369
(dp4370
g61
(dp4371
sg70
g4352
sg63
(lp4372
g56
(g77
g58
NtRp4373
(dp4374
g61
(dp4375
sg70
g4369
sg63
(lp4376
g56
(g57
g58
NtRp4377
(dp4378
g61
(dp4379
g69
I1
ssg70
g4373
sg63
(lp4380
I00
asbasbasbag56
(g72
g58
NtRp4381
(dp4382
g61
(dp4383
sg70
g4352
sg63
(lp4384
g56
(g77
g58
NtRp4385
(dp4386
g61
(dp4387
sg70
g4381
sg63
(lp4388
g56
(g57
g58
NtRp4389
(dp4390
g61
(dp4391
g69
I1
ssg70
g4385
sg63
(lp4392
S'/admin/default/about/topoi'
p4393
asbasbasbasbasbasbasbasbasbasbasbasbasbasbasbasbasbasbasbag56
(g72
g58
NtRp4394
(dp4395
g61
(dp4396
sg70
g3290
sg63
(lp4397
g56
(g77
g58
NtRp4398
(dp4399
g61
(dp4400
g81
g82
ssg70
g4394
sg63
(lp4401
S'meta'
p4402
asbag56
(g77
g58
NtRp4403
(dp4404
g61
(dp4405
g88
g89
ssg70
g4394
sg63
(lp4406
S':'
asbag56
(g77
g58
NtRp4407
(dp4408
g61
(dp4409
sg70
g4394
sg63
(lp4410
g56
(g57
g58
NtRp4411
(dp4412
g61
(dp4413
g69
I5
ssg70
g4407
sg63
(lp4414
g56
(g65
g58
NtRp4415
(dp4416
g61
(dp4417
g69
I4
ssg70
Nsg63
(lp4418
g56
(g72
g58
NtRp4419
(dp4420
g61
(dp4421
sg70
g4415
sg63
(lp4422
g56
(g77
g58
NtRp4423
(dp4424
g61
(dp4425
g81
g82
ssg70
g4419
sg63
(lp4426
S'author'
p4427
asbag56
(g77
g58
NtRp4428
(dp4429
g61
(dp4430
g88
g89
ssg70
g4419
sg63
(lp4431
S':'
asbag56
(g77
g58
NtRp4432
(dp4433
g61
(dp4434
sg70
g4419
sg63
(lp4435
g56
(g57
g58
NtRp4436
(dp4437
g61
(dp4438
g69
I4
ssg70
g4432
sg63
(lp4439
S'Ian W. Scott'
p4440
asbasbasbag56
(g72
g58
NtRp4441
(dp4442
g61
(dp4443
sg70
g4415
sg63
(lp4444
g56
(g77
g58
NtRp4445
(dp4446
g61
(dp4447
g81
g82
ssg70
g4441
sg63
(lp4448
S'copyright'
p4449
asbag56
(g77
g58
NtRp4450
(dp4451
g61
(dp4452
g88
g89
ssg70
g4441
sg63
(lp4453
S':'
asbag56
(g77
g58
NtRp4454
(dp4455
g61
(dp4456
sg70
g4441
sg63
(lp4457
g56
(g57
g58
NtRp4458
(dp4459
g61
(dp4460
g69
I4
ssg70
g4454
sg63
(lp4461
S'Copyright 2011'
p4462
asbasbasbag56
(g72
g58
NtRp4463
(dp4464
g61
(dp4465
sg70
g4415
sg63
(lp4466
g56
(g77
g58
NtRp4467
(dp4468
g61
(dp4469
g81
g82
ssg70
g4463
sg63
(lp4470
S'description'
p4471
asbag56
(g77
g58
NtRp4472
(dp4473
g61
(dp4474
g88
g89
ssg70
g4463
sg63
(lp4475
S':'
asbag56
(g77
g58
NtRp4476
(dp4477
g61
(dp4478
sg70
g4463
sg63
(lp4479
g56
(g57
g58
NtRp4480
(dp4481
g61
(dp4482
g69
I4
ssg70
g4476
sg63
(lp4483
S'A web-app for managing primary-text research in the humanities.'
p4484
asbasbasbag56
(g72
g58
NtRp4485
(dp4486
g61
(dp4487
sg70
g4415
sg63
(lp4488
g56
(g77
g58
NtRp4489
(dp4490
g61
(dp4491
g81
g82
ssg70
g4485
sg63
(lp4492
S'generator'
p4493
asbag56
(g77
g58
NtRp4494
(dp4495
g61
(dp4496
g88
g89
ssg70
g4485
sg63
(lp4497
S':'
asbag56
(g77
g58
NtRp4498
(dp4499
g61
(dp4500
sg70
g4485
sg63
(lp4501
g56
(g57
g58
NtRp4502
(dp4503
g61
(dp4504
g69
I4
ssg70
g4498
sg63
(lp4505
S'Web2py Enterprise Framework'
p4506
asbasbasbag56
(g72
g58
NtRp4507
(dp4508
g61
(dp4509
sg70
g4415
sg63
(lp4510
g56
(g77
g58
NtRp4511
(dp4512
g61
(dp4513
g81
g82
ssg70
g4507
sg63
(lp4514
S'keywords'
p4515
asbag56
(g77
g58
NtRp4516
(dp4517
g61
(dp4518
g88
g89
ssg70
g4507
sg63
(lp4519
S':'
asbag56
(g77
g58
NtRp4520
(dp4521
g61
(dp4522
sg70
g4507
sg63
(lp4523
g56
(g57
g58
NtRp4524
(dp4525
g61
(dp4526
g69
I4
ssg70
g4520
sg63
(lp4527
S'research, humanities, biblical'
p4528
asbasbasbasbasbasbasbag56
(g72
g58
NtRp4529
(dp4530
g61
(dp4531
sg70
g3290
sg63
(lp4532
g56
(g77
g58
NtRp4533
(dp4534
g61
(dp4535
g81
g82
ssg70
g4529
sg63
(lp4536
S'postprocessing'
p4537
asbag56
(g77
g58
NtRp4538
(dp4539
g61
(dp4540
g88
g89
ssg70
g4529
sg63
(lp4541
S':'
asbag56
(g77
g58
NtRp4542
(dp4543
g61
(dp4544
sg70
g4529
sg63
(lp4545
g56
(g57
g58
NtRp4546
(dp4547
g61
(dp4548
g69
I5
ssg70
g4542
sg63
(lp4549
g56
(g65
g58
NtRp4550
(dp4551
g61
(dp4552
g69
I4
ssg70
Nsg63
(lp4553
sbasbasbasbag56
(g72
g58
NtRp4554
(dp4555
g61
(dp4556
sg70
g3290
sg63
(lp4557
g56
(g77
g58
NtRp4558
(dp4559
g61
(dp4560
g81
g82
ssg70
g4554
sg63
(lp4561
S'session_filename'
p4562
asbag56
(g77
g58
NtRp4563
(dp4564
g61
(dp4565
g88
g89
ssg70
g4554
sg63
(lp4566
S':'
asbag56
(g77
g58
NtRp4567
(dp4568
g61
(dp4569
sg70
g4554
sg63
(lp4570
g56
(g57
g58
NtRp4571
(dp4572
g61
(dp4573
g69
I5
ssg70
g4567
sg63
(lp4574
S'/home/ian/web2py/applications/topoi/sessions/127.0.0.1-9b185ab2-ae58-4df0-8994-f251854db0d1'
p4575
asbasbasbag56
(g72
g58
NtRp4576
(dp4577
g61
(dp4578
sg70
g3290
sg63
(lp4579
g56
(g77
g58
NtRp4580
(dp4581
g61
(dp4582
g81
g82
ssg70
g4576
sg63
(lp4583
S'session_id'
p4584
asbag56
(g77
g58
NtRp4585
(dp4586
g61
(dp4587
g88
g89
ssg70
g4576
sg63
(lp4588
S':'
asbag56
(g77
g58
NtRp4589
(dp4590
g61
(dp4591
sg70
g4576
sg63
(lp4592
g56
(g57
g58
NtRp4593
(dp4594
g61
(dp4595
g69
I5
ssg70
g4589
sg63
(lp4596
S'127.0.0.1-9b185ab2-ae58-4df0-8994-f251854db0d1'
p4597
asbasbasbag56
(g72
g58
NtRp4598
(dp4599
g61
(dp4600
sg70
g3290
sg63
(lp4601
g56
(g77
g58
NtRp4602
(dp4603
g61
(dp4604
g81
g82
ssg70
g4598
sg63
(lp4605
S'session_id_name'
p4606
asbag56
(g77
g58
NtRp4607
(dp4608
g61
(dp4609
g88
g89
ssg70
g4598
sg63
(lp4610
S':'
asbag56
(g77
g58
NtRp4611
(dp4612
g61
(dp4613
sg70
g4598
sg63
(lp4614
g56
(g57
g58
NtRp4615
(dp4616
g61
(dp4617
g69
I5
ssg70
g4611
sg63
(lp4618
g3347
asbasbasbag56
(g72
g58
NtRp4619
(dp4620
g61
(dp4621
sg70
g3290
sg63
(lp4622
g56
(g77
g58
NtRp4623
(dp4624
g61
(dp4625
g81
g82
ssg70
g4619
sg63
(lp4626
S'session_new'
p4627
asbag56
(g77
g58
NtRp4628
(dp4629
g61
(dp4630
g88
g89
ssg70
g4619
sg63
(lp4631
S':'
asbag56
(g77
g58
NtRp4632
(dp4633
g61
(dp4634
sg70
g4619
sg63
(lp4635
g56
(g57
g58
NtRp4636
(dp4637
g61
(dp4638
g69
I5
ssg70
g4632
sg63
(lp4639
g1866
asbasbasbag56
(g72
g58
NtRp4640
(dp4641
g61
(dp4642
sg70
g3290
sg63
(lp4643
g56
(g77
g58
NtRp4644
(dp4645
g61
(dp4646
g81
g82
ssg70
g4640
sg63
(lp4647
S'status'
p4648
asbag56
(g77
g58
NtRp4649
(dp4650
g61
(dp4651
g88
g89
ssg70
g4640
sg63
(lp4652
S':'
asbag56
(g77
g58
NtRp4653
(dp4654
g61
(dp4655
sg70
g4640
sg63
(lp4656
g56
(g57
g58
NtRp4657
(dp4658
g61
(dp4659
g69
I5
ssg70
g4653
sg63
(lp4660
S'200'
p4661
asbasbasbag56
(g72
g58
NtRp4662
(dp4663
g61
(dp4664
sg70
g3290
sg63
(lp4665
g56
(g77
g58
NtRp4666
(dp4667
g61
(dp4668
g81
g82
ssg70
g4662
sg63
(lp4669
S'subtitle'
p4670
asbag56
(g77
g58
NtRp4671
(dp4672
g61
(dp4673
g88
g89
ssg70
g4662
sg63
(lp4674
S':'
asbag56
(g77
g58
NtRp4675
(dp4676
g61
(dp4677
sg70
g4662
sg63
(lp4678
g56
(g57
g58
NtRp4679
(dp4680
g61
(dp4681
g69
I5
ssg70
g4675
sg63
(lp4682
g3795
(S's;\x00\x00\x00A tool for managing primary-text research in the humanities'
tRp4683
asbasbasbag56
(g72
g58
NtRp4684
(dp4685
g61
(dp4686
sg70
g3290
sg63
(lp4687
g56
(g77
g58
NtRp4688
(dp4689
g61
(dp4690
g81
g82
ssg70
g4684
sg63
(lp4691
S'title'
p4692
asbag56
(g77
g58
NtRp4693
(dp4694
g61
(dp4695
g88
g89
ssg70
g4684
sg63
(lp4696
S':'
asbag56
(g77
g58
NtRp4697
(dp4698
g61
(dp4699
sg70
g4684
sg63
(lp4700
g56
(g57
g58
NtRp4701
(dp4702
g61
(dp4703
g69
I5
ssg70
g4697
sg63
(lp4704
g121
asbasbasbag56
(g72
g58
NtRp4705
(dp4706
g61
(dp4707
sg70
g3290
sg63
(lp4708
g56
(g77
g58
NtRp4709
(dp4710
g61
(dp4711
g81
g82
ssg70
g4705
sg63
(lp4712
g2532
asbag56
(g77
g58
NtRp4713
(dp4714
g61
(dp4715
g88
g89
ssg70
g4705
sg63
(lp4716
S':'
asbag56
(g77
g58
NtRp4717
(dp4718
g61
(dp4719
sg70
g4705
sg63
(lp4720
g56
(g57
g58
NtRp4721
(dp4722
g61
(dp4723
g69
I5
ssg70
g4717
sg63
(lp4724
g2545
asbasbasbag56
(g72
g58
NtRp4725
(dp4726
g61
(dp4727
sg70
g3290
sg63
(lp4728
g56
(g77
g58
NtRp4729
(dp4730
g61
(dp4731
g81
g82
ssg70
g4725
sg63
(lp4732
S'view'
p4733
asbag56
(g77
g58
NtRp4734
(dp4735
g61
(dp4736
g88
g89
ssg70
g4725
sg63
(lp4737
S':'
asbag56
(g77
g58
NtRp4738
(dp4739
g61
(dp4740
sg70
g4725
sg63
(lp4741
g56
(g57
g58
NtRp4742
(dp4743
g61
(dp4744
g69
I5
ssg70
g4738
sg63
(lp4745
S'plugin_listandedit/list.html'
p4746
asbasbasbasbasbsS'locals'
p4747
(dp4748
S'fromlist'
p4749
S"('SELECT_OR_ADD_OPTION',)"
p4750
sS'e'
S"ImportError('No module named plugin_selectoradd',)"
p4751
sS'name'
p4752
S"'plugin_selectoradd'"
p4753
sg69
S'-1'
p4754
sS'self'
p4755
S'<gluon.custom_import._Web2pyDateTrackerImporter object>'
p4756
sS'globals'
p4757
S"{'A': <class 'gluon.html.A'>, 'Auth': <class 'gluon.tools.Auth'>, 'B': <class 'gluon.html.B'>, 'BEAUTIFY': <class 'gluon.html.BEAUTIFY'>, 'BODY': <class 'gluon.html.BODY'>, 'BR': <class 'gluon.html.BR'>, 'BUTTON': <class 'gluon.html.BUTTON'>, 'CAT': <class 'gluon.html.CAT'>, 'CENTER': <class 'gluon.html.CENTER'>, 'CLEANUP': <class 'gluon.validators.CLEANUP'>, ...}"
p4758
sS'call_begin_end'
p4759
g99
sg4747
S"{'A': <class 'gluon.html.A'>, 'Auth': <class 'gluon.tools.Auth'>, 'B': <class 'gluon.html.B'>, 'BEAUTIFY': <class 'gluon.html.BEAUTIFY'>, 'BODY': <class 'gluon.html.BODY'>, 'BR': <class 'gluon.html.BR'>, 'BUTTON': <class 'gluon.html.BUTTON'>, 'CAT': <class 'gluon.html.CAT'>, 'CENTER': <class 'gluon.html.CENTER'>, 'CLEANUP': <class 'gluon.validators.CLEANUP'>, ...}"
p4760
sssS'traceback'
p4761
S'Traceback (most recent call last):\n  File "/home/ian/web2py/gluon/restricted.py", line 194, in restricted\n    exec ccode in environment\n  File "/home/ian/web2py/applications/topoi/models/topoi.py", line 2, in <module>\n    from plugin_selectoradd import SELECT_OR_ADD_OPTION\n  File "/home/ian/web2py/gluon/custom_import.py", line 294, in __call__\n    fromlist, level)\n  File "/home/ian/web2py/gluon/custom_import.py", line 133, in __call__\n    raise e  # Don\'t hide something that went wrong\nImportError: No module named plugin_selectoradd\n'
p4762
s.