(dp1
S'output'
p2
S"<type 'exceptions.SyntaxError'> invalid syntax (plugin_ajaxselect.py, line 26)"
p3
sS'layer'
p4
S'/home/ian/web2py/applications/topoi/controllers/plugin_ajaxselect.py'
p5
sS'code'
p6
S'if 0:\n    from gluon import current\n    request = current.request\n\nfrom gluon.sqlhtml import OptionsWidget\n\ndef set_widget():\n    """\n    creates a replacement instance of the OptionsWidget class defined in gluon.sqlhtml and returns the result to re-populate the ajax LOAD field\n    """\n\n    #get variables to build widget for the proper field, with proper current value\n    table = request.args[0]\n    field = request.args[1]\n    value = request.args[2]\n    linktable = request.args[3]\n    #args[4] is the wrappername, but is not used in this function\n\n    the_table = db[table]\n    the_field = the_table[field]\n    the_linktable = db[linktable]\n\n    #testing for the extra argument added by javascript in plugin_ajaxselect.js when refresh is triggered by change in another select value\n    if len(request.args) > 5:\n        filter_val = request.args[5]\n        rows = db(the_linktable.id ==).select()\n        print(rows)\n        w = SELECT(_name=\'xyz\', *[OPTION(e[field], _value=e.id) for e in rows])\n    else:\n        w = OptionsWidget.widget(the_field, value)\n\n    return dict(widget = w, linktable = linktable)\n\ndef set_form_wrapper():\n    """\n    Creates the LOAD helper to hold the modal form for creating a new item in the linked table\n    """\n    tablename = request.args[0]\n    fieldname = request.args[1]\n    value = request.args[2]\n    linktable = request.args[3]\n    wrappername = request.args[4]\n\n\n    formwrapper = LOAD(\'plugin_ajaxselect\', \'linked_create_form.load\', args=[tablename, fieldname, value, linktable, wrappername], ajax=True)\n\n    return dict(formwrapper = formwrapper)\n\n\ndef linked_create_form():\n    """\n    creates a form to insert a new entry into the linked table which populates the ajaxSelect widget\n    """\n\n    tablename = request.args[0]\n    fieldname = request.args[1]\n    value = request.args[2]\n    linktable = request.args[3]\n    wrappername = request.args[4]\n\n    form = SQLFORM(db[linktable])\n\n    comp_url = URL(\'plugin_ajaxselect\', \'set_widget.load\', args=[tablename, fieldname, value, linktable, wrappername])\n\n    if form.process().accepted:\n        response.flash = \'form accepted\'\n        response.js = "web2py_component(\'%s\', \'%s\');" % (comp_url, wrappername)\n    else:\n        response.error = \'form was not processed\'\n\n    return dict(form = form)\n\nresponse._vars=response._caller(set_widget)\n'
p7
sS'snapshot'
p8
(dp9
S'exception'
p10
(dp11
S'__getslice__'
p12
S"<method-wrapper '__getslice__' of exceptions.SyntaxError object>"
p13
sS'text'
p14
S"'        rows = db(the_linktable.id ==).select()\\n'"
p15
sS'__str__'
p16
S"<method-wrapper '__str__' of exceptions.SyntaxError object>"
p17
sS'__reduce__'
p18
S'<built-in method __reduce__ of exceptions.SyntaxError object>'
p19
sS'__dict__'
p20
S'{}'
p21
sS'__sizeof__'
p22
S'<built-in method __sizeof__ of exceptions.SyntaxError object>'
p23
sS'__init__'
p24
S"<method-wrapper '__init__' of exceptions.SyntaxError object>"
p25
sS'__setattr__'
p26
S"<method-wrapper '__setattr__' of exceptions.SyntaxError object>"
p27
sS'__reduce_ex__'
p28
S'<built-in method __reduce_ex__ of exceptions.SyntaxError object>'
p29
sS'__new__'
p30
S'<built-in method __new__ of type object>'
p31
sS'__format__'
p32
S'<built-in method __format__ of exceptions.SyntaxError object>'
p33
sS'__class__'
p34
S"<type 'exceptions.SyntaxError'>"
p35
sS'filename'
p36
S"'/home/ian/web2py/applications/topoi/controllers/plugin_ajaxselect.py'"
p37
sS'lineno'
p38
S'26'
p39
sS'msg'
p40
S"'invalid syntax'"
p41
sS'__doc__'
p42
S"'Invalid syntax.'"
p43
sS'__getitem__'
p44
S"<method-wrapper '__getitem__' of exceptions.SyntaxError object>"
p45
sS'__setstate__'
p46
S'<built-in method __setstate__ of exceptions.SyntaxError object>'
p47
sS'__getattribute__'
p48
S"<method-wrapper '__getattribute__' of exceptions.SyntaxError object>"
p49
sS'print_file_and_line'
p50
S'None'
p51
sS'args'
p52
S"('invalid syntax', ('/home/ian/web2py/applications/topoi/controllers/plugin_ajaxselect.py', 26, 38, '        rows = db(the_linktable.id ==).select()\\n'))"
p53
sS'__subclasshook__'
p54
S'<built-in method __subclasshook__ of type object>'
p55
sS'offset'
p56
S'38'
p57
sS'__unicode__'
p58
S'<built-in method __unicode__ of exceptions.SyntaxError object>'
p59
sS'__delattr__'
p60
S"<method-wrapper '__delattr__' of exceptions.SyntaxError object>"
p61
sS'__repr__'
p62
S"<method-wrapper '__repr__' of exceptions.SyntaxError object>"
p63
sS'__hash__'
p64
S"<method-wrapper '__hash__' of exceptions.SyntaxError object>"
p65
ssS'evalue'
p66
S'invalid syntax (plugin_ajaxselect.py, line 26)'
p67
sS'request'
p68
ccopy_reg
_reconstructor
p69
(cgluon.html
BEAUTIFY
p70
c__builtin__
object
p71
NtRp72
(dp73
S'attributes'
p74
(dp75
sS'components'
p76
(lp77
g69
(cgluon.html
TABLE
p78
g71
NtRp79
(dp80
g74
(dp81
S'level'
p82
I5
ssS'parent'
p83
Nsg76
(lp84
g69
(cgluon.html
TR
p85
g71
NtRp86
(dp87
g74
(dp88
sg83
g79
sg76
(lp89
g69
(cgluon.html
TD
p90
g71
NtRp91
(dp92
g74
(dp93
S'_style'
p94
S'font-weight:bold;vertical-align:top'
p95
ssg83
g86
sg76
(lp96
S'ajax'
p97
asbag69
(g90
g71
NtRp98
(dp99
g74
(dp100
S'_valign'
p101
S'top'
p102
ssg83
g86
sg76
(lp103
S':'
asbag69
(g90
g71
NtRp104
(dp105
g74
(dp106
sg83
g86
sg76
(lp107
g69
(g70
g71
NtRp108
(dp109
g74
(dp110
g82
I5
ssg83
g104
sg76
(lp111
S'True'
p112
asbasbasbag69
(g85
g71
NtRp113
(dp114
g74
(dp115
sg83
g79
sg76
(lp116
g69
(g90
g71
NtRp117
(dp118
g74
(dp119
g94
g95
ssg83
g113
sg76
(lp120
S'application'
p121
asbag69
(g90
g71
NtRp122
(dp123
g74
(dp124
g101
g102
ssg83
g113
sg76
(lp125
S':'
asbag69
(g90
g71
NtRp126
(dp127
g74
(dp128
sg83
g113
sg76
(lp129
g69
(g70
g71
NtRp130
(dp131
g74
(dp132
g82
I5
ssg83
g126
sg76
(lp133
S'topoi'
p134
asbasbasbag69
(g85
g71
NtRp135
(dp136
g74
(dp137
sg83
g79
sg76
(lp138
g69
(g90
g71
NtRp139
(dp140
g74
(dp141
g94
g95
ssg83
g135
sg76
(lp142
g52
asbag69
(g90
g71
NtRp143
(dp144
g74
(dp145
g101
g102
ssg83
g135
sg76
(lp146
S':'
asbag69
(g90
g71
NtRp147
(dp148
g74
(dp149
sg83
g135
sg76
(lp150
g69
(g70
g71
NtRp151
(dp152
g74
(dp153
g82
I5
ssg83
g147
sg76
(lp154
g69
(g78
g71
NtRp155
(dp156
g74
(dp157
g82
I4
ssg83
Nsg76
(lp158
g69
(g85
g71
NtRp159
(dp160
g74
(dp161
sg83
g155
sg76
(lp162
g69
(g90
g71
NtRp163
(dp164
g74
(dp165
sg83
g159
sg76
(lp166
g69
(g70
g71
NtRp167
(dp168
g74
(dp169
g82
I4
ssg83
g163
sg76
(lp170
S'notes'
p171
asbasbasbag69
(g85
g71
NtRp172
(dp173
g74
(dp174
sg83
g155
sg76
(lp175
g69
(g90
g71
NtRp176
(dp177
g74
(dp178
sg83
g172
sg76
(lp179
g69
(g70
g71
NtRp180
(dp181
g74
(dp182
g82
I4
ssg83
g176
sg76
(lp183
S'work'
p184
asbasbasbag69
(g85
g71
NtRp185
(dp186
g74
(dp187
sg83
g155
sg76
(lp188
g69
(g90
g71
NtRp189
(dp190
g74
(dp191
sg83
g185
sg76
(lp192
g69
(g70
g71
NtRp193
(dp194
g74
(dp195
g82
I4
ssg83
g189
sg76
(lp196
S'7'
asbasbasbag69
(g85
g71
NtRp197
(dp198
g74
(dp199
sg83
g155
sg76
(lp200
g69
(g90
g71
NtRp201
(dp202
g74
(dp203
sg83
g197
sg76
(lp204
g69
(g70
g71
NtRp205
(dp206
g74
(dp207
g82
I4
ssg83
g201
sg76
(lp208
S'works'
p209
asbasbasbag69
(g85
g71
NtRp210
(dp211
g74
(dp212
sg83
g155
sg76
(lp213
g69
(g90
g71
NtRp214
(dp215
g74
(dp216
sg83
g210
sg76
(lp217
g69
(g70
g71
NtRp218
(dp219
g74
(dp220
g82
I4
ssg83
g214
sg76
(lp221
S'notes_work_loader'
p222
asbasbasbag69
(g85
g71
NtRp223
(dp224
g74
(dp225
sg83
g155
sg76
(lp226
g69
(g90
g71
NtRp227
(dp228
g74
(dp229
sg83
g223
sg76
(lp230
g69
(g70
g71
NtRp231
(dp232
g74
(dp233
g82
I4
ssg83
g227
sg76
(lp234
S'14'
p235
asbasbasbasbasbasbasbag69
(g85
g71
NtRp236
(dp237
g74
(dp238
sg83
g79
sg76
(lp239
g69
(g90
g71
NtRp240
(dp241
g74
(dp242
g94
g95
ssg83
g236
sg76
(lp243
S'body'
p244
asbag69
(g90
g71
NtRp245
(dp246
g74
(dp247
g101
g102
ssg83
g236
sg76
(lp248
S':'
asbag69
(g90
g71
NtRp249
(dp250
g74
(dp251
sg83
g236
sg76
(lp252
g69
(g70
g71
NtRp253
(dp254
g74
(dp255
g82
I5
ssg83
g249
sg76
(lp256
S'<cStringIO.StringO object at 0x1eb6340>'
p257
asbasbasbag69
(g85
g71
NtRp258
(dp259
g74
(dp260
sg83
g79
sg76
(lp261
g69
(g90
g71
NtRp262
(dp263
g74
(dp264
g94
g95
ssg83
g258
sg76
(lp265
S'cid'
p266
asbag69
(g90
g71
NtRp267
(dp268
g74
(dp269
g101
g102
ssg83
g258
sg76
(lp270
S':'
asbag69
(g90
g71
NtRp271
(dp272
g74
(dp273
sg83
g258
sg76
(lp274
g69
(g70
g71
NtRp275
(dp276
g74
(dp277
g82
I5
ssg83
g271
sg76
(lp278
S'notes_work_loader'
p279
asbasbasbag69
(g85
g71
NtRp280
(dp281
g74
(dp282
sg83
g79
sg76
(lp283
g69
(g90
g71
NtRp284
(dp285
g74
(dp286
g94
g95
ssg83
g280
sg76
(lp287
S'client'
p288
asbag69
(g90
g71
NtRp289
(dp290
g74
(dp291
g101
g102
ssg83
g280
sg76
(lp292
S':'
asbag69
(g90
g71
NtRp293
(dp294
g74
(dp295
sg83
g280
sg76
(lp296
g69
(g70
g71
NtRp297
(dp298
g74
(dp299
g82
I5
ssg83
g293
sg76
(lp300
S'127.0.0.1'
p301
asbasbasbag69
(g85
g71
NtRp302
(dp303
g74
(dp304
sg83
g79
sg76
(lp305
g69
(g90
g71
NtRp306
(dp307
g74
(dp308
g94
g95
ssg83
g302
sg76
(lp309
S'controller'
p310
asbag69
(g90
g71
NtRp311
(dp312
g74
(dp313
g101
g102
ssg83
g302
sg76
(lp314
S':'
asbag69
(g90
g71
NtRp315
(dp316
g74
(dp317
sg83
g302
sg76
(lp318
g69
(g70
g71
NtRp319
(dp320
g74
(dp321
g82
I5
ssg83
g315
sg76
(lp322
S'plugin_ajaxselect'
p323
asbasbasbag69
(g85
g71
NtRp324
(dp325
g74
(dp326
sg83
g79
sg76
(lp327
g69
(g90
g71
NtRp328
(dp329
g74
(dp330
g94
g95
ssg83
g324
sg76
(lp331
S'cookies'
p332
asbag69
(g90
g71
NtRp333
(dp334
g74
(dp335
g101
g102
ssg83
g324
sg76
(lp336
S':'
asbag69
(g90
g71
NtRp337
(dp338
g74
(dp339
sg83
g324
sg76
(lp340
g69
(g70
g71
NtRp341
(dp342
g74
(dp343
g82
I5
ssg83
g337
sg76
(lp344
g69
(g78
g71
NtRp345
(dp346
g74
(dp347
g82
I4
ssg83
Nsg76
(lp348
g69
(g85
g71
NtRp349
(dp350
g74
(dp351
sg83
g345
sg76
(lp352
g69
(g90
g71
NtRp353
(dp354
g74
(dp355
g94
g95
ssg83
g349
sg76
(lp356
S'session_id_admin'
p357
asbag69
(g90
g71
NtRp358
(dp359
g74
(dp360
g101
g102
ssg83
g349
sg76
(lp361
S':'
asbag69
(g90
g71
NtRp362
(dp363
g74
(dp364
sg83
g349
sg76
(lp365
g69
(g70
g71
NtRp366
(dp367
g74
(dp368
g82
I4
ssg83
g362
sg76
(lp369
g69
(g78
g71
NtRp370
(dp371
g74
(dp372
g82
I3
ssg83
Nsg76
(lp373
g69
(g85
g71
NtRp374
(dp375
g74
(dp376
sg83
g370
sg76
(lp377
g69
(g90
g71
NtRp378
(dp379
g74
(dp380
g94
g95
ssg83
g374
sg76
(lp381
S'comment'
p382
asbag69
(g90
g71
NtRp383
(dp384
g74
(dp385
g101
g102
ssg83
g374
sg76
(lp386
S':'
asbag69
(g90
g71
NtRp387
(dp388
g74
(dp389
sg83
g374
sg76
(lp390
g69
(g70
g71
NtRp391
(dp392
g74
(dp393
g82
I3
ssg83
g387
sg76
(lp394
S''
asbasbasbag69
(g85
g71
NtRp395
(dp396
g74
(dp397
sg83
g370
sg76
(lp398
g69
(g90
g71
NtRp399
(dp400
g74
(dp401
g94
g95
ssg83
g395
sg76
(lp402
S'domain'
p403
asbag69
(g90
g71
NtRp404
(dp405
g74
(dp406
g101
g102
ssg83
g395
sg76
(lp407
S':'
asbag69
(g90
g71
NtRp408
(dp409
g74
(dp410
sg83
g395
sg76
(lp411
g69
(g70
g71
NtRp412
(dp413
g74
(dp414
g82
I3
ssg83
g408
sg76
(lp415
S''
asbasbasbag69
(g85
g71
NtRp416
(dp417
g74
(dp418
sg83
g370
sg76
(lp419
g69
(g90
g71
NtRp420
(dp421
g74
(dp422
g94
g95
ssg83
g416
sg76
(lp423
S'expires'
p424
asbag69
(g90
g71
NtRp425
(dp426
g74
(dp427
g101
g102
ssg83
g416
sg76
(lp428
S':'
asbag69
(g90
g71
NtRp429
(dp430
g74
(dp431
sg83
g416
sg76
(lp432
g69
(g70
g71
NtRp433
(dp434
g74
(dp435
g82
I3
ssg83
g429
sg76
(lp436
S''
asbasbasbag69
(g85
g71
NtRp437
(dp438
g74
(dp439
sg83
g370
sg76
(lp440
g69
(g90
g71
NtRp441
(dp442
g74
(dp443
g94
g95
ssg83
g437
sg76
(lp444
S'httponly'
p445
asbag69
(g90
g71
NtRp446
(dp447
g74
(dp448
g101
g102
ssg83
g437
sg76
(lp449
S':'
asbag69
(g90
g71
NtRp450
(dp451
g74
(dp452
sg83
g437
sg76
(lp453
g69
(g70
g71
NtRp454
(dp455
g74
(dp456
g82
I3
ssg83
g450
sg76
(lp457
S''
asbasbasbag69
(g85
g71
NtRp458
(dp459
g74
(dp460
sg83
g370
sg76
(lp461
g69
(g90
g71
NtRp462
(dp463
g74
(dp464
g94
g95
ssg83
g458
sg76
(lp465
S'max-age'
p466
asbag69
(g90
g71
NtRp467
(dp468
g74
(dp469
g101
g102
ssg83
g458
sg76
(lp470
S':'
asbag69
(g90
g71
NtRp471
(dp472
g74
(dp473
sg83
g458
sg76
(lp474
g69
(g70
g71
NtRp475
(dp476
g74
(dp477
g82
I3
ssg83
g471
sg76
(lp478
S''
asbasbasbag69
(g85
g71
NtRp479
(dp480
g74
(dp481
sg83
g370
sg76
(lp482
g69
(g90
g71
NtRp483
(dp484
g74
(dp485
g94
g95
ssg83
g479
sg76
(lp486
S'path'
p487
asbag69
(g90
g71
NtRp488
(dp489
g74
(dp490
g101
g102
ssg83
g479
sg76
(lp491
S':'
asbag69
(g90
g71
NtRp492
(dp493
g74
(dp494
sg83
g479
sg76
(lp495
g69
(g70
g71
NtRp496
(dp497
g74
(dp498
g82
I3
ssg83
g492
sg76
(lp499
S''
asbasbasbag69
(g85
g71
NtRp500
(dp501
g74
(dp502
sg83
g370
sg76
(lp503
g69
(g90
g71
NtRp504
(dp505
g74
(dp506
g94
g95
ssg83
g500
sg76
(lp507
S'secure'
p508
asbag69
(g90
g71
NtRp509
(dp510
g74
(dp511
g101
g102
ssg83
g500
sg76
(lp512
S':'
asbag69
(g90
g71
NtRp513
(dp514
g74
(dp515
sg83
g500
sg76
(lp516
g69
(g70
g71
NtRp517
(dp518
g74
(dp519
g82
I3
ssg83
g513
sg76
(lp520
S''
asbasbasbag69
(g85
g71
NtRp521
(dp522
g74
(dp523
sg83
g370
sg76
(lp524
g69
(g90
g71
NtRp525
(dp526
g74
(dp527
g94
g95
ssg83
g521
sg76
(lp528
S'version'
p529
asbag69
(g90
g71
NtRp530
(dp531
g74
(dp532
g101
g102
ssg83
g521
sg76
(lp533
S':'
asbag69
(g90
g71
NtRp534
(dp535
g74
(dp536
sg83
g521
sg76
(lp537
g69
(g70
g71
NtRp538
(dp539
g74
(dp540
g82
I3
ssg83
g534
sg76
(lp541
S''
asbasbasbasbasbasbasbag69
(g85
g71
NtRp542
(dp543
g74
(dp544
sg83
g345
sg76
(lp545
g69
(g90
g71
NtRp546
(dp547
g74
(dp548
g94
g95
ssg83
g542
sg76
(lp549
S'session_id_paideia'
p550
asbag69
(g90
g71
NtRp551
(dp552
g74
(dp553
g101
g102
ssg83
g542
sg76
(lp554
S':'
asbag69
(g90
g71
NtRp555
(dp556
g74
(dp557
sg83
g542
sg76
(lp558
g69
(g70
g71
NtRp559
(dp560
g74
(dp561
g82
I4
ssg83
g555
sg76
(lp562
g69
(g78
g71
NtRp563
(dp564
g74
(dp565
g82
I3
ssg83
Nsg76
(lp566
g69
(g85
g71
NtRp567
(dp568
g74
(dp569
sg83
g563
sg76
(lp570
g69
(g90
g71
NtRp571
(dp572
g74
(dp573
g94
g95
ssg83
g567
sg76
(lp574
g382
asbag69
(g90
g71
NtRp575
(dp576
g74
(dp577
g101
g102
ssg83
g567
sg76
(lp578
S':'
asbag69
(g90
g71
NtRp579
(dp580
g74
(dp581
sg83
g567
sg76
(lp582
g69
(g70
g71
NtRp583
(dp584
g74
(dp585
g82
I3
ssg83
g579
sg76
(lp586
S''
asbasbasbag69
(g85
g71
NtRp587
(dp588
g74
(dp589
sg83
g563
sg76
(lp590
g69
(g90
g71
NtRp591
(dp592
g74
(dp593
g94
g95
ssg83
g587
sg76
(lp594
g403
asbag69
(g90
g71
NtRp595
(dp596
g74
(dp597
g101
g102
ssg83
g587
sg76
(lp598
S':'
asbag69
(g90
g71
NtRp599
(dp600
g74
(dp601
sg83
g587
sg76
(lp602
g69
(g70
g71
NtRp603
(dp604
g74
(dp605
g82
I3
ssg83
g599
sg76
(lp606
S''
asbasbasbag69
(g85
g71
NtRp607
(dp608
g74
(dp609
sg83
g563
sg76
(lp610
g69
(g90
g71
NtRp611
(dp612
g74
(dp613
g94
g95
ssg83
g607
sg76
(lp614
g424
asbag69
(g90
g71
NtRp615
(dp616
g74
(dp617
g101
g102
ssg83
g607
sg76
(lp618
S':'
asbag69
(g90
g71
NtRp619
(dp620
g74
(dp621
sg83
g607
sg76
(lp622
g69
(g70
g71
NtRp623
(dp624
g74
(dp625
g82
I3
ssg83
g619
sg76
(lp626
S''
asbasbasbag69
(g85
g71
NtRp627
(dp628
g74
(dp629
sg83
g563
sg76
(lp630
g69
(g90
g71
NtRp631
(dp632
g74
(dp633
g94
g95
ssg83
g627
sg76
(lp634
g445
asbag69
(g90
g71
NtRp635
(dp636
g74
(dp637
g101
g102
ssg83
g627
sg76
(lp638
S':'
asbag69
(g90
g71
NtRp639
(dp640
g74
(dp641
sg83
g627
sg76
(lp642
g69
(g70
g71
NtRp643
(dp644
g74
(dp645
g82
I3
ssg83
g639
sg76
(lp646
S''
asbasbasbag69
(g85
g71
NtRp647
(dp648
g74
(dp649
sg83
g563
sg76
(lp650
g69
(g90
g71
NtRp651
(dp652
g74
(dp653
g94
g95
ssg83
g647
sg76
(lp654
g466
asbag69
(g90
g71
NtRp655
(dp656
g74
(dp657
g101
g102
ssg83
g647
sg76
(lp658
S':'
asbag69
(g90
g71
NtRp659
(dp660
g74
(dp661
sg83
g647
sg76
(lp662
g69
(g70
g71
NtRp663
(dp664
g74
(dp665
g82
I3
ssg83
g659
sg76
(lp666
S''
asbasbasbag69
(g85
g71
NtRp667
(dp668
g74
(dp669
sg83
g563
sg76
(lp670
g69
(g90
g71
NtRp671
(dp672
g74
(dp673
g94
g95
ssg83
g667
sg76
(lp674
g487
asbag69
(g90
g71
NtRp675
(dp676
g74
(dp677
g101
g102
ssg83
g667
sg76
(lp678
S':'
asbag69
(g90
g71
NtRp679
(dp680
g74
(dp681
sg83
g667
sg76
(lp682
g69
(g70
g71
NtRp683
(dp684
g74
(dp685
g82
I3
ssg83
g679
sg76
(lp686
S''
asbasbasbag69
(g85
g71
NtRp687
(dp688
g74
(dp689
sg83
g563
sg76
(lp690
g69
(g90
g71
NtRp691
(dp692
g74
(dp693
g94
g95
ssg83
g687
sg76
(lp694
g508
asbag69
(g90
g71
NtRp695
(dp696
g74
(dp697
g101
g102
ssg83
g687
sg76
(lp698
S':'
asbag69
(g90
g71
NtRp699
(dp700
g74
(dp701
sg83
g687
sg76
(lp702
g69
(g70
g71
NtRp703
(dp704
g74
(dp705
g82
I3
ssg83
g699
sg76
(lp706
S''
asbasbasbag69
(g85
g71
NtRp707
(dp708
g74
(dp709
sg83
g563
sg76
(lp710
g69
(g90
g71
NtRp711
(dp712
g74
(dp713
g94
g95
ssg83
g707
sg76
(lp714
g529
asbag69
(g90
g71
NtRp715
(dp716
g74
(dp717
g101
g102
ssg83
g707
sg76
(lp718
S':'
asbag69
(g90
g71
NtRp719
(dp720
g74
(dp721
sg83
g707
sg76
(lp722
g69
(g70
g71
NtRp723
(dp724
g74
(dp725
g82
I3
ssg83
g719
sg76
(lp726
S''
asbasbasbasbasbasbasbag69
(g85
g71
NtRp727
(dp728
g74
(dp729
sg83
g345
sg76
(lp730
g69
(g90
g71
NtRp731
(dp732
g74
(dp733
g94
g95
ssg83
g727
sg76
(lp734
S'session_id_topoi'
p735
asbag69
(g90
g71
NtRp736
(dp737
g74
(dp738
g101
g102
ssg83
g727
sg76
(lp739
S':'
asbag69
(g90
g71
NtRp740
(dp741
g74
(dp742
sg83
g727
sg76
(lp743
g69
(g70
g71
NtRp744
(dp745
g74
(dp746
g82
I4
ssg83
g740
sg76
(lp747
g69
(g78
g71
NtRp748
(dp749
g74
(dp750
g82
I3
ssg83
Nsg76
(lp751
g69
(g85
g71
NtRp752
(dp753
g74
(dp754
sg83
g748
sg76
(lp755
g69
(g90
g71
NtRp756
(dp757
g74
(dp758
g94
g95
ssg83
g752
sg76
(lp759
g382
asbag69
(g90
g71
NtRp760
(dp761
g74
(dp762
g101
g102
ssg83
g752
sg76
(lp763
S':'
asbag69
(g90
g71
NtRp764
(dp765
g74
(dp766
sg83
g752
sg76
(lp767
g69
(g70
g71
NtRp768
(dp769
g74
(dp770
g82
I3
ssg83
g764
sg76
(lp771
S''
asbasbasbag69
(g85
g71
NtRp772
(dp773
g74
(dp774
sg83
g748
sg76
(lp775
g69
(g90
g71
NtRp776
(dp777
g74
(dp778
g94
g95
ssg83
g772
sg76
(lp779
g403
asbag69
(g90
g71
NtRp780
(dp781
g74
(dp782
g101
g102
ssg83
g772
sg76
(lp783
S':'
asbag69
(g90
g71
NtRp784
(dp785
g74
(dp786
sg83
g772
sg76
(lp787
g69
(g70
g71
NtRp788
(dp789
g74
(dp790
g82
I3
ssg83
g784
sg76
(lp791
S''
asbasbasbag69
(g85
g71
NtRp792
(dp793
g74
(dp794
sg83
g748
sg76
(lp795
g69
(g90
g71
NtRp796
(dp797
g74
(dp798
g94
g95
ssg83
g792
sg76
(lp799
g424
asbag69
(g90
g71
NtRp800
(dp801
g74
(dp802
g101
g102
ssg83
g792
sg76
(lp803
S':'
asbag69
(g90
g71
NtRp804
(dp805
g74
(dp806
sg83
g792
sg76
(lp807
g69
(g70
g71
NtRp808
(dp809
g74
(dp810
g82
I3
ssg83
g804
sg76
(lp811
S''
asbasbasbag69
(g85
g71
NtRp812
(dp813
g74
(dp814
sg83
g748
sg76
(lp815
g69
(g90
g71
NtRp816
(dp817
g74
(dp818
g94
g95
ssg83
g812
sg76
(lp819
g445
asbag69
(g90
g71
NtRp820
(dp821
g74
(dp822
g101
g102
ssg83
g812
sg76
(lp823
S':'
asbag69
(g90
g71
NtRp824
(dp825
g74
(dp826
sg83
g812
sg76
(lp827
g69
(g70
g71
NtRp828
(dp829
g74
(dp830
g82
I3
ssg83
g824
sg76
(lp831
S''
asbasbasbag69
(g85
g71
NtRp832
(dp833
g74
(dp834
sg83
g748
sg76
(lp835
g69
(g90
g71
NtRp836
(dp837
g74
(dp838
g94
g95
ssg83
g832
sg76
(lp839
g466
asbag69
(g90
g71
NtRp840
(dp841
g74
(dp842
g101
g102
ssg83
g832
sg76
(lp843
S':'
asbag69
(g90
g71
NtRp844
(dp845
g74
(dp846
sg83
g832
sg76
(lp847
g69
(g70
g71
NtRp848
(dp849
g74
(dp850
g82
I3
ssg83
g844
sg76
(lp851
S''
asbasbasbag69
(g85
g71
NtRp852
(dp853
g74
(dp854
sg83
g748
sg76
(lp855
g69
(g90
g71
NtRp856
(dp857
g74
(dp858
g94
g95
ssg83
g852
sg76
(lp859
g487
asbag69
(g90
g71
NtRp860
(dp861
g74
(dp862
g101
g102
ssg83
g852
sg76
(lp863
S':'
asbag69
(g90
g71
NtRp864
(dp865
g74
(dp866
sg83
g852
sg76
(lp867
g69
(g70
g71
NtRp868
(dp869
g74
(dp870
g82
I3
ssg83
g864
sg76
(lp871
S''
asbasbasbag69
(g85
g71
NtRp872
(dp873
g74
(dp874
sg83
g748
sg76
(lp875
g69
(g90
g71
NtRp876
(dp877
g74
(dp878
g94
g95
ssg83
g872
sg76
(lp879
g508
asbag69
(g90
g71
NtRp880
(dp881
g74
(dp882
g101
g102
ssg83
g872
sg76
(lp883
S':'
asbag69
(g90
g71
NtRp884
(dp885
g74
(dp886
sg83
g872
sg76
(lp887
g69
(g70
g71
NtRp888
(dp889
g74
(dp890
g82
I3
ssg83
g884
sg76
(lp891
S''
asbasbasbag69
(g85
g71
NtRp892
(dp893
g74
(dp894
sg83
g748
sg76
(lp895
g69
(g90
g71
NtRp896
(dp897
g74
(dp898
g94
g95
ssg83
g892
sg76
(lp899
g529
asbag69
(g90
g71
NtRp900
(dp901
g74
(dp902
g101
g102
ssg83
g892
sg76
(lp903
S':'
asbag69
(g90
g71
NtRp904
(dp905
g74
(dp906
sg83
g892
sg76
(lp907
g69
(g70
g71
NtRp908
(dp909
g74
(dp910
g82
I3
ssg83
g904
sg76
(lp911
S''
asbasbasbasbasbasbasbag69
(g85
g71
NtRp912
(dp913
g74
(dp914
sg83
g345
sg76
(lp915
g69
(g90
g71
NtRp916
(dp917
g74
(dp918
g94
g95
ssg83
g912
sg76
(lp919
S'session_id_welcome'
p920
asbag69
(g90
g71
NtRp921
(dp922
g74
(dp923
g101
g102
ssg83
g912
sg76
(lp924
S':'
asbag69
(g90
g71
NtRp925
(dp926
g74
(dp927
sg83
g912
sg76
(lp928
g69
(g70
g71
NtRp929
(dp930
g74
(dp931
g82
I4
ssg83
g925
sg76
(lp932
g69
(g78
g71
NtRp933
(dp934
g74
(dp935
g82
I3
ssg83
Nsg76
(lp936
g69
(g85
g71
NtRp937
(dp938
g74
(dp939
sg83
g933
sg76
(lp940
g69
(g90
g71
NtRp941
(dp942
g74
(dp943
g94
g95
ssg83
g937
sg76
(lp944
g382
asbag69
(g90
g71
NtRp945
(dp946
g74
(dp947
g101
g102
ssg83
g937
sg76
(lp948
S':'
asbag69
(g90
g71
NtRp949
(dp950
g74
(dp951
sg83
g937
sg76
(lp952
g69
(g70
g71
NtRp953
(dp954
g74
(dp955
g82
I3
ssg83
g949
sg76
(lp956
S''
asbasbasbag69
(g85
g71
NtRp957
(dp958
g74
(dp959
sg83
g933
sg76
(lp960
g69
(g90
g71
NtRp961
(dp962
g74
(dp963
g94
g95
ssg83
g957
sg76
(lp964
g403
asbag69
(g90
g71
NtRp965
(dp966
g74
(dp967
g101
g102
ssg83
g957
sg76
(lp968
S':'
asbag69
(g90
g71
NtRp969
(dp970
g74
(dp971
sg83
g957
sg76
(lp972
g69
(g70
g71
NtRp973
(dp974
g74
(dp975
g82
I3
ssg83
g969
sg76
(lp976
S''
asbasbasbag69
(g85
g71
NtRp977
(dp978
g74
(dp979
sg83
g933
sg76
(lp980
g69
(g90
g71
NtRp981
(dp982
g74
(dp983
g94
g95
ssg83
g977
sg76
(lp984
g424
asbag69
(g90
g71
NtRp985
(dp986
g74
(dp987
g101
g102
ssg83
g977
sg76
(lp988
S':'
asbag69
(g90
g71
NtRp989
(dp990
g74
(dp991
sg83
g977
sg76
(lp992
g69
(g70
g71
NtRp993
(dp994
g74
(dp995
g82
I3
ssg83
g989
sg76
(lp996
S''
asbasbasbag69
(g85
g71
NtRp997
(dp998
g74
(dp999
sg83
g933
sg76
(lp1000
g69
(g90
g71
NtRp1001
(dp1002
g74
(dp1003
g94
g95
ssg83
g997
sg76
(lp1004
g445
asbag69
(g90
g71
NtRp1005
(dp1006
g74
(dp1007
g101
g102
ssg83
g997
sg76
(lp1008
S':'
asbag69
(g90
g71
NtRp1009
(dp1010
g74
(dp1011
sg83
g997
sg76
(lp1012
g69
(g70
g71
NtRp1013
(dp1014
g74
(dp1015
g82
I3
ssg83
g1009
sg76
(lp1016
S''
asbasbasbag69
(g85
g71
NtRp1017
(dp1018
g74
(dp1019
sg83
g933
sg76
(lp1020
g69
(g90
g71
NtRp1021
(dp1022
g74
(dp1023
g94
g95
ssg83
g1017
sg76
(lp1024
g466
asbag69
(g90
g71
NtRp1025
(dp1026
g74
(dp1027
g101
g102
ssg83
g1017
sg76
(lp1028
S':'
asbag69
(g90
g71
NtRp1029
(dp1030
g74
(dp1031
sg83
g1017
sg76
(lp1032
g69
(g70
g71
NtRp1033
(dp1034
g74
(dp1035
g82
I3
ssg83
g1029
sg76
(lp1036
S''
asbasbasbag69
(g85
g71
NtRp1037
(dp1038
g74
(dp1039
sg83
g933
sg76
(lp1040
g69
(g90
g71
NtRp1041
(dp1042
g74
(dp1043
g94
g95
ssg83
g1037
sg76
(lp1044
g487
asbag69
(g90
g71
NtRp1045
(dp1046
g74
(dp1047
g101
g102
ssg83
g1037
sg76
(lp1048
S':'
asbag69
(g90
g71
NtRp1049
(dp1050
g74
(dp1051
sg83
g1037
sg76
(lp1052
g69
(g70
g71
NtRp1053
(dp1054
g74
(dp1055
g82
I3
ssg83
g1049
sg76
(lp1056
S''
asbasbasbag69
(g85
g71
NtRp1057
(dp1058
g74
(dp1059
sg83
g933
sg76
(lp1060
g69
(g90
g71
NtRp1061
(dp1062
g74
(dp1063
g94
g95
ssg83
g1057
sg76
(lp1064
g508
asbag69
(g90
g71
NtRp1065
(dp1066
g74
(dp1067
g101
g102
ssg83
g1057
sg76
(lp1068
S':'
asbag69
(g90
g71
NtRp1069
(dp1070
g74
(dp1071
sg83
g1057
sg76
(lp1072
g69
(g70
g71
NtRp1073
(dp1074
g74
(dp1075
g82
I3
ssg83
g1069
sg76
(lp1076
S''
asbasbasbag69
(g85
g71
NtRp1077
(dp1078
g74
(dp1079
sg83
g933
sg76
(lp1080
g69
(g90
g71
NtRp1081
(dp1082
g74
(dp1083
g94
g95
ssg83
g1077
sg76
(lp1084
g529
asbag69
(g90
g71
NtRp1085
(dp1086
g74
(dp1087
g101
g102
ssg83
g1077
sg76
(lp1088
S':'
asbag69
(g90
g71
NtRp1089
(dp1090
g74
(dp1091
sg83
g1077
sg76
(lp1092
g69
(g70
g71
NtRp1093
(dp1094
g74
(dp1095
g82
I3
ssg83
g1089
sg76
(lp1096
S''
asbasbasbasbasbasbasbasbasbasbasbag69
(g85
g71
NtRp1097
(dp1098
g74
(dp1099
sg83
g79
sg76
(lp1100
g69
(g90
g71
NtRp1101
(dp1102
g74
(dp1103
g94
g95
ssg83
g1097
sg76
(lp1104
S'env'
p1105
asbag69
(g90
g71
NtRp1106
(dp1107
g74
(dp1108
g101
g102
ssg83
g1097
sg76
(lp1109
S':'
asbag69
(g90
g71
NtRp1110
(dp1111
g74
(dp1112
sg83
g1097
sg76
(lp1113
g69
(g70
g71
NtRp1114
(dp1115
g74
(dp1116
g82
I5
ssg83
g1110
sg76
(lp1117
g69
(g78
g71
NtRp1118
(dp1119
g74
(dp1120
g82
I4
ssg83
Nsg76
(lp1121
g69
(g85
g71
NtRp1122
(dp1123
g74
(dp1124
sg83
g1118
sg76
(lp1125
g69
(g90
g71
NtRp1126
(dp1127
g74
(dp1128
g94
g95
ssg83
g1122
sg76
(lp1129
S'app_folders'
p1130
asbag69
(g90
g71
NtRp1131
(dp1132
g74
(dp1133
g101
g102
ssg83
g1122
sg76
(lp1134
S':'
asbag69
(g90
g71
NtRp1135
(dp1136
g74
(dp1137
sg83
g1122
sg76
(lp1138
g69
(g70
g71
NtRp1139
(dp1140
g74
(dp1141
g82
I4
ssg83
g1135
sg76
(lp1142
S"set(['/home/ian/web2py/applications/topoi/', '/home/ian/web2py/applications/welcome/', '/home/ian/web2py/applications/admin/'])"
p1143
asbasbasbag69
(g85
g71
NtRp1144
(dp1145
g74
(dp1146
sg83
g1118
sg76
(lp1147
g69
(g90
g71
NtRp1148
(dp1149
g74
(dp1150
g94
g95
ssg83
g1144
sg76
(lp1151
S'applications_parent'
p1152
asbag69
(g90
g71
NtRp1153
(dp1154
g74
(dp1155
g101
g102
ssg83
g1144
sg76
(lp1156
S':'
asbag69
(g90
g71
NtRp1157
(dp1158
g74
(dp1159
sg83
g1144
sg76
(lp1160
g69
(g70
g71
NtRp1161
(dp1162
g74
(dp1163
g82
I4
ssg83
g1157
sg76
(lp1164
S'/home/ian/web2py'
p1165
asbasbasbag69
(g85
g71
NtRp1166
(dp1167
g74
(dp1168
sg83
g1118
sg76
(lp1169
g69
(g90
g71
NtRp1170
(dp1171
g74
(dp1172
g94
g95
ssg83
g1166
sg76
(lp1173
S'cmd_args'
p1174
asbag69
(g90
g71
NtRp1175
(dp1176
g74
(dp1177
g101
g102
ssg83
g1166
sg76
(lp1178
S':'
asbag69
(g90
g71
NtRp1179
(dp1180
g74
(dp1181
sg83
g1166
sg76
(lp1182
g69
(g70
g71
NtRp1183
(dp1184
g74
(dp1185
g82
I4
ssg83
g1179
sg76
(lp1186
g69
(g78
g71
NtRp1187
(dp1188
g74
(dp1189
g82
I3
ssg83
Nsg76
(lp1190
sbasbasbasbag69
(g85
g71
NtRp1191
(dp1192
g74
(dp1193
sg83
g1118
sg76
(lp1194
g69
(g90
g71
NtRp1195
(dp1196
g74
(dp1197
g94
g95
ssg83
g1191
sg76
(lp1198
S'cmd_options'
p1199
asbag69
(g90
g71
NtRp1200
(dp1201
g74
(dp1202
g101
g102
ssg83
g1191
sg76
(lp1203
S':'
asbag69
(g90
g71
NtRp1204
(dp1205
g74
(dp1206
sg83
g1191
sg76
(lp1207
g69
(g70
g71
NtRp1208
(dp1209
g74
(dp1210
g82
I4
ssg83
g1204
sg76
(lp1211
S"<Values at 0x1878a70: {'verbose': False, 'ip': '127.0.0.1', 'shutdown_timeout': 5, 'taskbar': False, 'nocron': False, 'pid_filename': 'httpserver.pid', 'maxthreads': None, 'softcron': False, 'server_name': 'uriel', 'bpython': False, 'nogui': False, 'port': 8000, 'extcron': False, 'debuglevel': 30, 'test': None, 'folder': '/home/ian/web2py', 'config': '', 'import_models': False, 'winservice': '', 'shell': None, 'run': '', 'log_filename': 'httpserver.log', 'args': [''], 'socket_timeout': 1, 'ssl_ca_certificate': None, 'scheduler': None, 'profiler_filename': None, 'ssl_private_key': '', 'password': '<ask>', 'request_queue_size': 5, 'ssl_certificate': '', 'cronjob': False, 'numthreads': None, 'quiet': False, 'interfaces': None, 'minthreads': None, 'timeout': 10, 'plain': False, 'nobanner': False}>"
p1212
asbasbasbag69
(g85
g71
NtRp1213
(dp1214
g74
(dp1215
sg83
g1118
sg76
(lp1216
g69
(g90
g71
NtRp1217
(dp1218
g74
(dp1219
g94
g95
ssg83
g1213
sg76
(lp1220
S'db_sessions'
p1221
asbag69
(g90
g71
NtRp1222
(dp1223
g74
(dp1224
g101
g102
ssg83
g1213
sg76
(lp1225
S':'
asbag69
(g90
g71
NtRp1226
(dp1227
g74
(dp1228
sg83
g1213
sg76
(lp1229
g69
(g70
g71
NtRp1230
(dp1231
g74
(dp1232
g82
I4
ssg83
g1226
sg76
(lp1233
S'set([])'
p1234
asbasbasbag69
(g85
g71
NtRp1235
(dp1236
g74
(dp1237
sg83
g1118
sg76
(lp1238
g69
(g90
g71
NtRp1239
(dp1240
g74
(dp1241
g94
g95
ssg83
g1235
sg76
(lp1242
S'debugging'
p1243
asbag69
(g90
g71
NtRp1244
(dp1245
g74
(dp1246
g101
g102
ssg83
g1235
sg76
(lp1247
S':'
asbag69
(g90
g71
NtRp1248
(dp1249
g74
(dp1250
sg83
g1235
sg76
(lp1251
g69
(g70
g71
NtRp1252
(dp1253
g74
(dp1254
g82
I4
ssg83
g1248
sg76
(lp1255
S'False'
p1256
asbasbasbag69
(g85
g71
NtRp1257
(dp1258
g74
(dp1259
sg83
g1118
sg76
(lp1260
g69
(g90
g71
NtRp1261
(dp1262
g74
(dp1263
g94
g95
ssg83
g1257
sg76
(lp1264
S'gluon_parent'
p1265
asbag69
(g90
g71
NtRp1266
(dp1267
g74
(dp1268
g101
g102
ssg83
g1257
sg76
(lp1269
S':'
asbag69
(g90
g71
NtRp1270
(dp1271
g74
(dp1272
sg83
g1257
sg76
(lp1273
g69
(g70
g71
NtRp1274
(dp1275
g74
(dp1276
g82
I4
ssg83
g1270
sg76
(lp1277
S'/home/ian/web2py'
p1278
asbasbasbag69
(g85
g71
NtRp1279
(dp1280
g74
(dp1281
sg83
g1118
sg76
(lp1282
g69
(g90
g71
NtRp1283
(dp1284
g74
(dp1285
g94
g95
ssg83
g1279
sg76
(lp1286
S'http_accept'
p1287
asbag69
(g90
g71
NtRp1288
(dp1289
g74
(dp1290
g101
g102
ssg83
g1279
sg76
(lp1291
S':'
asbag69
(g90
g71
NtRp1292
(dp1293
g74
(dp1294
sg83
g1279
sg76
(lp1295
g69
(g70
g71
NtRp1296
(dp1297
g74
(dp1298
g82
I4
ssg83
g1292
sg76
(lp1299
S'*/*'
p1300
asbasbasbag69
(g85
g71
NtRp1301
(dp1302
g74
(dp1303
sg83
g1118
sg76
(lp1304
g69
(g90
g71
NtRp1305
(dp1306
g74
(dp1307
g94
g95
ssg83
g1301
sg76
(lp1308
S'http_accept_charset'
p1309
asbag69
(g90
g71
NtRp1310
(dp1311
g74
(dp1312
g101
g102
ssg83
g1301
sg76
(lp1313
S':'
asbag69
(g90
g71
NtRp1314
(dp1315
g74
(dp1316
sg83
g1301
sg76
(lp1317
g69
(g70
g71
NtRp1318
(dp1319
g74
(dp1320
g82
I4
ssg83
g1314
sg76
(lp1321
S'UTF-8,*'
p1322
asbasbasbag69
(g85
g71
NtRp1323
(dp1324
g74
(dp1325
sg83
g1118
sg76
(lp1326
g69
(g90
g71
NtRp1327
(dp1328
g74
(dp1329
g94
g95
ssg83
g1323
sg76
(lp1330
S'http_accept_encoding'
p1331
asbag69
(g90
g71
NtRp1332
(dp1333
g74
(dp1334
g101
g102
ssg83
g1323
sg76
(lp1335
S':'
asbag69
(g90
g71
NtRp1336
(dp1337
g74
(dp1338
sg83
g1323
sg76
(lp1339
g69
(g70
g71
NtRp1340
(dp1341
g74
(dp1342
g82
I4
ssg83
g1336
sg76
(lp1343
S'gzip, deflate'
p1344
asbasbasbag69
(g85
g71
NtRp1345
(dp1346
g74
(dp1347
sg83
g1118
sg76
(lp1348
g69
(g90
g71
NtRp1349
(dp1350
g74
(dp1351
g94
g95
ssg83
g1345
sg76
(lp1352
S'http_accept_language'
p1353
asbag69
(g90
g71
NtRp1354
(dp1355
g74
(dp1356
g101
g102
ssg83
g1345
sg76
(lp1357
S':'
asbag69
(g90
g71
NtRp1358
(dp1359
g74
(dp1360
sg83
g1345
sg76
(lp1361
g69
(g70
g71
NtRp1362
(dp1363
g74
(dp1364
g82
I4
ssg83
g1358
sg76
(lp1365
S'en-us,en;q=0.5'
p1366
asbasbasbag69
(g85
g71
NtRp1367
(dp1368
g74
(dp1369
sg83
g1118
sg76
(lp1370
g69
(g90
g71
NtRp1371
(dp1372
g74
(dp1373
g94
g95
ssg83
g1367
sg76
(lp1374
S'http_connection'
p1375
asbag69
(g90
g71
NtRp1376
(dp1377
g74
(dp1378
g101
g102
ssg83
g1367
sg76
(lp1379
S':'
asbag69
(g90
g71
NtRp1380
(dp1381
g74
(dp1382
sg83
g1367
sg76
(lp1383
g69
(g70
g71
NtRp1384
(dp1385
g74
(dp1386
g82
I4
ssg83
g1380
sg76
(lp1387
S'keep-alive'
p1388
asbasbasbag69
(g85
g71
NtRp1389
(dp1390
g74
(dp1391
sg83
g1118
sg76
(lp1392
g69
(g90
g71
NtRp1393
(dp1394
g74
(dp1395
g94
g95
ssg83
g1389
sg76
(lp1396
S'http_cookie'
p1397
asbag69
(g90
g71
NtRp1398
(dp1399
g74
(dp1400
g101
g102
ssg83
g1389
sg76
(lp1401
S':'
asbag69
(g90
g71
NtRp1402
(dp1403
g74
(dp1404
sg83
g1389
sg76
(lp1405
g69
(g70
g71
NtRp1406
(dp1407
g74
(dp1408
g82
I4
ssg83
g1402
sg76
(lp1409
S'session_id_topoi=127.0.0.1-fbfd7fa3-57f5-4d42-8f08-594178070e93; session_id_paideia=127.0.0.1-26fbb861-2ba5-4c09-9362-c3a45f2c5fe2; session_id_welcome=127.0.0.1-f9572f82-164d-455e-829a-ee7be5b4d350; session_id_admin=127.0.0.1-a4c765bb-5380-4b15-8fd0-259da830b262'
p1410
asbasbasbag69
(g85
g71
NtRp1411
(dp1412
g74
(dp1413
sg83
g1118
sg76
(lp1414
g69
(g90
g71
NtRp1415
(dp1416
g74
(dp1417
g94
g95
ssg83
g1411
sg76
(lp1418
S'http_host'
p1419
asbag69
(g90
g71
NtRp1420
(dp1421
g74
(dp1422
g101
g102
ssg83
g1411
sg76
(lp1423
S':'
asbag69
(g90
g71
NtRp1424
(dp1425
g74
(dp1426
sg83
g1411
sg76
(lp1427
g69
(g70
g71
NtRp1428
(dp1429
g74
(dp1430
g82
I4
ssg83
g1424
sg76
(lp1431
S'127.0.0.1:8000'
p1432
asbasbasbag69
(g85
g71
NtRp1433
(dp1434
g74
(dp1435
sg83
g1118
sg76
(lp1436
g69
(g90
g71
NtRp1437
(dp1438
g74
(dp1439
g94
g95
ssg83
g1433
sg76
(lp1440
S'http_referer'
p1441
asbag69
(g90
g71
NtRp1442
(dp1443
g74
(dp1444
g101
g102
ssg83
g1433
sg76
(lp1445
S':'
asbag69
(g90
g71
NtRp1446
(dp1447
g74
(dp1448
sg83
g1433
sg76
(lp1449
g69
(g70
g71
NtRp1450
(dp1451
g74
(dp1452
g82
I4
ssg83
g1446
sg76
(lp1453
S'http://127.0.0.1:8000/topoi/plugin_listandedit/list/notes/1?fields=author&fields=work&fields=reference'
p1454
asbasbasbag69
(g85
g71
NtRp1455
(dp1456
g74
(dp1457
sg83
g1118
sg76
(lp1458
g69
(g90
g71
NtRp1459
(dp1460
g74
(dp1461
g94
g95
ssg83
g1455
sg76
(lp1462
S'http_user_agent'
p1463
asbag69
(g90
g71
NtRp1464
(dp1465
g74
(dp1466
g101
g102
ssg83
g1455
sg76
(lp1467
S':'
asbag69
(g90
g71
NtRp1468
(dp1469
g74
(dp1470
sg83
g1455
sg76
(lp1471
g69
(g70
g71
NtRp1472
(dp1473
g74
(dp1474
g82
I4
ssg83
g1468
sg76
(lp1475
S'Mozilla/5.0 (Ubuntu; X11; Linux x86_64; rv:9.0.1) Gecko/20100101 Firefox/9.0.1'
p1476
asbasbasbag69
(g85
g71
NtRp1477
(dp1478
g74
(dp1479
sg83
g1118
sg76
(lp1480
g69
(g90
g71
NtRp1481
(dp1482
g74
(dp1483
g94
g95
ssg83
g1477
sg76
(lp1484
S'http_web2py_component_element'
p1485
asbag69
(g90
g71
NtRp1486
(dp1487
g74
(dp1488
g101
g102
ssg83
g1477
sg76
(lp1489
S':'
asbag69
(g90
g71
NtRp1490
(dp1491
g74
(dp1492
sg83
g1477
sg76
(lp1493
g69
(g70
g71
NtRp1494
(dp1495
g74
(dp1496
g82
I4
ssg83
g1490
sg76
(lp1497
g279
asbasbasbag69
(g85
g71
NtRp1498
(dp1499
g74
(dp1500
sg83
g1118
sg76
(lp1501
g69
(g90
g71
NtRp1502
(dp1503
g74
(dp1504
g94
g95
ssg83
g1498
sg76
(lp1505
S'http_web2py_component_location'
p1506
asbag69
(g90
g71
NtRp1507
(dp1508
g74
(dp1509
g101
g102
ssg83
g1498
sg76
(lp1510
S':'
asbag69
(g90
g71
NtRp1511
(dp1512
g74
(dp1513
sg83
g1498
sg76
(lp1514
g69
(g70
g71
NtRp1515
(dp1516
g74
(dp1517
g82
I4
ssg83
g1511
sg76
(lp1518
S'http://127.0.0.1:8000/topoi/plugin_listandedit/list/notes/1?fields=author&fields=work&fields=reference'
p1519
asbasbasbag69
(g85
g71
NtRp1520
(dp1521
g74
(dp1522
sg83
g1118
sg76
(lp1523
g69
(g90
g71
NtRp1524
(dp1525
g74
(dp1526
g94
g95
ssg83
g1520
sg76
(lp1527
S'http_x_requested_with'
p1528
asbag69
(g90
g71
NtRp1529
(dp1530
g74
(dp1531
g101
g102
ssg83
g1520
sg76
(lp1532
S':'
asbag69
(g90
g71
NtRp1533
(dp1534
g74
(dp1535
sg83
g1520
sg76
(lp1536
g69
(g70
g71
NtRp1537
(dp1538
g74
(dp1539
g82
I4
ssg83
g1533
sg76
(lp1540
S'XMLHttpRequest'
p1541
asbasbasbag69
(g85
g71
NtRp1542
(dp1543
g74
(dp1544
sg83
g1118
sg76
(lp1545
g69
(g90
g71
NtRp1546
(dp1547
g74
(dp1548
g94
g95
ssg83
g1542
sg76
(lp1549
S'is_jython'
p1550
asbag69
(g90
g71
NtRp1551
(dp1552
g74
(dp1553
g101
g102
ssg83
g1542
sg76
(lp1554
S':'
asbag69
(g90
g71
NtRp1555
(dp1556
g74
(dp1557
sg83
g1542
sg76
(lp1558
g69
(g70
g71
NtRp1559
(dp1560
g74
(dp1561
g82
I4
ssg83
g1555
sg76
(lp1562
g1256
asbasbasbag69
(g85
g71
NtRp1563
(dp1564
g74
(dp1565
sg83
g1118
sg76
(lp1566
g69
(g90
g71
NtRp1567
(dp1568
g74
(dp1569
g94
g95
ssg83
g1563
sg76
(lp1570
S'is_pypy'
p1571
asbag69
(g90
g71
NtRp1572
(dp1573
g74
(dp1574
g101
g102
ssg83
g1563
sg76
(lp1575
S':'
asbag69
(g90
g71
NtRp1576
(dp1577
g74
(dp1578
sg83
g1563
sg76
(lp1579
g69
(g70
g71
NtRp1580
(dp1581
g74
(dp1582
g82
I4
ssg83
g1576
sg76
(lp1583
g1256
asbasbasbag69
(g85
g71
NtRp1584
(dp1585
g74
(dp1586
sg83
g1118
sg76
(lp1587
g69
(g90
g71
NtRp1588
(dp1589
g74
(dp1590
g94
g95
ssg83
g1584
sg76
(lp1591
S'path_info'
p1592
asbag69
(g90
g71
NtRp1593
(dp1594
g74
(dp1595
g101
g102
ssg83
g1584
sg76
(lp1596
S':'
asbag69
(g90
g71
NtRp1597
(dp1598
g74
(dp1599
sg83
g1584
sg76
(lp1600
g69
(g70
g71
NtRp1601
(dp1602
g74
(dp1603
g82
I4
ssg83
g1597
sg76
(lp1604
S'/topoi/plugin_ajaxselect/set_widget.load/notes/work/7/works/notes_work_loader/14'
p1605
asbasbasbag69
(g85
g71
NtRp1606
(dp1607
g74
(dp1608
sg83
g1118
sg76
(lp1609
g69
(g90
g71
NtRp1610
(dp1611
g74
(dp1612
g94
g95
ssg83
g1606
sg76
(lp1613
S'query_string'
p1614
asbag69
(g90
g71
NtRp1615
(dp1616
g74
(dp1617
g101
g102
ssg83
g1606
sg76
(lp1618
S':'
asbag69
(g90
g71
NtRp1619
(dp1620
g74
(dp1621
sg83
g1606
sg76
(lp1622
g69
(g70
g71
NtRp1623
(dp1624
g74
(dp1625
g82
I4
ssg83
g1619
sg76
(lp1626
S''
asbasbasbag69
(g85
g71
NtRp1627
(dp1628
g74
(dp1629
sg83
g1118
sg76
(lp1630
g69
(g90
g71
NtRp1631
(dp1632
g74
(dp1633
g94
g95
ssg83
g1627
sg76
(lp1634
S'remote_addr'
p1635
asbag69
(g90
g71
NtRp1636
(dp1637
g74
(dp1638
g101
g102
ssg83
g1627
sg76
(lp1639
S':'
asbag69
(g90
g71
NtRp1640
(dp1641
g74
(dp1642
sg83
g1627
sg76
(lp1643
g69
(g70
g71
NtRp1644
(dp1645
g74
(dp1646
g82
I4
ssg83
g1640
sg76
(lp1647
g301
asbasbasbag69
(g85
g71
NtRp1648
(dp1649
g74
(dp1650
sg83
g1118
sg76
(lp1651
g69
(g90
g71
NtRp1652
(dp1653
g74
(dp1654
g94
g95
ssg83
g1648
sg76
(lp1655
S'remote_port'
p1656
asbag69
(g90
g71
NtRp1657
(dp1658
g74
(dp1659
g101
g102
ssg83
g1648
sg76
(lp1660
S':'
asbag69
(g90
g71
NtRp1661
(dp1662
g74
(dp1663
sg83
g1648
sg76
(lp1664
g69
(g70
g71
NtRp1665
(dp1666
g74
(dp1667
g82
I4
ssg83
g1661
sg76
(lp1668
S'53630'
p1669
asbasbasbag69
(g85
g71
NtRp1670
(dp1671
g74
(dp1672
sg83
g1118
sg76
(lp1673
g69
(g90
g71
NtRp1674
(dp1675
g74
(dp1676
g94
g95
ssg83
g1670
sg76
(lp1677
S'request_method'
p1678
asbag69
(g90
g71
NtRp1679
(dp1680
g74
(dp1681
g101
g102
ssg83
g1670
sg76
(lp1682
S':'
asbag69
(g90
g71
NtRp1683
(dp1684
g74
(dp1685
sg83
g1670
sg76
(lp1686
g69
(g70
g71
NtRp1687
(dp1688
g74
(dp1689
g82
I4
ssg83
g1683
sg76
(lp1690
S'GET'
p1691
asbasbasbag69
(g85
g71
NtRp1692
(dp1693
g74
(dp1694
sg83
g1118
sg76
(lp1695
g69
(g90
g71
NtRp1696
(dp1697
g74
(dp1698
g94
g95
ssg83
g1692
sg76
(lp1699
S'script_name'
p1700
asbag69
(g90
g71
NtRp1701
(dp1702
g74
(dp1703
g101
g102
ssg83
g1692
sg76
(lp1704
S':'
asbag69
(g90
g71
NtRp1705
(dp1706
g74
(dp1707
sg83
g1692
sg76
(lp1708
g69
(g70
g71
NtRp1709
(dp1710
g74
(dp1711
g82
I4
ssg83
g1705
sg76
(lp1712
S''
asbasbasbag69
(g85
g71
NtRp1713
(dp1714
g74
(dp1715
sg83
g1118
sg76
(lp1716
g69
(g90
g71
NtRp1717
(dp1718
g74
(dp1719
g94
g95
ssg83
g1713
sg76
(lp1720
S'server_name'
p1721
asbag69
(g90
g71
NtRp1722
(dp1723
g74
(dp1724
g101
g102
ssg83
g1713
sg76
(lp1725
S':'
asbag69
(g90
g71
NtRp1726
(dp1727
g74
(dp1728
sg83
g1713
sg76
(lp1729
g69
(g70
g71
NtRp1730
(dp1731
g74
(dp1732
g82
I4
ssg83
g1726
sg76
(lp1733
S'uriel'
p1734
asbasbasbag69
(g85
g71
NtRp1735
(dp1736
g74
(dp1737
sg83
g1118
sg76
(lp1738
g69
(g90
g71
NtRp1739
(dp1740
g74
(dp1741
g94
g95
ssg83
g1735
sg76
(lp1742
S'server_port'
p1743
asbag69
(g90
g71
NtRp1744
(dp1745
g74
(dp1746
g101
g102
ssg83
g1735
sg76
(lp1747
S':'
asbag69
(g90
g71
NtRp1748
(dp1749
g74
(dp1750
sg83
g1735
sg76
(lp1751
g69
(g70
g71
NtRp1752
(dp1753
g74
(dp1754
g82
I4
ssg83
g1748
sg76
(lp1755
S'8000'
p1756
asbasbasbag69
(g85
g71
NtRp1757
(dp1758
g74
(dp1759
sg83
g1118
sg76
(lp1760
g69
(g90
g71
NtRp1761
(dp1762
g74
(dp1763
g94
g95
ssg83
g1757
sg76
(lp1764
S'server_protocol'
p1765
asbag69
(g90
g71
NtRp1766
(dp1767
g74
(dp1768
g101
g102
ssg83
g1757
sg76
(lp1769
S':'
asbag69
(g90
g71
NtRp1770
(dp1771
g74
(dp1772
sg83
g1757
sg76
(lp1773
g69
(g70
g71
NtRp1774
(dp1775
g74
(dp1776
g82
I4
ssg83
g1770
sg76
(lp1777
S'HTTP/1.1'
p1778
asbasbasbag69
(g85
g71
NtRp1779
(dp1780
g74
(dp1781
sg83
g1118
sg76
(lp1782
g69
(g90
g71
NtRp1783
(dp1784
g74
(dp1785
g94
g95
ssg83
g1779
sg76
(lp1786
S'server_software'
p1787
asbag69
(g90
g71
NtRp1788
(dp1789
g74
(dp1790
g101
g102
ssg83
g1779
sg76
(lp1791
S':'
asbag69
(g90
g71
NtRp1792
(dp1793
g74
(dp1794
sg83
g1779
sg76
(lp1795
g69
(g70
g71
NtRp1796
(dp1797
g74
(dp1798
g82
I4
ssg83
g1792
sg76
(lp1799
S'Rocket 1.2.4'
p1800
asbasbasbag69
(g85
g71
NtRp1801
(dp1802
g74
(dp1803
sg83
g1118
sg76
(lp1804
g69
(g90
g71
NtRp1805
(dp1806
g74
(dp1807
g94
g95
ssg83
g1801
sg76
(lp1808
S'web2py_crontype'
p1809
asbag69
(g90
g71
NtRp1810
(dp1811
g74
(dp1812
g101
g102
ssg83
g1801
sg76
(lp1813
S':'
asbag69
(g90
g71
NtRp1814
(dp1815
g74
(dp1816
sg83
g1801
sg76
(lp1817
g69
(g70
g71
NtRp1818
(dp1819
g74
(dp1820
g82
I4
ssg83
g1814
sg76
(lp1821
S'hard'
p1822
asbasbasbag69
(g85
g71
NtRp1823
(dp1824
g74
(dp1825
sg83
g1118
sg76
(lp1826
g69
(g90
g71
NtRp1827
(dp1828
g74
(dp1829
g94
g95
ssg83
g1823
sg76
(lp1830
S'web2py_path'
p1831
asbag69
(g90
g71
NtRp1832
(dp1833
g74
(dp1834
g101
g102
ssg83
g1823
sg76
(lp1835
S':'
asbag69
(g90
g71
NtRp1836
(dp1837
g74
(dp1838
sg83
g1823
sg76
(lp1839
g69
(g70
g71
NtRp1840
(dp1841
g74
(dp1842
g82
I4
ssg83
g1836
sg76
(lp1843
g1165
asbasbasbag69
(g85
g71
NtRp1844
(dp1845
g74
(dp1846
sg83
g1118
sg76
(lp1847
g69
(g90
g71
NtRp1848
(dp1849
g74
(dp1850
g94
g95
ssg83
g1844
sg76
(lp1851
S'web2py_version'
p1852
asbag69
(g90
g71
NtRp1853
(dp1854
g74
(dp1855
g101
g102
ssg83
g1844
sg76
(lp1856
S':'
asbag69
(g90
g71
NtRp1857
(dp1858
g74
(dp1859
sg83
g1844
sg76
(lp1860
g69
(g70
g71
NtRp1861
(dp1862
g74
(dp1863
g82
I4
ssg83
g1857
sg76
(lp1864
g69
(g78
g71
NtRp1865
(dp1866
g74
(dp1867
g82
I3
ssg83
Nsg76
(lp1868
g69
(g85
g71
NtRp1869
(dp1870
g74
(dp1871
sg83
g1865
sg76
(lp1872
g69
(g90
g71
NtRp1873
(dp1874
g74
(dp1875
sg83
g1869
sg76
(lp1876
g69
(g70
g71
NtRp1877
(dp1878
g74
(dp1879
g82
I3
ssg83
g1873
sg76
(lp1880
S'1'
asbasbasbag69
(g85
g71
NtRp1881
(dp1882
g74
(dp1883
sg83
g1865
sg76
(lp1884
g69
(g90
g71
NtRp1885
(dp1886
g74
(dp1887
sg83
g1881
sg76
(lp1888
g69
(g70
g71
NtRp1889
(dp1890
g74
(dp1891
g82
I3
ssg83
g1885
sg76
(lp1892
S'99'
p1893
asbasbasbag69
(g85
g71
NtRp1894
(dp1895
g74
(dp1896
sg83
g1865
sg76
(lp1897
g69
(g90
g71
NtRp1898
(dp1899
g74
(dp1900
sg83
g1894
sg76
(lp1901
g69
(g70
g71
NtRp1902
(dp1903
g74
(dp1904
g82
I3
ssg83
g1898
sg76
(lp1905
S'4'
asbasbasbag69
(g85
g71
NtRp1906
(dp1907
g74
(dp1908
sg83
g1865
sg76
(lp1909
g69
(g90
g71
NtRp1910
(dp1911
g74
(dp1912
sg83
g1906
sg76
(lp1913
g69
(g70
g71
NtRp1914
(dp1915
g74
(dp1916
g82
I3
ssg83
g1910
sg76
(lp1917
S'datetime.datetime(2011, 12, 14, 14, 46, 14)'
p1918
asbasbasbag69
(g85
g71
NtRp1919
(dp1920
g74
(dp1921
sg83
g1865
sg76
(lp1922
g69
(g90
g71
NtRp1923
(dp1924
g74
(dp1925
sg83
g1919
sg76
(lp1926
g69
(g70
g71
NtRp1927
(dp1928
g74
(dp1929
g82
I3
ssg83
g1923
sg76
(lp1930
S'stable'
p1931
asbasbasbasbasbasbasbag69
(g85
g71
NtRp1932
(dp1933
g74
(dp1934
sg83
g1118
sg76
(lp1935
g69
(g90
g71
NtRp1936
(dp1937
g74
(dp1938
g94
g95
ssg83
g1932
sg76
(lp1939
S'wsgi_errors'
p1940
asbag69
(g90
g71
NtRp1941
(dp1942
g74
(dp1943
g101
g102
ssg83
g1932
sg76
(lp1944
S':'
asbag69
(g90
g71
NtRp1945
(dp1946
g74
(dp1947
sg83
g1932
sg76
(lp1948
g69
(g70
g71
NtRp1949
(dp1950
g74
(dp1951
g82
I4
ssg83
g1945
sg76
(lp1952
S"<open file '<stderr>', mode 'w' at 0x7f03769a3270>"
p1953
asbasbasbag69
(g85
g71
NtRp1954
(dp1955
g74
(dp1956
sg83
g1118
sg76
(lp1957
g69
(g90
g71
NtRp1958
(dp1959
g74
(dp1960
g94
g95
ssg83
g1954
sg76
(lp1961
S'wsgi_file_wrapper'
p1962
asbag69
(g90
g71
NtRp1963
(dp1964
g74
(dp1965
g101
g102
ssg83
g1954
sg76
(lp1966
S':'
asbag69
(g90
g71
NtRp1967
(dp1968
g74
(dp1969
sg83
g1954
sg76
(lp1970
g69
(g70
g71
NtRp1971
(dp1972
g74
(dp1973
g82
I4
ssg83
g1967
sg76
(lp1974
S'<class wsgiref.util.FileWrapper at 0x1735ce8>'
p1975
asbasbasbag69
(g85
g71
NtRp1976
(dp1977
g74
(dp1978
sg83
g1118
sg76
(lp1979
g69
(g90
g71
NtRp1980
(dp1981
g74
(dp1982
g94
g95
ssg83
g1976
sg76
(lp1983
S'wsgi_input'
p1984
asbag69
(g90
g71
NtRp1985
(dp1986
g74
(dp1987
g101
g102
ssg83
g1976
sg76
(lp1988
S':'
asbag69
(g90
g71
NtRp1989
(dp1990
g74
(dp1991
sg83
g1976
sg76
(lp1992
g69
(g70
g71
NtRp1993
(dp1994
g74
(dp1995
g82
I4
ssg83
g1989
sg76
(lp1996
S'<socket._fileobject object at 0x2a496d0>'
p1997
asbasbasbag69
(g85
g71
NtRp1998
(dp1999
g74
(dp2000
sg83
g1118
sg76
(lp2001
g69
(g90
g71
NtRp2002
(dp2003
g74
(dp2004
g94
g95
ssg83
g1998
sg76
(lp2005
S'wsgi_multiprocess'
p2006
asbag69
(g90
g71
NtRp2007
(dp2008
g74
(dp2009
g101
g102
ssg83
g1998
sg76
(lp2010
S':'
asbag69
(g90
g71
NtRp2011
(dp2012
g74
(dp2013
sg83
g1998
sg76
(lp2014
g69
(g70
g71
NtRp2015
(dp2016
g74
(dp2017
g82
I4
ssg83
g2011
sg76
(lp2018
g1256
asbasbasbag69
(g85
g71
NtRp2019
(dp2020
g74
(dp2021
sg83
g1118
sg76
(lp2022
g69
(g90
g71
NtRp2023
(dp2024
g74
(dp2025
g94
g95
ssg83
g2019
sg76
(lp2026
S'wsgi_multithread'
p2027
asbag69
(g90
g71
NtRp2028
(dp2029
g74
(dp2030
g101
g102
ssg83
g2019
sg76
(lp2031
S':'
asbag69
(g90
g71
NtRp2032
(dp2033
g74
(dp2034
sg83
g2019
sg76
(lp2035
g69
(g70
g71
NtRp2036
(dp2037
g74
(dp2038
g82
I4
ssg83
g2032
sg76
(lp2039
g112
asbasbasbag69
(g85
g71
NtRp2040
(dp2041
g74
(dp2042
sg83
g1118
sg76
(lp2043
g69
(g90
g71
NtRp2044
(dp2045
g74
(dp2046
g94
g95
ssg83
g2040
sg76
(lp2047
S'wsgi_run_once'
p2048
asbag69
(g90
g71
NtRp2049
(dp2050
g74
(dp2051
g101
g102
ssg83
g2040
sg76
(lp2052
S':'
asbag69
(g90
g71
NtRp2053
(dp2054
g74
(dp2055
sg83
g2040
sg76
(lp2056
g69
(g70
g71
NtRp2057
(dp2058
g74
(dp2059
g82
I4
ssg83
g2053
sg76
(lp2060
g1256
asbasbasbag69
(g85
g71
NtRp2061
(dp2062
g74
(dp2063
sg83
g1118
sg76
(lp2064
g69
(g90
g71
NtRp2065
(dp2066
g74
(dp2067
g94
g95
ssg83
g2061
sg76
(lp2068
S'wsgi_url_scheme'
p2069
asbag69
(g90
g71
NtRp2070
(dp2071
g74
(dp2072
g101
g102
ssg83
g2061
sg76
(lp2073
S':'
asbag69
(g90
g71
NtRp2074
(dp2075
g74
(dp2076
sg83
g2061
sg76
(lp2077
g69
(g70
g71
NtRp2078
(dp2079
g74
(dp2080
g82
I4
ssg83
g2074
sg76
(lp2081
S'http'
p2082
asbasbasbag69
(g85
g71
NtRp2083
(dp2084
g74
(dp2085
sg83
g1118
sg76
(lp2086
g69
(g90
g71
NtRp2087
(dp2088
g74
(dp2089
g94
g95
ssg83
g2083
sg76
(lp2090
S'wsgi_version'
p2091
asbag69
(g90
g71
NtRp2092
(dp2093
g74
(dp2094
g101
g102
ssg83
g2083
sg76
(lp2095
S':'
asbag69
(g90
g71
NtRp2096
(dp2097
g74
(dp2098
sg83
g2083
sg76
(lp2099
g69
(g70
g71
NtRp2100
(dp2101
g74
(dp2102
g82
I4
ssg83
g2096
sg76
(lp2103
g69
(g78
g71
NtRp2104
(dp2105
g74
(dp2106
g82
I3
ssg83
Nsg76
(lp2107
g69
(g85
g71
NtRp2108
(dp2109
g74
(dp2110
sg83
g2104
sg76
(lp2111
g69
(g90
g71
NtRp2112
(dp2113
g74
(dp2114
sg83
g2108
sg76
(lp2115
g69
(g70
g71
NtRp2116
(dp2117
g74
(dp2118
g82
I3
ssg83
g2112
sg76
(lp2119
S'1'
asbasbasbag69
(g85
g71
NtRp2120
(dp2121
g74
(dp2122
sg83
g2104
sg76
(lp2123
g69
(g90
g71
NtRp2124
(dp2125
g74
(dp2126
sg83
g2120
sg76
(lp2127
g69
(g70
g71
NtRp2128
(dp2129
g74
(dp2130
g82
I3
ssg83
g2124
sg76
(lp2131
S'0'
asbasbasbasbasbasbasbasbasbasbasbag69
(g85
g71
NtRp2132
(dp2133
g74
(dp2134
sg83
g79
sg76
(lp2135
g69
(g90
g71
NtRp2136
(dp2137
g74
(dp2138
g94
g95
ssg83
g2132
sg76
(lp2139
S'extension'
p2140
asbag69
(g90
g71
NtRp2141
(dp2142
g74
(dp2143
g101
g102
ssg83
g2132
sg76
(lp2144
S':'
asbag69
(g90
g71
NtRp2145
(dp2146
g74
(dp2147
sg83
g2132
sg76
(lp2148
g69
(g70
g71
NtRp2149
(dp2150
g74
(dp2151
g82
I5
ssg83
g2145
sg76
(lp2152
S'load'
p2153
asbasbasbag69
(g85
g71
NtRp2154
(dp2155
g74
(dp2156
sg83
g79
sg76
(lp2157
g69
(g90
g71
NtRp2158
(dp2159
g74
(dp2160
g94
g95
ssg83
g2154
sg76
(lp2161
S'folder'
p2162
asbag69
(g90
g71
NtRp2163
(dp2164
g74
(dp2165
g101
g102
ssg83
g2154
sg76
(lp2166
S':'
asbag69
(g90
g71
NtRp2167
(dp2168
g74
(dp2169
sg83
g2154
sg76
(lp2170
g69
(g70
g71
NtRp2171
(dp2172
g74
(dp2173
g82
I5
ssg83
g2167
sg76
(lp2174
S'/home/ian/web2py/applications/topoi/'
p2175
asbasbasbag69
(g85
g71
NtRp2176
(dp2177
g74
(dp2178
sg83
g79
sg76
(lp2179
g69
(g90
g71
NtRp2180
(dp2181
g74
(dp2182
g94
g95
ssg83
g2176
sg76
(lp2183
S'function'
p2184
asbag69
(g90
g71
NtRp2185
(dp2186
g74
(dp2187
g101
g102
ssg83
g2176
sg76
(lp2188
S':'
asbag69
(g90
g71
NtRp2189
(dp2190
g74
(dp2191
sg83
g2176
sg76
(lp2192
g69
(g70
g71
NtRp2193
(dp2194
g74
(dp2195
g82
I5
ssg83
g2189
sg76
(lp2196
S'set_widget'
p2197
asbasbasbag69
(g85
g71
NtRp2198
(dp2199
g74
(dp2200
sg83
g79
sg76
(lp2201
g69
(g90
g71
NtRp2202
(dp2203
g74
(dp2204
g94
g95
ssg83
g2198
sg76
(lp2205
S'get_vars'
p2206
asbag69
(g90
g71
NtRp2207
(dp2208
g74
(dp2209
g101
g102
ssg83
g2198
sg76
(lp2210
S':'
asbag69
(g90
g71
NtRp2211
(dp2212
g74
(dp2213
sg83
g2198
sg76
(lp2214
g69
(g70
g71
NtRp2215
(dp2216
g74
(dp2217
g82
I5
ssg83
g2211
sg76
(lp2218
g69
(g78
g71
NtRp2219
(dp2220
g74
(dp2221
g82
I4
ssg83
Nsg76
(lp2222
sbasbasbasbag69
(g85
g71
NtRp2223
(dp2224
g74
(dp2225
sg83
g79
sg76
(lp2226
g69
(g90
g71
NtRp2227
(dp2228
g74
(dp2229
g94
g95
ssg83
g2223
sg76
(lp2230
S'global_settings'
p2231
asbag69
(g90
g71
NtRp2232
(dp2233
g74
(dp2234
g101
g102
ssg83
g2223
sg76
(lp2235
S':'
asbag69
(g90
g71
NtRp2236
(dp2237
g74
(dp2238
sg83
g2223
sg76
(lp2239
g69
(g70
g71
NtRp2240
(dp2241
g74
(dp2242
g82
I5
ssg83
g2236
sg76
(lp2243
g69
(g78
g71
NtRp2244
(dp2245
g74
(dp2246
g82
I4
ssg83
Nsg76
(lp2247
g69
(g85
g71
NtRp2248
(dp2249
g74
(dp2250
sg83
g2244
sg76
(lp2251
g69
(g90
g71
NtRp2252
(dp2253
g74
(dp2254
g94
g95
ssg83
g2248
sg76
(lp2255
g1130
asbag69
(g90
g71
NtRp2256
(dp2257
g74
(dp2258
g101
g102
ssg83
g2248
sg76
(lp2259
S':'
asbag69
(g90
g71
NtRp2260
(dp2261
g74
(dp2262
sg83
g2248
sg76
(lp2263
g69
(g70
g71
NtRp2264
(dp2265
g74
(dp2266
g82
I4
ssg83
g2260
sg76
(lp2267
S"set(['/home/ian/web2py/applications/topoi/', '/home/ian/web2py/applications/welcome/', '/home/ian/web2py/applications/admin/'])"
p2268
asbasbasbag69
(g85
g71
NtRp2269
(dp2270
g74
(dp2271
sg83
g2244
sg76
(lp2272
g69
(g90
g71
NtRp2273
(dp2274
g74
(dp2275
g94
g95
ssg83
g2269
sg76
(lp2276
g1152
asbag69
(g90
g71
NtRp2277
(dp2278
g74
(dp2279
g101
g102
ssg83
g2269
sg76
(lp2280
S':'
asbag69
(g90
g71
NtRp2281
(dp2282
g74
(dp2283
sg83
g2269
sg76
(lp2284
g69
(g70
g71
NtRp2285
(dp2286
g74
(dp2287
g82
I4
ssg83
g2281
sg76
(lp2288
g1165
asbasbasbag69
(g85
g71
NtRp2289
(dp2290
g74
(dp2291
sg83
g2244
sg76
(lp2292
g69
(g90
g71
NtRp2293
(dp2294
g74
(dp2295
g94
g95
ssg83
g2289
sg76
(lp2296
g1174
asbag69
(g90
g71
NtRp2297
(dp2298
g74
(dp2299
g101
g102
ssg83
g2289
sg76
(lp2300
S':'
asbag69
(g90
g71
NtRp2301
(dp2302
g74
(dp2303
sg83
g2289
sg76
(lp2304
g69
(g70
g71
NtRp2305
(dp2306
g74
(dp2307
g82
I4
ssg83
g2301
sg76
(lp2308
g69
(g78
g71
NtRp2309
(dp2310
g74
(dp2311
g82
I3
ssg83
Nsg76
(lp2312
sbasbasbasbag69
(g85
g71
NtRp2313
(dp2314
g74
(dp2315
sg83
g2244
sg76
(lp2316
g69
(g90
g71
NtRp2317
(dp2318
g74
(dp2319
g94
g95
ssg83
g2313
sg76
(lp2320
g1199
asbag69
(g90
g71
NtRp2321
(dp2322
g74
(dp2323
g101
g102
ssg83
g2313
sg76
(lp2324
S':'
asbag69
(g90
g71
NtRp2325
(dp2326
g74
(dp2327
sg83
g2313
sg76
(lp2328
g69
(g70
g71
NtRp2329
(dp2330
g74
(dp2331
g82
I4
ssg83
g2325
sg76
(lp2332
S"<Values at 0x1878a70: {'verbose': False, 'ip': '127.0.0.1', 'shutdown_timeout': 5, 'taskbar': False, 'nocron': False, 'pid_filename': 'httpserver.pid', 'maxthreads': None, 'softcron': False, 'server_name': 'uriel', 'bpython': False, 'nogui': False, 'port': 8000, 'extcron': False, 'debuglevel': 30, 'test': None, 'folder': '/home/ian/web2py', 'config': '', 'import_models': False, 'winservice': '', 'shell': None, 'run': '', 'log_filename': 'httpserver.log', 'args': [''], 'socket_timeout': 1, 'ssl_ca_certificate': None, 'scheduler': None, 'profiler_filename': None, 'ssl_private_key': '', 'password': '<ask>', 'request_queue_size': 5, 'ssl_certificate': '', 'cronjob': False, 'numthreads': None, 'quiet': False, 'interfaces': None, 'minthreads': None, 'timeout': 10, 'plain': False, 'nobanner': False}>"
p2333
asbasbasbag69
(g85
g71
NtRp2334
(dp2335
g74
(dp2336
sg83
g2244
sg76
(lp2337
g69
(g90
g71
NtRp2338
(dp2339
g74
(dp2340
g94
g95
ssg83
g2334
sg76
(lp2341
g1221
asbag69
(g90
g71
NtRp2342
(dp2343
g74
(dp2344
g101
g102
ssg83
g2334
sg76
(lp2345
S':'
asbag69
(g90
g71
NtRp2346
(dp2347
g74
(dp2348
sg83
g2334
sg76
(lp2349
g69
(g70
g71
NtRp2350
(dp2351
g74
(dp2352
g82
I4
ssg83
g2346
sg76
(lp2353
S'set([])'
p2354
asbasbasbag69
(g85
g71
NtRp2355
(dp2356
g74
(dp2357
sg83
g2244
sg76
(lp2358
g69
(g90
g71
NtRp2359
(dp2360
g74
(dp2361
g94
g95
ssg83
g2355
sg76
(lp2362
g1243
asbag69
(g90
g71
NtRp2363
(dp2364
g74
(dp2365
g101
g102
ssg83
g2355
sg76
(lp2366
S':'
asbag69
(g90
g71
NtRp2367
(dp2368
g74
(dp2369
sg83
g2355
sg76
(lp2370
g69
(g70
g71
NtRp2371
(dp2372
g74
(dp2373
g82
I4
ssg83
g2367
sg76
(lp2374
g1256
asbasbasbag69
(g85
g71
NtRp2375
(dp2376
g74
(dp2377
sg83
g2244
sg76
(lp2378
g69
(g90
g71
NtRp2379
(dp2380
g74
(dp2381
g94
g95
ssg83
g2375
sg76
(lp2382
g1265
asbag69
(g90
g71
NtRp2383
(dp2384
g74
(dp2385
g101
g102
ssg83
g2375
sg76
(lp2386
S':'
asbag69
(g90
g71
NtRp2387
(dp2388
g74
(dp2389
sg83
g2375
sg76
(lp2390
g69
(g70
g71
NtRp2391
(dp2392
g74
(dp2393
g82
I4
ssg83
g2387
sg76
(lp2394
g1278
asbasbasbag69
(g85
g71
NtRp2395
(dp2396
g74
(dp2397
sg83
g2244
sg76
(lp2398
g69
(g90
g71
NtRp2399
(dp2400
g74
(dp2401
g94
g95
ssg83
g2395
sg76
(lp2402
g1550
asbag69
(g90
g71
NtRp2403
(dp2404
g74
(dp2405
g101
g102
ssg83
g2395
sg76
(lp2406
S':'
asbag69
(g90
g71
NtRp2407
(dp2408
g74
(dp2409
sg83
g2395
sg76
(lp2410
g69
(g70
g71
NtRp2411
(dp2412
g74
(dp2413
g82
I4
ssg83
g2407
sg76
(lp2414
g1256
asbasbasbag69
(g85
g71
NtRp2415
(dp2416
g74
(dp2417
sg83
g2244
sg76
(lp2418
g69
(g90
g71
NtRp2419
(dp2420
g74
(dp2421
g94
g95
ssg83
g2415
sg76
(lp2422
g1571
asbag69
(g90
g71
NtRp2423
(dp2424
g74
(dp2425
g101
g102
ssg83
g2415
sg76
(lp2426
S':'
asbag69
(g90
g71
NtRp2427
(dp2428
g74
(dp2429
sg83
g2415
sg76
(lp2430
g69
(g70
g71
NtRp2431
(dp2432
g74
(dp2433
g82
I4
ssg83
g2427
sg76
(lp2434
g1256
asbasbasbag69
(g85
g71
NtRp2435
(dp2436
g74
(dp2437
sg83
g2244
sg76
(lp2438
g69
(g90
g71
NtRp2439
(dp2440
g74
(dp2441
g94
g95
ssg83
g2435
sg76
(lp2442
g1809
asbag69
(g90
g71
NtRp2443
(dp2444
g74
(dp2445
g101
g102
ssg83
g2435
sg76
(lp2446
S':'
asbag69
(g90
g71
NtRp2447
(dp2448
g74
(dp2449
sg83
g2435
sg76
(lp2450
g69
(g70
g71
NtRp2451
(dp2452
g74
(dp2453
g82
I4
ssg83
g2447
sg76
(lp2454
g1822
asbasbasbag69
(g85
g71
NtRp2455
(dp2456
g74
(dp2457
sg83
g2244
sg76
(lp2458
g69
(g90
g71
NtRp2459
(dp2460
g74
(dp2461
g94
g95
ssg83
g2455
sg76
(lp2462
g1852
asbag69
(g90
g71
NtRp2463
(dp2464
g74
(dp2465
g101
g102
ssg83
g2455
sg76
(lp2466
S':'
asbag69
(g90
g71
NtRp2467
(dp2468
g74
(dp2469
sg83
g2455
sg76
(lp2470
g69
(g70
g71
NtRp2471
(dp2472
g74
(dp2473
g82
I4
ssg83
g2467
sg76
(lp2474
g69
(g78
g71
NtRp2475
(dp2476
g74
(dp2477
g82
I3
ssg83
Nsg76
(lp2478
g69
(g85
g71
NtRp2479
(dp2480
g74
(dp2481
sg83
g2475
sg76
(lp2482
g69
(g90
g71
NtRp2483
(dp2484
g74
(dp2485
sg83
g2479
sg76
(lp2486
g69
(g70
g71
NtRp2487
(dp2488
g74
(dp2489
g82
I3
ssg83
g2483
sg76
(lp2490
S'1'
asbasbasbag69
(g85
g71
NtRp2491
(dp2492
g74
(dp2493
sg83
g2475
sg76
(lp2494
g69
(g90
g71
NtRp2495
(dp2496
g74
(dp2497
sg83
g2491
sg76
(lp2498
g69
(g70
g71
NtRp2499
(dp2500
g74
(dp2501
g82
I3
ssg83
g2495
sg76
(lp2502
S'99'
p2503
asbasbasbag69
(g85
g71
NtRp2504
(dp2505
g74
(dp2506
sg83
g2475
sg76
(lp2507
g69
(g90
g71
NtRp2508
(dp2509
g74
(dp2510
sg83
g2504
sg76
(lp2511
g69
(g70
g71
NtRp2512
(dp2513
g74
(dp2514
g82
I3
ssg83
g2508
sg76
(lp2515
S'4'
asbasbasbag69
(g85
g71
NtRp2516
(dp2517
g74
(dp2518
sg83
g2475
sg76
(lp2519
g69
(g90
g71
NtRp2520
(dp2521
g74
(dp2522
sg83
g2516
sg76
(lp2523
g69
(g70
g71
NtRp2524
(dp2525
g74
(dp2526
g82
I3
ssg83
g2520
sg76
(lp2527
S'datetime.datetime(2011, 12, 14, 14, 46, 14)'
p2528
asbasbasbag69
(g85
g71
NtRp2529
(dp2530
g74
(dp2531
sg83
g2475
sg76
(lp2532
g69
(g90
g71
NtRp2533
(dp2534
g74
(dp2535
sg83
g2529
sg76
(lp2536
g69
(g70
g71
NtRp2537
(dp2538
g74
(dp2539
g82
I3
ssg83
g2533
sg76
(lp2540
g1931
asbasbasbasbasbasbasbasbasbasbasbag69
(g85
g71
NtRp2541
(dp2542
g74
(dp2543
sg83
g79
sg76
(lp2544
g69
(g90
g71
NtRp2545
(dp2546
g74
(dp2547
g94
g95
ssg83
g2541
sg76
(lp2548
S'is_https'
p2549
asbag69
(g90
g71
NtRp2550
(dp2551
g74
(dp2552
g101
g102
ssg83
g2541
sg76
(lp2553
S':'
asbag69
(g90
g71
NtRp2554
(dp2555
g74
(dp2556
sg83
g2541
sg76
(lp2557
g69
(g70
g71
NtRp2558
(dp2559
g74
(dp2560
g82
I5
ssg83
g2554
sg76
(lp2561
g1256
asbasbasbag69
(g85
g71
NtRp2562
(dp2563
g74
(dp2564
sg83
g79
sg76
(lp2565
g69
(g90
g71
NtRp2566
(dp2567
g74
(dp2568
g94
g95
ssg83
g2562
sg76
(lp2569
S'is_local'
p2570
asbag69
(g90
g71
NtRp2571
(dp2572
g74
(dp2573
g101
g102
ssg83
g2562
sg76
(lp2574
S':'
asbag69
(g90
g71
NtRp2575
(dp2576
g74
(dp2577
sg83
g2562
sg76
(lp2578
g69
(g70
g71
NtRp2579
(dp2580
g74
(dp2581
g82
I5
ssg83
g2575
sg76
(lp2582
g112
asbasbasbag69
(g85
g71
NtRp2583
(dp2584
g74
(dp2585
sg83
g79
sg76
(lp2586
g69
(g90
g71
NtRp2587
(dp2588
g74
(dp2589
g94
g95
ssg83
g2583
sg76
(lp2590
S'is_restful'
p2591
asbag69
(g90
g71
NtRp2592
(dp2593
g74
(dp2594
g101
g102
ssg83
g2583
sg76
(lp2595
S':'
asbag69
(g90
g71
NtRp2596
(dp2597
g74
(dp2598
sg83
g2583
sg76
(lp2599
g69
(g70
g71
NtRp2600
(dp2601
g74
(dp2602
g82
I5
ssg83
g2596
sg76
(lp2603
g1256
asbasbasbag69
(g85
g71
NtRp2604
(dp2605
g74
(dp2606
sg83
g79
sg76
(lp2607
g69
(g90
g71
NtRp2608
(dp2609
g74
(dp2610
g94
g95
ssg83
g2604
sg76
(lp2611
S'now'
p2612
asbag69
(g90
g71
NtRp2613
(dp2614
g74
(dp2615
g101
g102
ssg83
g2604
sg76
(lp2616
S':'
asbag69
(g90
g71
NtRp2617
(dp2618
g74
(dp2619
sg83
g2604
sg76
(lp2620
g69
(g70
g71
NtRp2621
(dp2622
g74
(dp2623
g82
I5
ssg83
g2617
sg76
(lp2624
S'datetime.datetime(2012, 1, 9, 18, 11, 31, 603698)'
p2625
asbasbasbag69
(g85
g71
NtRp2626
(dp2627
g74
(dp2628
sg83
g79
sg76
(lp2629
g69
(g90
g71
NtRp2630
(dp2631
g74
(dp2632
g94
g95
ssg83
g2626
sg76
(lp2633
S'post_vars'
p2634
asbag69
(g90
g71
NtRp2635
(dp2636
g74
(dp2637
g101
g102
ssg83
g2626
sg76
(lp2638
S':'
asbag69
(g90
g71
NtRp2639
(dp2640
g74
(dp2641
sg83
g2626
sg76
(lp2642
g69
(g70
g71
NtRp2643
(dp2644
g74
(dp2645
g82
I5
ssg83
g2639
sg76
(lp2646
g69
(g78
g71
NtRp2647
(dp2648
g74
(dp2649
g82
I4
ssg83
Nsg76
(lp2650
sbasbasbasbag69
(g85
g71
NtRp2651
(dp2652
g74
(dp2653
sg83
g79
sg76
(lp2654
g69
(g90
g71
NtRp2655
(dp2656
g74
(dp2657
g94
g95
ssg83
g2651
sg76
(lp2658
S'raw_args'
p2659
asbag69
(g90
g71
NtRp2660
(dp2661
g74
(dp2662
g101
g102
ssg83
g2651
sg76
(lp2663
S':'
asbag69
(g90
g71
NtRp2664
(dp2665
g74
(dp2666
sg83
g2651
sg76
(lp2667
g69
(g70
g71
NtRp2668
(dp2669
g74
(dp2670
g82
I5
ssg83
g2664
sg76
(lp2671
S'notes/work/7/works/notes_work_loader/14'
p2672
asbasbasbag69
(g85
g71
NtRp2673
(dp2674
g74
(dp2675
sg83
g79
sg76
(lp2676
g69
(g90
g71
NtRp2677
(dp2678
g74
(dp2679
g94
g95
ssg83
g2673
sg76
(lp2680
S'raw_extension'
p2681
asbag69
(g90
g71
NtRp2682
(dp2683
g74
(dp2684
g101
g102
ssg83
g2673
sg76
(lp2685
S':'
asbag69
(g90
g71
NtRp2686
(dp2687
g74
(dp2688
sg83
g2673
sg76
(lp2689
g69
(g70
g71
NtRp2690
(dp2691
g74
(dp2692
g82
I5
ssg83
g2686
sg76
(lp2693
g2153
asbasbasbag69
(g85
g71
NtRp2694
(dp2695
g74
(dp2696
sg83
g79
sg76
(lp2697
g69
(g90
g71
NtRp2698
(dp2699
g74
(dp2700
g94
g95
ssg83
g2694
sg76
(lp2701
S'url'
p2702
asbag69
(g90
g71
NtRp2703
(dp2704
g74
(dp2705
g101
g102
ssg83
g2694
sg76
(lp2706
S':'
asbag69
(g90
g71
NtRp2707
(dp2708
g74
(dp2709
sg83
g2694
sg76
(lp2710
g69
(g70
g71
NtRp2711
(dp2712
g74
(dp2713
g82
I5
ssg83
g2707
sg76
(lp2714
S'/topoi/plugin_ajaxselect/set_widget.load/notes/work/7/works/notes_work_loader/14'
p2715
asbasbasbag69
(g85
g71
NtRp2716
(dp2717
g74
(dp2718
sg83
g79
sg76
(lp2719
g69
(g90
g71
NtRp2720
(dp2721
g74
(dp2722
g94
g95
ssg83
g2716
sg76
(lp2723
S'utcnow'
p2724
asbag69
(g90
g71
NtRp2725
(dp2726
g74
(dp2727
g101
g102
ssg83
g2716
sg76
(lp2728
S':'
asbag69
(g90
g71
NtRp2729
(dp2730
g74
(dp2731
sg83
g2716
sg76
(lp2732
g69
(g70
g71
NtRp2733
(dp2734
g74
(dp2735
g82
I5
ssg83
g2729
sg76
(lp2736
S'datetime.datetime(2012, 1, 9, 23, 11, 31, 603776)'
p2737
asbasbasbag69
(g85
g71
NtRp2738
(dp2739
g74
(dp2740
sg83
g79
sg76
(lp2741
g69
(g90
g71
NtRp2742
(dp2743
g74
(dp2744
g94
g95
ssg83
g2738
sg76
(lp2745
S'uuid'
p2746
asbag69
(g90
g71
NtRp2747
(dp2748
g74
(dp2749
g101
g102
ssg83
g2738
sg76
(lp2750
S':'
asbag69
(g90
g71
NtRp2751
(dp2752
g74
(dp2753
sg83
g2738
sg76
(lp2754
g69
(g70
g71
NtRp2755
(dp2756
g74
(dp2757
g82
I5
ssg83
g2751
sg76
(lp2758
S'topoi/127.0.0.1.2012-01-09.18-11-31.a5253b11-9a0e-483c-bbf9-089b42ec67ad'
p2759
asbasbasbag69
(g85
g71
NtRp2760
(dp2761
g74
(dp2762
sg83
g79
sg76
(lp2763
g69
(g90
g71
NtRp2764
(dp2765
g74
(dp2766
g94
g95
ssg83
g2760
sg76
(lp2767
S'vars'
p2768
asbag69
(g90
g71
NtRp2769
(dp2770
g74
(dp2771
g101
g102
ssg83
g2760
sg76
(lp2772
S':'
asbag69
(g90
g71
NtRp2773
(dp2774
g74
(dp2775
sg83
g2760
sg76
(lp2776
g69
(g70
g71
NtRp2777
(dp2778
g74
(dp2779
g82
I5
ssg83
g2773
sg76
(lp2780
g69
(g78
g71
NtRp2781
(dp2782
g74
(dp2783
g82
I4
ssg83
Nsg76
(lp2784
sbasbasbasbag69
(g85
g71
NtRp2785
(dp2786
g74
(dp2787
sg83
g79
sg76
(lp2788
g69
(g90
g71
NtRp2789
(dp2790
g74
(dp2791
g94
g95
ssg83
g2785
sg76
(lp2792
S'wsgi'
p2793
asbag69
(g90
g71
NtRp2794
(dp2795
g74
(dp2796
g101
g102
ssg83
g2785
sg76
(lp2797
S':'
asbag69
(g90
g71
NtRp2798
(dp2799
g74
(dp2800
sg83
g2785
sg76
(lp2801
g69
(g70
g71
NtRp2802
(dp2803
g74
(dp2804
g82
I5
ssg83
g2798
sg76
(lp2805
g69
(g78
g71
NtRp2806
(dp2807
g74
(dp2808
g82
I4
ssg83
Nsg76
(lp2809
g69
(g85
g71
NtRp2810
(dp2811
g74
(dp2812
sg83
g2806
sg76
(lp2813
g69
(g90
g71
NtRp2814
(dp2815
g74
(dp2816
g94
g95
ssg83
g2810
sg76
(lp2817
S'environ'
p2818
asbag69
(g90
g71
NtRp2819
(dp2820
g74
(dp2821
g101
g102
ssg83
g2810
sg76
(lp2822
S':'
asbag69
(g90
g71
NtRp2823
(dp2824
g74
(dp2825
sg83
g2810
sg76
(lp2826
g69
(g70
g71
NtRp2827
(dp2828
g74
(dp2829
g82
I4
ssg83
g2823
sg76
(lp2830
g69
(g78
g71
NtRp2831
(dp2832
g74
(dp2833
g82
I3
ssg83
Nsg76
(lp2834
g69
(g85
g71
NtRp2835
(dp2836
g74
(dp2837
sg83
g2831
sg76
(lp2838
g69
(g90
g71
NtRp2839
(dp2840
g74
(dp2841
g94
g95
ssg83
g2835
sg76
(lp2842
S'HTTP_ACCEPT'
p2843
asbag69
(g90
g71
NtRp2844
(dp2845
g74
(dp2846
g101
g102
ssg83
g2835
sg76
(lp2847
S':'
asbag69
(g90
g71
NtRp2848
(dp2849
g74
(dp2850
sg83
g2835
sg76
(lp2851
g69
(g70
g71
NtRp2852
(dp2853
g74
(dp2854
g82
I3
ssg83
g2848
sg76
(lp2855
g1300
asbasbasbag69
(g85
g71
NtRp2856
(dp2857
g74
(dp2858
sg83
g2831
sg76
(lp2859
g69
(g90
g71
NtRp2860
(dp2861
g74
(dp2862
g94
g95
ssg83
g2856
sg76
(lp2863
S'HTTP_ACCEPT_CHARSET'
p2864
asbag69
(g90
g71
NtRp2865
(dp2866
g74
(dp2867
g101
g102
ssg83
g2856
sg76
(lp2868
S':'
asbag69
(g90
g71
NtRp2869
(dp2870
g74
(dp2871
sg83
g2856
sg76
(lp2872
g69
(g70
g71
NtRp2873
(dp2874
g74
(dp2875
g82
I3
ssg83
g2869
sg76
(lp2876
g1322
asbasbasbag69
(g85
g71
NtRp2877
(dp2878
g74
(dp2879
sg83
g2831
sg76
(lp2880
g69
(g90
g71
NtRp2881
(dp2882
g74
(dp2883
g94
g95
ssg83
g2877
sg76
(lp2884
S'HTTP_ACCEPT_ENCODING'
p2885
asbag69
(g90
g71
NtRp2886
(dp2887
g74
(dp2888
g101
g102
ssg83
g2877
sg76
(lp2889
S':'
asbag69
(g90
g71
NtRp2890
(dp2891
g74
(dp2892
sg83
g2877
sg76
(lp2893
g69
(g70
g71
NtRp2894
(dp2895
g74
(dp2896
g82
I3
ssg83
g2890
sg76
(lp2897
g1344
asbasbasbag69
(g85
g71
NtRp2898
(dp2899
g74
(dp2900
sg83
g2831
sg76
(lp2901
g69
(g90
g71
NtRp2902
(dp2903
g74
(dp2904
g94
g95
ssg83
g2898
sg76
(lp2905
S'HTTP_ACCEPT_LANGUAGE'
p2906
asbag69
(g90
g71
NtRp2907
(dp2908
g74
(dp2909
g101
g102
ssg83
g2898
sg76
(lp2910
S':'
asbag69
(g90
g71
NtRp2911
(dp2912
g74
(dp2913
sg83
g2898
sg76
(lp2914
g69
(g70
g71
NtRp2915
(dp2916
g74
(dp2917
g82
I3
ssg83
g2911
sg76
(lp2918
g1366
asbasbasbag69
(g85
g71
NtRp2919
(dp2920
g74
(dp2921
sg83
g2831
sg76
(lp2922
g69
(g90
g71
NtRp2923
(dp2924
g74
(dp2925
g94
g95
ssg83
g2919
sg76
(lp2926
S'HTTP_CONNECTION'
p2927
asbag69
(g90
g71
NtRp2928
(dp2929
g74
(dp2930
g101
g102
ssg83
g2919
sg76
(lp2931
S':'
asbag69
(g90
g71
NtRp2932
(dp2933
g74
(dp2934
sg83
g2919
sg76
(lp2935
g69
(g70
g71
NtRp2936
(dp2937
g74
(dp2938
g82
I3
ssg83
g2932
sg76
(lp2939
g1388
asbasbasbag69
(g85
g71
NtRp2940
(dp2941
g74
(dp2942
sg83
g2831
sg76
(lp2943
g69
(g90
g71
NtRp2944
(dp2945
g74
(dp2946
g94
g95
ssg83
g2940
sg76
(lp2947
S'HTTP_COOKIE'
p2948
asbag69
(g90
g71
NtRp2949
(dp2950
g74
(dp2951
g101
g102
ssg83
g2940
sg76
(lp2952
S':'
asbag69
(g90
g71
NtRp2953
(dp2954
g74
(dp2955
sg83
g2940
sg76
(lp2956
g69
(g70
g71
NtRp2957
(dp2958
g74
(dp2959
g82
I3
ssg83
g2953
sg76
(lp2960
g1410
asbasbasbag69
(g85
g71
NtRp2961
(dp2962
g74
(dp2963
sg83
g2831
sg76
(lp2964
g69
(g90
g71
NtRp2965
(dp2966
g74
(dp2967
g94
g95
ssg83
g2961
sg76
(lp2968
S'HTTP_HOST'
p2969
asbag69
(g90
g71
NtRp2970
(dp2971
g74
(dp2972
g101
g102
ssg83
g2961
sg76
(lp2973
S':'
asbag69
(g90
g71
NtRp2974
(dp2975
g74
(dp2976
sg83
g2961
sg76
(lp2977
g69
(g70
g71
NtRp2978
(dp2979
g74
(dp2980
g82
I3
ssg83
g2974
sg76
(lp2981
g1432
asbasbasbag69
(g85
g71
NtRp2982
(dp2983
g74
(dp2984
sg83
g2831
sg76
(lp2985
g69
(g90
g71
NtRp2986
(dp2987
g74
(dp2988
g94
g95
ssg83
g2982
sg76
(lp2989
S'HTTP_REFERER'
p2990
asbag69
(g90
g71
NtRp2991
(dp2992
g74
(dp2993
g101
g102
ssg83
g2982
sg76
(lp2994
S':'
asbag69
(g90
g71
NtRp2995
(dp2996
g74
(dp2997
sg83
g2982
sg76
(lp2998
g69
(g70
g71
NtRp2999
(dp3000
g74
(dp3001
g82
I3
ssg83
g2995
sg76
(lp3002
g1454
asbasbasbag69
(g85
g71
NtRp3003
(dp3004
g74
(dp3005
sg83
g2831
sg76
(lp3006
g69
(g90
g71
NtRp3007
(dp3008
g74
(dp3009
g94
g95
ssg83
g3003
sg76
(lp3010
S'HTTP_USER_AGENT'
p3011
asbag69
(g90
g71
NtRp3012
(dp3013
g74
(dp3014
g101
g102
ssg83
g3003
sg76
(lp3015
S':'
asbag69
(g90
g71
NtRp3016
(dp3017
g74
(dp3018
sg83
g3003
sg76
(lp3019
g69
(g70
g71
NtRp3020
(dp3021
g74
(dp3022
g82
I3
ssg83
g3016
sg76
(lp3023
g1476
asbasbasbag69
(g85
g71
NtRp3024
(dp3025
g74
(dp3026
sg83
g2831
sg76
(lp3027
g69
(g90
g71
NtRp3028
(dp3029
g74
(dp3030
g94
g95
ssg83
g3024
sg76
(lp3031
S'HTTP_WEB2PY_COMPONENT_ELEMENT'
p3032
asbag69
(g90
g71
NtRp3033
(dp3034
g74
(dp3035
g101
g102
ssg83
g3024
sg76
(lp3036
S':'
asbag69
(g90
g71
NtRp3037
(dp3038
g74
(dp3039
sg83
g3024
sg76
(lp3040
g69
(g70
g71
NtRp3041
(dp3042
g74
(dp3043
g82
I3
ssg83
g3037
sg76
(lp3044
g279
asbasbasbag69
(g85
g71
NtRp3045
(dp3046
g74
(dp3047
sg83
g2831
sg76
(lp3048
g69
(g90
g71
NtRp3049
(dp3050
g74
(dp3051
g94
g95
ssg83
g3045
sg76
(lp3052
S'HTTP_WEB2PY_COMPONENT_LOCATION'
p3053
asbag69
(g90
g71
NtRp3054
(dp3055
g74
(dp3056
g101
g102
ssg83
g3045
sg76
(lp3057
S':'
asbag69
(g90
g71
NtRp3058
(dp3059
g74
(dp3060
sg83
g3045
sg76
(lp3061
g69
(g70
g71
NtRp3062
(dp3063
g74
(dp3064
g82
I3
ssg83
g3058
sg76
(lp3065
g1519
asbasbasbag69
(g85
g71
NtRp3066
(dp3067
g74
(dp3068
sg83
g2831
sg76
(lp3069
g69
(g90
g71
NtRp3070
(dp3071
g74
(dp3072
g94
g95
ssg83
g3066
sg76
(lp3073
S'HTTP_X_REQUESTED_WITH'
p3074
asbag69
(g90
g71
NtRp3075
(dp3076
g74
(dp3077
g101
g102
ssg83
g3066
sg76
(lp3078
S':'
asbag69
(g90
g71
NtRp3079
(dp3080
g74
(dp3081
sg83
g3066
sg76
(lp3082
g69
(g70
g71
NtRp3083
(dp3084
g74
(dp3085
g82
I3
ssg83
g3079
sg76
(lp3086
g1541
asbasbasbag69
(g85
g71
NtRp3087
(dp3088
g74
(dp3089
sg83
g2831
sg76
(lp3090
g69
(g90
g71
NtRp3091
(dp3092
g74
(dp3093
g94
g95
ssg83
g3087
sg76
(lp3094
S'PATH_INFO'
p3095
asbag69
(g90
g71
NtRp3096
(dp3097
g74
(dp3098
g101
g102
ssg83
g3087
sg76
(lp3099
S':'
asbag69
(g90
g71
NtRp3100
(dp3101
g74
(dp3102
sg83
g3087
sg76
(lp3103
g69
(g70
g71
NtRp3104
(dp3105
g74
(dp3106
g82
I3
ssg83
g3100
sg76
(lp3107
g1605
asbasbasbag69
(g85
g71
NtRp3108
(dp3109
g74
(dp3110
sg83
g2831
sg76
(lp3111
g69
(g90
g71
NtRp3112
(dp3113
g74
(dp3114
g94
g95
ssg83
g3108
sg76
(lp3115
S'QUERY_STRING'
p3116
asbag69
(g90
g71
NtRp3117
(dp3118
g74
(dp3119
g101
g102
ssg83
g3108
sg76
(lp3120
S':'
asbag69
(g90
g71
NtRp3121
(dp3122
g74
(dp3123
sg83
g3108
sg76
(lp3124
g69
(g70
g71
NtRp3125
(dp3126
g74
(dp3127
g82
I3
ssg83
g3121
sg76
(lp3128
S''
asbasbasbag69
(g85
g71
NtRp3129
(dp3130
g74
(dp3131
sg83
g2831
sg76
(lp3132
g69
(g90
g71
NtRp3133
(dp3134
g74
(dp3135
g94
g95
ssg83
g3129
sg76
(lp3136
S'REMOTE_ADDR'
p3137
asbag69
(g90
g71
NtRp3138
(dp3139
g74
(dp3140
g101
g102
ssg83
g3129
sg76
(lp3141
S':'
asbag69
(g90
g71
NtRp3142
(dp3143
g74
(dp3144
sg83
g3129
sg76
(lp3145
g69
(g70
g71
NtRp3146
(dp3147
g74
(dp3148
g82
I3
ssg83
g3142
sg76
(lp3149
g301
asbasbasbag69
(g85
g71
NtRp3150
(dp3151
g74
(dp3152
sg83
g2831
sg76
(lp3153
g69
(g90
g71
NtRp3154
(dp3155
g74
(dp3156
g94
g95
ssg83
g3150
sg76
(lp3157
S'REMOTE_PORT'
p3158
asbag69
(g90
g71
NtRp3159
(dp3160
g74
(dp3161
g101
g102
ssg83
g3150
sg76
(lp3162
S':'
asbag69
(g90
g71
NtRp3163
(dp3164
g74
(dp3165
sg83
g3150
sg76
(lp3166
g69
(g70
g71
NtRp3167
(dp3168
g74
(dp3169
g82
I3
ssg83
g3163
sg76
(lp3170
g1669
asbasbasbag69
(g85
g71
NtRp3171
(dp3172
g74
(dp3173
sg83
g2831
sg76
(lp3174
g69
(g90
g71
NtRp3175
(dp3176
g74
(dp3177
g94
g95
ssg83
g3171
sg76
(lp3178
S'REQUEST_METHOD'
p3179
asbag69
(g90
g71
NtRp3180
(dp3181
g74
(dp3182
g101
g102
ssg83
g3171
sg76
(lp3183
S':'
asbag69
(g90
g71
NtRp3184
(dp3185
g74
(dp3186
sg83
g3171
sg76
(lp3187
g69
(g70
g71
NtRp3188
(dp3189
g74
(dp3190
g82
I3
ssg83
g3184
sg76
(lp3191
g1691
asbasbasbag69
(g85
g71
NtRp3192
(dp3193
g74
(dp3194
sg83
g2831
sg76
(lp3195
g69
(g90
g71
NtRp3196
(dp3197
g74
(dp3198
g94
g95
ssg83
g3192
sg76
(lp3199
S'SCRIPT_NAME'
p3200
asbag69
(g90
g71
NtRp3201
(dp3202
g74
(dp3203
g101
g102
ssg83
g3192
sg76
(lp3204
S':'
asbag69
(g90
g71
NtRp3205
(dp3206
g74
(dp3207
sg83
g3192
sg76
(lp3208
g69
(g70
g71
NtRp3209
(dp3210
g74
(dp3211
g82
I3
ssg83
g3205
sg76
(lp3212
S''
asbasbasbag69
(g85
g71
NtRp3213
(dp3214
g74
(dp3215
sg83
g2831
sg76
(lp3216
g69
(g90
g71
NtRp3217
(dp3218
g74
(dp3219
g94
g95
ssg83
g3213
sg76
(lp3220
S'SERVER_NAME'
p3221
asbag69
(g90
g71
NtRp3222
(dp3223
g74
(dp3224
g101
g102
ssg83
g3213
sg76
(lp3225
S':'
asbag69
(g90
g71
NtRp3226
(dp3227
g74
(dp3228
sg83
g3213
sg76
(lp3229
g69
(g70
g71
NtRp3230
(dp3231
g74
(dp3232
g82
I3
ssg83
g3226
sg76
(lp3233
g1734
asbasbasbag69
(g85
g71
NtRp3234
(dp3235
g74
(dp3236
sg83
g2831
sg76
(lp3237
g69
(g90
g71
NtRp3238
(dp3239
g74
(dp3240
g94
g95
ssg83
g3234
sg76
(lp3241
S'SERVER_PORT'
p3242
asbag69
(g90
g71
NtRp3243
(dp3244
g74
(dp3245
g101
g102
ssg83
g3234
sg76
(lp3246
S':'
asbag69
(g90
g71
NtRp3247
(dp3248
g74
(dp3249
sg83
g3234
sg76
(lp3250
g69
(g70
g71
NtRp3251
(dp3252
g74
(dp3253
g82
I3
ssg83
g3247
sg76
(lp3254
g1756
asbasbasbag69
(g85
g71
NtRp3255
(dp3256
g74
(dp3257
sg83
g2831
sg76
(lp3258
g69
(g90
g71
NtRp3259
(dp3260
g74
(dp3261
g94
g95
ssg83
g3255
sg76
(lp3262
S'SERVER_PROTOCOL'
p3263
asbag69
(g90
g71
NtRp3264
(dp3265
g74
(dp3266
g101
g102
ssg83
g3255
sg76
(lp3267
S':'
asbag69
(g90
g71
NtRp3268
(dp3269
g74
(dp3270
sg83
g3255
sg76
(lp3271
g69
(g70
g71
NtRp3272
(dp3273
g74
(dp3274
g82
I3
ssg83
g3268
sg76
(lp3275
g1778
asbasbasbag69
(g85
g71
NtRp3276
(dp3277
g74
(dp3278
sg83
g2831
sg76
(lp3279
g69
(g90
g71
NtRp3280
(dp3281
g74
(dp3282
g94
g95
ssg83
g3276
sg76
(lp3283
S'SERVER_SOFTWARE'
p3284
asbag69
(g90
g71
NtRp3285
(dp3286
g74
(dp3287
g101
g102
ssg83
g3276
sg76
(lp3288
S':'
asbag69
(g90
g71
NtRp3289
(dp3290
g74
(dp3291
sg83
g3276
sg76
(lp3292
g69
(g70
g71
NtRp3293
(dp3294
g74
(dp3295
g82
I3
ssg83
g3289
sg76
(lp3296
g1800
asbasbasbag69
(g85
g71
NtRp3297
(dp3298
g74
(dp3299
sg83
g2831
sg76
(lp3300
g69
(g90
g71
NtRp3301
(dp3302
g74
(dp3303
g94
g95
ssg83
g3297
sg76
(lp3304
S'wsgi.errors'
p3305
asbag69
(g90
g71
NtRp3306
(dp3307
g74
(dp3308
g101
g102
ssg83
g3297
sg76
(lp3309
S':'
asbag69
(g90
g71
NtRp3310
(dp3311
g74
(dp3312
sg83
g3297
sg76
(lp3313
g69
(g70
g71
NtRp3314
(dp3315
g74
(dp3316
g82
I3
ssg83
g3310
sg76
(lp3317
S"<open file '<stderr>', mode 'w' at 0x7f03769a3270>"
p3318
asbasbasbag69
(g85
g71
NtRp3319
(dp3320
g74
(dp3321
sg83
g2831
sg76
(lp3322
g69
(g90
g71
NtRp3323
(dp3324
g74
(dp3325
g94
g95
ssg83
g3319
sg76
(lp3326
S'wsgi.file_wrapper'
p3327
asbag69
(g90
g71
NtRp3328
(dp3329
g74
(dp3330
g101
g102
ssg83
g3319
sg76
(lp3331
S':'
asbag69
(g90
g71
NtRp3332
(dp3333
g74
(dp3334
sg83
g3319
sg76
(lp3335
g69
(g70
g71
NtRp3336
(dp3337
g74
(dp3338
g82
I3
ssg83
g3332
sg76
(lp3339
S'<class wsgiref.util.FileWrapper at 0x1735ce8>'
p3340
asbasbasbag69
(g85
g71
NtRp3341
(dp3342
g74
(dp3343
sg83
g2831
sg76
(lp3344
g69
(g90
g71
NtRp3345
(dp3346
g74
(dp3347
g94
g95
ssg83
g3341
sg76
(lp3348
S'wsgi.input'
p3349
asbag69
(g90
g71
NtRp3350
(dp3351
g74
(dp3352
g101
g102
ssg83
g3341
sg76
(lp3353
S':'
asbag69
(g90
g71
NtRp3354
(dp3355
g74
(dp3356
sg83
g3341
sg76
(lp3357
g69
(g70
g71
NtRp3358
(dp3359
g74
(dp3360
g82
I3
ssg83
g3354
sg76
(lp3361
S'<cStringIO.StringO object at 0x1eb6340>'
p3362
asbasbasbag69
(g85
g71
NtRp3363
(dp3364
g74
(dp3365
sg83
g2831
sg76
(lp3366
g69
(g90
g71
NtRp3367
(dp3368
g74
(dp3369
g94
g95
ssg83
g3363
sg76
(lp3370
S'wsgi.multiprocess'
p3371
asbag69
(g90
g71
NtRp3372
(dp3373
g74
(dp3374
g101
g102
ssg83
g3363
sg76
(lp3375
S':'
asbag69
(g90
g71
NtRp3376
(dp3377
g74
(dp3378
sg83
g3363
sg76
(lp3379
g69
(g70
g71
NtRp3380
(dp3381
g74
(dp3382
g82
I3
ssg83
g3376
sg76
(lp3383
g1256
asbasbasbag69
(g85
g71
NtRp3384
(dp3385
g74
(dp3386
sg83
g2831
sg76
(lp3387
g69
(g90
g71
NtRp3388
(dp3389
g74
(dp3390
g94
g95
ssg83
g3384
sg76
(lp3391
S'wsgi.multithread'
p3392
asbag69
(g90
g71
NtRp3393
(dp3394
g74
(dp3395
g101
g102
ssg83
g3384
sg76
(lp3396
S':'
asbag69
(g90
g71
NtRp3397
(dp3398
g74
(dp3399
sg83
g3384
sg76
(lp3400
g69
(g70
g71
NtRp3401
(dp3402
g74
(dp3403
g82
I3
ssg83
g3397
sg76
(lp3404
g112
asbasbasbag69
(g85
g71
NtRp3405
(dp3406
g74
(dp3407
sg83
g2831
sg76
(lp3408
g69
(g90
g71
NtRp3409
(dp3410
g74
(dp3411
g94
g95
ssg83
g3405
sg76
(lp3412
S'wsgi.run_once'
p3413
asbag69
(g90
g71
NtRp3414
(dp3415
g74
(dp3416
g101
g102
ssg83
g3405
sg76
(lp3417
S':'
asbag69
(g90
g71
NtRp3418
(dp3419
g74
(dp3420
sg83
g3405
sg76
(lp3421
g69
(g70
g71
NtRp3422
(dp3423
g74
(dp3424
g82
I3
ssg83
g3418
sg76
(lp3425
g1256
asbasbasbag69
(g85
g71
NtRp3426
(dp3427
g74
(dp3428
sg83
g2831
sg76
(lp3429
g69
(g90
g71
NtRp3430
(dp3431
g74
(dp3432
g94
g95
ssg83
g3426
sg76
(lp3433
S'wsgi.url_scheme'
p3434
asbag69
(g90
g71
NtRp3435
(dp3436
g74
(dp3437
g101
g102
ssg83
g3426
sg76
(lp3438
S':'
asbag69
(g90
g71
NtRp3439
(dp3440
g74
(dp3441
sg83
g3426
sg76
(lp3442
g69
(g70
g71
NtRp3443
(dp3444
g74
(dp3445
g82
I3
ssg83
g3439
sg76
(lp3446
g2082
asbasbasbag69
(g85
g71
NtRp3447
(dp3448
g74
(dp3449
sg83
g2831
sg76
(lp3450
g69
(g90
g71
NtRp3451
(dp3452
g74
(dp3453
g94
g95
ssg83
g3447
sg76
(lp3454
S'wsgi.version'
p3455
asbag69
(g90
g71
NtRp3456
(dp3457
g74
(dp3458
g101
g102
ssg83
g3447
sg76
(lp3459
S':'
asbag69
(g90
g71
NtRp3460
(dp3461
g74
(dp3462
sg83
g3447
sg76
(lp3463
g69
(g70
g71
NtRp3464
(dp3465
g74
(dp3466
g82
I3
ssg83
g3460
sg76
(lp3467
S'1'
asbasbasbasbasbasbasbasbasbasbasbasbasbsS'frames'
p3468
(lp3469
(dp3470
S'file'
p3471
S'/home/ian/web2py/gluon/restricted.py'
p3472
sS'dump'
p3473
(dp3474
S'code'
p3475
S"'if 0:\\n    from gluon import current\\n    request ...rm)\\n\\nresponse._vars=response._caller(set_widget)\\n'"
p3476
sS'layer'
p3477
S"'/home/ian/web2py/applications/topoi/controllers/plugin_ajaxselect.py'"
p3478
sS'global compile2'
p3479
S'<function compile2>'
p3480
sS'ccode'
p3481
S'undefined'
p3482
ssS'lnum'
p3483
I203
sS'lines'
p3484
(dp3485
I198
S"    environment['__file__'] = layer"
p3486
sI199
S'    try:'
p3487
sI200
S'        if type(code) == types.CodeType:'
p3488
sI201
S'            ccode = code'
p3489
sI202
S'        else:'
p3490
sI203
S'            ccode = compile2(code,layer)'
p3491
sI204
S'        exec ccode in environment'
p3492
sI205
S'    except HTTP:'
p3493
sI206
S'        raise'
p3494
sI207
S'    except RestrictedError:'
p3495
ssS'call'
p3496
S"(code='if 0:\\n    from gluon import current\\n    request ...rm)\\n\\nresponse._vars=response._caller(set_widget)\\n', environment={'A': <class 'gluon.html.A'>, 'AjaxSelect': <class applications.topoi.modules.plugin_ajaxselect.AjaxSelect>, 'Auth': <class 'gluon.tools.Auth'>, 'B': <class 'gluon.html.B'>, 'BEAUTIFY': <class 'gluon.html.BEAUTIFY'>, 'BODY': <class 'gluon.html.BODY'>, 'BR': <class 'gluon.html.BR'>, 'BUTTON': <class 'gluon.html.BUTTON'>, 'CAT': <class 'gluon.html.CAT'>, 'CENTER': <class 'gluon.html.CENTER'>, ...}, layer='/home/ian/web2py/applications/topoi/controllers/plugin_ajaxselect.py')"
p3497
sS'func'
p3498
S'restricted'
p3499
sa(dp3500
g3471
S'/home/ian/web2py/gluon/restricted.py'
p3501
sg3473
(dp3502
S'builtincompile'
p3503
S'<built-in function compile>'
p3504
sS'code'
p3505
S"'if 0:\\n    from gluon import current\\n    request ...rm)\\n\\nresponse._vars=response._caller(set_widget)\\n'"
p3506
sS'code.rstrip'
p3507
S'<built-in method rstrip of str object>'
p3508
sS').replace'
p3509
g3482
sS'layer'
p3510
S"'/home/ian/web2py/applications/topoi/controllers/plugin_ajaxselect.py'"
p3511
ssg3483
I189
sg3484
(dp3512
I192
S'    """'
p3513
sI193
S'    runs code in environment and returns the output. if an exception occurs'
p3514
sI184
S''
sI185
S'def compile2(code,layer):'
p3515
sI186
S'    """'
p3516
sI187
S"    The +'\\n' is necessary else compile fails when code ends in a comment."
p3517
sI188
S'    """'
p3518
sI189
S"    return compile(code.rstrip().replace('\\r\\n','\\n')+'\\n', layer, 'exec')"
p3519
sI190
S''
sI191
S"def restricted(code, environment=None, layer='Unknown'):"
p3520
ssg3496
S"(code='if 0:\\n    from gluon import current\\n    request ...rm)\\n\\nresponse._vars=response._caller(set_widget)\\n', layer='/home/ian/web2py/applications/topoi/controllers/plugin_ajaxselect.py')"
p3521
sg3498
S'compile2'
p3522
sasS'pyver'
p3523
S'Python 2.7.2+: /usr/bin/python2.7'
p3524
sS'session'
p3525
g69
(g70
g71
NtRp3526
(dp3527
g74
(dp3528
sg76
(lp3529
g69
(g78
g71
NtRp3530
(dp3531
g74
(dp3532
g82
I5
ssg83
Nsg76
(lp3533
g69
(g85
g71
NtRp3534
(dp3535
g74
(dp3536
sg83
g3530
sg76
(lp3537
g69
(g90
g71
NtRp3538
(dp3539
g74
(dp3540
g94
g95
ssg83
g3534
sg76
(lp3541
S'auth'
p3542
asbag69
(g90
g71
NtRp3543
(dp3544
g74
(dp3545
g101
g102
ssg83
g3534
sg76
(lp3546
S':'
asbag69
(g90
g71
NtRp3547
(dp3548
g74
(dp3549
sg83
g3534
sg76
(lp3550
g69
(g70
g71
NtRp3551
(dp3552
g74
(dp3553
g82
I5
ssg83
g3547
sg76
(lp3554
g69
(g78
g71
NtRp3555
(dp3556
g74
(dp3557
g82
I4
ssg83
Nsg76
(lp3558
g69
(g85
g71
NtRp3559
(dp3560
g74
(dp3561
sg83
g3555
sg76
(lp3562
g69
(g90
g71
NtRp3563
(dp3564
g74
(dp3565
g94
g95
ssg83
g3559
sg76
(lp3566
S'expiration'
p3567
asbag69
(g90
g71
NtRp3568
(dp3569
g74
(dp3570
g101
g102
ssg83
g3559
sg76
(lp3571
S':'
asbag69
(g90
g71
NtRp3572
(dp3573
g74
(dp3574
sg83
g3559
sg76
(lp3575
g69
(g70
g71
NtRp3576
(dp3577
g74
(dp3578
g82
I4
ssg83
g3572
sg76
(lp3579
S'2592000'
p3580
asbasbasbag69
(g85
g71
NtRp3581
(dp3582
g74
(dp3583
sg83
g3555
sg76
(lp3584
g69
(g90
g71
NtRp3585
(dp3586
g74
(dp3587
g94
g95
ssg83
g3581
sg76
(lp3588
S'hmac_key'
p3589
asbag69
(g90
g71
NtRp3590
(dp3591
g74
(dp3592
g101
g102
ssg83
g3581
sg76
(lp3593
S':'
asbag69
(g90
g71
NtRp3594
(dp3595
g74
(dp3596
sg83
g3581
sg76
(lp3597
g69
(g70
g71
NtRp3598
(dp3599
g74
(dp3600
g82
I4
ssg83
g3594
sg76
(lp3601
S'20c8192d-156c-406c-9f7b-eade4cd34288'
p3602
asbasbasbag69
(g85
g71
NtRp3603
(dp3604
g74
(dp3605
sg83
g3555
sg76
(lp3606
g69
(g90
g71
NtRp3607
(dp3608
g74
(dp3609
g94
g95
ssg83
g3603
sg76
(lp3610
S'last_visit'
p3611
asbag69
(g90
g71
NtRp3612
(dp3613
g74
(dp3614
g101
g102
ssg83
g3603
sg76
(lp3615
S':'
asbag69
(g90
g71
NtRp3616
(dp3617
g74
(dp3618
sg83
g3603
sg76
(lp3619
g69
(g70
g71
NtRp3620
(dp3621
g74
(dp3622
g82
I4
ssg83
g3616
sg76
(lp3623
S'datetime.datetime(2011, 12, 15, 14, 27, 18, 112795)'
p3624
asbasbasbag69
(g85
g71
NtRp3625
(dp3626
g74
(dp3627
sg83
g3555
sg76
(lp3628
g69
(g90
g71
NtRp3629
(dp3630
g74
(dp3631
g94
g95
ssg83
g3625
sg76
(lp3632
S'remember'
p3633
asbag69
(g90
g71
NtRp3634
(dp3635
g74
(dp3636
g101
g102
ssg83
g3625
sg76
(lp3637
S':'
asbag69
(g90
g71
NtRp3638
(dp3639
g74
(dp3640
sg83
g3625
sg76
(lp3641
g69
(g70
g71
NtRp3642
(dp3643
g74
(dp3644
g82
I4
ssg83
g3638
sg76
(lp3645
g112
asbasbasbag69
(g85
g71
NtRp3646
(dp3647
g74
(dp3648
sg83
g3555
sg76
(lp3649
g69
(g90
g71
NtRp3650
(dp3651
g74
(dp3652
g94
g95
ssg83
g3646
sg76
(lp3653
S'user'
p3654
asbag69
(g90
g71
NtRp3655
(dp3656
g74
(dp3657
g101
g102
ssg83
g3646
sg76
(lp3658
S':'
asbag69
(g90
g71
NtRp3659
(dp3660
g74
(dp3661
sg83
g3646
sg76
(lp3662
g69
(g70
g71
NtRp3663
(dp3664
g74
(dp3665
g82
I4
ssg83
g3659
sg76
(lp3666
g69
(g78
g71
NtRp3667
(dp3668
g74
(dp3669
g82
I3
ssg83
Nsg76
(lp3670
g69
(g85
g71
NtRp3671
(dp3672
g74
(dp3673
sg83
g3667
sg76
(lp3674
g69
(g90
g71
NtRp3675
(dp3676
g74
(dp3677
g94
g95
ssg83
g3671
sg76
(lp3678
S'email'
p3679
asbag69
(g90
g71
NtRp3680
(dp3681
g74
(dp3682
g101
g102
ssg83
g3671
sg76
(lp3683
S':'
asbag69
(g90
g71
NtRp3684
(dp3685
g74
(dp3686
sg83
g3671
sg76
(lp3687
g69
(g70
g71
NtRp3688
(dp3689
g74
(dp3690
g82
I3
ssg83
g3684
sg76
(lp3691
S'scottianw@gmail.com'
p3692
asbasbasbag69
(g85
g71
NtRp3693
(dp3694
g74
(dp3695
sg83
g3667
sg76
(lp3696
g69
(g90
g71
NtRp3697
(dp3698
g74
(dp3699
g94
g95
ssg83
g3693
sg76
(lp3700
S'first_name'
p3701
asbag69
(g90
g71
NtRp3702
(dp3703
g74
(dp3704
g101
g102
ssg83
g3693
sg76
(lp3705
S':'
asbag69
(g90
g71
NtRp3706
(dp3707
g74
(dp3708
sg83
g3693
sg76
(lp3709
g69
(g70
g71
NtRp3710
(dp3711
g74
(dp3712
g82
I3
ssg83
g3706
sg76
(lp3713
S'Ian'
p3714
asbasbasbag69
(g85
g71
NtRp3715
(dp3716
g74
(dp3717
sg83
g3667
sg76
(lp3718
g69
(g90
g71
NtRp3719
(dp3720
g74
(dp3721
g94
g95
ssg83
g3715
sg76
(lp3722
S'id'
p3723
asbag69
(g90
g71
NtRp3724
(dp3725
g74
(dp3726
g101
g102
ssg83
g3715
sg76
(lp3727
S':'
asbag69
(g90
g71
NtRp3728
(dp3729
g74
(dp3730
sg83
g3715
sg76
(lp3731
g69
(g70
g71
NtRp3732
(dp3733
g74
(dp3734
g82
I3
ssg83
g3728
sg76
(lp3735
S'1'
asbasbasbag69
(g85
g71
NtRp3736
(dp3737
g74
(dp3738
sg83
g3667
sg76
(lp3739
g69
(g90
g71
NtRp3740
(dp3741
g74
(dp3742
g94
g95
ssg83
g3736
sg76
(lp3743
S'last_name'
p3744
asbag69
(g90
g71
NtRp3745
(dp3746
g74
(dp3747
g101
g102
ssg83
g3736
sg76
(lp3748
S':'
asbag69
(g90
g71
NtRp3749
(dp3750
g74
(dp3751
sg83
g3736
sg76
(lp3752
g69
(g70
g71
NtRp3753
(dp3754
g74
(dp3755
g82
I3
ssg83
g3749
sg76
(lp3756
S'Scott'
p3757
asbasbasbag69
(g85
g71
NtRp3758
(dp3759
g74
(dp3760
sg83
g3667
sg76
(lp3761
g69
(g90
g71
NtRp3762
(dp3763
g74
(dp3764
g94
g95
ssg83
g3758
sg76
(lp3765
S'password'
p3766
asbag69
(g90
g71
NtRp3767
(dp3768
g74
(dp3769
g101
g102
ssg83
g3758
sg76
(lp3770
S':'
asbag69
(g90
g71
NtRp3771
(dp3772
g74
(dp3773
sg83
g3758
sg76
(lp3774
g69
(g70
g71
NtRp3775
(dp3776
g74
(dp3777
g82
I3
ssg83
g3771
sg76
(lp3778
S'6fb48d01a3959846ba0fe062b1789f17d9cf3d34d3ec5aa948f598bbf4387cb10eb60c797988f41dfea97ee691b338dd77413d430229e401cf7c84e6cd9c4458'
p3779
asbasbasbag69
(g85
g71
NtRp3780
(dp3781
g74
(dp3782
sg83
g3667
sg76
(lp3783
g69
(g90
g71
NtRp3784
(dp3785
g74
(dp3786
g94
g95
ssg83
g3780
sg76
(lp3787
S'registration_key'
p3788
asbag69
(g90
g71
NtRp3789
(dp3790
g74
(dp3791
g101
g102
ssg83
g3780
sg76
(lp3792
S':'
asbag69
(g90
g71
NtRp3793
(dp3794
g74
(dp3795
sg83
g3780
sg76
(lp3796
g69
(g70
g71
NtRp3797
(dp3798
g74
(dp3799
g82
I3
ssg83
g3793
sg76
(lp3800
S''
asbasbasbag69
(g85
g71
NtRp3801
(dp3802
g74
(dp3803
sg83
g3667
sg76
(lp3804
g69
(g90
g71
NtRp3805
(dp3806
g74
(dp3807
g94
g95
ssg83
g3801
sg76
(lp3808
S'reset_password_key'
p3809
asbag69
(g90
g71
NtRp3810
(dp3811
g74
(dp3812
g101
g102
ssg83
g3801
sg76
(lp3813
S':'
asbag69
(g90
g71
NtRp3814
(dp3815
g74
(dp3816
sg83
g3801
sg76
(lp3817
g69
(g70
g71
NtRp3818
(dp3819
g74
(dp3820
g82
I3
ssg83
g3814
sg76
(lp3821
S''
asbasbasbasbasbasbasbasbasbasbasbag69
(g85
g71
NtRp3822
(dp3823
g74
(dp3824
sg83
g3530
sg76
(lp3825
g69
(g90
g71
NtRp3826
(dp3827
g74
(dp3828
g94
g95
ssg83
g3822
sg76
(lp3829
S'last_query'
p3830
asbag69
(g90
g71
NtRp3831
(dp3832
g74
(dp3833
g101
g102
ssg83
g3822
sg76
(lp3834
S':'
asbag69
(g90
g71
NtRp3835
(dp3836
g74
(dp3837
sg83
g3822
sg76
(lp3838
g69
(g70
g71
NtRp3839
(dp3840
g74
(dp3841
g82
I5
ssg83
g3835
sg76
(lp3842
S'db.auth_user.id>0'
p3843
asbasbasbasbasbsS'etype'
p3844
S"<type 'exceptions.SyntaxError'>"
p3845
sS'date'
p3846
S'Mon Jan  9 18:11:31 2012'
p3847
sS'response'
p3848
g69
(g70
g71
NtRp3849
(dp3850
g74
(dp3851
sg76
(lp3852
g69
(g78
g71
NtRp3853
(dp3854
g74
(dp3855
g82
I5
ssg83
Nsg76
(lp3856
g69
(g85
g71
NtRp3857
(dp3858
g74
(dp3859
sg83
g3853
sg76
(lp3860
g69
(g90
g71
NtRp3861
(dp3862
g74
(dp3863
g94
g95
ssg83
g3857
sg76
(lp3864
g244
asbag69
(g90
g71
NtRp3865
(dp3866
g74
(dp3867
g101
g102
ssg83
g3857
sg76
(lp3868
S':'
asbag69
(g90
g71
NtRp3869
(dp3870
g74
(dp3871
sg83
g3857
sg76
(lp3872
g69
(g70
g71
NtRp3873
(dp3874
g74
(dp3875
g82
I5
ssg83
g3869
sg76
(lp3876
S'<cStringIO.StringO object at 0x3528260>'
p3877
asbasbasbag69
(g85
g71
NtRp3878
(dp3879
g74
(dp3880
sg83
g3853
sg76
(lp3881
g69
(g90
g71
NtRp3882
(dp3883
g74
(dp3884
g94
g95
ssg83
g3878
sg76
(lp3885
g332
asbag69
(g90
g71
NtRp3886
(dp3887
g74
(dp3888
g101
g102
ssg83
g3878
sg76
(lp3889
S':'
asbag69
(g90
g71
NtRp3890
(dp3891
g74
(dp3892
sg83
g3878
sg76
(lp3893
g69
(g70
g71
NtRp3894
(dp3895
g74
(dp3896
g82
I5
ssg83
g3890
sg76
(lp3897
g69
(g78
g71
NtRp3898
(dp3899
g74
(dp3900
g82
I4
ssg83
Nsg76
(lp3901
g69
(g85
g71
NtRp3902
(dp3903
g74
(dp3904
sg83
g3898
sg76
(lp3905
g69
(g90
g71
NtRp3906
(dp3907
g74
(dp3908
g94
g95
ssg83
g3902
sg76
(lp3909
S'session_id_topoi'
p3910
asbag69
(g90
g71
NtRp3911
(dp3912
g74
(dp3913
g101
g102
ssg83
g3902
sg76
(lp3914
S':'
asbag69
(g90
g71
NtRp3915
(dp3916
g74
(dp3917
sg83
g3902
sg76
(lp3918
g69
(g70
g71
NtRp3919
(dp3920
g74
(dp3921
g82
I4
ssg83
g3915
sg76
(lp3922
g69
(g78
g71
NtRp3923
(dp3924
g74
(dp3925
g82
I3
ssg83
Nsg76
(lp3926
g69
(g85
g71
NtRp3927
(dp3928
g74
(dp3929
sg83
g3923
sg76
(lp3930
g69
(g90
g71
NtRp3931
(dp3932
g74
(dp3933
g94
g95
ssg83
g3927
sg76
(lp3934
g382
asbag69
(g90
g71
NtRp3935
(dp3936
g74
(dp3937
g101
g102
ssg83
g3927
sg76
(lp3938
S':'
asbag69
(g90
g71
NtRp3939
(dp3940
g74
(dp3941
sg83
g3927
sg76
(lp3942
g69
(g70
g71
NtRp3943
(dp3944
g74
(dp3945
g82
I3
ssg83
g3939
sg76
(lp3946
S''
asbasbasbag69
(g85
g71
NtRp3947
(dp3948
g74
(dp3949
sg83
g3923
sg76
(lp3950
g69
(g90
g71
NtRp3951
(dp3952
g74
(dp3953
g94
g95
ssg83
g3947
sg76
(lp3954
g403
asbag69
(g90
g71
NtRp3955
(dp3956
g74
(dp3957
g101
g102
ssg83
g3947
sg76
(lp3958
S':'
asbag69
(g90
g71
NtRp3959
(dp3960
g74
(dp3961
sg83
g3947
sg76
(lp3962
g69
(g70
g71
NtRp3963
(dp3964
g74
(dp3965
g82
I3
ssg83
g3959
sg76
(lp3966
S''
asbasbasbag69
(g85
g71
NtRp3967
(dp3968
g74
(dp3969
sg83
g3923
sg76
(lp3970
g69
(g90
g71
NtRp3971
(dp3972
g74
(dp3973
g94
g95
ssg83
g3967
sg76
(lp3974
g424
asbag69
(g90
g71
NtRp3975
(dp3976
g74
(dp3977
g101
g102
ssg83
g3967
sg76
(lp3978
S':'
asbag69
(g90
g71
NtRp3979
(dp3980
g74
(dp3981
sg83
g3967
sg76
(lp3982
g69
(g70
g71
NtRp3983
(dp3984
g74
(dp3985
g82
I3
ssg83
g3979
sg76
(lp3986
S'2592000'
p3987
asbasbasbag69
(g85
g71
NtRp3988
(dp3989
g74
(dp3990
sg83
g3923
sg76
(lp3991
g69
(g90
g71
NtRp3992
(dp3993
g74
(dp3994
g94
g95
ssg83
g3988
sg76
(lp3995
g445
asbag69
(g90
g71
NtRp3996
(dp3997
g74
(dp3998
g101
g102
ssg83
g3988
sg76
(lp3999
S':'
asbag69
(g90
g71
NtRp4000
(dp4001
g74
(dp4002
sg83
g3988
sg76
(lp4003
g69
(g70
g71
NtRp4004
(dp4005
g74
(dp4006
g82
I3
ssg83
g4000
sg76
(lp4007
S''
asbasbasbag69
(g85
g71
NtRp4008
(dp4009
g74
(dp4010
sg83
g3923
sg76
(lp4011
g69
(g90
g71
NtRp4012
(dp4013
g74
(dp4014
g94
g95
ssg83
g4008
sg76
(lp4015
g466
asbag69
(g90
g71
NtRp4016
(dp4017
g74
(dp4018
g101
g102
ssg83
g4008
sg76
(lp4019
S':'
asbag69
(g90
g71
NtRp4020
(dp4021
g74
(dp4022
sg83
g4008
sg76
(lp4023
g69
(g70
g71
NtRp4024
(dp4025
g74
(dp4026
g82
I3
ssg83
g4020
sg76
(lp4027
S''
asbasbasbag69
(g85
g71
NtRp4028
(dp4029
g74
(dp4030
sg83
g3923
sg76
(lp4031
g69
(g90
g71
NtRp4032
(dp4033
g74
(dp4034
g94
g95
ssg83
g4028
sg76
(lp4035
g487
asbag69
(g90
g71
NtRp4036
(dp4037
g74
(dp4038
g101
g102
ssg83
g4028
sg76
(lp4039
S':'
asbag69
(g90
g71
NtRp4040
(dp4041
g74
(dp4042
sg83
g4028
sg76
(lp4043
g69
(g70
g71
NtRp4044
(dp4045
g74
(dp4046
g82
I3
ssg83
g4040
sg76
(lp4047
S'/'
asbasbasbag69
(g85
g71
NtRp4048
(dp4049
g74
(dp4050
sg83
g3923
sg76
(lp4051
g69
(g90
g71
NtRp4052
(dp4053
g74
(dp4054
g94
g95
ssg83
g4048
sg76
(lp4055
g508
asbag69
(g90
g71
NtRp4056
(dp4057
g74
(dp4058
g101
g102
ssg83
g4048
sg76
(lp4059
S':'
asbag69
(g90
g71
NtRp4060
(dp4061
g74
(dp4062
sg83
g4048
sg76
(lp4063
g69
(g70
g71
NtRp4064
(dp4065
g74
(dp4066
g82
I3
ssg83
g4060
sg76
(lp4067
S''
asbasbasbag69
(g85
g71
NtRp4068
(dp4069
g74
(dp4070
sg83
g3923
sg76
(lp4071
g69
(g90
g71
NtRp4072
(dp4073
g74
(dp4074
g94
g95
ssg83
g4068
sg76
(lp4075
g529
asbag69
(g90
g71
NtRp4076
(dp4077
g74
(dp4078
g101
g102
ssg83
g4068
sg76
(lp4079
S':'
asbag69
(g90
g71
NtRp4080
(dp4081
g74
(dp4082
sg83
g4068
sg76
(lp4083
g69
(g70
g71
NtRp4084
(dp4085
g74
(dp4086
g82
I3
ssg83
g4080
sg76
(lp4087
S''
asbasbasbasbasbasbasbasbasbasbasbag69
(g85
g71
NtRp4088
(dp4089
g74
(dp4090
sg83
g3853
sg76
(lp4091
g69
(g90
g71
NtRp4092
(dp4093
g74
(dp4094
g94
g95
ssg83
g4088
sg76
(lp4095
S'files'
p4096
asbag69
(g90
g71
NtRp4097
(dp4098
g74
(dp4099
g101
g102
ssg83
g4088
sg76
(lp4100
S':'
asbag69
(g90
g71
NtRp4101
(dp4102
g74
(dp4103
sg83
g4088
sg76
(lp4104
g69
(g70
g71
NtRp4105
(dp4106
g74
(dp4107
g82
I5
ssg83
g4101
sg76
(lp4108
g69
(g78
g71
NtRp4109
(dp4110
g74
(dp4111
g82
I4
ssg83
Nsg76
(lp4112
sbasbasbasbag69
(g85
g71
NtRp4113
(dp4114
g74
(dp4115
sg83
g3853
sg76
(lp4116
g69
(g90
g71
NtRp4117
(dp4118
g74
(dp4119
g94
g95
ssg83
g4113
sg76
(lp4120
S'flash'
p4121
asbag69
(g90
g71
NtRp4122
(dp4123
g74
(dp4124
g101
g102
ssg83
g4113
sg76
(lp4125
S':'
asbag69
(g90
g71
NtRp4126
(dp4127
g74
(dp4128
sg83
g4113
sg76
(lp4129
g69
(g70
g71
NtRp4130
(dp4131
g74
(dp4132
g82
I5
ssg83
g4126
sg76
(lp4133
S''
asbasbasbag69
(g85
g71
NtRp4134
(dp4135
g74
(dp4136
sg83
g3853
sg76
(lp4137
g69
(g90
g71
NtRp4138
(dp4139
g74
(dp4140
g94
g95
ssg83
g4134
sg76
(lp4141
S'generic_patterns'
p4142
asbag69
(g90
g71
NtRp4143
(dp4144
g74
(dp4145
g101
g102
ssg83
g4134
sg76
(lp4146
S':'
asbag69
(g90
g71
NtRp4147
(dp4148
g74
(dp4149
sg83
g4134
sg76
(lp4150
g69
(g70
g71
NtRp4151
(dp4152
g74
(dp4153
g82
I5
ssg83
g4147
sg76
(lp4154
g69
(g78
g71
NtRp4155
(dp4156
g74
(dp4157
g82
I4
ssg83
Nsg76
(lp4158
g69
(g85
g71
NtRp4159
(dp4160
g74
(dp4161
sg83
g4155
sg76
(lp4162
g69
(g90
g71
NtRp4163
(dp4164
g74
(dp4165
sg83
g4159
sg76
(lp4166
g69
(g70
g71
NtRp4167
(dp4168
g74
(dp4169
g82
I4
ssg83
g4163
sg76
(lp4170
S'*'
asbasbasbasbasbasbasbag69
(g85
g71
NtRp4171
(dp4172
g74
(dp4173
sg83
g3853
sg76
(lp4174
g69
(g90
g71
NtRp4175
(dp4176
g74
(dp4177
g94
g95
ssg83
g4171
sg76
(lp4178
S'headers'
p4179
asbag69
(g90
g71
NtRp4180
(dp4181
g74
(dp4182
g101
g102
ssg83
g4171
sg76
(lp4183
S':'
asbag69
(g90
g71
NtRp4184
(dp4185
g74
(dp4186
sg83
g4171
sg76
(lp4187
g69
(g70
g71
NtRp4188
(dp4189
g74
(dp4190
g82
I5
ssg83
g4184
sg76
(lp4191
g69
(g78
g71
NtRp4192
(dp4193
g74
(dp4194
g82
I4
ssg83
Nsg76
(lp4195
g69
(g85
g71
NtRp4196
(dp4197
g74
(dp4198
sg83
g4192
sg76
(lp4199
g69
(g90
g71
NtRp4200
(dp4201
g74
(dp4202
g94
g95
ssg83
g4196
sg76
(lp4203
S'Cache-Control'
p4204
asbag69
(g90
g71
NtRp4205
(dp4206
g74
(dp4207
g101
g102
ssg83
g4196
sg76
(lp4208
S':'
asbag69
(g90
g71
NtRp4209
(dp4210
g74
(dp4211
sg83
g4196
sg76
(lp4212
g69
(g70
g71
NtRp4213
(dp4214
g74
(dp4215
g82
I4
ssg83
g4209
sg76
(lp4216
S'no-store, no-cache, must-revalidate, post-check=0, pre-check=0'
p4217
asbasbasbag69
(g85
g71
NtRp4218
(dp4219
g74
(dp4220
sg83
g4192
sg76
(lp4221
g69
(g90
g71
NtRp4222
(dp4223
g74
(dp4224
g94
g95
ssg83
g4218
sg76
(lp4225
S'Content-Type'
p4226
asbag69
(g90
g71
NtRp4227
(dp4228
g74
(dp4229
g101
g102
ssg83
g4218
sg76
(lp4230
S':'
asbag69
(g90
g71
NtRp4231
(dp4232
g74
(dp4233
sg83
g4218
sg76
(lp4234
g69
(g70
g71
NtRp4235
(dp4236
g74
(dp4237
g82
I4
ssg83
g4231
sg76
(lp4238
S'text/html; charset=utf-8'
p4239
asbasbasbag69
(g85
g71
NtRp4240
(dp4241
g74
(dp4242
sg83
g4192
sg76
(lp4243
g69
(g90
g71
NtRp4244
(dp4245
g74
(dp4246
g94
g95
ssg83
g4240
sg76
(lp4247
S'Expires'
p4248
asbag69
(g90
g71
NtRp4249
(dp4250
g74
(dp4251
g101
g102
ssg83
g4240
sg76
(lp4252
S':'
asbag69
(g90
g71
NtRp4253
(dp4254
g74
(dp4255
sg83
g4240
sg76
(lp4256
g69
(g70
g71
NtRp4257
(dp4258
g74
(dp4259
g82
I4
ssg83
g4253
sg76
(lp4260
S'Mon, 09 Jan 2012 23:11:31 GMT'
p4261
asbasbasbag69
(g85
g71
NtRp4262
(dp4263
g74
(dp4264
sg83
g4192
sg76
(lp4265
g69
(g90
g71
NtRp4266
(dp4267
g74
(dp4268
g94
g95
ssg83
g4262
sg76
(lp4269
S'Pragma'
p4270
asbag69
(g90
g71
NtRp4271
(dp4272
g74
(dp4273
g101
g102
ssg83
g4262
sg76
(lp4274
S':'
asbag69
(g90
g71
NtRp4275
(dp4276
g74
(dp4277
sg83
g4262
sg76
(lp4278
g69
(g70
g71
NtRp4279
(dp4280
g74
(dp4281
g82
I4
ssg83
g4275
sg76
(lp4282
S'no-cache'
p4283
asbasbasbag69
(g85
g71
NtRp4284
(dp4285
g74
(dp4286
sg83
g4192
sg76
(lp4287
g69
(g90
g71
NtRp4288
(dp4289
g74
(dp4290
g94
g95
ssg83
g4284
sg76
(lp4291
S'X-Powered-By'
p4292
asbag69
(g90
g71
NtRp4293
(dp4294
g74
(dp4295
g101
g102
ssg83
g4284
sg76
(lp4296
S':'
asbag69
(g90
g71
NtRp4297
(dp4298
g74
(dp4299
sg83
g4284
sg76
(lp4300
g69
(g70
g71
NtRp4301
(dp4302
g74
(dp4303
g82
I4
ssg83
g4297
sg76
(lp4304
S'web2py'
p4305
asbasbasbasbasbasbasbag69
(g85
g71
NtRp4306
(dp4307
g74
(dp4308
sg83
g3853
sg76
(lp4309
g69
(g90
g71
NtRp4310
(dp4311
g74
(dp4312
g94
g95
ssg83
g4306
sg76
(lp4313
S'menu'
p4314
asbag69
(g90
g71
NtRp4315
(dp4316
g74
(dp4317
g101
g102
ssg83
g4306
sg76
(lp4318
S':'
asbag69
(g90
g71
NtRp4319
(dp4320
g74
(dp4321
sg83
g4306
sg76
(lp4322
g69
(g70
g71
NtRp4323
(dp4324
g74
(dp4325
g82
I5
ssg83
g4319
sg76
(lp4326
g69
(g78
g71
NtRp4327
(dp4328
g74
(dp4329
g82
I4
ssg83
Nsg76
(lp4330
g69
(g85
g71
NtRp4331
(dp4332
g74
(dp4333
sg83
g4327
sg76
(lp4334
g69
(g90
g71
NtRp4335
(dp4336
g74
(dp4337
sg83
g4331
sg76
(lp4338
g69
(g70
g71
NtRp4339
(dp4340
g74
(dp4341
g82
I4
ssg83
g4335
sg76
(lp4342
g69
(g78
g71
NtRp4343
(dp4344
g74
(dp4345
g82
I3
ssg83
Nsg76
(lp4346
g69
(g85
g71
NtRp4347
(dp4348
g74
(dp4349
sg83
g4343
sg76
(lp4350
g69
(g90
g71
NtRp4351
(dp4352
g74
(dp4353
sg83
g4347
sg76
(lp4354
g69
(g70
g71
NtRp4355
(dp4356
g74
(dp4357
g82
I3
ssg83
g4351
sg76
(lp4358
cgluon.languages
lazyT_unpickle
p4359
(S't\x04\x00\x00\x00Home'
tRp4360
asbasbasbag69
(g85
g71
NtRp4361
(dp4362
g74
(dp4363
sg83
g4343
sg76
(lp4364
g69
(g90
g71
NtRp4365
(dp4366
g74
(dp4367
sg83
g4361
sg76
(lp4368
g69
(g70
g71
NtRp4369
(dp4370
g74
(dp4371
g82
I3
ssg83
g4365
sg76
(lp4372
g1256
asbasbasbag69
(g85
g71
NtRp4373
(dp4374
g74
(dp4375
sg83
g4343
sg76
(lp4376
g69
(g90
g71
NtRp4377
(dp4378
g74
(dp4379
sg83
g4373
sg76
(lp4380
g69
(g70
g71
NtRp4381
(dp4382
g74
(dp4383
g82
I3
ssg83
g4377
sg76
(lp4384
S'/topoi/default/index.load'
p4385
asbasbasbag69
(g85
g71
NtRp4386
(dp4387
g74
(dp4388
sg83
g4343
sg76
(lp4389
g69
(g90
g71
NtRp4390
(dp4391
g74
(dp4392
sg83
g4386
sg76
(lp4393
g69
(g70
g71
NtRp4394
(dp4395
g74
(dp4396
g82
I3
ssg83
g4390
sg76
(lp4397
g69
(g78
g71
NtRp4398
(dp4399
g74
(dp4400
g82
I2
ssg83
Nsg76
(lp4401
sbasbasbasbasbasbasbasbag69
(g85
g71
NtRp4402
(dp4403
g74
(dp4404
sg83
g4327
sg76
(lp4405
g69
(g90
g71
NtRp4406
(dp4407
g74
(dp4408
sg83
g4402
sg76
(lp4409
g69
(g70
g71
NtRp4410
(dp4411
g74
(dp4412
g82
I4
ssg83
g4406
sg76
(lp4413
g69
(g78
g71
NtRp4414
(dp4415
g74
(dp4416
g82
I3
ssg83
Nsg76
(lp4417
g69
(g85
g71
NtRp4418
(dp4419
g74
(dp4420
sg83
g4414
sg76
(lp4421
g69
(g90
g71
NtRp4422
(dp4423
g74
(dp4424
sg83
g4418
sg76
(lp4425
g69
(g70
g71
NtRp4426
(dp4427
g74
(dp4428
g82
I3
ssg83
g4422
sg76
(lp4429
g4359
(S't\x01\x00\x00\x00S'
tRp4430
asbasbasbag69
(g85
g71
NtRp4431
(dp4432
g74
(dp4433
sg83
g4414
sg76
(lp4434
g69
(g90
g71
NtRp4435
(dp4436
g74
(dp4437
sg83
g4431
sg76
(lp4438
g69
(g70
g71
NtRp4439
(dp4440
g74
(dp4441
g82
I3
ssg83
g4435
sg76
(lp4442
g1256
asbasbasbag69
(g85
g71
NtRp4443
(dp4444
g74
(dp4445
sg83
g4414
sg76
(lp4446
g69
(g90
g71
NtRp4447
(dp4448
g74
(dp4449
sg83
g4443
sg76
(lp4450
g69
(g70
g71
NtRp4451
(dp4452
g74
(dp4453
g82
I3
ssg83
g4447
sg76
(lp4454
S'/admin/default/design/topoi.load'
p4455
asbasbasbag69
(g85
g71
NtRp4456
(dp4457
g74
(dp4458
sg83
g4414
sg76
(lp4459
g69
(g90
g71
NtRp4460
(dp4461
g74
(dp4462
sg83
g4456
sg76
(lp4463
g69
(g70
g71
NtRp4464
(dp4465
g74
(dp4466
g82
I3
ssg83
g4460
sg76
(lp4467
g69
(g78
g71
NtRp4468
(dp4469
g74
(dp4470
g82
I2
ssg83
Nsg76
(lp4471
g69
(g85
g71
NtRp4472
(dp4473
g74
(dp4474
sg83
g4468
sg76
(lp4475
g69
(g90
g71
NtRp4476
(dp4477
g74
(dp4478
sg83
g4472
sg76
(lp4479
g69
(g70
g71
NtRp4480
(dp4481
g74
(dp4482
g82
I2
ssg83
g4476
sg76
(lp4483
g69
(g78
g71
NtRp4484
(dp4485
g74
(dp4486
g82
I1
ssg83
Nsg76
(lp4487
g69
(g85
g71
NtRp4488
(dp4489
g74
(dp4490
sg83
g4484
sg76
(lp4491
g69
(g90
g71
NtRp4492
(dp4493
g74
(dp4494
sg83
g4488
sg76
(lp4495
g69
(g70
g71
NtRp4496
(dp4497
g74
(dp4498
g82
I1
ssg83
g4492
sg76
(lp4499
g4359
(S't\n\x00\x00\x00Controller'
tRp4500
asbasbasbag69
(g85
g71
NtRp4501
(dp4502
g74
(dp4503
sg83
g4484
sg76
(lp4504
g69
(g90
g71
NtRp4505
(dp4506
g74
(dp4507
sg83
g4501
sg76
(lp4508
g69
(g70
g71
NtRp4509
(dp4510
g74
(dp4511
g82
I1
ssg83
g4505
sg76
(lp4512
I00
asbasbasbag69
(g85
g71
NtRp4513
(dp4514
g74
(dp4515
sg83
g4484
sg76
(lp4516
g69
(g90
g71
NtRp4517
(dp4518
g74
(dp4519
sg83
g4513
sg76
(lp4520
g69
(g70
g71
NtRp4521
(dp4522
g74
(dp4523
g82
I1
ssg83
g4517
sg76
(lp4524
S'/admin/default/edit/topoi/controllers/plugin_ajaxselect.py'
p4525
asbasbasbasbasbasbasbag69
(g85
g71
NtRp4526
(dp4527
g74
(dp4528
sg83
g4468
sg76
(lp4529
g69
(g90
g71
NtRp4530
(dp4531
g74
(dp4532
sg83
g4526
sg76
(lp4533
g69
(g70
g71
NtRp4534
(dp4535
g74
(dp4536
g82
I2
ssg83
g4530
sg76
(lp4537
g69
(g78
g71
NtRp4538
(dp4539
g74
(dp4540
g82
I1
ssg83
Nsg76
(lp4541
g69
(g85
g71
NtRp4542
(dp4543
g74
(dp4544
sg83
g4538
sg76
(lp4545
g69
(g90
g71
NtRp4546
(dp4547
g74
(dp4548
sg83
g4542
sg76
(lp4549
g69
(g70
g71
NtRp4550
(dp4551
g74
(dp4552
g82
I1
ssg83
g4546
sg76
(lp4553
g4359
(S't\x04\x00\x00\x00View'
tRp4554
asbasbasbag69
(g85
g71
NtRp4555
(dp4556
g74
(dp4557
sg83
g4538
sg76
(lp4558
g69
(g90
g71
NtRp4559
(dp4560
g74
(dp4561
sg83
g4555
sg76
(lp4562
g69
(g70
g71
NtRp4563
(dp4564
g74
(dp4565
g82
I1
ssg83
g4559
sg76
(lp4566
I00
asbasbasbag69
(g85
g71
NtRp4567
(dp4568
g74
(dp4569
sg83
g4538
sg76
(lp4570
g69
(g90
g71
NtRp4571
(dp4572
g74
(dp4573
sg83
g4567
sg76
(lp4574
g69
(g70
g71
NtRp4575
(dp4576
g74
(dp4577
g82
I1
ssg83
g4571
sg76
(lp4578
S'/admin/default/edit/topoi/views/plugin_ajaxselect/set_widget.load'
p4579
asbasbasbasbasbasbasbag69
(g85
g71
NtRp4580
(dp4581
g74
(dp4582
sg83
g4468
sg76
(lp4583
g69
(g90
g71
NtRp4584
(dp4585
g74
(dp4586
sg83
g4580
sg76
(lp4587
g69
(g70
g71
NtRp4588
(dp4589
g74
(dp4590
g82
I2
ssg83
g4584
sg76
(lp4591
g69
(g78
g71
NtRp4592
(dp4593
g74
(dp4594
g82
I1
ssg83
Nsg76
(lp4595
g69
(g85
g71
NtRp4596
(dp4597
g74
(dp4598
sg83
g4592
sg76
(lp4599
g69
(g90
g71
NtRp4600
(dp4601
g74
(dp4602
sg83
g4596
sg76
(lp4603
g69
(g70
g71
NtRp4604
(dp4605
g74
(dp4606
g82
I1
ssg83
g4600
sg76
(lp4607
g4359
(S't\x06\x00\x00\x00Layout'
tRp4608
asbasbasbag69
(g85
g71
NtRp4609
(dp4610
g74
(dp4611
sg83
g4592
sg76
(lp4612
g69
(g90
g71
NtRp4613
(dp4614
g74
(dp4615
sg83
g4609
sg76
(lp4616
g69
(g70
g71
NtRp4617
(dp4618
g74
(dp4619
g82
I1
ssg83
g4613
sg76
(lp4620
I00
asbasbasbag69
(g85
g71
NtRp4621
(dp4622
g74
(dp4623
sg83
g4592
sg76
(lp4624
g69
(g90
g71
NtRp4625
(dp4626
g74
(dp4627
sg83
g4621
sg76
(lp4628
g69
(g70
g71
NtRp4629
(dp4630
g74
(dp4631
g82
I1
ssg83
g4625
sg76
(lp4632
S'/admin/default/edit/topoi/views/layout.html'
p4633
asbasbasbasbasbasbasbag69
(g85
g71
NtRp4634
(dp4635
g74
(dp4636
sg83
g4468
sg76
(lp4637
g69
(g90
g71
NtRp4638
(dp4639
g74
(dp4640
sg83
g4634
sg76
(lp4641
g69
(g70
g71
NtRp4642
(dp4643
g74
(dp4644
g82
I2
ssg83
g4638
sg76
(lp4645
g69
(g78
g71
NtRp4646
(dp4647
g74
(dp4648
g82
I1
ssg83
Nsg76
(lp4649
g69
(g85
g71
NtRp4650
(dp4651
g74
(dp4652
sg83
g4646
sg76
(lp4653
g69
(g90
g71
NtRp4654
(dp4655
g74
(dp4656
sg83
g4650
sg76
(lp4657
g69
(g70
g71
NtRp4658
(dp4659
g74
(dp4660
g82
I1
ssg83
g4654
sg76
(lp4661
g4359
(S't\n\x00\x00\x00Stylesheet'
tRp4662
asbasbasbag69
(g85
g71
NtRp4663
(dp4664
g74
(dp4665
sg83
g4646
sg76
(lp4666
g69
(g90
g71
NtRp4667
(dp4668
g74
(dp4669
sg83
g4663
sg76
(lp4670
g69
(g70
g71
NtRp4671
(dp4672
g74
(dp4673
g82
I1
ssg83
g4667
sg76
(lp4674
I00
asbasbasbag69
(g85
g71
NtRp4675
(dp4676
g74
(dp4677
sg83
g4646
sg76
(lp4678
g69
(g90
g71
NtRp4679
(dp4680
g74
(dp4681
sg83
g4675
sg76
(lp4682
g69
(g70
g71
NtRp4683
(dp4684
g74
(dp4685
g82
I1
ssg83
g4679
sg76
(lp4686
S'/admin/default/edit/topoi/static/base.css'
p4687
asbasbasbasbasbasbasbag69
(g85
g71
NtRp4688
(dp4689
g74
(dp4690
sg83
g4468
sg76
(lp4691
g69
(g90
g71
NtRp4692
(dp4693
g74
(dp4694
sg83
g4688
sg76
(lp4695
g69
(g70
g71
NtRp4696
(dp4697
g74
(dp4698
g82
I2
ssg83
g4692
sg76
(lp4699
g69
(g78
g71
NtRp4700
(dp4701
g74
(dp4702
g82
I1
ssg83
Nsg76
(lp4703
g69
(g85
g71
NtRp4704
(dp4705
g74
(dp4706
sg83
g4700
sg76
(lp4707
g69
(g90
g71
NtRp4708
(dp4709
g74
(dp4710
sg83
g4704
sg76
(lp4711
g69
(g70
g71
NtRp4712
(dp4713
g74
(dp4714
g82
I1
ssg83
g4708
sg76
(lp4715
g4359
(S's\x08\x00\x00\x00DB Model'
tRp4716
asbasbasbag69
(g85
g71
NtRp4717
(dp4718
g74
(dp4719
sg83
g4700
sg76
(lp4720
g69
(g90
g71
NtRp4721
(dp4722
g74
(dp4723
sg83
g4717
sg76
(lp4724
g69
(g70
g71
NtRp4725
(dp4726
g74
(dp4727
g82
I1
ssg83
g4721
sg76
(lp4728
I00
asbasbasbag69
(g85
g71
NtRp4729
(dp4730
g74
(dp4731
sg83
g4700
sg76
(lp4732
g69
(g90
g71
NtRp4733
(dp4734
g74
(dp4735
sg83
g4729
sg76
(lp4736
g69
(g70
g71
NtRp4737
(dp4738
g74
(dp4739
g82
I1
ssg83
g4733
sg76
(lp4740
S'/admin/default/edit/topoi/models/db.py'
p4741
asbasbasbasbasbasbasbag69
(g85
g71
NtRp4742
(dp4743
g74
(dp4744
sg83
g4468
sg76
(lp4745
g69
(g90
g71
NtRp4746
(dp4747
g74
(dp4748
sg83
g4742
sg76
(lp4749
g69
(g70
g71
NtRp4750
(dp4751
g74
(dp4752
g82
I2
ssg83
g4746
sg76
(lp4753
g69
(g78
g71
NtRp4754
(dp4755
g74
(dp4756
g82
I1
ssg83
Nsg76
(lp4757
g69
(g85
g71
NtRp4758
(dp4759
g74
(dp4760
sg83
g4754
sg76
(lp4761
g69
(g90
g71
NtRp4762
(dp4763
g74
(dp4764
sg83
g4758
sg76
(lp4765
g69
(g70
g71
NtRp4766
(dp4767
g74
(dp4768
g82
I1
ssg83
g4762
sg76
(lp4769
g4359
(S's\n\x00\x00\x00Menu Model'
tRp4770
asbasbasbag69
(g85
g71
NtRp4771
(dp4772
g74
(dp4773
sg83
g4754
sg76
(lp4774
g69
(g90
g71
NtRp4775
(dp4776
g74
(dp4777
sg83
g4771
sg76
(lp4778
g69
(g70
g71
NtRp4779
(dp4780
g74
(dp4781
g82
I1
ssg83
g4775
sg76
(lp4782
I00
asbasbasbag69
(g85
g71
NtRp4783
(dp4784
g74
(dp4785
sg83
g4754
sg76
(lp4786
g69
(g90
g71
NtRp4787
(dp4788
g74
(dp4789
sg83
g4783
sg76
(lp4790
g69
(g70
g71
NtRp4791
(dp4792
g74
(dp4793
g82
I1
ssg83
g4787
sg76
(lp4794
S'/admin/default/edit/topoi/models/menu.py'
p4795
asbasbasbasbasbasbasbag69
(g85
g71
NtRp4796
(dp4797
g74
(dp4798
sg83
g4468
sg76
(lp4799
g69
(g90
g71
NtRp4800
(dp4801
g74
(dp4802
sg83
g4796
sg76
(lp4803
g69
(g70
g71
NtRp4804
(dp4805
g74
(dp4806
g82
I2
ssg83
g4800
sg76
(lp4807
g69
(g78
g71
NtRp4808
(dp4809
g74
(dp4810
g82
I1
ssg83
Nsg76
(lp4811
g69
(g85
g71
NtRp4812
(dp4813
g74
(dp4814
sg83
g4808
sg76
(lp4815
g69
(g90
g71
NtRp4816
(dp4817
g74
(dp4818
sg83
g4812
sg76
(lp4819
g69
(g70
g71
NtRp4820
(dp4821
g74
(dp4822
g82
I1
ssg83
g4816
sg76
(lp4823
g4359
(S't\x08\x00\x00\x00Database'
tRp4824
asbasbasbag69
(g85
g71
NtRp4825
(dp4826
g74
(dp4827
sg83
g4808
sg76
(lp4828
g69
(g90
g71
NtRp4829
(dp4830
g74
(dp4831
sg83
g4825
sg76
(lp4832
g69
(g70
g71
NtRp4833
(dp4834
g74
(dp4835
g82
I1
ssg83
g4829
sg76
(lp4836
I00
asbasbasbag69
(g85
g71
NtRp4837
(dp4838
g74
(dp4839
sg83
g4808
sg76
(lp4840
g69
(g90
g71
NtRp4841
(dp4842
g74
(dp4843
sg83
g4837
sg76
(lp4844
g69
(g70
g71
NtRp4845
(dp4846
g74
(dp4847
g82
I1
ssg83
g4841
sg76
(lp4848
S'/topoi/appadmin/index.load'
p4849
asbasbasbasbasbasbasbag69
(g85
g71
NtRp4850
(dp4851
g74
(dp4852
sg83
g4468
sg76
(lp4853
g69
(g90
g71
NtRp4854
(dp4855
g74
(dp4856
sg83
g4850
sg76
(lp4857
g69
(g70
g71
NtRp4858
(dp4859
g74
(dp4860
g82
I2
ssg83
g4854
sg76
(lp4861
g69
(g78
g71
NtRp4862
(dp4863
g74
(dp4864
g82
I1
ssg83
Nsg76
(lp4865
g69
(g85
g71
NtRp4866
(dp4867
g74
(dp4868
sg83
g4862
sg76
(lp4869
g69
(g90
g71
NtRp4870
(dp4871
g74
(dp4872
sg83
g4866
sg76
(lp4873
g69
(g70
g71
NtRp4874
(dp4875
g74
(dp4876
g82
I1
ssg83
g4870
sg76
(lp4877
g4359
(S't\x06\x00\x00\x00Errors'
tRp4878
asbasbasbag69
(g85
g71
NtRp4879
(dp4880
g74
(dp4881
sg83
g4862
sg76
(lp4882
g69
(g90
g71
NtRp4883
(dp4884
g74
(dp4885
sg83
g4879
sg76
(lp4886
g69
(g70
g71
NtRp4887
(dp4888
g74
(dp4889
g82
I1
ssg83
g4883
sg76
(lp4890
I00
asbasbasbag69
(g85
g71
NtRp4891
(dp4892
g74
(dp4893
sg83
g4862
sg76
(lp4894
g69
(g90
g71
NtRp4895
(dp4896
g74
(dp4897
sg83
g4891
sg76
(lp4898
g69
(g70
g71
NtRp4899
(dp4900
g74
(dp4901
g82
I1
ssg83
g4895
sg76
(lp4902
S'/admin/default/errors/topoi.load'
p4903
asbasbasbasbasbasbasbag69
(g85
g71
NtRp4904
(dp4905
g74
(dp4906
sg83
g4468
sg76
(lp4907
g69
(g90
g71
NtRp4908
(dp4909
g74
(dp4910
sg83
g4904
sg76
(lp4911
g69
(g70
g71
NtRp4912
(dp4913
g74
(dp4914
g82
I2
ssg83
g4908
sg76
(lp4915
g69
(g78
g71
NtRp4916
(dp4917
g74
(dp4918
g82
I1
ssg83
Nsg76
(lp4919
g69
(g85
g71
NtRp4920
(dp4921
g74
(dp4922
sg83
g4916
sg76
(lp4923
g69
(g90
g71
NtRp4924
(dp4925
g74
(dp4926
sg83
g4920
sg76
(lp4927
g69
(g70
g71
NtRp4928
(dp4929
g74
(dp4930
g82
I1
ssg83
g4924
sg76
(lp4931
g4359
(S't\x05\x00\x00\x00About'
tRp4932
asbasbasbag69
(g85
g71
NtRp4933
(dp4934
g74
(dp4935
sg83
g4916
sg76
(lp4936
g69
(g90
g71
NtRp4937
(dp4938
g74
(dp4939
sg83
g4933
sg76
(lp4940
g69
(g70
g71
NtRp4941
(dp4942
g74
(dp4943
g82
I1
ssg83
g4937
sg76
(lp4944
I00
asbasbasbag69
(g85
g71
NtRp4945
(dp4946
g74
(dp4947
sg83
g4916
sg76
(lp4948
g69
(g90
g71
NtRp4949
(dp4950
g74
(dp4951
sg83
g4945
sg76
(lp4952
g69
(g70
g71
NtRp4953
(dp4954
g74
(dp4955
g82
I1
ssg83
g4949
sg76
(lp4956
S'/admin/default/about/topoi.load'
p4957
asbasbasbasbasbasbasbasbasbasbasbasbasbasbasbasbasbasbasbag69
(g85
g71
NtRp4958
(dp4959
g74
(dp4960
sg83
g3853
sg76
(lp4961
g69
(g90
g71
NtRp4962
(dp4963
g74
(dp4964
g94
g95
ssg83
g4958
sg76
(lp4965
S'meta'
p4966
asbag69
(g90
g71
NtRp4967
(dp4968
g74
(dp4969
g101
g102
ssg83
g4958
sg76
(lp4970
S':'
asbag69
(g90
g71
NtRp4971
(dp4972
g74
(dp4973
sg83
g4958
sg76
(lp4974
g69
(g70
g71
NtRp4975
(dp4976
g74
(dp4977
g82
I5
ssg83
g4971
sg76
(lp4978
g69
(g78
g71
NtRp4979
(dp4980
g74
(dp4981
g82
I4
ssg83
Nsg76
(lp4982
g69
(g85
g71
NtRp4983
(dp4984
g74
(dp4985
sg83
g4979
sg76
(lp4986
g69
(g90
g71
NtRp4987
(dp4988
g74
(dp4989
g94
g95
ssg83
g4983
sg76
(lp4990
S'author'
p4991
asbag69
(g90
g71
NtRp4992
(dp4993
g74
(dp4994
g101
g102
ssg83
g4983
sg76
(lp4995
S':'
asbag69
(g90
g71
NtRp4996
(dp4997
g74
(dp4998
sg83
g4983
sg76
(lp4999
g69
(g70
g71
NtRp5000
(dp5001
g74
(dp5002
g82
I4
ssg83
g4996
sg76
(lp5003
S'Ian W. Scott'
p5004
asbasbasbag69
(g85
g71
NtRp5005
(dp5006
g74
(dp5007
sg83
g4979
sg76
(lp5008
g69
(g90
g71
NtRp5009
(dp5010
g74
(dp5011
g94
g95
ssg83
g5005
sg76
(lp5012
S'copyright'
p5013
asbag69
(g90
g71
NtRp5014
(dp5015
g74
(dp5016
g101
g102
ssg83
g5005
sg76
(lp5017
S':'
asbag69
(g90
g71
NtRp5018
(dp5019
g74
(dp5020
sg83
g5005
sg76
(lp5021
g69
(g70
g71
NtRp5022
(dp5023
g74
(dp5024
g82
I4
ssg83
g5018
sg76
(lp5025
S'Copyright 2011'
p5026
asbasbasbag69
(g85
g71
NtRp5027
(dp5028
g74
(dp5029
sg83
g4979
sg76
(lp5030
g69
(g90
g71
NtRp5031
(dp5032
g74
(dp5033
g94
g95
ssg83
g5027
sg76
(lp5034
S'description'
p5035
asbag69
(g90
g71
NtRp5036
(dp5037
g74
(dp5038
g101
g102
ssg83
g5027
sg76
(lp5039
S':'
asbag69
(g90
g71
NtRp5040
(dp5041
g74
(dp5042
sg83
g5027
sg76
(lp5043
g69
(g70
g71
NtRp5044
(dp5045
g74
(dp5046
g82
I4
ssg83
g5040
sg76
(lp5047
S'A web-app for managing primary-text research in the humanities.'
p5048
asbasbasbag69
(g85
g71
NtRp5049
(dp5050
g74
(dp5051
sg83
g4979
sg76
(lp5052
g69
(g90
g71
NtRp5053
(dp5054
g74
(dp5055
g94
g95
ssg83
g5049
sg76
(lp5056
S'generator'
p5057
asbag69
(g90
g71
NtRp5058
(dp5059
g74
(dp5060
g101
g102
ssg83
g5049
sg76
(lp5061
S':'
asbag69
(g90
g71
NtRp5062
(dp5063
g74
(dp5064
sg83
g5049
sg76
(lp5065
g69
(g70
g71
NtRp5066
(dp5067
g74
(dp5068
g82
I4
ssg83
g5062
sg76
(lp5069
S'Web2py Enterprise Framework'
p5070
asbasbasbag69
(g85
g71
NtRp5071
(dp5072
g74
(dp5073
sg83
g4979
sg76
(lp5074
g69
(g90
g71
NtRp5075
(dp5076
g74
(dp5077
g94
g95
ssg83
g5071
sg76
(lp5078
S'keywords'
p5079
asbag69
(g90
g71
NtRp5080
(dp5081
g74
(dp5082
g101
g102
ssg83
g5071
sg76
(lp5083
S':'
asbag69
(g90
g71
NtRp5084
(dp5085
g74
(dp5086
sg83
g5071
sg76
(lp5087
g69
(g70
g71
NtRp5088
(dp5089
g74
(dp5090
g82
I4
ssg83
g5084
sg76
(lp5091
S'research, humanities, biblical'
p5092
asbasbasbasbasbasbasbag69
(g85
g71
NtRp5093
(dp5094
g74
(dp5095
sg83
g3853
sg76
(lp5096
g69
(g90
g71
NtRp5097
(dp5098
g74
(dp5099
g94
g95
ssg83
g5093
sg76
(lp5100
S'postprocessing'
p5101
asbag69
(g90
g71
NtRp5102
(dp5103
g74
(dp5104
g101
g102
ssg83
g5093
sg76
(lp5105
S':'
asbag69
(g90
g71
NtRp5106
(dp5107
g74
(dp5108
sg83
g5093
sg76
(lp5109
g69
(g70
g71
NtRp5110
(dp5111
g74
(dp5112
g82
I5
ssg83
g5106
sg76
(lp5113
g69
(g78
g71
NtRp5114
(dp5115
g74
(dp5116
g82
I4
ssg83
Nsg76
(lp5117
sbasbasbasbag69
(g85
g71
NtRp5118
(dp5119
g74
(dp5120
sg83
g3853
sg76
(lp5121
g69
(g90
g71
NtRp5122
(dp5123
g74
(dp5124
g94
g95
ssg83
g5118
sg76
(lp5125
S'session_file'
p5126
asbag69
(g90
g71
NtRp5127
(dp5128
g74
(dp5129
g101
g102
ssg83
g5118
sg76
(lp5130
S':'
asbag69
(g90
g71
NtRp5131
(dp5132
g74
(dp5133
sg83
g5118
sg76
(lp5134
g69
(g70
g71
NtRp5135
(dp5136
g74
(dp5137
g82
I5
ssg83
g5131
sg76
(lp5138
S"<open file '/home/ian/web2py/applications/topoi/sessions/127.0.0.1-fbfd7fa3-57f5-4d42-8f08-594178070e93', mode 'rb+' at 0x324b810>"
p5139
asbasbasbag69
(g85
g71
NtRp5140
(dp5141
g74
(dp5142
sg83
g3853
sg76
(lp5143
g69
(g90
g71
NtRp5144
(dp5145
g74
(dp5146
g94
g95
ssg83
g5140
sg76
(lp5147
S'session_filename'
p5148
asbag69
(g90
g71
NtRp5149
(dp5150
g74
(dp5151
g101
g102
ssg83
g5140
sg76
(lp5152
S':'
asbag69
(g90
g71
NtRp5153
(dp5154
g74
(dp5155
sg83
g5140
sg76
(lp5156
g69
(g70
g71
NtRp5157
(dp5158
g74
(dp5159
g82
I5
ssg83
g5153
sg76
(lp5160
S'/home/ian/web2py/applications/topoi/sessions/127.0.0.1-fbfd7fa3-57f5-4d42-8f08-594178070e93'
p5161
asbasbasbag69
(g85
g71
NtRp5162
(dp5163
g74
(dp5164
sg83
g3853
sg76
(lp5165
g69
(g90
g71
NtRp5166
(dp5167
g74
(dp5168
g94
g95
ssg83
g5162
sg76
(lp5169
S'session_id'
p5170
asbag69
(g90
g71
NtRp5171
(dp5172
g74
(dp5173
g101
g102
ssg83
g5162
sg76
(lp5174
S':'
asbag69
(g90
g71
NtRp5175
(dp5176
g74
(dp5177
sg83
g5162
sg76
(lp5178
g69
(g70
g71
NtRp5179
(dp5180
g74
(dp5181
g82
I5
ssg83
g5175
sg76
(lp5182
S'127.0.0.1-fbfd7fa3-57f5-4d42-8f08-594178070e93'
p5183
asbasbasbag69
(g85
g71
NtRp5184
(dp5185
g74
(dp5186
sg83
g3853
sg76
(lp5187
g69
(g90
g71
NtRp5188
(dp5189
g74
(dp5190
g94
g95
ssg83
g5184
sg76
(lp5191
S'session_id_name'
p5192
asbag69
(g90
g71
NtRp5193
(dp5194
g74
(dp5195
g101
g102
ssg83
g5184
sg76
(lp5196
S':'
asbag69
(g90
g71
NtRp5197
(dp5198
g74
(dp5199
sg83
g5184
sg76
(lp5200
g69
(g70
g71
NtRp5201
(dp5202
g74
(dp5203
g82
I5
ssg83
g5197
sg76
(lp5204
g3910
asbasbasbag69
(g85
g71
NtRp5205
(dp5206
g74
(dp5207
sg83
g3853
sg76
(lp5208
g69
(g90
g71
NtRp5209
(dp5210
g74
(dp5211
g94
g95
ssg83
g5205
sg76
(lp5212
S'session_locked'
p5213
asbag69
(g90
g71
NtRp5214
(dp5215
g74
(dp5216
g101
g102
ssg83
g5205
sg76
(lp5217
S':'
asbag69
(g90
g71
NtRp5218
(dp5219
g74
(dp5220
sg83
g5205
sg76
(lp5221
g69
(g70
g71
NtRp5222
(dp5223
g74
(dp5224
g82
I5
ssg83
g5218
sg76
(lp5225
g112
asbasbasbag69
(g85
g71
NtRp5226
(dp5227
g74
(dp5228
sg83
g3853
sg76
(lp5229
g69
(g90
g71
NtRp5230
(dp5231
g74
(dp5232
g94
g95
ssg83
g5226
sg76
(lp5233
S'session_new'
p5234
asbag69
(g90
g71
NtRp5235
(dp5236
g74
(dp5237
g101
g102
ssg83
g5226
sg76
(lp5238
S':'
asbag69
(g90
g71
NtRp5239
(dp5240
g74
(dp5241
sg83
g5226
sg76
(lp5242
g69
(g70
g71
NtRp5243
(dp5244
g74
(dp5245
g82
I5
ssg83
g5239
sg76
(lp5246
g1256
asbasbasbag69
(g85
g71
NtRp5247
(dp5248
g74
(dp5249
sg83
g3853
sg76
(lp5250
g69
(g90
g71
NtRp5251
(dp5252
g74
(dp5253
g94
g95
ssg83
g5247
sg76
(lp5254
S'status'
p5255
asbag69
(g90
g71
NtRp5256
(dp5257
g74
(dp5258
g101
g102
ssg83
g5247
sg76
(lp5259
S':'
asbag69
(g90
g71
NtRp5260
(dp5261
g74
(dp5262
sg83
g5247
sg76
(lp5263
g69
(g70
g71
NtRp5264
(dp5265
g74
(dp5266
g82
I5
ssg83
g5260
sg76
(lp5267
S'200'
p5268
asbasbasbag69
(g85
g71
NtRp5269
(dp5270
g74
(dp5271
sg83
g3853
sg76
(lp5272
g69
(g90
g71
NtRp5273
(dp5274
g74
(dp5275
g94
g95
ssg83
g5269
sg76
(lp5276
S'subtitle'
p5277
asbag69
(g90
g71
NtRp5278
(dp5279
g74
(dp5280
g101
g102
ssg83
g5269
sg76
(lp5281
S':'
asbag69
(g90
g71
NtRp5282
(dp5283
g74
(dp5284
sg83
g5269
sg76
(lp5285
g69
(g70
g71
NtRp5286
(dp5287
g74
(dp5288
g82
I5
ssg83
g5282
sg76
(lp5289
g4359
(S's;\x00\x00\x00A tool for managing primary-text research in the humanities'
tRp5290
asbasbasbag69
(g85
g71
NtRp5291
(dp5292
g74
(dp5293
sg83
g3853
sg76
(lp5294
g69
(g90
g71
NtRp5295
(dp5296
g74
(dp5297
g94
g95
ssg83
g5291
sg76
(lp5298
S'title'
p5299
asbag69
(g90
g71
NtRp5300
(dp5301
g74
(dp5302
g101
g102
ssg83
g5291
sg76
(lp5303
S':'
asbag69
(g90
g71
NtRp5304
(dp5305
g74
(dp5306
sg83
g5291
sg76
(lp5307
g69
(g70
g71
NtRp5308
(dp5309
g74
(dp5310
g82
I5
ssg83
g5304
sg76
(lp5311
g134
asbasbasbag69
(g85
g71
NtRp5312
(dp5313
g74
(dp5314
sg83
g3853
sg76
(lp5315
g69
(g90
g71
NtRp5316
(dp5317
g74
(dp5318
g94
g95
ssg83
g5312
sg76
(lp5319
g2746
asbag69
(g90
g71
NtRp5320
(dp5321
g74
(dp5322
g101
g102
ssg83
g5312
sg76
(lp5323
S':'
asbag69
(g90
g71
NtRp5324
(dp5325
g74
(dp5326
sg83
g5312
sg76
(lp5327
g69
(g70
g71
NtRp5328
(dp5329
g74
(dp5330
g82
I5
ssg83
g5324
sg76
(lp5331
g2759
asbasbasbag69
(g85
g71
NtRp5332
(dp5333
g74
(dp5334
sg83
g3853
sg76
(lp5335
g69
(g90
g71
NtRp5336
(dp5337
g74
(dp5338
g94
g95
ssg83
g5332
sg76
(lp5339
S'view'
p5340
asbag69
(g90
g71
NtRp5341
(dp5342
g74
(dp5343
g101
g102
ssg83
g5332
sg76
(lp5344
S':'
asbag69
(g90
g71
NtRp5345
(dp5346
g74
(dp5347
sg83
g5332
sg76
(lp5348
g69
(g70
g71
NtRp5349
(dp5350
g74
(dp5351
g82
I5
ssg83
g5345
sg76
(lp5352
S'plugin_ajaxselect/set_widget.load'
p5353
asbasbasbasbasbsS'locals'
p5354
(dp5355
g4
S"'/home/ian/web2py/applications/topoi/controllers/plugin_ajaxselect.py'"
p5356
sg6
S"'if 0:\\n    from gluon import current\\n    request ...rm)\\n\\nresponse._vars=response._caller(set_widget)\\n'"
p5357
sssS'traceback'
p5358
S'Traceback (most recent call last):\n  File "/home/ian/web2py/gluon/restricted.py", line 203, in restricted\n    ccode = compile2(code,layer)\n  File "/home/ian/web2py/gluon/restricted.py", line 189, in compile2\n    return compile(code.rstrip().replace(\'\\r\\n\',\'\\n\')+\'\\n\', layer, \'exec\')\n  File "/home/ian/web2py/applications/topoi/controllers/plugin_ajaxselect.py", line 26\n    rows = db(the_linktable.id ==).select()\n                                 ^\nSyntaxError: invalid syntax\n'
p5359
s.