(dp1
S'output'
p2
S"<type 'exceptions.TypeError'> can't multiply sequence by non-int of type 'list'"
p3
sS'layer'
p4
S'/home/ian/web2py/applications/topoi/controllers/plugin_ajaxselect.py'
p5
sS'code'
p6
S'if 0:\n    from gluon import current, SELECT, OPTION, SQLFORM, URL\n    from gluon.DAL import db\n    request, response = current.request, current.response\n\nfrom gluon.sqlhtml import OptionsWidget\n\ndef set_widget():\n    """\n    creates a replacement instance of the OptionsWidget class defined in gluon.sqlhtml and returns the result to re-populate the ajax LOAD field\n    """\n\n    #get variables to build widget for the proper field, with proper current value\n    table = request.args[0]\n    field = request.args[1]\n    value = request.args[2]\n    linktable = request.args[3]\n    #args[4] is the wrappername, but is not used in this function\n\n    the_table = db[table]\n    the_field = the_table[field]\n    the_linktable = db[linktable]\n\n    #testing for the extra argument added by javascript in plugin_ajaxselect.js when refresh is triggered by change in another select value\n    if len(request.args) > 5:\n        #get the value from the restricting select box to use in filtering this one\n        filter_val = request.args[5]\n        #find the table behind the constraining widget\n        filter_t = request.args[6]\n        #find the corresponding field in this select\'s linked table\n        ref = \'reference %s\' % filter_t\n        cf = [f for f in the_linktable.fields if the_linktable[f].type == ref][0]\n        #filter the rows from the linked table accordingly\n        rows = db(the_linktable[cf] == filter_val).select()\n        #get the field name to represent values in the new select widget\n        rep = the_linktable.fields[1]\n        #build the name for the refreshed select widget\n        n = table + \'_\' + field\n        #create the widget with filtered options\n        w = SELECT(_id=n, _class=\'generic-widget\' *[OPTION(e[rep], _value=e.id) for e in rows])\n    else:\n        #refresh using ordinary widget if no filter constraints\n        w = OptionsWidget.widget(the_field, value)\n\n    return dict(widget = w, linktable = linktable)\n\ndef set_form_wrapper():\n    """\n    Creates the LOAD helper to hold the modal form for creating a new item in the linked table\n    """\n    tablename = request.args[0]\n    fieldname = request.args[1]\n    value = request.args[2]\n    linktable = request.args[3]\n    wrappername = request.args[4]\n\n\n    formwrapper = LOAD(\'plugin_ajaxselect\', \'linked_create_form.load\', args=[tablename, fieldname, value, linktable, wrappername], ajax=True)\n\n    return dict(formwrapper = formwrapper)\n\n\ndef linked_create_form():\n    """\n    creates a form to insert a new entry into the linked table which populates the ajaxSelect widget\n    """\n\n    tablename = request.args[0]\n    fieldname = request.args[1]\n    value = request.args[2]\n    linktable = request.args[3]\n    wrappername = request.args[4]\n\n    form = SQLFORM(db[linktable])\n\n    comp_url = URL(\'plugin_ajaxselect\', \'set_widget.load\', args=[tablename, fieldname, value, linktable, wrappername])\n\n    if form.process().accepted:\n        response.flash = \'form accepted\'\n        response.js = "web2py_component(\'%s\', \'%s\');" % (comp_url, wrappername)\n    else:\n        response.error = \'form was not processed\'\n\n    return dict(form = form)\n\nresponse._vars=response._caller(set_widget)\n'
p7
sS'snapshot'
p8
(dp9
S'exception'
p10
(dp11
S'__hash__'
p12
S"<method-wrapper '__hash__' of exceptions.TypeError object>"
p13
sS'__setattr__'
p14
S"<method-wrapper '__setattr__' of exceptions.TypeError object>"
p15
sS'__reduce_ex__'
p16
S'<built-in method __reduce_ex__ of exceptions.TypeError object>'
p17
sS'__getslice__'
p18
S"<method-wrapper '__getslice__' of exceptions.TypeError object>"
p19
sS'__getitem__'
p20
S"<method-wrapper '__getitem__' of exceptions.TypeError object>"
p21
sS'__setstate__'
p22
S'<built-in method __setstate__ of exceptions.TypeError object>'
p23
sS'args'
p24
S'("can\'t multiply sequence by non-int of type \'list\'",)'
p25
sS'__reduce__'
p26
S'<built-in method __reduce__ of exceptions.TypeError object>'
p27
sS'__str__'
p28
S"<method-wrapper '__str__' of exceptions.TypeError object>"
p29
sS'__format__'
p30
S'<built-in method __format__ of exceptions.TypeError object>'
p31
sS'__getattribute__'
p32
S"<method-wrapper '__getattribute__' of exceptions.TypeError object>"
p33
sS'__class__'
p34
S"<type 'exceptions.TypeError'>"
p35
sS'__unicode__'
p36
S'<built-in method __unicode__ of exceptions.TypeError object>'
p37
sS'__delattr__'
p38
S"<method-wrapper '__delattr__' of exceptions.TypeError object>"
p39
sS'__subclasshook__'
p40
S'<built-in method __subclasshook__ of type object>'
p41
sS'__repr__'
p42
S"<method-wrapper '__repr__' of exceptions.TypeError object>"
p43
sS'__dict__'
p44
S'{}'
p45
sS'__sizeof__'
p46
S'<built-in method __sizeof__ of exceptions.TypeError object>'
p47
sS'__doc__'
p48
S"'Inappropriate argument type.'"
p49
sS'__init__'
p50
S"<method-wrapper '__init__' of exceptions.TypeError object>"
p51
sS'__new__'
p52
S'<built-in method __new__ of type object>'
p53
ssS'evalue'
p54
S"can't multiply sequence by non-int of type 'list'"
p55
sS'request'
p56
ccopy_reg
_reconstructor
p57
(cgluon.html
BEAUTIFY
p58
c__builtin__
object
p59
NtRp60
(dp61
S'attributes'
p62
(dp63
sS'components'
p64
(lp65
g57
(cgluon.html
TABLE
p66
g59
NtRp67
(dp68
g62
(dp69
S'level'
p70
I5
ssS'parent'
p71
Nsg64
(lp72
g57
(cgluon.html
TR
p73
g59
NtRp74
(dp75
g62
(dp76
sg71
g67
sg64
(lp77
g57
(cgluon.html
TD
p78
g59
NtRp79
(dp80
g62
(dp81
S'_style'
p82
S'font-weight:bold;vertical-align:top'
p83
ssg71
g74
sg64
(lp84
S'ajax'
p85
asbag57
(g78
g59
NtRp86
(dp87
g62
(dp88
S'_valign'
p89
S'top'
p90
ssg71
g74
sg64
(lp91
S':'
asbag57
(g78
g59
NtRp92
(dp93
g62
(dp94
sg71
g74
sg64
(lp95
g57
(g58
g59
NtRp96
(dp97
g62
(dp98
g70
I5
ssg71
g92
sg64
(lp99
S'True'
p100
asbasbasbag57
(g73
g59
NtRp101
(dp102
g62
(dp103
sg71
g67
sg64
(lp104
g57
(g78
g59
NtRp105
(dp106
g62
(dp107
g82
g83
ssg71
g101
sg64
(lp108
S'application'
p109
asbag57
(g78
g59
NtRp110
(dp111
g62
(dp112
g89
g90
ssg71
g101
sg64
(lp113
S':'
asbag57
(g78
g59
NtRp114
(dp115
g62
(dp116
sg71
g101
sg64
(lp117
g57
(g58
g59
NtRp118
(dp119
g62
(dp120
g70
I5
ssg71
g114
sg64
(lp121
S'topoi'
p122
asbasbasbag57
(g73
g59
NtRp123
(dp124
g62
(dp125
sg71
g67
sg64
(lp126
g57
(g78
g59
NtRp127
(dp128
g62
(dp129
g82
g83
ssg71
g123
sg64
(lp130
g24
asbag57
(g78
g59
NtRp131
(dp132
g62
(dp133
g89
g90
ssg71
g123
sg64
(lp134
S':'
asbag57
(g78
g59
NtRp135
(dp136
g62
(dp137
sg71
g123
sg64
(lp138
g57
(g58
g59
NtRp139
(dp140
g62
(dp141
g70
I5
ssg71
g135
sg64
(lp142
g57
(g66
g59
NtRp143
(dp144
g62
(dp145
g70
I4
ssg71
Nsg64
(lp146
g57
(g73
g59
NtRp147
(dp148
g62
(dp149
sg71
g143
sg64
(lp150
g57
(g78
g59
NtRp151
(dp152
g62
(dp153
sg71
g147
sg64
(lp154
g57
(g58
g59
NtRp155
(dp156
g62
(dp157
g70
I4
ssg71
g151
sg64
(lp158
S'notes'
p159
asbasbasbag57
(g73
g59
NtRp160
(dp161
g62
(dp162
sg71
g143
sg64
(lp163
g57
(g78
g59
NtRp164
(dp165
g62
(dp166
sg71
g160
sg64
(lp167
g57
(g58
g59
NtRp168
(dp169
g62
(dp170
g70
I4
ssg71
g164
sg64
(lp171
S'work'
p172
asbasbasbag57
(g73
g59
NtRp173
(dp174
g62
(dp175
sg71
g143
sg64
(lp176
g57
(g78
g59
NtRp177
(dp178
g62
(dp179
sg71
g173
sg64
(lp180
g57
(g58
g59
NtRp181
(dp182
g62
(dp183
g70
I4
ssg71
g177
sg64
(lp184
S'None'
p185
asbasbasbag57
(g73
g59
NtRp186
(dp187
g62
(dp188
sg71
g143
sg64
(lp189
g57
(g78
g59
NtRp190
(dp191
g62
(dp192
sg71
g186
sg64
(lp193
g57
(g58
g59
NtRp194
(dp195
g62
(dp196
g70
I4
ssg71
g190
sg64
(lp197
S'works'
p198
asbasbasbag57
(g73
g59
NtRp199
(dp200
g62
(dp201
sg71
g143
sg64
(lp202
g57
(g78
g59
NtRp203
(dp204
g62
(dp205
sg71
g199
sg64
(lp206
g57
(g58
g59
NtRp207
(dp208
g62
(dp209
g70
I4
ssg71
g203
sg64
(lp210
S'notes_work_loader'
p211
asbasbasbag57
(g73
g59
NtRp212
(dp213
g62
(dp214
sg71
g143
sg64
(lp215
g57
(g78
g59
NtRp216
(dp217
g62
(dp218
sg71
g212
sg64
(lp219
g57
(g58
g59
NtRp220
(dp221
g62
(dp222
g70
I4
ssg71
g216
sg64
(lp223
S'11'
p224
asbasbasbag57
(g73
g59
NtRp225
(dp226
g62
(dp227
sg71
g143
sg64
(lp228
g57
(g78
g59
NtRp229
(dp230
g62
(dp231
sg71
g225
sg64
(lp232
g57
(g58
g59
NtRp233
(dp234
g62
(dp235
g70
I4
ssg71
g229
sg64
(lp236
S'authors'
p237
asbasbasbasbasbasbasbag57
(g73
g59
NtRp238
(dp239
g62
(dp240
sg71
g67
sg64
(lp241
g57
(g78
g59
NtRp242
(dp243
g62
(dp244
g82
g83
ssg71
g238
sg64
(lp245
S'body'
p246
asbag57
(g78
g59
NtRp247
(dp248
g62
(dp249
g89
g90
ssg71
g238
sg64
(lp250
S':'
asbag57
(g78
g59
NtRp251
(dp252
g62
(dp253
sg71
g238
sg64
(lp254
g57
(g58
g59
NtRp255
(dp256
g62
(dp257
g70
I5
ssg71
g251
sg64
(lp258
S'<cStringIO.StringO object at 0x451eed8>'
p259
asbasbasbag57
(g73
g59
NtRp260
(dp261
g62
(dp262
sg71
g67
sg64
(lp263
g57
(g78
g59
NtRp264
(dp265
g62
(dp266
g82
g83
ssg71
g260
sg64
(lp267
S'cid'
p268
asbag57
(g78
g59
NtRp269
(dp270
g62
(dp271
g89
g90
ssg71
g260
sg64
(lp272
S':'
asbag57
(g78
g59
NtRp273
(dp274
g62
(dp275
sg71
g260
sg64
(lp276
g57
(g58
g59
NtRp277
(dp278
g62
(dp279
g70
I5
ssg71
g273
sg64
(lp280
S'notes_work_loader'
p281
asbasbasbag57
(g73
g59
NtRp282
(dp283
g62
(dp284
sg71
g67
sg64
(lp285
g57
(g78
g59
NtRp286
(dp287
g62
(dp288
g82
g83
ssg71
g282
sg64
(lp289
S'client'
p290
asbag57
(g78
g59
NtRp291
(dp292
g62
(dp293
g89
g90
ssg71
g282
sg64
(lp294
S':'
asbag57
(g78
g59
NtRp295
(dp296
g62
(dp297
sg71
g282
sg64
(lp298
g57
(g58
g59
NtRp299
(dp300
g62
(dp301
g70
I5
ssg71
g295
sg64
(lp302
S'127.0.0.1'
p303
asbasbasbag57
(g73
g59
NtRp304
(dp305
g62
(dp306
sg71
g67
sg64
(lp307
g57
(g78
g59
NtRp308
(dp309
g62
(dp310
g82
g83
ssg71
g304
sg64
(lp311
S'controller'
p312
asbag57
(g78
g59
NtRp313
(dp314
g62
(dp315
g89
g90
ssg71
g304
sg64
(lp316
S':'
asbag57
(g78
g59
NtRp317
(dp318
g62
(dp319
sg71
g304
sg64
(lp320
g57
(g58
g59
NtRp321
(dp322
g62
(dp323
g70
I5
ssg71
g317
sg64
(lp324
S'plugin_ajaxselect'
p325
asbasbasbag57
(g73
g59
NtRp326
(dp327
g62
(dp328
sg71
g67
sg64
(lp329
g57
(g78
g59
NtRp330
(dp331
g62
(dp332
g82
g83
ssg71
g326
sg64
(lp333
S'cookies'
p334
asbag57
(g78
g59
NtRp335
(dp336
g62
(dp337
g89
g90
ssg71
g326
sg64
(lp338
S':'
asbag57
(g78
g59
NtRp339
(dp340
g62
(dp341
sg71
g326
sg64
(lp342
g57
(g58
g59
NtRp343
(dp344
g62
(dp345
g70
I5
ssg71
g339
sg64
(lp346
g57
(g66
g59
NtRp347
(dp348
g62
(dp349
g70
I4
ssg71
Nsg64
(lp350
g57
(g73
g59
NtRp351
(dp352
g62
(dp353
sg71
g347
sg64
(lp354
g57
(g78
g59
NtRp355
(dp356
g62
(dp357
g82
g83
ssg71
g351
sg64
(lp358
S'session_id_admin'
p359
asbag57
(g78
g59
NtRp360
(dp361
g62
(dp362
g89
g90
ssg71
g351
sg64
(lp363
S':'
asbag57
(g78
g59
NtRp364
(dp365
g62
(dp366
sg71
g351
sg64
(lp367
g57
(g58
g59
NtRp368
(dp369
g62
(dp370
g70
I4
ssg71
g364
sg64
(lp371
g57
(g66
g59
NtRp372
(dp373
g62
(dp374
g70
I3
ssg71
Nsg64
(lp375
g57
(g73
g59
NtRp376
(dp377
g62
(dp378
sg71
g372
sg64
(lp379
g57
(g78
g59
NtRp380
(dp381
g62
(dp382
g82
g83
ssg71
g376
sg64
(lp383
S'comment'
p384
asbag57
(g78
g59
NtRp385
(dp386
g62
(dp387
g89
g90
ssg71
g376
sg64
(lp388
S':'
asbag57
(g78
g59
NtRp389
(dp390
g62
(dp391
sg71
g376
sg64
(lp392
g57
(g58
g59
NtRp393
(dp394
g62
(dp395
g70
I3
ssg71
g389
sg64
(lp396
S''
asbasbasbag57
(g73
g59
NtRp397
(dp398
g62
(dp399
sg71
g372
sg64
(lp400
g57
(g78
g59
NtRp401
(dp402
g62
(dp403
g82
g83
ssg71
g397
sg64
(lp404
S'domain'
p405
asbag57
(g78
g59
NtRp406
(dp407
g62
(dp408
g89
g90
ssg71
g397
sg64
(lp409
S':'
asbag57
(g78
g59
NtRp410
(dp411
g62
(dp412
sg71
g397
sg64
(lp413
g57
(g58
g59
NtRp414
(dp415
g62
(dp416
g70
I3
ssg71
g410
sg64
(lp417
S''
asbasbasbag57
(g73
g59
NtRp418
(dp419
g62
(dp420
sg71
g372
sg64
(lp421
g57
(g78
g59
NtRp422
(dp423
g62
(dp424
g82
g83
ssg71
g418
sg64
(lp425
S'expires'
p426
asbag57
(g78
g59
NtRp427
(dp428
g62
(dp429
g89
g90
ssg71
g418
sg64
(lp430
S':'
asbag57
(g78
g59
NtRp431
(dp432
g62
(dp433
sg71
g418
sg64
(lp434
g57
(g58
g59
NtRp435
(dp436
g62
(dp437
g70
I3
ssg71
g431
sg64
(lp438
S''
asbasbasbag57
(g73
g59
NtRp439
(dp440
g62
(dp441
sg71
g372
sg64
(lp442
g57
(g78
g59
NtRp443
(dp444
g62
(dp445
g82
g83
ssg71
g439
sg64
(lp446
S'httponly'
p447
asbag57
(g78
g59
NtRp448
(dp449
g62
(dp450
g89
g90
ssg71
g439
sg64
(lp451
S':'
asbag57
(g78
g59
NtRp452
(dp453
g62
(dp454
sg71
g439
sg64
(lp455
g57
(g58
g59
NtRp456
(dp457
g62
(dp458
g70
I3
ssg71
g452
sg64
(lp459
S''
asbasbasbag57
(g73
g59
NtRp460
(dp461
g62
(dp462
sg71
g372
sg64
(lp463
g57
(g78
g59
NtRp464
(dp465
g62
(dp466
g82
g83
ssg71
g460
sg64
(lp467
S'max-age'
p468
asbag57
(g78
g59
NtRp469
(dp470
g62
(dp471
g89
g90
ssg71
g460
sg64
(lp472
S':'
asbag57
(g78
g59
NtRp473
(dp474
g62
(dp475
sg71
g460
sg64
(lp476
g57
(g58
g59
NtRp477
(dp478
g62
(dp479
g70
I3
ssg71
g473
sg64
(lp480
S''
asbasbasbag57
(g73
g59
NtRp481
(dp482
g62
(dp483
sg71
g372
sg64
(lp484
g57
(g78
g59
NtRp485
(dp486
g62
(dp487
g82
g83
ssg71
g481
sg64
(lp488
S'path'
p489
asbag57
(g78
g59
NtRp490
(dp491
g62
(dp492
g89
g90
ssg71
g481
sg64
(lp493
S':'
asbag57
(g78
g59
NtRp494
(dp495
g62
(dp496
sg71
g481
sg64
(lp497
g57
(g58
g59
NtRp498
(dp499
g62
(dp500
g70
I3
ssg71
g494
sg64
(lp501
S''
asbasbasbag57
(g73
g59
NtRp502
(dp503
g62
(dp504
sg71
g372
sg64
(lp505
g57
(g78
g59
NtRp506
(dp507
g62
(dp508
g82
g83
ssg71
g502
sg64
(lp509
S'secure'
p510
asbag57
(g78
g59
NtRp511
(dp512
g62
(dp513
g89
g90
ssg71
g502
sg64
(lp514
S':'
asbag57
(g78
g59
NtRp515
(dp516
g62
(dp517
sg71
g502
sg64
(lp518
g57
(g58
g59
NtRp519
(dp520
g62
(dp521
g70
I3
ssg71
g515
sg64
(lp522
S''
asbasbasbag57
(g73
g59
NtRp523
(dp524
g62
(dp525
sg71
g372
sg64
(lp526
g57
(g78
g59
NtRp527
(dp528
g62
(dp529
g82
g83
ssg71
g523
sg64
(lp530
S'version'
p531
asbag57
(g78
g59
NtRp532
(dp533
g62
(dp534
g89
g90
ssg71
g523
sg64
(lp535
S':'
asbag57
(g78
g59
NtRp536
(dp537
g62
(dp538
sg71
g523
sg64
(lp539
g57
(g58
g59
NtRp540
(dp541
g62
(dp542
g70
I3
ssg71
g536
sg64
(lp543
S''
asbasbasbasbasbasbasbag57
(g73
g59
NtRp544
(dp545
g62
(dp546
sg71
g347
sg64
(lp547
g57
(g78
g59
NtRp548
(dp549
g62
(dp550
g82
g83
ssg71
g544
sg64
(lp551
S'session_id_grades'
p552
asbag57
(g78
g59
NtRp553
(dp554
g62
(dp555
g89
g90
ssg71
g544
sg64
(lp556
S':'
asbag57
(g78
g59
NtRp557
(dp558
g62
(dp559
sg71
g544
sg64
(lp560
g57
(g58
g59
NtRp561
(dp562
g62
(dp563
g70
I4
ssg71
g557
sg64
(lp564
g57
(g66
g59
NtRp565
(dp566
g62
(dp567
g70
I3
ssg71
Nsg64
(lp568
g57
(g73
g59
NtRp569
(dp570
g62
(dp571
sg71
g565
sg64
(lp572
g57
(g78
g59
NtRp573
(dp574
g62
(dp575
g82
g83
ssg71
g569
sg64
(lp576
g384
asbag57
(g78
g59
NtRp577
(dp578
g62
(dp579
g89
g90
ssg71
g569
sg64
(lp580
S':'
asbag57
(g78
g59
NtRp581
(dp582
g62
(dp583
sg71
g569
sg64
(lp584
g57
(g58
g59
NtRp585
(dp586
g62
(dp587
g70
I3
ssg71
g581
sg64
(lp588
S''
asbasbasbag57
(g73
g59
NtRp589
(dp590
g62
(dp591
sg71
g565
sg64
(lp592
g57
(g78
g59
NtRp593
(dp594
g62
(dp595
g82
g83
ssg71
g589
sg64
(lp596
g405
asbag57
(g78
g59
NtRp597
(dp598
g62
(dp599
g89
g90
ssg71
g589
sg64
(lp600
S':'
asbag57
(g78
g59
NtRp601
(dp602
g62
(dp603
sg71
g589
sg64
(lp604
g57
(g58
g59
NtRp605
(dp606
g62
(dp607
g70
I3
ssg71
g601
sg64
(lp608
S''
asbasbasbag57
(g73
g59
NtRp609
(dp610
g62
(dp611
sg71
g565
sg64
(lp612
g57
(g78
g59
NtRp613
(dp614
g62
(dp615
g82
g83
ssg71
g609
sg64
(lp616
g426
asbag57
(g78
g59
NtRp617
(dp618
g62
(dp619
g89
g90
ssg71
g609
sg64
(lp620
S':'
asbag57
(g78
g59
NtRp621
(dp622
g62
(dp623
sg71
g609
sg64
(lp624
g57
(g58
g59
NtRp625
(dp626
g62
(dp627
g70
I3
ssg71
g621
sg64
(lp628
S''
asbasbasbag57
(g73
g59
NtRp629
(dp630
g62
(dp631
sg71
g565
sg64
(lp632
g57
(g78
g59
NtRp633
(dp634
g62
(dp635
g82
g83
ssg71
g629
sg64
(lp636
g447
asbag57
(g78
g59
NtRp637
(dp638
g62
(dp639
g89
g90
ssg71
g629
sg64
(lp640
S':'
asbag57
(g78
g59
NtRp641
(dp642
g62
(dp643
sg71
g629
sg64
(lp644
g57
(g58
g59
NtRp645
(dp646
g62
(dp647
g70
I3
ssg71
g641
sg64
(lp648
S''
asbasbasbag57
(g73
g59
NtRp649
(dp650
g62
(dp651
sg71
g565
sg64
(lp652
g57
(g78
g59
NtRp653
(dp654
g62
(dp655
g82
g83
ssg71
g649
sg64
(lp656
g468
asbag57
(g78
g59
NtRp657
(dp658
g62
(dp659
g89
g90
ssg71
g649
sg64
(lp660
S':'
asbag57
(g78
g59
NtRp661
(dp662
g62
(dp663
sg71
g649
sg64
(lp664
g57
(g58
g59
NtRp665
(dp666
g62
(dp667
g70
I3
ssg71
g661
sg64
(lp668
S''
asbasbasbag57
(g73
g59
NtRp669
(dp670
g62
(dp671
sg71
g565
sg64
(lp672
g57
(g78
g59
NtRp673
(dp674
g62
(dp675
g82
g83
ssg71
g669
sg64
(lp676
g489
asbag57
(g78
g59
NtRp677
(dp678
g62
(dp679
g89
g90
ssg71
g669
sg64
(lp680
S':'
asbag57
(g78
g59
NtRp681
(dp682
g62
(dp683
sg71
g669
sg64
(lp684
g57
(g58
g59
NtRp685
(dp686
g62
(dp687
g70
I3
ssg71
g681
sg64
(lp688
S''
asbasbasbag57
(g73
g59
NtRp689
(dp690
g62
(dp691
sg71
g565
sg64
(lp692
g57
(g78
g59
NtRp693
(dp694
g62
(dp695
g82
g83
ssg71
g689
sg64
(lp696
g510
asbag57
(g78
g59
NtRp697
(dp698
g62
(dp699
g89
g90
ssg71
g689
sg64
(lp700
S':'
asbag57
(g78
g59
NtRp701
(dp702
g62
(dp703
sg71
g689
sg64
(lp704
g57
(g58
g59
NtRp705
(dp706
g62
(dp707
g70
I3
ssg71
g701
sg64
(lp708
S''
asbasbasbag57
(g73
g59
NtRp709
(dp710
g62
(dp711
sg71
g565
sg64
(lp712
g57
(g78
g59
NtRp713
(dp714
g62
(dp715
g82
g83
ssg71
g709
sg64
(lp716
g531
asbag57
(g78
g59
NtRp717
(dp718
g62
(dp719
g89
g90
ssg71
g709
sg64
(lp720
S':'
asbag57
(g78
g59
NtRp721
(dp722
g62
(dp723
sg71
g709
sg64
(lp724
g57
(g58
g59
NtRp725
(dp726
g62
(dp727
g70
I3
ssg71
g721
sg64
(lp728
S''
asbasbasbasbasbasbasbag57
(g73
g59
NtRp729
(dp730
g62
(dp731
sg71
g347
sg64
(lp732
g57
(g78
g59
NtRp733
(dp734
g62
(dp735
g82
g83
ssg71
g729
sg64
(lp736
S'session_id_paideia'
p737
asbag57
(g78
g59
NtRp738
(dp739
g62
(dp740
g89
g90
ssg71
g729
sg64
(lp741
S':'
asbag57
(g78
g59
NtRp742
(dp743
g62
(dp744
sg71
g729
sg64
(lp745
g57
(g58
g59
NtRp746
(dp747
g62
(dp748
g70
I4
ssg71
g742
sg64
(lp749
g57
(g66
g59
NtRp750
(dp751
g62
(dp752
g70
I3
ssg71
Nsg64
(lp753
g57
(g73
g59
NtRp754
(dp755
g62
(dp756
sg71
g750
sg64
(lp757
g57
(g78
g59
NtRp758
(dp759
g62
(dp760
g82
g83
ssg71
g754
sg64
(lp761
g384
asbag57
(g78
g59
NtRp762
(dp763
g62
(dp764
g89
g90
ssg71
g754
sg64
(lp765
S':'
asbag57
(g78
g59
NtRp766
(dp767
g62
(dp768
sg71
g754
sg64
(lp769
g57
(g58
g59
NtRp770
(dp771
g62
(dp772
g70
I3
ssg71
g766
sg64
(lp773
S''
asbasbasbag57
(g73
g59
NtRp774
(dp775
g62
(dp776
sg71
g750
sg64
(lp777
g57
(g78
g59
NtRp778
(dp779
g62
(dp780
g82
g83
ssg71
g774
sg64
(lp781
g405
asbag57
(g78
g59
NtRp782
(dp783
g62
(dp784
g89
g90
ssg71
g774
sg64
(lp785
S':'
asbag57
(g78
g59
NtRp786
(dp787
g62
(dp788
sg71
g774
sg64
(lp789
g57
(g58
g59
NtRp790
(dp791
g62
(dp792
g70
I3
ssg71
g786
sg64
(lp793
S''
asbasbasbag57
(g73
g59
NtRp794
(dp795
g62
(dp796
sg71
g750
sg64
(lp797
g57
(g78
g59
NtRp798
(dp799
g62
(dp800
g82
g83
ssg71
g794
sg64
(lp801
g426
asbag57
(g78
g59
NtRp802
(dp803
g62
(dp804
g89
g90
ssg71
g794
sg64
(lp805
S':'
asbag57
(g78
g59
NtRp806
(dp807
g62
(dp808
sg71
g794
sg64
(lp809
g57
(g58
g59
NtRp810
(dp811
g62
(dp812
g70
I3
ssg71
g806
sg64
(lp813
S''
asbasbasbag57
(g73
g59
NtRp814
(dp815
g62
(dp816
sg71
g750
sg64
(lp817
g57
(g78
g59
NtRp818
(dp819
g62
(dp820
g82
g83
ssg71
g814
sg64
(lp821
g447
asbag57
(g78
g59
NtRp822
(dp823
g62
(dp824
g89
g90
ssg71
g814
sg64
(lp825
S':'
asbag57
(g78
g59
NtRp826
(dp827
g62
(dp828
sg71
g814
sg64
(lp829
g57
(g58
g59
NtRp830
(dp831
g62
(dp832
g70
I3
ssg71
g826
sg64
(lp833
S''
asbasbasbag57
(g73
g59
NtRp834
(dp835
g62
(dp836
sg71
g750
sg64
(lp837
g57
(g78
g59
NtRp838
(dp839
g62
(dp840
g82
g83
ssg71
g834
sg64
(lp841
g468
asbag57
(g78
g59
NtRp842
(dp843
g62
(dp844
g89
g90
ssg71
g834
sg64
(lp845
S':'
asbag57
(g78
g59
NtRp846
(dp847
g62
(dp848
sg71
g834
sg64
(lp849
g57
(g58
g59
NtRp850
(dp851
g62
(dp852
g70
I3
ssg71
g846
sg64
(lp853
S''
asbasbasbag57
(g73
g59
NtRp854
(dp855
g62
(dp856
sg71
g750
sg64
(lp857
g57
(g78
g59
NtRp858
(dp859
g62
(dp860
g82
g83
ssg71
g854
sg64
(lp861
g489
asbag57
(g78
g59
NtRp862
(dp863
g62
(dp864
g89
g90
ssg71
g854
sg64
(lp865
S':'
asbag57
(g78
g59
NtRp866
(dp867
g62
(dp868
sg71
g854
sg64
(lp869
g57
(g58
g59
NtRp870
(dp871
g62
(dp872
g70
I3
ssg71
g866
sg64
(lp873
S''
asbasbasbag57
(g73
g59
NtRp874
(dp875
g62
(dp876
sg71
g750
sg64
(lp877
g57
(g78
g59
NtRp878
(dp879
g62
(dp880
g82
g83
ssg71
g874
sg64
(lp881
g510
asbag57
(g78
g59
NtRp882
(dp883
g62
(dp884
g89
g90
ssg71
g874
sg64
(lp885
S':'
asbag57
(g78
g59
NtRp886
(dp887
g62
(dp888
sg71
g874
sg64
(lp889
g57
(g58
g59
NtRp890
(dp891
g62
(dp892
g70
I3
ssg71
g886
sg64
(lp893
S''
asbasbasbag57
(g73
g59
NtRp894
(dp895
g62
(dp896
sg71
g750
sg64
(lp897
g57
(g78
g59
NtRp898
(dp899
g62
(dp900
g82
g83
ssg71
g894
sg64
(lp901
g531
asbag57
(g78
g59
NtRp902
(dp903
g62
(dp904
g89
g90
ssg71
g894
sg64
(lp905
S':'
asbag57
(g78
g59
NtRp906
(dp907
g62
(dp908
sg71
g894
sg64
(lp909
g57
(g58
g59
NtRp910
(dp911
g62
(dp912
g70
I3
ssg71
g906
sg64
(lp913
S''
asbasbasbasbasbasbasbag57
(g73
g59
NtRp914
(dp915
g62
(dp916
sg71
g347
sg64
(lp917
g57
(g78
g59
NtRp918
(dp919
g62
(dp920
g82
g83
ssg71
g914
sg64
(lp921
S'session_id_topoi'
p922
asbag57
(g78
g59
NtRp923
(dp924
g62
(dp925
g89
g90
ssg71
g914
sg64
(lp926
S':'
asbag57
(g78
g59
NtRp927
(dp928
g62
(dp929
sg71
g914
sg64
(lp930
g57
(g58
g59
NtRp931
(dp932
g62
(dp933
g70
I4
ssg71
g927
sg64
(lp934
g57
(g66
g59
NtRp935
(dp936
g62
(dp937
g70
I3
ssg71
Nsg64
(lp938
g57
(g73
g59
NtRp939
(dp940
g62
(dp941
sg71
g935
sg64
(lp942
g57
(g78
g59
NtRp943
(dp944
g62
(dp945
g82
g83
ssg71
g939
sg64
(lp946
g384
asbag57
(g78
g59
NtRp947
(dp948
g62
(dp949
g89
g90
ssg71
g939
sg64
(lp950
S':'
asbag57
(g78
g59
NtRp951
(dp952
g62
(dp953
sg71
g939
sg64
(lp954
g57
(g58
g59
NtRp955
(dp956
g62
(dp957
g70
I3
ssg71
g951
sg64
(lp958
S''
asbasbasbag57
(g73
g59
NtRp959
(dp960
g62
(dp961
sg71
g935
sg64
(lp962
g57
(g78
g59
NtRp963
(dp964
g62
(dp965
g82
g83
ssg71
g959
sg64
(lp966
g405
asbag57
(g78
g59
NtRp967
(dp968
g62
(dp969
g89
g90
ssg71
g959
sg64
(lp970
S':'
asbag57
(g78
g59
NtRp971
(dp972
g62
(dp973
sg71
g959
sg64
(lp974
g57
(g58
g59
NtRp975
(dp976
g62
(dp977
g70
I3
ssg71
g971
sg64
(lp978
S''
asbasbasbag57
(g73
g59
NtRp979
(dp980
g62
(dp981
sg71
g935
sg64
(lp982
g57
(g78
g59
NtRp983
(dp984
g62
(dp985
g82
g83
ssg71
g979
sg64
(lp986
g426
asbag57
(g78
g59
NtRp987
(dp988
g62
(dp989
g89
g90
ssg71
g979
sg64
(lp990
S':'
asbag57
(g78
g59
NtRp991
(dp992
g62
(dp993
sg71
g979
sg64
(lp994
g57
(g58
g59
NtRp995
(dp996
g62
(dp997
g70
I3
ssg71
g991
sg64
(lp998
S''
asbasbasbag57
(g73
g59
NtRp999
(dp1000
g62
(dp1001
sg71
g935
sg64
(lp1002
g57
(g78
g59
NtRp1003
(dp1004
g62
(dp1005
g82
g83
ssg71
g999
sg64
(lp1006
g447
asbag57
(g78
g59
NtRp1007
(dp1008
g62
(dp1009
g89
g90
ssg71
g999
sg64
(lp1010
S':'
asbag57
(g78
g59
NtRp1011
(dp1012
g62
(dp1013
sg71
g999
sg64
(lp1014
g57
(g58
g59
NtRp1015
(dp1016
g62
(dp1017
g70
I3
ssg71
g1011
sg64
(lp1018
S''
asbasbasbag57
(g73
g59
NtRp1019
(dp1020
g62
(dp1021
sg71
g935
sg64
(lp1022
g57
(g78
g59
NtRp1023
(dp1024
g62
(dp1025
g82
g83
ssg71
g1019
sg64
(lp1026
g468
asbag57
(g78
g59
NtRp1027
(dp1028
g62
(dp1029
g89
g90
ssg71
g1019
sg64
(lp1030
S':'
asbag57
(g78
g59
NtRp1031
(dp1032
g62
(dp1033
sg71
g1019
sg64
(lp1034
g57
(g58
g59
NtRp1035
(dp1036
g62
(dp1037
g70
I3
ssg71
g1031
sg64
(lp1038
S''
asbasbasbag57
(g73
g59
NtRp1039
(dp1040
g62
(dp1041
sg71
g935
sg64
(lp1042
g57
(g78
g59
NtRp1043
(dp1044
g62
(dp1045
g82
g83
ssg71
g1039
sg64
(lp1046
g489
asbag57
(g78
g59
NtRp1047
(dp1048
g62
(dp1049
g89
g90
ssg71
g1039
sg64
(lp1050
S':'
asbag57
(g78
g59
NtRp1051
(dp1052
g62
(dp1053
sg71
g1039
sg64
(lp1054
g57
(g58
g59
NtRp1055
(dp1056
g62
(dp1057
g70
I3
ssg71
g1051
sg64
(lp1058
S''
asbasbasbag57
(g73
g59
NtRp1059
(dp1060
g62
(dp1061
sg71
g935
sg64
(lp1062
g57
(g78
g59
NtRp1063
(dp1064
g62
(dp1065
g82
g83
ssg71
g1059
sg64
(lp1066
g510
asbag57
(g78
g59
NtRp1067
(dp1068
g62
(dp1069
g89
g90
ssg71
g1059
sg64
(lp1070
S':'
asbag57
(g78
g59
NtRp1071
(dp1072
g62
(dp1073
sg71
g1059
sg64
(lp1074
g57
(g58
g59
NtRp1075
(dp1076
g62
(dp1077
g70
I3
ssg71
g1071
sg64
(lp1078
S''
asbasbasbag57
(g73
g59
NtRp1079
(dp1080
g62
(dp1081
sg71
g935
sg64
(lp1082
g57
(g78
g59
NtRp1083
(dp1084
g62
(dp1085
g82
g83
ssg71
g1079
sg64
(lp1086
g531
asbag57
(g78
g59
NtRp1087
(dp1088
g62
(dp1089
g89
g90
ssg71
g1079
sg64
(lp1090
S':'
asbag57
(g78
g59
NtRp1091
(dp1092
g62
(dp1093
sg71
g1079
sg64
(lp1094
g57
(g58
g59
NtRp1095
(dp1096
g62
(dp1097
g70
I3
ssg71
g1091
sg64
(lp1098
S''
asbasbasbasbasbasbasbag57
(g73
g59
NtRp1099
(dp1100
g62
(dp1101
sg71
g347
sg64
(lp1102
g57
(g78
g59
NtRp1103
(dp1104
g62
(dp1105
g82
g83
ssg71
g1099
sg64
(lp1106
S'session_id_welcome'
p1107
asbag57
(g78
g59
NtRp1108
(dp1109
g62
(dp1110
g89
g90
ssg71
g1099
sg64
(lp1111
S':'
asbag57
(g78
g59
NtRp1112
(dp1113
g62
(dp1114
sg71
g1099
sg64
(lp1115
g57
(g58
g59
NtRp1116
(dp1117
g62
(dp1118
g70
I4
ssg71
g1112
sg64
(lp1119
g57
(g66
g59
NtRp1120
(dp1121
g62
(dp1122
g70
I3
ssg71
Nsg64
(lp1123
g57
(g73
g59
NtRp1124
(dp1125
g62
(dp1126
sg71
g1120
sg64
(lp1127
g57
(g78
g59
NtRp1128
(dp1129
g62
(dp1130
g82
g83
ssg71
g1124
sg64
(lp1131
g384
asbag57
(g78
g59
NtRp1132
(dp1133
g62
(dp1134
g89
g90
ssg71
g1124
sg64
(lp1135
S':'
asbag57
(g78
g59
NtRp1136
(dp1137
g62
(dp1138
sg71
g1124
sg64
(lp1139
g57
(g58
g59
NtRp1140
(dp1141
g62
(dp1142
g70
I3
ssg71
g1136
sg64
(lp1143
S''
asbasbasbag57
(g73
g59
NtRp1144
(dp1145
g62
(dp1146
sg71
g1120
sg64
(lp1147
g57
(g78
g59
NtRp1148
(dp1149
g62
(dp1150
g82
g83
ssg71
g1144
sg64
(lp1151
g405
asbag57
(g78
g59
NtRp1152
(dp1153
g62
(dp1154
g89
g90
ssg71
g1144
sg64
(lp1155
S':'
asbag57
(g78
g59
NtRp1156
(dp1157
g62
(dp1158
sg71
g1144
sg64
(lp1159
g57
(g58
g59
NtRp1160
(dp1161
g62
(dp1162
g70
I3
ssg71
g1156
sg64
(lp1163
S''
asbasbasbag57
(g73
g59
NtRp1164
(dp1165
g62
(dp1166
sg71
g1120
sg64
(lp1167
g57
(g78
g59
NtRp1168
(dp1169
g62
(dp1170
g82
g83
ssg71
g1164
sg64
(lp1171
g426
asbag57
(g78
g59
NtRp1172
(dp1173
g62
(dp1174
g89
g90
ssg71
g1164
sg64
(lp1175
S':'
asbag57
(g78
g59
NtRp1176
(dp1177
g62
(dp1178
sg71
g1164
sg64
(lp1179
g57
(g58
g59
NtRp1180
(dp1181
g62
(dp1182
g70
I3
ssg71
g1176
sg64
(lp1183
S''
asbasbasbag57
(g73
g59
NtRp1184
(dp1185
g62
(dp1186
sg71
g1120
sg64
(lp1187
g57
(g78
g59
NtRp1188
(dp1189
g62
(dp1190
g82
g83
ssg71
g1184
sg64
(lp1191
g447
asbag57
(g78
g59
NtRp1192
(dp1193
g62
(dp1194
g89
g90
ssg71
g1184
sg64
(lp1195
S':'
asbag57
(g78
g59
NtRp1196
(dp1197
g62
(dp1198
sg71
g1184
sg64
(lp1199
g57
(g58
g59
NtRp1200
(dp1201
g62
(dp1202
g70
I3
ssg71
g1196
sg64
(lp1203
S''
asbasbasbag57
(g73
g59
NtRp1204
(dp1205
g62
(dp1206
sg71
g1120
sg64
(lp1207
g57
(g78
g59
NtRp1208
(dp1209
g62
(dp1210
g82
g83
ssg71
g1204
sg64
(lp1211
g468
asbag57
(g78
g59
NtRp1212
(dp1213
g62
(dp1214
g89
g90
ssg71
g1204
sg64
(lp1215
S':'
asbag57
(g78
g59
NtRp1216
(dp1217
g62
(dp1218
sg71
g1204
sg64
(lp1219
g57
(g58
g59
NtRp1220
(dp1221
g62
(dp1222
g70
I3
ssg71
g1216
sg64
(lp1223
S''
asbasbasbag57
(g73
g59
NtRp1224
(dp1225
g62
(dp1226
sg71
g1120
sg64
(lp1227
g57
(g78
g59
NtRp1228
(dp1229
g62
(dp1230
g82
g83
ssg71
g1224
sg64
(lp1231
g489
asbag57
(g78
g59
NtRp1232
(dp1233
g62
(dp1234
g89
g90
ssg71
g1224
sg64
(lp1235
S':'
asbag57
(g78
g59
NtRp1236
(dp1237
g62
(dp1238
sg71
g1224
sg64
(lp1239
g57
(g58
g59
NtRp1240
(dp1241
g62
(dp1242
g70
I3
ssg71
g1236
sg64
(lp1243
S''
asbasbasbag57
(g73
g59
NtRp1244
(dp1245
g62
(dp1246
sg71
g1120
sg64
(lp1247
g57
(g78
g59
NtRp1248
(dp1249
g62
(dp1250
g82
g83
ssg71
g1244
sg64
(lp1251
g510
asbag57
(g78
g59
NtRp1252
(dp1253
g62
(dp1254
g89
g90
ssg71
g1244
sg64
(lp1255
S':'
asbag57
(g78
g59
NtRp1256
(dp1257
g62
(dp1258
sg71
g1244
sg64
(lp1259
g57
(g58
g59
NtRp1260
(dp1261
g62
(dp1262
g70
I3
ssg71
g1256
sg64
(lp1263
S''
asbasbasbag57
(g73
g59
NtRp1264
(dp1265
g62
(dp1266
sg71
g1120
sg64
(lp1267
g57
(g78
g59
NtRp1268
(dp1269
g62
(dp1270
g82
g83
ssg71
g1264
sg64
(lp1271
g531
asbag57
(g78
g59
NtRp1272
(dp1273
g62
(dp1274
g89
g90
ssg71
g1264
sg64
(lp1275
S':'
asbag57
(g78
g59
NtRp1276
(dp1277
g62
(dp1278
sg71
g1264
sg64
(lp1279
g57
(g58
g59
NtRp1280
(dp1281
g62
(dp1282
g70
I3
ssg71
g1276
sg64
(lp1283
S''
asbasbasbasbasbasbasbasbasbasbasbag57
(g73
g59
NtRp1284
(dp1285
g62
(dp1286
sg71
g67
sg64
(lp1287
g57
(g78
g59
NtRp1288
(dp1289
g62
(dp1290
g82
g83
ssg71
g1284
sg64
(lp1291
S'env'
p1292
asbag57
(g78
g59
NtRp1293
(dp1294
g62
(dp1295
g89
g90
ssg71
g1284
sg64
(lp1296
S':'
asbag57
(g78
g59
NtRp1297
(dp1298
g62
(dp1299
sg71
g1284
sg64
(lp1300
g57
(g58
g59
NtRp1301
(dp1302
g62
(dp1303
g70
I5
ssg71
g1297
sg64
(lp1304
g57
(g66
g59
NtRp1305
(dp1306
g62
(dp1307
g70
I4
ssg71
Nsg64
(lp1308
g57
(g73
g59
NtRp1309
(dp1310
g62
(dp1311
sg71
g1305
sg64
(lp1312
g57
(g78
g59
NtRp1313
(dp1314
g62
(dp1315
g82
g83
ssg71
g1309
sg64
(lp1316
S'app_folders'
p1317
asbag57
(g78
g59
NtRp1318
(dp1319
g62
(dp1320
g89
g90
ssg71
g1309
sg64
(lp1321
S':'
asbag57
(g78
g59
NtRp1322
(dp1323
g62
(dp1324
sg71
g1309
sg64
(lp1325
g57
(g58
g59
NtRp1326
(dp1327
g62
(dp1328
g70
I4
ssg71
g1322
sg64
(lp1329
S"set(['/home/ian/web2py/applications/topoi/', '/home/ian/web2py/applications/welcome/', '/home/ian/web2py/applications/admin/'])"
p1330
asbasbasbag57
(g73
g59
NtRp1331
(dp1332
g62
(dp1333
sg71
g1305
sg64
(lp1334
g57
(g78
g59
NtRp1335
(dp1336
g62
(dp1337
g82
g83
ssg71
g1331
sg64
(lp1338
S'applications_parent'
p1339
asbag57
(g78
g59
NtRp1340
(dp1341
g62
(dp1342
g89
g90
ssg71
g1331
sg64
(lp1343
S':'
asbag57
(g78
g59
NtRp1344
(dp1345
g62
(dp1346
sg71
g1331
sg64
(lp1347
g57
(g58
g59
NtRp1348
(dp1349
g62
(dp1350
g70
I4
ssg71
g1344
sg64
(lp1351
S'/home/ian/web2py'
p1352
asbasbasbag57
(g73
g59
NtRp1353
(dp1354
g62
(dp1355
sg71
g1305
sg64
(lp1356
g57
(g78
g59
NtRp1357
(dp1358
g62
(dp1359
g82
g83
ssg71
g1353
sg64
(lp1360
S'cmd_args'
p1361
asbag57
(g78
g59
NtRp1362
(dp1363
g62
(dp1364
g89
g90
ssg71
g1353
sg64
(lp1365
S':'
asbag57
(g78
g59
NtRp1366
(dp1367
g62
(dp1368
sg71
g1353
sg64
(lp1369
g57
(g58
g59
NtRp1370
(dp1371
g62
(dp1372
g70
I4
ssg71
g1366
sg64
(lp1373
g57
(g66
g59
NtRp1374
(dp1375
g62
(dp1376
g70
I3
ssg71
Nsg64
(lp1377
sbasbasbasbag57
(g73
g59
NtRp1378
(dp1379
g62
(dp1380
sg71
g1305
sg64
(lp1381
g57
(g78
g59
NtRp1382
(dp1383
g62
(dp1384
g82
g83
ssg71
g1378
sg64
(lp1385
S'cmd_options'
p1386
asbag57
(g78
g59
NtRp1387
(dp1388
g62
(dp1389
g89
g90
ssg71
g1378
sg64
(lp1390
S':'
asbag57
(g78
g59
NtRp1391
(dp1392
g62
(dp1393
sg71
g1378
sg64
(lp1394
g57
(g58
g59
NtRp1395
(dp1396
g62
(dp1397
g70
I4
ssg71
g1391
sg64
(lp1398
S"<Values at 0x28edb00: {'verbose': False, 'ip': '127.0.0.1', 'shutdown_timeout': 5, 'taskbar': False, 'nocron': False, 'pid_filename': 'httpserver.pid', 'maxthreads': None, 'softcron': False, 'server_name': 'Ariel-ubuntu', 'bpython': False, 'nogui': False, 'port': 8000, 'extcron': False, 'debuglevel': 30, 'test': None, 'folder': '/home/ian/web2py', 'config': '', 'import_models': False, 'winservice': '', 'shell': None, 'run': '', 'log_filename': 'httpserver.log', 'args': [''], 'socket_timeout': 1, 'ssl_ca_certificate': None, 'scheduler': None, 'profiler_filename': None, 'ssl_private_key': '', 'password': '<ask>', 'request_queue_size': 5, 'ssl_certificate': '', 'cronjob': False, 'numthreads': None, 'quiet': False, 'interfaces': None, 'minthreads': None, 'timeout': 10, 'plain': False, 'nobanner': False}>"
p1399
asbasbasbag57
(g73
g59
NtRp1400
(dp1401
g62
(dp1402
sg71
g1305
sg64
(lp1403
g57
(g78
g59
NtRp1404
(dp1405
g62
(dp1406
g82
g83
ssg71
g1400
sg64
(lp1407
S'db_sessions'
p1408
asbag57
(g78
g59
NtRp1409
(dp1410
g62
(dp1411
g89
g90
ssg71
g1400
sg64
(lp1412
S':'
asbag57
(g78
g59
NtRp1413
(dp1414
g62
(dp1415
sg71
g1400
sg64
(lp1416
g57
(g58
g59
NtRp1417
(dp1418
g62
(dp1419
g70
I4
ssg71
g1413
sg64
(lp1420
S'set([])'
p1421
asbasbasbag57
(g73
g59
NtRp1422
(dp1423
g62
(dp1424
sg71
g1305
sg64
(lp1425
g57
(g78
g59
NtRp1426
(dp1427
g62
(dp1428
g82
g83
ssg71
g1422
sg64
(lp1429
S'debugging'
p1430
asbag57
(g78
g59
NtRp1431
(dp1432
g62
(dp1433
g89
g90
ssg71
g1422
sg64
(lp1434
S':'
asbag57
(g78
g59
NtRp1435
(dp1436
g62
(dp1437
sg71
g1422
sg64
(lp1438
g57
(g58
g59
NtRp1439
(dp1440
g62
(dp1441
g70
I4
ssg71
g1435
sg64
(lp1442
S'False'
p1443
asbasbasbag57
(g73
g59
NtRp1444
(dp1445
g62
(dp1446
sg71
g1305
sg64
(lp1447
g57
(g78
g59
NtRp1448
(dp1449
g62
(dp1450
g82
g83
ssg71
g1444
sg64
(lp1451
S'gluon_parent'
p1452
asbag57
(g78
g59
NtRp1453
(dp1454
g62
(dp1455
g89
g90
ssg71
g1444
sg64
(lp1456
S':'
asbag57
(g78
g59
NtRp1457
(dp1458
g62
(dp1459
sg71
g1444
sg64
(lp1460
g57
(g58
g59
NtRp1461
(dp1462
g62
(dp1463
g70
I4
ssg71
g1457
sg64
(lp1464
S'/home/ian/web2py'
p1465
asbasbasbag57
(g73
g59
NtRp1466
(dp1467
g62
(dp1468
sg71
g1305
sg64
(lp1469
g57
(g78
g59
NtRp1470
(dp1471
g62
(dp1472
g82
g83
ssg71
g1466
sg64
(lp1473
S'http_accept'
p1474
asbag57
(g78
g59
NtRp1475
(dp1476
g62
(dp1477
g89
g90
ssg71
g1466
sg64
(lp1478
S':'
asbag57
(g78
g59
NtRp1479
(dp1480
g62
(dp1481
sg71
g1466
sg64
(lp1482
g57
(g58
g59
NtRp1483
(dp1484
g62
(dp1485
g70
I4
ssg71
g1479
sg64
(lp1486
S'*/*'
p1487
asbasbasbag57
(g73
g59
NtRp1488
(dp1489
g62
(dp1490
sg71
g1305
sg64
(lp1491
g57
(g78
g59
NtRp1492
(dp1493
g62
(dp1494
g82
g83
ssg71
g1488
sg64
(lp1495
S'http_accept_charset'
p1496
asbag57
(g78
g59
NtRp1497
(dp1498
g62
(dp1499
g89
g90
ssg71
g1488
sg64
(lp1500
S':'
asbag57
(g78
g59
NtRp1501
(dp1502
g62
(dp1503
sg71
g1488
sg64
(lp1504
g57
(g58
g59
NtRp1505
(dp1506
g62
(dp1507
g70
I4
ssg71
g1501
sg64
(lp1508
S'ISO-8859-1,utf-8;q=0.7,*;q=0.7'
p1509
asbasbasbag57
(g73
g59
NtRp1510
(dp1511
g62
(dp1512
sg71
g1305
sg64
(lp1513
g57
(g78
g59
NtRp1514
(dp1515
g62
(dp1516
g82
g83
ssg71
g1510
sg64
(lp1517
S'http_accept_encoding'
p1518
asbag57
(g78
g59
NtRp1519
(dp1520
g62
(dp1521
g89
g90
ssg71
g1510
sg64
(lp1522
S':'
asbag57
(g78
g59
NtRp1523
(dp1524
g62
(dp1525
sg71
g1510
sg64
(lp1526
g57
(g58
g59
NtRp1527
(dp1528
g62
(dp1529
g70
I4
ssg71
g1523
sg64
(lp1530
S'gzip, deflate'
p1531
asbasbasbag57
(g73
g59
NtRp1532
(dp1533
g62
(dp1534
sg71
g1305
sg64
(lp1535
g57
(g78
g59
NtRp1536
(dp1537
g62
(dp1538
g82
g83
ssg71
g1532
sg64
(lp1539
S'http_accept_language'
p1540
asbag57
(g78
g59
NtRp1541
(dp1542
g62
(dp1543
g89
g90
ssg71
g1532
sg64
(lp1544
S':'
asbag57
(g78
g59
NtRp1545
(dp1546
g62
(dp1547
sg71
g1532
sg64
(lp1548
g57
(g58
g59
NtRp1549
(dp1550
g62
(dp1551
g70
I4
ssg71
g1545
sg64
(lp1552
S'en-us,en;q=0.5'
p1553
asbasbasbag57
(g73
g59
NtRp1554
(dp1555
g62
(dp1556
sg71
g1305
sg64
(lp1557
g57
(g78
g59
NtRp1558
(dp1559
g62
(dp1560
g82
g83
ssg71
g1554
sg64
(lp1561
S'http_connection'
p1562
asbag57
(g78
g59
NtRp1563
(dp1564
g62
(dp1565
g89
g90
ssg71
g1554
sg64
(lp1566
S':'
asbag57
(g78
g59
NtRp1567
(dp1568
g62
(dp1569
sg71
g1554
sg64
(lp1570
g57
(g58
g59
NtRp1571
(dp1572
g62
(dp1573
g70
I4
ssg71
g1567
sg64
(lp1574
S'keep-alive'
p1575
asbasbasbag57
(g73
g59
NtRp1576
(dp1577
g62
(dp1578
sg71
g1305
sg64
(lp1579
g57
(g78
g59
NtRp1580
(dp1581
g62
(dp1582
g82
g83
ssg71
g1576
sg64
(lp1583
S'http_cookie'
p1584
asbag57
(g78
g59
NtRp1585
(dp1586
g62
(dp1587
g89
g90
ssg71
g1576
sg64
(lp1588
S':'
asbag57
(g78
g59
NtRp1589
(dp1590
g62
(dp1591
sg71
g1576
sg64
(lp1592
g57
(g58
g59
NtRp1593
(dp1594
g62
(dp1595
g70
I4
ssg71
g1589
sg64
(lp1596
S'__utma_a2a=9789918665.1351576430.1320019504.1320019504.1320019504.1; session_id_grades=127.0.0.1-dd79f5dc-b5bd-45ea-8db7-d0bfdd939f5e; session_id_paideia=127.0.0.1-e39bb56e-30eb-4da5-9f4e-559a6c22ef0d; session_id_welcome=127.0.0.1-bc5123dd-815b-46f6-97bc-b00806880997; session_id_topoi=127.0.0.1-36a47132-9f63-403c-93e8-4b961484278b; session_id_admin=127.0.0.1-bdcf41dc-96fb-4f1d-9904-f67b47ba2070'
p1597
asbasbasbag57
(g73
g59
NtRp1598
(dp1599
g62
(dp1600
sg71
g1305
sg64
(lp1601
g57
(g78
g59
NtRp1602
(dp1603
g62
(dp1604
g82
g83
ssg71
g1598
sg64
(lp1605
S'http_host'
p1606
asbag57
(g78
g59
NtRp1607
(dp1608
g62
(dp1609
g89
g90
ssg71
g1598
sg64
(lp1610
S':'
asbag57
(g78
g59
NtRp1611
(dp1612
g62
(dp1613
sg71
g1598
sg64
(lp1614
g57
(g58
g59
NtRp1615
(dp1616
g62
(dp1617
g70
I4
ssg71
g1611
sg64
(lp1618
S'127.0.0.1:8000'
p1619
asbasbasbag57
(g73
g59
NtRp1620
(dp1621
g62
(dp1622
sg71
g1305
sg64
(lp1623
g57
(g78
g59
NtRp1624
(dp1625
g62
(dp1626
g82
g83
ssg71
g1620
sg64
(lp1627
S'http_referer'
p1628
asbag57
(g78
g59
NtRp1629
(dp1630
g62
(dp1631
g89
g90
ssg71
g1620
sg64
(lp1632
S':'
asbag57
(g78
g59
NtRp1633
(dp1634
g62
(dp1635
sg71
g1620
sg64
(lp1636
g57
(g58
g59
NtRp1637
(dp1638
g62
(dp1639
g70
I4
ssg71
g1633
sg64
(lp1640
S'http://127.0.0.1:8000/topoi/plugin_listandedit/list/notes/1?fields=author&fields=work&fields=reference'
p1641
asbasbasbag57
(g73
g59
NtRp1642
(dp1643
g62
(dp1644
sg71
g1305
sg64
(lp1645
g57
(g78
g59
NtRp1646
(dp1647
g62
(dp1648
g82
g83
ssg71
g1642
sg64
(lp1649
S'http_user_agent'
p1650
asbag57
(g78
g59
NtRp1651
(dp1652
g62
(dp1653
g89
g90
ssg71
g1642
sg64
(lp1654
S':'
asbag57
(g78
g59
NtRp1655
(dp1656
g62
(dp1657
sg71
g1642
sg64
(lp1658
g57
(g58
g59
NtRp1659
(dp1660
g62
(dp1661
g70
I4
ssg71
g1655
sg64
(lp1662
S'Mozilla/5.0 (Ubuntu; X11; Linux x86_64; rv:9.0.1) Gecko/20100101 Firefox/9.0.1'
p1663
asbasbasbag57
(g73
g59
NtRp1664
(dp1665
g62
(dp1666
sg71
g1305
sg64
(lp1667
g57
(g78
g59
NtRp1668
(dp1669
g62
(dp1670
g82
g83
ssg71
g1664
sg64
(lp1671
S'http_web2py_component_element'
p1672
asbag57
(g78
g59
NtRp1673
(dp1674
g62
(dp1675
g89
g90
ssg71
g1664
sg64
(lp1676
S':'
asbag57
(g78
g59
NtRp1677
(dp1678
g62
(dp1679
sg71
g1664
sg64
(lp1680
g57
(g58
g59
NtRp1681
(dp1682
g62
(dp1683
g70
I4
ssg71
g1677
sg64
(lp1684
g281
asbasbasbag57
(g73
g59
NtRp1685
(dp1686
g62
(dp1687
sg71
g1305
sg64
(lp1688
g57
(g78
g59
NtRp1689
(dp1690
g62
(dp1691
g82
g83
ssg71
g1685
sg64
(lp1692
S'http_web2py_component_location'
p1693
asbag57
(g78
g59
NtRp1694
(dp1695
g62
(dp1696
g89
g90
ssg71
g1685
sg64
(lp1697
S':'
asbag57
(g78
g59
NtRp1698
(dp1699
g62
(dp1700
sg71
g1685
sg64
(lp1701
g57
(g58
g59
NtRp1702
(dp1703
g62
(dp1704
g70
I4
ssg71
g1698
sg64
(lp1705
S'http://127.0.0.1:8000/topoi/plugin_listandedit/list/notes/1?fields=author&fields=work&fields=reference'
p1706
asbasbasbag57
(g73
g59
NtRp1707
(dp1708
g62
(dp1709
sg71
g1305
sg64
(lp1710
g57
(g78
g59
NtRp1711
(dp1712
g62
(dp1713
g82
g83
ssg71
g1707
sg64
(lp1714
S'http_x_requested_with'
p1715
asbag57
(g78
g59
NtRp1716
(dp1717
g62
(dp1718
g89
g90
ssg71
g1707
sg64
(lp1719
S':'
asbag57
(g78
g59
NtRp1720
(dp1721
g62
(dp1722
sg71
g1707
sg64
(lp1723
g57
(g58
g59
NtRp1724
(dp1725
g62
(dp1726
g70
I4
ssg71
g1720
sg64
(lp1727
S'XMLHttpRequest'
p1728
asbasbasbag57
(g73
g59
NtRp1729
(dp1730
g62
(dp1731
sg71
g1305
sg64
(lp1732
g57
(g78
g59
NtRp1733
(dp1734
g62
(dp1735
g82
g83
ssg71
g1729
sg64
(lp1736
S'is_jython'
p1737
asbag57
(g78
g59
NtRp1738
(dp1739
g62
(dp1740
g89
g90
ssg71
g1729
sg64
(lp1741
S':'
asbag57
(g78
g59
NtRp1742
(dp1743
g62
(dp1744
sg71
g1729
sg64
(lp1745
g57
(g58
g59
NtRp1746
(dp1747
g62
(dp1748
g70
I4
ssg71
g1742
sg64
(lp1749
g1443
asbasbasbag57
(g73
g59
NtRp1750
(dp1751
g62
(dp1752
sg71
g1305
sg64
(lp1753
g57
(g78
g59
NtRp1754
(dp1755
g62
(dp1756
g82
g83
ssg71
g1750
sg64
(lp1757
S'is_pypy'
p1758
asbag57
(g78
g59
NtRp1759
(dp1760
g62
(dp1761
g89
g90
ssg71
g1750
sg64
(lp1762
S':'
asbag57
(g78
g59
NtRp1763
(dp1764
g62
(dp1765
sg71
g1750
sg64
(lp1766
g57
(g58
g59
NtRp1767
(dp1768
g62
(dp1769
g70
I4
ssg71
g1763
sg64
(lp1770
g1443
asbasbasbag57
(g73
g59
NtRp1771
(dp1772
g62
(dp1773
sg71
g1305
sg64
(lp1774
g57
(g78
g59
NtRp1775
(dp1776
g62
(dp1777
g82
g83
ssg71
g1771
sg64
(lp1778
S'path_info'
p1779
asbag57
(g78
g59
NtRp1780
(dp1781
g62
(dp1782
g89
g90
ssg71
g1771
sg64
(lp1783
S':'
asbag57
(g78
g59
NtRp1784
(dp1785
g62
(dp1786
sg71
g1771
sg64
(lp1787
g57
(g58
g59
NtRp1788
(dp1789
g62
(dp1790
g70
I4
ssg71
g1784
sg64
(lp1791
S'/topoi/plugin_ajaxselect/set_widget.load/notes/work/None/works/notes_work_loader/11/authors'
p1792
asbasbasbag57
(g73
g59
NtRp1793
(dp1794
g62
(dp1795
sg71
g1305
sg64
(lp1796
g57
(g78
g59
NtRp1797
(dp1798
g62
(dp1799
g82
g83
ssg71
g1793
sg64
(lp1800
S'query_string'
p1801
asbag57
(g78
g59
NtRp1802
(dp1803
g62
(dp1804
g89
g90
ssg71
g1793
sg64
(lp1805
S':'
asbag57
(g78
g59
NtRp1806
(dp1807
g62
(dp1808
sg71
g1793
sg64
(lp1809
g57
(g58
g59
NtRp1810
(dp1811
g62
(dp1812
g70
I4
ssg71
g1806
sg64
(lp1813
S''
asbasbasbag57
(g73
g59
NtRp1814
(dp1815
g62
(dp1816
sg71
g1305
sg64
(lp1817
g57
(g78
g59
NtRp1818
(dp1819
g62
(dp1820
g82
g83
ssg71
g1814
sg64
(lp1821
S'remote_addr'
p1822
asbag57
(g78
g59
NtRp1823
(dp1824
g62
(dp1825
g89
g90
ssg71
g1814
sg64
(lp1826
S':'
asbag57
(g78
g59
NtRp1827
(dp1828
g62
(dp1829
sg71
g1814
sg64
(lp1830
g57
(g58
g59
NtRp1831
(dp1832
g62
(dp1833
g70
I4
ssg71
g1827
sg64
(lp1834
g303
asbasbasbag57
(g73
g59
NtRp1835
(dp1836
g62
(dp1837
sg71
g1305
sg64
(lp1838
g57
(g78
g59
NtRp1839
(dp1840
g62
(dp1841
g82
g83
ssg71
g1835
sg64
(lp1842
S'remote_port'
p1843
asbag57
(g78
g59
NtRp1844
(dp1845
g62
(dp1846
g89
g90
ssg71
g1835
sg64
(lp1847
S':'
asbag57
(g78
g59
NtRp1848
(dp1849
g62
(dp1850
sg71
g1835
sg64
(lp1851
g57
(g58
g59
NtRp1852
(dp1853
g62
(dp1854
g70
I4
ssg71
g1848
sg64
(lp1855
S'58557'
p1856
asbasbasbag57
(g73
g59
NtRp1857
(dp1858
g62
(dp1859
sg71
g1305
sg64
(lp1860
g57
(g78
g59
NtRp1861
(dp1862
g62
(dp1863
g82
g83
ssg71
g1857
sg64
(lp1864
S'request_method'
p1865
asbag57
(g78
g59
NtRp1866
(dp1867
g62
(dp1868
g89
g90
ssg71
g1857
sg64
(lp1869
S':'
asbag57
(g78
g59
NtRp1870
(dp1871
g62
(dp1872
sg71
g1857
sg64
(lp1873
g57
(g58
g59
NtRp1874
(dp1875
g62
(dp1876
g70
I4
ssg71
g1870
sg64
(lp1877
S'GET'
p1878
asbasbasbag57
(g73
g59
NtRp1879
(dp1880
g62
(dp1881
sg71
g1305
sg64
(lp1882
g57
(g78
g59
NtRp1883
(dp1884
g62
(dp1885
g82
g83
ssg71
g1879
sg64
(lp1886
S'script_name'
p1887
asbag57
(g78
g59
NtRp1888
(dp1889
g62
(dp1890
g89
g90
ssg71
g1879
sg64
(lp1891
S':'
asbag57
(g78
g59
NtRp1892
(dp1893
g62
(dp1894
sg71
g1879
sg64
(lp1895
g57
(g58
g59
NtRp1896
(dp1897
g62
(dp1898
g70
I4
ssg71
g1892
sg64
(lp1899
S''
asbasbasbag57
(g73
g59
NtRp1900
(dp1901
g62
(dp1902
sg71
g1305
sg64
(lp1903
g57
(g78
g59
NtRp1904
(dp1905
g62
(dp1906
g82
g83
ssg71
g1900
sg64
(lp1907
S'server_name'
p1908
asbag57
(g78
g59
NtRp1909
(dp1910
g62
(dp1911
g89
g90
ssg71
g1900
sg64
(lp1912
S':'
asbag57
(g78
g59
NtRp1913
(dp1914
g62
(dp1915
sg71
g1900
sg64
(lp1916
g57
(g58
g59
NtRp1917
(dp1918
g62
(dp1919
g70
I4
ssg71
g1913
sg64
(lp1920
S'Ariel-ubuntu'
p1921
asbasbasbag57
(g73
g59
NtRp1922
(dp1923
g62
(dp1924
sg71
g1305
sg64
(lp1925
g57
(g78
g59
NtRp1926
(dp1927
g62
(dp1928
g82
g83
ssg71
g1922
sg64
(lp1929
S'server_port'
p1930
asbag57
(g78
g59
NtRp1931
(dp1932
g62
(dp1933
g89
g90
ssg71
g1922
sg64
(lp1934
S':'
asbag57
(g78
g59
NtRp1935
(dp1936
g62
(dp1937
sg71
g1922
sg64
(lp1938
g57
(g58
g59
NtRp1939
(dp1940
g62
(dp1941
g70
I4
ssg71
g1935
sg64
(lp1942
S'8000'
p1943
asbasbasbag57
(g73
g59
NtRp1944
(dp1945
g62
(dp1946
sg71
g1305
sg64
(lp1947
g57
(g78
g59
NtRp1948
(dp1949
g62
(dp1950
g82
g83
ssg71
g1944
sg64
(lp1951
S'server_protocol'
p1952
asbag57
(g78
g59
NtRp1953
(dp1954
g62
(dp1955
g89
g90
ssg71
g1944
sg64
(lp1956
S':'
asbag57
(g78
g59
NtRp1957
(dp1958
g62
(dp1959
sg71
g1944
sg64
(lp1960
g57
(g58
g59
NtRp1961
(dp1962
g62
(dp1963
g70
I4
ssg71
g1957
sg64
(lp1964
S'HTTP/1.1'
p1965
asbasbasbag57
(g73
g59
NtRp1966
(dp1967
g62
(dp1968
sg71
g1305
sg64
(lp1969
g57
(g78
g59
NtRp1970
(dp1971
g62
(dp1972
g82
g83
ssg71
g1966
sg64
(lp1973
S'server_software'
p1974
asbag57
(g78
g59
NtRp1975
(dp1976
g62
(dp1977
g89
g90
ssg71
g1966
sg64
(lp1978
S':'
asbag57
(g78
g59
NtRp1979
(dp1980
g62
(dp1981
sg71
g1966
sg64
(lp1982
g57
(g58
g59
NtRp1983
(dp1984
g62
(dp1985
g70
I4
ssg71
g1979
sg64
(lp1986
S'Rocket 1.2.4'
p1987
asbasbasbag57
(g73
g59
NtRp1988
(dp1989
g62
(dp1990
sg71
g1305
sg64
(lp1991
g57
(g78
g59
NtRp1992
(dp1993
g62
(dp1994
g82
g83
ssg71
g1988
sg64
(lp1995
S'web2py_crontype'
p1996
asbag57
(g78
g59
NtRp1997
(dp1998
g62
(dp1999
g89
g90
ssg71
g1988
sg64
(lp2000
S':'
asbag57
(g78
g59
NtRp2001
(dp2002
g62
(dp2003
sg71
g1988
sg64
(lp2004
g57
(g58
g59
NtRp2005
(dp2006
g62
(dp2007
g70
I4
ssg71
g2001
sg64
(lp2008
S'hard'
p2009
asbasbasbag57
(g73
g59
NtRp2010
(dp2011
g62
(dp2012
sg71
g1305
sg64
(lp2013
g57
(g78
g59
NtRp2014
(dp2015
g62
(dp2016
g82
g83
ssg71
g2010
sg64
(lp2017
S'web2py_path'
p2018
asbag57
(g78
g59
NtRp2019
(dp2020
g62
(dp2021
g89
g90
ssg71
g2010
sg64
(lp2022
S':'
asbag57
(g78
g59
NtRp2023
(dp2024
g62
(dp2025
sg71
g2010
sg64
(lp2026
g57
(g58
g59
NtRp2027
(dp2028
g62
(dp2029
g70
I4
ssg71
g2023
sg64
(lp2030
g1352
asbasbasbag57
(g73
g59
NtRp2031
(dp2032
g62
(dp2033
sg71
g1305
sg64
(lp2034
g57
(g78
g59
NtRp2035
(dp2036
g62
(dp2037
g82
g83
ssg71
g2031
sg64
(lp2038
S'web2py_version'
p2039
asbag57
(g78
g59
NtRp2040
(dp2041
g62
(dp2042
g89
g90
ssg71
g2031
sg64
(lp2043
S':'
asbag57
(g78
g59
NtRp2044
(dp2045
g62
(dp2046
sg71
g2031
sg64
(lp2047
g57
(g58
g59
NtRp2048
(dp2049
g62
(dp2050
g70
I4
ssg71
g2044
sg64
(lp2051
g57
(g66
g59
NtRp2052
(dp2053
g62
(dp2054
g70
I3
ssg71
Nsg64
(lp2055
g57
(g73
g59
NtRp2056
(dp2057
g62
(dp2058
sg71
g2052
sg64
(lp2059
g57
(g78
g59
NtRp2060
(dp2061
g62
(dp2062
sg71
g2056
sg64
(lp2063
g57
(g58
g59
NtRp2064
(dp2065
g62
(dp2066
g70
I3
ssg71
g2060
sg64
(lp2067
S'1'
asbasbasbag57
(g73
g59
NtRp2068
(dp2069
g62
(dp2070
sg71
g2052
sg64
(lp2071
g57
(g78
g59
NtRp2072
(dp2073
g62
(dp2074
sg71
g2068
sg64
(lp2075
g57
(g58
g59
NtRp2076
(dp2077
g62
(dp2078
g70
I3
ssg71
g2072
sg64
(lp2079
S'99'
p2080
asbasbasbag57
(g73
g59
NtRp2081
(dp2082
g62
(dp2083
sg71
g2052
sg64
(lp2084
g57
(g78
g59
NtRp2085
(dp2086
g62
(dp2087
sg71
g2081
sg64
(lp2088
g57
(g58
g59
NtRp2089
(dp2090
g62
(dp2091
g70
I3
ssg71
g2085
sg64
(lp2092
S'4'
asbasbasbag57
(g73
g59
NtRp2093
(dp2094
g62
(dp2095
sg71
g2052
sg64
(lp2096
g57
(g78
g59
NtRp2097
(dp2098
g62
(dp2099
sg71
g2093
sg64
(lp2100
g57
(g58
g59
NtRp2101
(dp2102
g62
(dp2103
g70
I3
ssg71
g2097
sg64
(lp2104
S'datetime.datetime(2011, 12, 14, 14, 46, 14)'
p2105
asbasbasbag57
(g73
g59
NtRp2106
(dp2107
g62
(dp2108
sg71
g2052
sg64
(lp2109
g57
(g78
g59
NtRp2110
(dp2111
g62
(dp2112
sg71
g2106
sg64
(lp2113
g57
(g58
g59
NtRp2114
(dp2115
g62
(dp2116
g70
I3
ssg71
g2110
sg64
(lp2117
S'stable'
p2118
asbasbasbasbasbasbasbag57
(g73
g59
NtRp2119
(dp2120
g62
(dp2121
sg71
g1305
sg64
(lp2122
g57
(g78
g59
NtRp2123
(dp2124
g62
(dp2125
g82
g83
ssg71
g2119
sg64
(lp2126
S'wsgi_errors'
p2127
asbag57
(g78
g59
NtRp2128
(dp2129
g62
(dp2130
g89
g90
ssg71
g2119
sg64
(lp2131
S':'
asbag57
(g78
g59
NtRp2132
(dp2133
g62
(dp2134
sg71
g2119
sg64
(lp2135
g57
(g58
g59
NtRp2136
(dp2137
g62
(dp2138
g70
I4
ssg71
g2132
sg64
(lp2139
S"<open file '<stderr>', mode 'w' at 0x7f82e3665270>"
p2140
asbasbasbag57
(g73
g59
NtRp2141
(dp2142
g62
(dp2143
sg71
g1305
sg64
(lp2144
g57
(g78
g59
NtRp2145
(dp2146
g62
(dp2147
g82
g83
ssg71
g2141
sg64
(lp2148
S'wsgi_file_wrapper'
p2149
asbag57
(g78
g59
NtRp2150
(dp2151
g62
(dp2152
g89
g90
ssg71
g2141
sg64
(lp2153
S':'
asbag57
(g78
g59
NtRp2154
(dp2155
g62
(dp2156
sg71
g2141
sg64
(lp2157
g57
(g58
g59
NtRp2158
(dp2159
g62
(dp2160
g70
I4
ssg71
g2154
sg64
(lp2161
S'<class wsgiref.util.FileWrapper at 0x27acc80>'
p2162
asbasbasbag57
(g73
g59
NtRp2163
(dp2164
g62
(dp2165
sg71
g1305
sg64
(lp2166
g57
(g78
g59
NtRp2167
(dp2168
g62
(dp2169
g82
g83
ssg71
g2163
sg64
(lp2170
S'wsgi_input'
p2171
asbag57
(g78
g59
NtRp2172
(dp2173
g62
(dp2174
g89
g90
ssg71
g2163
sg64
(lp2175
S':'
asbag57
(g78
g59
NtRp2176
(dp2177
g62
(dp2178
sg71
g2163
sg64
(lp2179
g57
(g58
g59
NtRp2180
(dp2181
g62
(dp2182
g70
I4
ssg71
g2176
sg64
(lp2183
S'<socket._fileobject object at 0x4fd8ad0>'
p2184
asbasbasbag57
(g73
g59
NtRp2185
(dp2186
g62
(dp2187
sg71
g1305
sg64
(lp2188
g57
(g78
g59
NtRp2189
(dp2190
g62
(dp2191
g82
g83
ssg71
g2185
sg64
(lp2192
S'wsgi_multiprocess'
p2193
asbag57
(g78
g59
NtRp2194
(dp2195
g62
(dp2196
g89
g90
ssg71
g2185
sg64
(lp2197
S':'
asbag57
(g78
g59
NtRp2198
(dp2199
g62
(dp2200
sg71
g2185
sg64
(lp2201
g57
(g58
g59
NtRp2202
(dp2203
g62
(dp2204
g70
I4
ssg71
g2198
sg64
(lp2205
g1443
asbasbasbag57
(g73
g59
NtRp2206
(dp2207
g62
(dp2208
sg71
g1305
sg64
(lp2209
g57
(g78
g59
NtRp2210
(dp2211
g62
(dp2212
g82
g83
ssg71
g2206
sg64
(lp2213
S'wsgi_multithread'
p2214
asbag57
(g78
g59
NtRp2215
(dp2216
g62
(dp2217
g89
g90
ssg71
g2206
sg64
(lp2218
S':'
asbag57
(g78
g59
NtRp2219
(dp2220
g62
(dp2221
sg71
g2206
sg64
(lp2222
g57
(g58
g59
NtRp2223
(dp2224
g62
(dp2225
g70
I4
ssg71
g2219
sg64
(lp2226
g100
asbasbasbag57
(g73
g59
NtRp2227
(dp2228
g62
(dp2229
sg71
g1305
sg64
(lp2230
g57
(g78
g59
NtRp2231
(dp2232
g62
(dp2233
g82
g83
ssg71
g2227
sg64
(lp2234
S'wsgi_run_once'
p2235
asbag57
(g78
g59
NtRp2236
(dp2237
g62
(dp2238
g89
g90
ssg71
g2227
sg64
(lp2239
S':'
asbag57
(g78
g59
NtRp2240
(dp2241
g62
(dp2242
sg71
g2227
sg64
(lp2243
g57
(g58
g59
NtRp2244
(dp2245
g62
(dp2246
g70
I4
ssg71
g2240
sg64
(lp2247
g1443
asbasbasbag57
(g73
g59
NtRp2248
(dp2249
g62
(dp2250
sg71
g1305
sg64
(lp2251
g57
(g78
g59
NtRp2252
(dp2253
g62
(dp2254
g82
g83
ssg71
g2248
sg64
(lp2255
S'wsgi_url_scheme'
p2256
asbag57
(g78
g59
NtRp2257
(dp2258
g62
(dp2259
g89
g90
ssg71
g2248
sg64
(lp2260
S':'
asbag57
(g78
g59
NtRp2261
(dp2262
g62
(dp2263
sg71
g2248
sg64
(lp2264
g57
(g58
g59
NtRp2265
(dp2266
g62
(dp2267
g70
I4
ssg71
g2261
sg64
(lp2268
S'http'
p2269
asbasbasbag57
(g73
g59
NtRp2270
(dp2271
g62
(dp2272
sg71
g1305
sg64
(lp2273
g57
(g78
g59
NtRp2274
(dp2275
g62
(dp2276
g82
g83
ssg71
g2270
sg64
(lp2277
S'wsgi_version'
p2278
asbag57
(g78
g59
NtRp2279
(dp2280
g62
(dp2281
g89
g90
ssg71
g2270
sg64
(lp2282
S':'
asbag57
(g78
g59
NtRp2283
(dp2284
g62
(dp2285
sg71
g2270
sg64
(lp2286
g57
(g58
g59
NtRp2287
(dp2288
g62
(dp2289
g70
I4
ssg71
g2283
sg64
(lp2290
g57
(g66
g59
NtRp2291
(dp2292
g62
(dp2293
g70
I3
ssg71
Nsg64
(lp2294
g57
(g73
g59
NtRp2295
(dp2296
g62
(dp2297
sg71
g2291
sg64
(lp2298
g57
(g78
g59
NtRp2299
(dp2300
g62
(dp2301
sg71
g2295
sg64
(lp2302
g57
(g58
g59
NtRp2303
(dp2304
g62
(dp2305
g70
I3
ssg71
g2299
sg64
(lp2306
S'1'
asbasbasbag57
(g73
g59
NtRp2307
(dp2308
g62
(dp2309
sg71
g2291
sg64
(lp2310
g57
(g78
g59
NtRp2311
(dp2312
g62
(dp2313
sg71
g2307
sg64
(lp2314
g57
(g58
g59
NtRp2315
(dp2316
g62
(dp2317
g70
I3
ssg71
g2311
sg64
(lp2318
S'0'
asbasbasbasbasbasbasbasbasbasbasbag57
(g73
g59
NtRp2319
(dp2320
g62
(dp2321
sg71
g67
sg64
(lp2322
g57
(g78
g59
NtRp2323
(dp2324
g62
(dp2325
g82
g83
ssg71
g2319
sg64
(lp2326
S'extension'
p2327
asbag57
(g78
g59
NtRp2328
(dp2329
g62
(dp2330
g89
g90
ssg71
g2319
sg64
(lp2331
S':'
asbag57
(g78
g59
NtRp2332
(dp2333
g62
(dp2334
sg71
g2319
sg64
(lp2335
g57
(g58
g59
NtRp2336
(dp2337
g62
(dp2338
g70
I5
ssg71
g2332
sg64
(lp2339
S'load'
p2340
asbasbasbag57
(g73
g59
NtRp2341
(dp2342
g62
(dp2343
sg71
g67
sg64
(lp2344
g57
(g78
g59
NtRp2345
(dp2346
g62
(dp2347
g82
g83
ssg71
g2341
sg64
(lp2348
S'folder'
p2349
asbag57
(g78
g59
NtRp2350
(dp2351
g62
(dp2352
g89
g90
ssg71
g2341
sg64
(lp2353
S':'
asbag57
(g78
g59
NtRp2354
(dp2355
g62
(dp2356
sg71
g2341
sg64
(lp2357
g57
(g58
g59
NtRp2358
(dp2359
g62
(dp2360
g70
I5
ssg71
g2354
sg64
(lp2361
S'/home/ian/web2py/applications/topoi/'
p2362
asbasbasbag57
(g73
g59
NtRp2363
(dp2364
g62
(dp2365
sg71
g67
sg64
(lp2366
g57
(g78
g59
NtRp2367
(dp2368
g62
(dp2369
g82
g83
ssg71
g2363
sg64
(lp2370
S'function'
p2371
asbag57
(g78
g59
NtRp2372
(dp2373
g62
(dp2374
g89
g90
ssg71
g2363
sg64
(lp2375
S':'
asbag57
(g78
g59
NtRp2376
(dp2377
g62
(dp2378
sg71
g2363
sg64
(lp2379
g57
(g58
g59
NtRp2380
(dp2381
g62
(dp2382
g70
I5
ssg71
g2376
sg64
(lp2383
S'set_widget'
p2384
asbasbasbag57
(g73
g59
NtRp2385
(dp2386
g62
(dp2387
sg71
g67
sg64
(lp2388
g57
(g78
g59
NtRp2389
(dp2390
g62
(dp2391
g82
g83
ssg71
g2385
sg64
(lp2392
S'get_vars'
p2393
asbag57
(g78
g59
NtRp2394
(dp2395
g62
(dp2396
g89
g90
ssg71
g2385
sg64
(lp2397
S':'
asbag57
(g78
g59
NtRp2398
(dp2399
g62
(dp2400
sg71
g2385
sg64
(lp2401
g57
(g58
g59
NtRp2402
(dp2403
g62
(dp2404
g70
I5
ssg71
g2398
sg64
(lp2405
g57
(g66
g59
NtRp2406
(dp2407
g62
(dp2408
g70
I4
ssg71
Nsg64
(lp2409
sbasbasbasbag57
(g73
g59
NtRp2410
(dp2411
g62
(dp2412
sg71
g67
sg64
(lp2413
g57
(g78
g59
NtRp2414
(dp2415
g62
(dp2416
g82
g83
ssg71
g2410
sg64
(lp2417
S'global_settings'
p2418
asbag57
(g78
g59
NtRp2419
(dp2420
g62
(dp2421
g89
g90
ssg71
g2410
sg64
(lp2422
S':'
asbag57
(g78
g59
NtRp2423
(dp2424
g62
(dp2425
sg71
g2410
sg64
(lp2426
g57
(g58
g59
NtRp2427
(dp2428
g62
(dp2429
g70
I5
ssg71
g2423
sg64
(lp2430
g57
(g66
g59
NtRp2431
(dp2432
g62
(dp2433
g70
I4
ssg71
Nsg64
(lp2434
g57
(g73
g59
NtRp2435
(dp2436
g62
(dp2437
sg71
g2431
sg64
(lp2438
g57
(g78
g59
NtRp2439
(dp2440
g62
(dp2441
g82
g83
ssg71
g2435
sg64
(lp2442
g1317
asbag57
(g78
g59
NtRp2443
(dp2444
g62
(dp2445
g89
g90
ssg71
g2435
sg64
(lp2446
S':'
asbag57
(g78
g59
NtRp2447
(dp2448
g62
(dp2449
sg71
g2435
sg64
(lp2450
g57
(g58
g59
NtRp2451
(dp2452
g62
(dp2453
g70
I4
ssg71
g2447
sg64
(lp2454
S"set(['/home/ian/web2py/applications/topoi/', '/home/ian/web2py/applications/welcome/', '/home/ian/web2py/applications/admin/'])"
p2455
asbasbasbag57
(g73
g59
NtRp2456
(dp2457
g62
(dp2458
sg71
g2431
sg64
(lp2459
g57
(g78
g59
NtRp2460
(dp2461
g62
(dp2462
g82
g83
ssg71
g2456
sg64
(lp2463
g1339
asbag57
(g78
g59
NtRp2464
(dp2465
g62
(dp2466
g89
g90
ssg71
g2456
sg64
(lp2467
S':'
asbag57
(g78
g59
NtRp2468
(dp2469
g62
(dp2470
sg71
g2456
sg64
(lp2471
g57
(g58
g59
NtRp2472
(dp2473
g62
(dp2474
g70
I4
ssg71
g2468
sg64
(lp2475
g1352
asbasbasbag57
(g73
g59
NtRp2476
(dp2477
g62
(dp2478
sg71
g2431
sg64
(lp2479
g57
(g78
g59
NtRp2480
(dp2481
g62
(dp2482
g82
g83
ssg71
g2476
sg64
(lp2483
g1361
asbag57
(g78
g59
NtRp2484
(dp2485
g62
(dp2486
g89
g90
ssg71
g2476
sg64
(lp2487
S':'
asbag57
(g78
g59
NtRp2488
(dp2489
g62
(dp2490
sg71
g2476
sg64
(lp2491
g57
(g58
g59
NtRp2492
(dp2493
g62
(dp2494
g70
I4
ssg71
g2488
sg64
(lp2495
g57
(g66
g59
NtRp2496
(dp2497
g62
(dp2498
g70
I3
ssg71
Nsg64
(lp2499
sbasbasbasbag57
(g73
g59
NtRp2500
(dp2501
g62
(dp2502
sg71
g2431
sg64
(lp2503
g57
(g78
g59
NtRp2504
(dp2505
g62
(dp2506
g82
g83
ssg71
g2500
sg64
(lp2507
g1386
asbag57
(g78
g59
NtRp2508
(dp2509
g62
(dp2510
g89
g90
ssg71
g2500
sg64
(lp2511
S':'
asbag57
(g78
g59
NtRp2512
(dp2513
g62
(dp2514
sg71
g2500
sg64
(lp2515
g57
(g58
g59
NtRp2516
(dp2517
g62
(dp2518
g70
I4
ssg71
g2512
sg64
(lp2519
S"<Values at 0x28edb00: {'verbose': False, 'ip': '127.0.0.1', 'shutdown_timeout': 5, 'taskbar': False, 'nocron': False, 'pid_filename': 'httpserver.pid', 'maxthreads': None, 'softcron': False, 'server_name': 'Ariel-ubuntu', 'bpython': False, 'nogui': False, 'port': 8000, 'extcron': False, 'debuglevel': 30, 'test': None, 'folder': '/home/ian/web2py', 'config': '', 'import_models': False, 'winservice': '', 'shell': None, 'run': '', 'log_filename': 'httpserver.log', 'args': [''], 'socket_timeout': 1, 'ssl_ca_certificate': None, 'scheduler': None, 'profiler_filename': None, 'ssl_private_key': '', 'password': '<ask>', 'request_queue_size': 5, 'ssl_certificate': '', 'cronjob': False, 'numthreads': None, 'quiet': False, 'interfaces': None, 'minthreads': None, 'timeout': 10, 'plain': False, 'nobanner': False}>"
p2520
asbasbasbag57
(g73
g59
NtRp2521
(dp2522
g62
(dp2523
sg71
g2431
sg64
(lp2524
g57
(g78
g59
NtRp2525
(dp2526
g62
(dp2527
g82
g83
ssg71
g2521
sg64
(lp2528
g1408
asbag57
(g78
g59
NtRp2529
(dp2530
g62
(dp2531
g89
g90
ssg71
g2521
sg64
(lp2532
S':'
asbag57
(g78
g59
NtRp2533
(dp2534
g62
(dp2535
sg71
g2521
sg64
(lp2536
g57
(g58
g59
NtRp2537
(dp2538
g62
(dp2539
g70
I4
ssg71
g2533
sg64
(lp2540
S'set([])'
p2541
asbasbasbag57
(g73
g59
NtRp2542
(dp2543
g62
(dp2544
sg71
g2431
sg64
(lp2545
g57
(g78
g59
NtRp2546
(dp2547
g62
(dp2548
g82
g83
ssg71
g2542
sg64
(lp2549
g1430
asbag57
(g78
g59
NtRp2550
(dp2551
g62
(dp2552
g89
g90
ssg71
g2542
sg64
(lp2553
S':'
asbag57
(g78
g59
NtRp2554
(dp2555
g62
(dp2556
sg71
g2542
sg64
(lp2557
g57
(g58
g59
NtRp2558
(dp2559
g62
(dp2560
g70
I4
ssg71
g2554
sg64
(lp2561
g1443
asbasbasbag57
(g73
g59
NtRp2562
(dp2563
g62
(dp2564
sg71
g2431
sg64
(lp2565
g57
(g78
g59
NtRp2566
(dp2567
g62
(dp2568
g82
g83
ssg71
g2562
sg64
(lp2569
g1452
asbag57
(g78
g59
NtRp2570
(dp2571
g62
(dp2572
g89
g90
ssg71
g2562
sg64
(lp2573
S':'
asbag57
(g78
g59
NtRp2574
(dp2575
g62
(dp2576
sg71
g2562
sg64
(lp2577
g57
(g58
g59
NtRp2578
(dp2579
g62
(dp2580
g70
I4
ssg71
g2574
sg64
(lp2581
g1465
asbasbasbag57
(g73
g59
NtRp2582
(dp2583
g62
(dp2584
sg71
g2431
sg64
(lp2585
g57
(g78
g59
NtRp2586
(dp2587
g62
(dp2588
g82
g83
ssg71
g2582
sg64
(lp2589
g1737
asbag57
(g78
g59
NtRp2590
(dp2591
g62
(dp2592
g89
g90
ssg71
g2582
sg64
(lp2593
S':'
asbag57
(g78
g59
NtRp2594
(dp2595
g62
(dp2596
sg71
g2582
sg64
(lp2597
g57
(g58
g59
NtRp2598
(dp2599
g62
(dp2600
g70
I4
ssg71
g2594
sg64
(lp2601
g1443
asbasbasbag57
(g73
g59
NtRp2602
(dp2603
g62
(dp2604
sg71
g2431
sg64
(lp2605
g57
(g78
g59
NtRp2606
(dp2607
g62
(dp2608
g82
g83
ssg71
g2602
sg64
(lp2609
g1758
asbag57
(g78
g59
NtRp2610
(dp2611
g62
(dp2612
g89
g90
ssg71
g2602
sg64
(lp2613
S':'
asbag57
(g78
g59
NtRp2614
(dp2615
g62
(dp2616
sg71
g2602
sg64
(lp2617
g57
(g58
g59
NtRp2618
(dp2619
g62
(dp2620
g70
I4
ssg71
g2614
sg64
(lp2621
g1443
asbasbasbag57
(g73
g59
NtRp2622
(dp2623
g62
(dp2624
sg71
g2431
sg64
(lp2625
g57
(g78
g59
NtRp2626
(dp2627
g62
(dp2628
g82
g83
ssg71
g2622
sg64
(lp2629
g1996
asbag57
(g78
g59
NtRp2630
(dp2631
g62
(dp2632
g89
g90
ssg71
g2622
sg64
(lp2633
S':'
asbag57
(g78
g59
NtRp2634
(dp2635
g62
(dp2636
sg71
g2622
sg64
(lp2637
g57
(g58
g59
NtRp2638
(dp2639
g62
(dp2640
g70
I4
ssg71
g2634
sg64
(lp2641
g2009
asbasbasbag57
(g73
g59
NtRp2642
(dp2643
g62
(dp2644
sg71
g2431
sg64
(lp2645
g57
(g78
g59
NtRp2646
(dp2647
g62
(dp2648
g82
g83
ssg71
g2642
sg64
(lp2649
g2039
asbag57
(g78
g59
NtRp2650
(dp2651
g62
(dp2652
g89
g90
ssg71
g2642
sg64
(lp2653
S':'
asbag57
(g78
g59
NtRp2654
(dp2655
g62
(dp2656
sg71
g2642
sg64
(lp2657
g57
(g58
g59
NtRp2658
(dp2659
g62
(dp2660
g70
I4
ssg71
g2654
sg64
(lp2661
g57
(g66
g59
NtRp2662
(dp2663
g62
(dp2664
g70
I3
ssg71
Nsg64
(lp2665
g57
(g73
g59
NtRp2666
(dp2667
g62
(dp2668
sg71
g2662
sg64
(lp2669
g57
(g78
g59
NtRp2670
(dp2671
g62
(dp2672
sg71
g2666
sg64
(lp2673
g57
(g58
g59
NtRp2674
(dp2675
g62
(dp2676
g70
I3
ssg71
g2670
sg64
(lp2677
S'1'
asbasbasbag57
(g73
g59
NtRp2678
(dp2679
g62
(dp2680
sg71
g2662
sg64
(lp2681
g57
(g78
g59
NtRp2682
(dp2683
g62
(dp2684
sg71
g2678
sg64
(lp2685
g57
(g58
g59
NtRp2686
(dp2687
g62
(dp2688
g70
I3
ssg71
g2682
sg64
(lp2689
S'99'
p2690
asbasbasbag57
(g73
g59
NtRp2691
(dp2692
g62
(dp2693
sg71
g2662
sg64
(lp2694
g57
(g78
g59
NtRp2695
(dp2696
g62
(dp2697
sg71
g2691
sg64
(lp2698
g57
(g58
g59
NtRp2699
(dp2700
g62
(dp2701
g70
I3
ssg71
g2695
sg64
(lp2702
S'4'
asbasbasbag57
(g73
g59
NtRp2703
(dp2704
g62
(dp2705
sg71
g2662
sg64
(lp2706
g57
(g78
g59
NtRp2707
(dp2708
g62
(dp2709
sg71
g2703
sg64
(lp2710
g57
(g58
g59
NtRp2711
(dp2712
g62
(dp2713
g70
I3
ssg71
g2707
sg64
(lp2714
S'datetime.datetime(2011, 12, 14, 14, 46, 14)'
p2715
asbasbasbag57
(g73
g59
NtRp2716
(dp2717
g62
(dp2718
sg71
g2662
sg64
(lp2719
g57
(g78
g59
NtRp2720
(dp2721
g62
(dp2722
sg71
g2716
sg64
(lp2723
g57
(g58
g59
NtRp2724
(dp2725
g62
(dp2726
g70
I3
ssg71
g2720
sg64
(lp2727
g2118
asbasbasbasbasbasbasbasbasbasbasbag57
(g73
g59
NtRp2728
(dp2729
g62
(dp2730
sg71
g67
sg64
(lp2731
g57
(g78
g59
NtRp2732
(dp2733
g62
(dp2734
g82
g83
ssg71
g2728
sg64
(lp2735
S'is_https'
p2736
asbag57
(g78
g59
NtRp2737
(dp2738
g62
(dp2739
g89
g90
ssg71
g2728
sg64
(lp2740
S':'
asbag57
(g78
g59
NtRp2741
(dp2742
g62
(dp2743
sg71
g2728
sg64
(lp2744
g57
(g58
g59
NtRp2745
(dp2746
g62
(dp2747
g70
I5
ssg71
g2741
sg64
(lp2748
g1443
asbasbasbag57
(g73
g59
NtRp2749
(dp2750
g62
(dp2751
sg71
g67
sg64
(lp2752
g57
(g78
g59
NtRp2753
(dp2754
g62
(dp2755
g82
g83
ssg71
g2749
sg64
(lp2756
S'is_local'
p2757
asbag57
(g78
g59
NtRp2758
(dp2759
g62
(dp2760
g89
g90
ssg71
g2749
sg64
(lp2761
S':'
asbag57
(g78
g59
NtRp2762
(dp2763
g62
(dp2764
sg71
g2749
sg64
(lp2765
g57
(g58
g59
NtRp2766
(dp2767
g62
(dp2768
g70
I5
ssg71
g2762
sg64
(lp2769
g100
asbasbasbag57
(g73
g59
NtRp2770
(dp2771
g62
(dp2772
sg71
g67
sg64
(lp2773
g57
(g78
g59
NtRp2774
(dp2775
g62
(dp2776
g82
g83
ssg71
g2770
sg64
(lp2777
S'is_restful'
p2778
asbag57
(g78
g59
NtRp2779
(dp2780
g62
(dp2781
g89
g90
ssg71
g2770
sg64
(lp2782
S':'
asbag57
(g78
g59
NtRp2783
(dp2784
g62
(dp2785
sg71
g2770
sg64
(lp2786
g57
(g58
g59
NtRp2787
(dp2788
g62
(dp2789
g70
I5
ssg71
g2783
sg64
(lp2790
g1443
asbasbasbag57
(g73
g59
NtRp2791
(dp2792
g62
(dp2793
sg71
g67
sg64
(lp2794
g57
(g78
g59
NtRp2795
(dp2796
g62
(dp2797
g82
g83
ssg71
g2791
sg64
(lp2798
S'now'
p2799
asbag57
(g78
g59
NtRp2800
(dp2801
g62
(dp2802
g89
g90
ssg71
g2791
sg64
(lp2803
S':'
asbag57
(g78
g59
NtRp2804
(dp2805
g62
(dp2806
sg71
g2791
sg64
(lp2807
g57
(g58
g59
NtRp2808
(dp2809
g62
(dp2810
g70
I5
ssg71
g2804
sg64
(lp2811
S'datetime.datetime(2012, 1, 21, 18, 36, 12, 728830)'
p2812
asbasbasbag57
(g73
g59
NtRp2813
(dp2814
g62
(dp2815
sg71
g67
sg64
(lp2816
g57
(g78
g59
NtRp2817
(dp2818
g62
(dp2819
g82
g83
ssg71
g2813
sg64
(lp2820
S'post_vars'
p2821
asbag57
(g78
g59
NtRp2822
(dp2823
g62
(dp2824
g89
g90
ssg71
g2813
sg64
(lp2825
S':'
asbag57
(g78
g59
NtRp2826
(dp2827
g62
(dp2828
sg71
g2813
sg64
(lp2829
g57
(g58
g59
NtRp2830
(dp2831
g62
(dp2832
g70
I5
ssg71
g2826
sg64
(lp2833
g57
(g66
g59
NtRp2834
(dp2835
g62
(dp2836
g70
I4
ssg71
Nsg64
(lp2837
sbasbasbasbag57
(g73
g59
NtRp2838
(dp2839
g62
(dp2840
sg71
g67
sg64
(lp2841
g57
(g78
g59
NtRp2842
(dp2843
g62
(dp2844
g82
g83
ssg71
g2838
sg64
(lp2845
S'raw_args'
p2846
asbag57
(g78
g59
NtRp2847
(dp2848
g62
(dp2849
g89
g90
ssg71
g2838
sg64
(lp2850
S':'
asbag57
(g78
g59
NtRp2851
(dp2852
g62
(dp2853
sg71
g2838
sg64
(lp2854
g57
(g58
g59
NtRp2855
(dp2856
g62
(dp2857
g70
I5
ssg71
g2851
sg64
(lp2858
S'notes/work/None/works/notes_work_loader/11/authors'
p2859
asbasbasbag57
(g73
g59
NtRp2860
(dp2861
g62
(dp2862
sg71
g67
sg64
(lp2863
g57
(g78
g59
NtRp2864
(dp2865
g62
(dp2866
g82
g83
ssg71
g2860
sg64
(lp2867
S'raw_extension'
p2868
asbag57
(g78
g59
NtRp2869
(dp2870
g62
(dp2871
g89
g90
ssg71
g2860
sg64
(lp2872
S':'
asbag57
(g78
g59
NtRp2873
(dp2874
g62
(dp2875
sg71
g2860
sg64
(lp2876
g57
(g58
g59
NtRp2877
(dp2878
g62
(dp2879
g70
I5
ssg71
g2873
sg64
(lp2880
g2340
asbasbasbag57
(g73
g59
NtRp2881
(dp2882
g62
(dp2883
sg71
g67
sg64
(lp2884
g57
(g78
g59
NtRp2885
(dp2886
g62
(dp2887
g82
g83
ssg71
g2881
sg64
(lp2888
S'url'
p2889
asbag57
(g78
g59
NtRp2890
(dp2891
g62
(dp2892
g89
g90
ssg71
g2881
sg64
(lp2893
S':'
asbag57
(g78
g59
NtRp2894
(dp2895
g62
(dp2896
sg71
g2881
sg64
(lp2897
g57
(g58
g59
NtRp2898
(dp2899
g62
(dp2900
g70
I5
ssg71
g2894
sg64
(lp2901
S'/topoi/plugin_ajaxselect/set_widget.load/notes/work/None/works/notes_work_loader/11/authors'
p2902
asbasbasbag57
(g73
g59
NtRp2903
(dp2904
g62
(dp2905
sg71
g67
sg64
(lp2906
g57
(g78
g59
NtRp2907
(dp2908
g62
(dp2909
g82
g83
ssg71
g2903
sg64
(lp2910
S'utcnow'
p2911
asbag57
(g78
g59
NtRp2912
(dp2913
g62
(dp2914
g89
g90
ssg71
g2903
sg64
(lp2915
S':'
asbag57
(g78
g59
NtRp2916
(dp2917
g62
(dp2918
sg71
g2903
sg64
(lp2919
g57
(g58
g59
NtRp2920
(dp2921
g62
(dp2922
g70
I5
ssg71
g2916
sg64
(lp2923
S'datetime.datetime(2012, 1, 21, 23, 36, 12, 728872)'
p2924
asbasbasbag57
(g73
g59
NtRp2925
(dp2926
g62
(dp2927
sg71
g67
sg64
(lp2928
g57
(g78
g59
NtRp2929
(dp2930
g62
(dp2931
g82
g83
ssg71
g2925
sg64
(lp2932
S'uuid'
p2933
asbag57
(g78
g59
NtRp2934
(dp2935
g62
(dp2936
g89
g90
ssg71
g2925
sg64
(lp2937
S':'
asbag57
(g78
g59
NtRp2938
(dp2939
g62
(dp2940
sg71
g2925
sg64
(lp2941
g57
(g58
g59
NtRp2942
(dp2943
g62
(dp2944
g70
I5
ssg71
g2938
sg64
(lp2945
S'topoi/127.0.0.1.2012-01-21.18-36-12.bb04e451-1cb9-4af1-b888-fb34a4a7a4ee'
p2946
asbasbasbag57
(g73
g59
NtRp2947
(dp2948
g62
(dp2949
sg71
g67
sg64
(lp2950
g57
(g78
g59
NtRp2951
(dp2952
g62
(dp2953
g82
g83
ssg71
g2947
sg64
(lp2954
S'vars'
p2955
asbag57
(g78
g59
NtRp2956
(dp2957
g62
(dp2958
g89
g90
ssg71
g2947
sg64
(lp2959
S':'
asbag57
(g78
g59
NtRp2960
(dp2961
g62
(dp2962
sg71
g2947
sg64
(lp2963
g57
(g58
g59
NtRp2964
(dp2965
g62
(dp2966
g70
I5
ssg71
g2960
sg64
(lp2967
g57
(g66
g59
NtRp2968
(dp2969
g62
(dp2970
g70
I4
ssg71
Nsg64
(lp2971
sbasbasbasbag57
(g73
g59
NtRp2972
(dp2973
g62
(dp2974
sg71
g67
sg64
(lp2975
g57
(g78
g59
NtRp2976
(dp2977
g62
(dp2978
g82
g83
ssg71
g2972
sg64
(lp2979
S'wsgi'
p2980
asbag57
(g78
g59
NtRp2981
(dp2982
g62
(dp2983
g89
g90
ssg71
g2972
sg64
(lp2984
S':'
asbag57
(g78
g59
NtRp2985
(dp2986
g62
(dp2987
sg71
g2972
sg64
(lp2988
g57
(g58
g59
NtRp2989
(dp2990
g62
(dp2991
g70
I5
ssg71
g2985
sg64
(lp2992
g57
(g66
g59
NtRp2993
(dp2994
g62
(dp2995
g70
I4
ssg71
Nsg64
(lp2996
g57
(g73
g59
NtRp2997
(dp2998
g62
(dp2999
sg71
g2993
sg64
(lp3000
g57
(g78
g59
NtRp3001
(dp3002
g62
(dp3003
g82
g83
ssg71
g2997
sg64
(lp3004
S'environ'
p3005
asbag57
(g78
g59
NtRp3006
(dp3007
g62
(dp3008
g89
g90
ssg71
g2997
sg64
(lp3009
S':'
asbag57
(g78
g59
NtRp3010
(dp3011
g62
(dp3012
sg71
g2997
sg64
(lp3013
g57
(g58
g59
NtRp3014
(dp3015
g62
(dp3016
g70
I4
ssg71
g3010
sg64
(lp3017
g57
(g66
g59
NtRp3018
(dp3019
g62
(dp3020
g70
I3
ssg71
Nsg64
(lp3021
g57
(g73
g59
NtRp3022
(dp3023
g62
(dp3024
sg71
g3018
sg64
(lp3025
g57
(g78
g59
NtRp3026
(dp3027
g62
(dp3028
g82
g83
ssg71
g3022
sg64
(lp3029
S'HTTP_ACCEPT'
p3030
asbag57
(g78
g59
NtRp3031
(dp3032
g62
(dp3033
g89
g90
ssg71
g3022
sg64
(lp3034
S':'
asbag57
(g78
g59
NtRp3035
(dp3036
g62
(dp3037
sg71
g3022
sg64
(lp3038
g57
(g58
g59
NtRp3039
(dp3040
g62
(dp3041
g70
I3
ssg71
g3035
sg64
(lp3042
g1487
asbasbasbag57
(g73
g59
NtRp3043
(dp3044
g62
(dp3045
sg71
g3018
sg64
(lp3046
g57
(g78
g59
NtRp3047
(dp3048
g62
(dp3049
g82
g83
ssg71
g3043
sg64
(lp3050
S'HTTP_ACCEPT_CHARSET'
p3051
asbag57
(g78
g59
NtRp3052
(dp3053
g62
(dp3054
g89
g90
ssg71
g3043
sg64
(lp3055
S':'
asbag57
(g78
g59
NtRp3056
(dp3057
g62
(dp3058
sg71
g3043
sg64
(lp3059
g57
(g58
g59
NtRp3060
(dp3061
g62
(dp3062
g70
I3
ssg71
g3056
sg64
(lp3063
g1509
asbasbasbag57
(g73
g59
NtRp3064
(dp3065
g62
(dp3066
sg71
g3018
sg64
(lp3067
g57
(g78
g59
NtRp3068
(dp3069
g62
(dp3070
g82
g83
ssg71
g3064
sg64
(lp3071
S'HTTP_ACCEPT_ENCODING'
p3072
asbag57
(g78
g59
NtRp3073
(dp3074
g62
(dp3075
g89
g90
ssg71
g3064
sg64
(lp3076
S':'
asbag57
(g78
g59
NtRp3077
(dp3078
g62
(dp3079
sg71
g3064
sg64
(lp3080
g57
(g58
g59
NtRp3081
(dp3082
g62
(dp3083
g70
I3
ssg71
g3077
sg64
(lp3084
g1531
asbasbasbag57
(g73
g59
NtRp3085
(dp3086
g62
(dp3087
sg71
g3018
sg64
(lp3088
g57
(g78
g59
NtRp3089
(dp3090
g62
(dp3091
g82
g83
ssg71
g3085
sg64
(lp3092
S'HTTP_ACCEPT_LANGUAGE'
p3093
asbag57
(g78
g59
NtRp3094
(dp3095
g62
(dp3096
g89
g90
ssg71
g3085
sg64
(lp3097
S':'
asbag57
(g78
g59
NtRp3098
(dp3099
g62
(dp3100
sg71
g3085
sg64
(lp3101
g57
(g58
g59
NtRp3102
(dp3103
g62
(dp3104
g70
I3
ssg71
g3098
sg64
(lp3105
g1553
asbasbasbag57
(g73
g59
NtRp3106
(dp3107
g62
(dp3108
sg71
g3018
sg64
(lp3109
g57
(g78
g59
NtRp3110
(dp3111
g62
(dp3112
g82
g83
ssg71
g3106
sg64
(lp3113
S'HTTP_CONNECTION'
p3114
asbag57
(g78
g59
NtRp3115
(dp3116
g62
(dp3117
g89
g90
ssg71
g3106
sg64
(lp3118
S':'
asbag57
(g78
g59
NtRp3119
(dp3120
g62
(dp3121
sg71
g3106
sg64
(lp3122
g57
(g58
g59
NtRp3123
(dp3124
g62
(dp3125
g70
I3
ssg71
g3119
sg64
(lp3126
g1575
asbasbasbag57
(g73
g59
NtRp3127
(dp3128
g62
(dp3129
sg71
g3018
sg64
(lp3130
g57
(g78
g59
NtRp3131
(dp3132
g62
(dp3133
g82
g83
ssg71
g3127
sg64
(lp3134
S'HTTP_COOKIE'
p3135
asbag57
(g78
g59
NtRp3136
(dp3137
g62
(dp3138
g89
g90
ssg71
g3127
sg64
(lp3139
S':'
asbag57
(g78
g59
NtRp3140
(dp3141
g62
(dp3142
sg71
g3127
sg64
(lp3143
g57
(g58
g59
NtRp3144
(dp3145
g62
(dp3146
g70
I3
ssg71
g3140
sg64
(lp3147
g1597
asbasbasbag57
(g73
g59
NtRp3148
(dp3149
g62
(dp3150
sg71
g3018
sg64
(lp3151
g57
(g78
g59
NtRp3152
(dp3153
g62
(dp3154
g82
g83
ssg71
g3148
sg64
(lp3155
S'HTTP_HOST'
p3156
asbag57
(g78
g59
NtRp3157
(dp3158
g62
(dp3159
g89
g90
ssg71
g3148
sg64
(lp3160
S':'
asbag57
(g78
g59
NtRp3161
(dp3162
g62
(dp3163
sg71
g3148
sg64
(lp3164
g57
(g58
g59
NtRp3165
(dp3166
g62
(dp3167
g70
I3
ssg71
g3161
sg64
(lp3168
g1619
asbasbasbag57
(g73
g59
NtRp3169
(dp3170
g62
(dp3171
sg71
g3018
sg64
(lp3172
g57
(g78
g59
NtRp3173
(dp3174
g62
(dp3175
g82
g83
ssg71
g3169
sg64
(lp3176
S'HTTP_REFERER'
p3177
asbag57
(g78
g59
NtRp3178
(dp3179
g62
(dp3180
g89
g90
ssg71
g3169
sg64
(lp3181
S':'
asbag57
(g78
g59
NtRp3182
(dp3183
g62
(dp3184
sg71
g3169
sg64
(lp3185
g57
(g58
g59
NtRp3186
(dp3187
g62
(dp3188
g70
I3
ssg71
g3182
sg64
(lp3189
g1641
asbasbasbag57
(g73
g59
NtRp3190
(dp3191
g62
(dp3192
sg71
g3018
sg64
(lp3193
g57
(g78
g59
NtRp3194
(dp3195
g62
(dp3196
g82
g83
ssg71
g3190
sg64
(lp3197
S'HTTP_USER_AGENT'
p3198
asbag57
(g78
g59
NtRp3199
(dp3200
g62
(dp3201
g89
g90
ssg71
g3190
sg64
(lp3202
S':'
asbag57
(g78
g59
NtRp3203
(dp3204
g62
(dp3205
sg71
g3190
sg64
(lp3206
g57
(g58
g59
NtRp3207
(dp3208
g62
(dp3209
g70
I3
ssg71
g3203
sg64
(lp3210
g1663
asbasbasbag57
(g73
g59
NtRp3211
(dp3212
g62
(dp3213
sg71
g3018
sg64
(lp3214
g57
(g78
g59
NtRp3215
(dp3216
g62
(dp3217
g82
g83
ssg71
g3211
sg64
(lp3218
S'HTTP_WEB2PY_COMPONENT_ELEMENT'
p3219
asbag57
(g78
g59
NtRp3220
(dp3221
g62
(dp3222
g89
g90
ssg71
g3211
sg64
(lp3223
S':'
asbag57
(g78
g59
NtRp3224
(dp3225
g62
(dp3226
sg71
g3211
sg64
(lp3227
g57
(g58
g59
NtRp3228
(dp3229
g62
(dp3230
g70
I3
ssg71
g3224
sg64
(lp3231
g281
asbasbasbag57
(g73
g59
NtRp3232
(dp3233
g62
(dp3234
sg71
g3018
sg64
(lp3235
g57
(g78
g59
NtRp3236
(dp3237
g62
(dp3238
g82
g83
ssg71
g3232
sg64
(lp3239
S'HTTP_WEB2PY_COMPONENT_LOCATION'
p3240
asbag57
(g78
g59
NtRp3241
(dp3242
g62
(dp3243
g89
g90
ssg71
g3232
sg64
(lp3244
S':'
asbag57
(g78
g59
NtRp3245
(dp3246
g62
(dp3247
sg71
g3232
sg64
(lp3248
g57
(g58
g59
NtRp3249
(dp3250
g62
(dp3251
g70
I3
ssg71
g3245
sg64
(lp3252
g1706
asbasbasbag57
(g73
g59
NtRp3253
(dp3254
g62
(dp3255
sg71
g3018
sg64
(lp3256
g57
(g78
g59
NtRp3257
(dp3258
g62
(dp3259
g82
g83
ssg71
g3253
sg64
(lp3260
S'HTTP_X_REQUESTED_WITH'
p3261
asbag57
(g78
g59
NtRp3262
(dp3263
g62
(dp3264
g89
g90
ssg71
g3253
sg64
(lp3265
S':'
asbag57
(g78
g59
NtRp3266
(dp3267
g62
(dp3268
sg71
g3253
sg64
(lp3269
g57
(g58
g59
NtRp3270
(dp3271
g62
(dp3272
g70
I3
ssg71
g3266
sg64
(lp3273
g1728
asbasbasbag57
(g73
g59
NtRp3274
(dp3275
g62
(dp3276
sg71
g3018
sg64
(lp3277
g57
(g78
g59
NtRp3278
(dp3279
g62
(dp3280
g82
g83
ssg71
g3274
sg64
(lp3281
S'PATH_INFO'
p3282
asbag57
(g78
g59
NtRp3283
(dp3284
g62
(dp3285
g89
g90
ssg71
g3274
sg64
(lp3286
S':'
asbag57
(g78
g59
NtRp3287
(dp3288
g62
(dp3289
sg71
g3274
sg64
(lp3290
g57
(g58
g59
NtRp3291
(dp3292
g62
(dp3293
g70
I3
ssg71
g3287
sg64
(lp3294
g1792
asbasbasbag57
(g73
g59
NtRp3295
(dp3296
g62
(dp3297
sg71
g3018
sg64
(lp3298
g57
(g78
g59
NtRp3299
(dp3300
g62
(dp3301
g82
g83
ssg71
g3295
sg64
(lp3302
S'QUERY_STRING'
p3303
asbag57
(g78
g59
NtRp3304
(dp3305
g62
(dp3306
g89
g90
ssg71
g3295
sg64
(lp3307
S':'
asbag57
(g78
g59
NtRp3308
(dp3309
g62
(dp3310
sg71
g3295
sg64
(lp3311
g57
(g58
g59
NtRp3312
(dp3313
g62
(dp3314
g70
I3
ssg71
g3308
sg64
(lp3315
S''
asbasbasbag57
(g73
g59
NtRp3316
(dp3317
g62
(dp3318
sg71
g3018
sg64
(lp3319
g57
(g78
g59
NtRp3320
(dp3321
g62
(dp3322
g82
g83
ssg71
g3316
sg64
(lp3323
S'REMOTE_ADDR'
p3324
asbag57
(g78
g59
NtRp3325
(dp3326
g62
(dp3327
g89
g90
ssg71
g3316
sg64
(lp3328
S':'
asbag57
(g78
g59
NtRp3329
(dp3330
g62
(dp3331
sg71
g3316
sg64
(lp3332
g57
(g58
g59
NtRp3333
(dp3334
g62
(dp3335
g70
I3
ssg71
g3329
sg64
(lp3336
g303
asbasbasbag57
(g73
g59
NtRp3337
(dp3338
g62
(dp3339
sg71
g3018
sg64
(lp3340
g57
(g78
g59
NtRp3341
(dp3342
g62
(dp3343
g82
g83
ssg71
g3337
sg64
(lp3344
S'REMOTE_PORT'
p3345
asbag57
(g78
g59
NtRp3346
(dp3347
g62
(dp3348
g89
g90
ssg71
g3337
sg64
(lp3349
S':'
asbag57
(g78
g59
NtRp3350
(dp3351
g62
(dp3352
sg71
g3337
sg64
(lp3353
g57
(g58
g59
NtRp3354
(dp3355
g62
(dp3356
g70
I3
ssg71
g3350
sg64
(lp3357
g1856
asbasbasbag57
(g73
g59
NtRp3358
(dp3359
g62
(dp3360
sg71
g3018
sg64
(lp3361
g57
(g78
g59
NtRp3362
(dp3363
g62
(dp3364
g82
g83
ssg71
g3358
sg64
(lp3365
S'REQUEST_METHOD'
p3366
asbag57
(g78
g59
NtRp3367
(dp3368
g62
(dp3369
g89
g90
ssg71
g3358
sg64
(lp3370
S':'
asbag57
(g78
g59
NtRp3371
(dp3372
g62
(dp3373
sg71
g3358
sg64
(lp3374
g57
(g58
g59
NtRp3375
(dp3376
g62
(dp3377
g70
I3
ssg71
g3371
sg64
(lp3378
g1878
asbasbasbag57
(g73
g59
NtRp3379
(dp3380
g62
(dp3381
sg71
g3018
sg64
(lp3382
g57
(g78
g59
NtRp3383
(dp3384
g62
(dp3385
g82
g83
ssg71
g3379
sg64
(lp3386
S'SCRIPT_NAME'
p3387
asbag57
(g78
g59
NtRp3388
(dp3389
g62
(dp3390
g89
g90
ssg71
g3379
sg64
(lp3391
S':'
asbag57
(g78
g59
NtRp3392
(dp3393
g62
(dp3394
sg71
g3379
sg64
(lp3395
g57
(g58
g59
NtRp3396
(dp3397
g62
(dp3398
g70
I3
ssg71
g3392
sg64
(lp3399
S''
asbasbasbag57
(g73
g59
NtRp3400
(dp3401
g62
(dp3402
sg71
g3018
sg64
(lp3403
g57
(g78
g59
NtRp3404
(dp3405
g62
(dp3406
g82
g83
ssg71
g3400
sg64
(lp3407
S'SERVER_NAME'
p3408
asbag57
(g78
g59
NtRp3409
(dp3410
g62
(dp3411
g89
g90
ssg71
g3400
sg64
(lp3412
S':'
asbag57
(g78
g59
NtRp3413
(dp3414
g62
(dp3415
sg71
g3400
sg64
(lp3416
g57
(g58
g59
NtRp3417
(dp3418
g62
(dp3419
g70
I3
ssg71
g3413
sg64
(lp3420
g1921
asbasbasbag57
(g73
g59
NtRp3421
(dp3422
g62
(dp3423
sg71
g3018
sg64
(lp3424
g57
(g78
g59
NtRp3425
(dp3426
g62
(dp3427
g82
g83
ssg71
g3421
sg64
(lp3428
S'SERVER_PORT'
p3429
asbag57
(g78
g59
NtRp3430
(dp3431
g62
(dp3432
g89
g90
ssg71
g3421
sg64
(lp3433
S':'
asbag57
(g78
g59
NtRp3434
(dp3435
g62
(dp3436
sg71
g3421
sg64
(lp3437
g57
(g58
g59
NtRp3438
(dp3439
g62
(dp3440
g70
I3
ssg71
g3434
sg64
(lp3441
g1943
asbasbasbag57
(g73
g59
NtRp3442
(dp3443
g62
(dp3444
sg71
g3018
sg64
(lp3445
g57
(g78
g59
NtRp3446
(dp3447
g62
(dp3448
g82
g83
ssg71
g3442
sg64
(lp3449
S'SERVER_PROTOCOL'
p3450
asbag57
(g78
g59
NtRp3451
(dp3452
g62
(dp3453
g89
g90
ssg71
g3442
sg64
(lp3454
S':'
asbag57
(g78
g59
NtRp3455
(dp3456
g62
(dp3457
sg71
g3442
sg64
(lp3458
g57
(g58
g59
NtRp3459
(dp3460
g62
(dp3461
g70
I3
ssg71
g3455
sg64
(lp3462
g1965
asbasbasbag57
(g73
g59
NtRp3463
(dp3464
g62
(dp3465
sg71
g3018
sg64
(lp3466
g57
(g78
g59
NtRp3467
(dp3468
g62
(dp3469
g82
g83
ssg71
g3463
sg64
(lp3470
S'SERVER_SOFTWARE'
p3471
asbag57
(g78
g59
NtRp3472
(dp3473
g62
(dp3474
g89
g90
ssg71
g3463
sg64
(lp3475
S':'
asbag57
(g78
g59
NtRp3476
(dp3477
g62
(dp3478
sg71
g3463
sg64
(lp3479
g57
(g58
g59
NtRp3480
(dp3481
g62
(dp3482
g70
I3
ssg71
g3476
sg64
(lp3483
g1987
asbasbasbag57
(g73
g59
NtRp3484
(dp3485
g62
(dp3486
sg71
g3018
sg64
(lp3487
g57
(g78
g59
NtRp3488
(dp3489
g62
(dp3490
g82
g83
ssg71
g3484
sg64
(lp3491
S'wsgi.errors'
p3492
asbag57
(g78
g59
NtRp3493
(dp3494
g62
(dp3495
g89
g90
ssg71
g3484
sg64
(lp3496
S':'
asbag57
(g78
g59
NtRp3497
(dp3498
g62
(dp3499
sg71
g3484
sg64
(lp3500
g57
(g58
g59
NtRp3501
(dp3502
g62
(dp3503
g70
I3
ssg71
g3497
sg64
(lp3504
S"<open file '<stderr>', mode 'w' at 0x7f82e3665270>"
p3505
asbasbasbag57
(g73
g59
NtRp3506
(dp3507
g62
(dp3508
sg71
g3018
sg64
(lp3509
g57
(g78
g59
NtRp3510
(dp3511
g62
(dp3512
g82
g83
ssg71
g3506
sg64
(lp3513
S'wsgi.file_wrapper'
p3514
asbag57
(g78
g59
NtRp3515
(dp3516
g62
(dp3517
g89
g90
ssg71
g3506
sg64
(lp3518
S':'
asbag57
(g78
g59
NtRp3519
(dp3520
g62
(dp3521
sg71
g3506
sg64
(lp3522
g57
(g58
g59
NtRp3523
(dp3524
g62
(dp3525
g70
I3
ssg71
g3519
sg64
(lp3526
S'<class wsgiref.util.FileWrapper at 0x27acc80>'
p3527
asbasbasbag57
(g73
g59
NtRp3528
(dp3529
g62
(dp3530
sg71
g3018
sg64
(lp3531
g57
(g78
g59
NtRp3532
(dp3533
g62
(dp3534
g82
g83
ssg71
g3528
sg64
(lp3535
S'wsgi.input'
p3536
asbag57
(g78
g59
NtRp3537
(dp3538
g62
(dp3539
g89
g90
ssg71
g3528
sg64
(lp3540
S':'
asbag57
(g78
g59
NtRp3541
(dp3542
g62
(dp3543
sg71
g3528
sg64
(lp3544
g57
(g58
g59
NtRp3545
(dp3546
g62
(dp3547
g70
I3
ssg71
g3541
sg64
(lp3548
S'<cStringIO.StringO object at 0x451eed8>'
p3549
asbasbasbag57
(g73
g59
NtRp3550
(dp3551
g62
(dp3552
sg71
g3018
sg64
(lp3553
g57
(g78
g59
NtRp3554
(dp3555
g62
(dp3556
g82
g83
ssg71
g3550
sg64
(lp3557
S'wsgi.multiprocess'
p3558
asbag57
(g78
g59
NtRp3559
(dp3560
g62
(dp3561
g89
g90
ssg71
g3550
sg64
(lp3562
S':'
asbag57
(g78
g59
NtRp3563
(dp3564
g62
(dp3565
sg71
g3550
sg64
(lp3566
g57
(g58
g59
NtRp3567
(dp3568
g62
(dp3569
g70
I3
ssg71
g3563
sg64
(lp3570
g1443
asbasbasbag57
(g73
g59
NtRp3571
(dp3572
g62
(dp3573
sg71
g3018
sg64
(lp3574
g57
(g78
g59
NtRp3575
(dp3576
g62
(dp3577
g82
g83
ssg71
g3571
sg64
(lp3578
S'wsgi.multithread'
p3579
asbag57
(g78
g59
NtRp3580
(dp3581
g62
(dp3582
g89
g90
ssg71
g3571
sg64
(lp3583
S':'
asbag57
(g78
g59
NtRp3584
(dp3585
g62
(dp3586
sg71
g3571
sg64
(lp3587
g57
(g58
g59
NtRp3588
(dp3589
g62
(dp3590
g70
I3
ssg71
g3584
sg64
(lp3591
g100
asbasbasbag57
(g73
g59
NtRp3592
(dp3593
g62
(dp3594
sg71
g3018
sg64
(lp3595
g57
(g78
g59
NtRp3596
(dp3597
g62
(dp3598
g82
g83
ssg71
g3592
sg64
(lp3599
S'wsgi.run_once'
p3600
asbag57
(g78
g59
NtRp3601
(dp3602
g62
(dp3603
g89
g90
ssg71
g3592
sg64
(lp3604
S':'
asbag57
(g78
g59
NtRp3605
(dp3606
g62
(dp3607
sg71
g3592
sg64
(lp3608
g57
(g58
g59
NtRp3609
(dp3610
g62
(dp3611
g70
I3
ssg71
g3605
sg64
(lp3612
g1443
asbasbasbag57
(g73
g59
NtRp3613
(dp3614
g62
(dp3615
sg71
g3018
sg64
(lp3616
g57
(g78
g59
NtRp3617
(dp3618
g62
(dp3619
g82
g83
ssg71
g3613
sg64
(lp3620
S'wsgi.url_scheme'
p3621
asbag57
(g78
g59
NtRp3622
(dp3623
g62
(dp3624
g89
g90
ssg71
g3613
sg64
(lp3625
S':'
asbag57
(g78
g59
NtRp3626
(dp3627
g62
(dp3628
sg71
g3613
sg64
(lp3629
g57
(g58
g59
NtRp3630
(dp3631
g62
(dp3632
g70
I3
ssg71
g3626
sg64
(lp3633
g2269
asbasbasbag57
(g73
g59
NtRp3634
(dp3635
g62
(dp3636
sg71
g3018
sg64
(lp3637
g57
(g78
g59
NtRp3638
(dp3639
g62
(dp3640
g82
g83
ssg71
g3634
sg64
(lp3641
S'wsgi.version'
p3642
asbag57
(g78
g59
NtRp3643
(dp3644
g62
(dp3645
g89
g90
ssg71
g3634
sg64
(lp3646
S':'
asbag57
(g78
g59
NtRp3647
(dp3648
g62
(dp3649
sg71
g3634
sg64
(lp3650
g57
(g58
g59
NtRp3651
(dp3652
g62
(dp3653
g70
I3
ssg71
g3647
sg64
(lp3654
S'1'
asbasbasbasbasbasbasbasbasbasbasbasbasbsS'frames'
p3655
(lp3656
(dp3657
S'file'
p3658
S'/home/ian/web2py/gluon/restricted.py'
p3659
sS'dump'
p3660
(dp3661
S'environment'
p3662
S"{'A': <class 'gluon.html.A'>, 'AjaxSelect': <class applications.topoi.modules.plugin_ajaxselect.AjaxSelect>, 'Auth': <class 'gluon.tools.Auth'>, 'B': <class 'gluon.html.B'>, 'BEAUTIFY': <class 'gluon.html.BEAUTIFY'>, 'BODY': <class 'gluon.html.BODY'>, 'BR': <class 'gluon.html.BR'>, 'BUTTON': <class 'gluon.html.BUTTON'>, 'CAT': <class 'gluon.html.CAT'>, 'CENTER': <class 'gluon.html.CENTER'>, ...}"
p3663
sS'ccode'
p3664
S'<code object <module> at 0x46c7eb0, file "/home/.../topoi/controllers/plugin_ajaxselect.py", line 1>'
p3665
ssS'lnum'
p3666
I204
sS'lines'
p3667
(dp3668
I199
S'    try:'
p3669
sI200
S'        if type(code) == types.CodeType:'
p3670
sI201
S'            ccode = code'
p3671
sI202
S'        else:'
p3672
sI203
S'            ccode = compile2(code,layer)'
p3673
sI204
S'        exec ccode in environment'
p3674
sI205
S'    except HTTP:'
p3675
sI206
S'        raise'
p3676
sI207
S'    except RestrictedError:'
p3677
sI208
S'        # do not encapsulate (obfuscate) the original RestrictedError'
p3678
ssS'call'
p3679
S"(code='if 0:\\n    from gluon import current, SELECT, OPT...rm)\\n\\nresponse._vars=response._caller(set_widget)\\n', environment={'A': <class 'gluon.html.A'>, 'AjaxSelect': <class applications.topoi.modules.plugin_ajaxselect.AjaxSelect>, 'Auth': <class 'gluon.tools.Auth'>, 'B': <class 'gluon.html.B'>, 'BEAUTIFY': <class 'gluon.html.BEAUTIFY'>, 'BODY': <class 'gluon.html.BODY'>, 'BR': <class 'gluon.html.BR'>, 'BUTTON': <class 'gluon.html.BUTTON'>, 'CAT': <class 'gluon.html.CAT'>, 'CENTER': <class 'gluon.html.CENTER'>, ...}, layer='/home/ian/web2py/applications/topoi/controllers/plugin_ajaxselect.py')"
p3680
sS'func'
p3681
S'restricted'
p3682
sa(dp3683
g3658
S'/home/ian/web2py/applications/topoi/controllers/plugin_ajaxselect.py'
p3684
sg3660
(dp3685
sg3666
I86
sg3667
(dp3686
I75
S''
sI76
S"    comp_url = URL('plugin_ajaxselect', 'set_widget.load', args=[tablename, fieldname, value, linktable, wrappername])"
p3687
sI77
S''
sI78
S'    if form.process().accepted:'
p3688
sI79
S"        response.flash = 'form accepted'"
p3689
sI80
S'        response.js = "web2py_component(\'%s\', \'%s\');" % (comp_url, wrappername)'
p3690
sI81
S'    else:'
p3691
sI82
S"        response.error = 'form was not processed'"
p3692
sI83
S''
sI84
S'    return dict(form = form)'
p3693
ssg3679
S'()'
p3694
sg3681
S'<module>'
p3695
sa(dp3696
g3658
S'/home/ian/web2py/gluon/globals.py'
p3697
sg3660
(dp3698
S'self'
p3699
S'undefined'
p3700
sS'f'
S'<function set_widget>'
p3701
ssg3666
I172
sg3667
(dp3702
I167
S'        self.meta = Storage()      # used by web2py_ajax.html'
p3703
sI168
S'        self.menu = []             # used by the default view layout'
p3704
sI169
S'        self.files = []            # used by web2py_ajax.html'
p3705
sI170
S'        self.generic_patterns = [] # patterns to allow generic views'
p3706
sI171
S'        self._vars = None'
p3707
sI172
S'        self._caller = lambda f: f()'
p3708
sI173
S'        self._view_environment = None'
p3709
sI174
S'        self._custom_commit = None'
p3710
sI175
S'        self._custom_rollback = None'
p3711
sI176
S''
ssg3679
S'(f=<function set_widget>)'
p3712
sg3681
S'<lambda>'
p3713
sa(dp3714
g3658
S'/home/ian/web2py/applications/topoi/controllers/plugin_ajaxselect.py'
p3715
sg3660
(dp3716
S'_class'
p3717
g3700
sS'e'
S"<Row {'author': 11, 'update_record': <function <...elete_record': <function <lambda> at 0x48811b8>}>"
p3718
sS'rep'
p3719
S"'title'"
p3720
sS'n'
S"'notes_work'"
p3721
sS'_value'
p3722
g3700
sS'global OPTION'
p3723
S"<class 'gluon.html.OPTION'>"
p3724
sS'global SELECT'
p3725
S"<class 'gluon.html.SELECT'>"
p3726
sS'rows'
p3727
S'<gluon.dal.Rows object>'
p3728
sS'w'
g3700
sS'_id'
p3729
g3700
sS'e.id'
p3730
S'9'
ssg3666
I40
sg3667
(dp3731
I35
S'        #get the field name to represent values in the new select widget'
p3732
sI36
S'        rep = the_linktable.fields[1]'
p3733
sI37
S'        #build the name for the refreshed select widget'
p3734
sI38
S"        n = table + '_' + field"
p3735
sI39
S'        #create the widget with filtered options'
p3736
sI40
S"        w = SELECT(_id=n, _class='generic-widget' *[OPTION(e[rep], _value=e.id) for e in rows])"
p3737
sI41
S'    else:'
p3738
sI42
S'        #refresh using ordinary widget if no filter constraints'
p3739
sI43
S'        w = OptionsWidget.widget(the_field, value)'
p3740
sI44
S''
ssg3679
S'()'
p3741
sg3681
S'set_widget'
p3742
sasS'pyver'
p3743
S'Python 2.7.2+: /usr/bin/python2.7'
p3744
sS'session'
p3745
g57
(g58
g59
NtRp3746
(dp3747
g62
(dp3748
sg64
(lp3749
g57
(g66
g59
NtRp3750
(dp3751
g62
(dp3752
g70
I5
ssg71
Nsg64
(lp3753
g57
(g73
g59
NtRp3754
(dp3755
g62
(dp3756
sg71
g3750
sg64
(lp3757
g57
(g78
g59
NtRp3758
(dp3759
g62
(dp3760
g82
g83
ssg71
g3754
sg64
(lp3761
S'auth'
p3762
asbag57
(g78
g59
NtRp3763
(dp3764
g62
(dp3765
g89
g90
ssg71
g3754
sg64
(lp3766
S':'
asbag57
(g78
g59
NtRp3767
(dp3768
g62
(dp3769
sg71
g3754
sg64
(lp3770
g57
(g58
g59
NtRp3771
(dp3772
g62
(dp3773
g70
I5
ssg71
g3767
sg64
(lp3774
g57
(g66
g59
NtRp3775
(dp3776
g62
(dp3777
g70
I4
ssg71
Nsg64
(lp3778
g57
(g73
g59
NtRp3779
(dp3780
g62
(dp3781
sg71
g3775
sg64
(lp3782
g57
(g78
g59
NtRp3783
(dp3784
g62
(dp3785
g82
g83
ssg71
g3779
sg64
(lp3786
S'expiration'
p3787
asbag57
(g78
g59
NtRp3788
(dp3789
g62
(dp3790
g89
g90
ssg71
g3779
sg64
(lp3791
S':'
asbag57
(g78
g59
NtRp3792
(dp3793
g62
(dp3794
sg71
g3779
sg64
(lp3795
g57
(g58
g59
NtRp3796
(dp3797
g62
(dp3798
g70
I4
ssg71
g3792
sg64
(lp3799
S'2592000'
p3800
asbasbasbag57
(g73
g59
NtRp3801
(dp3802
g62
(dp3803
sg71
g3775
sg64
(lp3804
g57
(g78
g59
NtRp3805
(dp3806
g62
(dp3807
g82
g83
ssg71
g3801
sg64
(lp3808
S'hmac_key'
p3809
asbag57
(g78
g59
NtRp3810
(dp3811
g62
(dp3812
g89
g90
ssg71
g3801
sg64
(lp3813
S':'
asbag57
(g78
g59
NtRp3814
(dp3815
g62
(dp3816
sg71
g3801
sg64
(lp3817
g57
(g58
g59
NtRp3818
(dp3819
g62
(dp3820
g70
I4
ssg71
g3814
sg64
(lp3821
S'fafb80cc-442d-44e4-9f25-86354ae01fce'
p3822
asbasbasbag57
(g73
g59
NtRp3823
(dp3824
g62
(dp3825
sg71
g3775
sg64
(lp3826
g57
(g78
g59
NtRp3827
(dp3828
g62
(dp3829
g82
g83
ssg71
g3823
sg64
(lp3830
S'last_visit'
p3831
asbag57
(g78
g59
NtRp3832
(dp3833
g62
(dp3834
g89
g90
ssg71
g3823
sg64
(lp3835
S':'
asbag57
(g78
g59
NtRp3836
(dp3837
g62
(dp3838
sg71
g3823
sg64
(lp3839
g57
(g58
g59
NtRp3840
(dp3841
g62
(dp3842
g70
I4
ssg71
g3836
sg64
(lp3843
S'datetime.datetime(2012, 1, 21, 16, 35, 10, 96556)'
p3844
asbasbasbag57
(g73
g59
NtRp3845
(dp3846
g62
(dp3847
sg71
g3775
sg64
(lp3848
g57
(g78
g59
NtRp3849
(dp3850
g62
(dp3851
g82
g83
ssg71
g3845
sg64
(lp3852
S'remember'
p3853
asbag57
(g78
g59
NtRp3854
(dp3855
g62
(dp3856
g89
g90
ssg71
g3845
sg64
(lp3857
S':'
asbag57
(g78
g59
NtRp3858
(dp3859
g62
(dp3860
sg71
g3845
sg64
(lp3861
g57
(g58
g59
NtRp3862
(dp3863
g62
(dp3864
g70
I4
ssg71
g3858
sg64
(lp3865
g100
asbasbasbag57
(g73
g59
NtRp3866
(dp3867
g62
(dp3868
sg71
g3775
sg64
(lp3869
g57
(g78
g59
NtRp3870
(dp3871
g62
(dp3872
g82
g83
ssg71
g3866
sg64
(lp3873
S'user'
p3874
asbag57
(g78
g59
NtRp3875
(dp3876
g62
(dp3877
g89
g90
ssg71
g3866
sg64
(lp3878
S':'
asbag57
(g78
g59
NtRp3879
(dp3880
g62
(dp3881
sg71
g3866
sg64
(lp3882
g57
(g58
g59
NtRp3883
(dp3884
g62
(dp3885
g70
I4
ssg71
g3879
sg64
(lp3886
g57
(g66
g59
NtRp3887
(dp3888
g62
(dp3889
g70
I3
ssg71
Nsg64
(lp3890
g57
(g73
g59
NtRp3891
(dp3892
g62
(dp3893
sg71
g3887
sg64
(lp3894
g57
(g78
g59
NtRp3895
(dp3896
g62
(dp3897
g82
g83
ssg71
g3891
sg64
(lp3898
S'email'
p3899
asbag57
(g78
g59
NtRp3900
(dp3901
g62
(dp3902
g89
g90
ssg71
g3891
sg64
(lp3903
S':'
asbag57
(g78
g59
NtRp3904
(dp3905
g62
(dp3906
sg71
g3891
sg64
(lp3907
g57
(g58
g59
NtRp3908
(dp3909
g62
(dp3910
g70
I3
ssg71
g3904
sg64
(lp3911
S'scottianw@gmail.com'
p3912
asbasbasbag57
(g73
g59
NtRp3913
(dp3914
g62
(dp3915
sg71
g3887
sg64
(lp3916
g57
(g78
g59
NtRp3917
(dp3918
g62
(dp3919
g82
g83
ssg71
g3913
sg64
(lp3920
S'first_name'
p3921
asbag57
(g78
g59
NtRp3922
(dp3923
g62
(dp3924
g89
g90
ssg71
g3913
sg64
(lp3925
S':'
asbag57
(g78
g59
NtRp3926
(dp3927
g62
(dp3928
sg71
g3913
sg64
(lp3929
g57
(g58
g59
NtRp3930
(dp3931
g62
(dp3932
g70
I3
ssg71
g3926
sg64
(lp3933
S'Ian'
p3934
asbasbasbag57
(g73
g59
NtRp3935
(dp3936
g62
(dp3937
sg71
g3887
sg64
(lp3938
g57
(g78
g59
NtRp3939
(dp3940
g62
(dp3941
g82
g83
ssg71
g3935
sg64
(lp3942
S'id'
p3943
asbag57
(g78
g59
NtRp3944
(dp3945
g62
(dp3946
g89
g90
ssg71
g3935
sg64
(lp3947
S':'
asbag57
(g78
g59
NtRp3948
(dp3949
g62
(dp3950
sg71
g3935
sg64
(lp3951
g57
(g58
g59
NtRp3952
(dp3953
g62
(dp3954
g70
I3
ssg71
g3948
sg64
(lp3955
S'1'
asbasbasbag57
(g73
g59
NtRp3956
(dp3957
g62
(dp3958
sg71
g3887
sg64
(lp3959
g57
(g78
g59
NtRp3960
(dp3961
g62
(dp3962
g82
g83
ssg71
g3956
sg64
(lp3963
S'last_name'
p3964
asbag57
(g78
g59
NtRp3965
(dp3966
g62
(dp3967
g89
g90
ssg71
g3956
sg64
(lp3968
S':'
asbag57
(g78
g59
NtRp3969
(dp3970
g62
(dp3971
sg71
g3956
sg64
(lp3972
g57
(g58
g59
NtRp3973
(dp3974
g62
(dp3975
g70
I3
ssg71
g3969
sg64
(lp3976
S'Scott'
p3977
asbasbasbag57
(g73
g59
NtRp3978
(dp3979
g62
(dp3980
sg71
g3887
sg64
(lp3981
g57
(g78
g59
NtRp3982
(dp3983
g62
(dp3984
g82
g83
ssg71
g3978
sg64
(lp3985
S'password'
p3986
asbag57
(g78
g59
NtRp3987
(dp3988
g62
(dp3989
g89
g90
ssg71
g3978
sg64
(lp3990
S':'
asbag57
(g78
g59
NtRp3991
(dp3992
g62
(dp3993
sg71
g3978
sg64
(lp3994
g57
(g58
g59
NtRp3995
(dp3996
g62
(dp3997
g70
I3
ssg71
g3991
sg64
(lp3998
S'6fb48d01a3959846ba0fe062b1789f17d9cf3d34d3ec5aa948f598bbf4387cb10eb60c797988f41dfea97ee691b338dd77413d430229e401cf7c84e6cd9c4458'
p3999
asbasbasbag57
(g73
g59
NtRp4000
(dp4001
g62
(dp4002
sg71
g3887
sg64
(lp4003
g57
(g78
g59
NtRp4004
(dp4005
g62
(dp4006
g82
g83
ssg71
g4000
sg64
(lp4007
S'registration_id'
p4008
asbag57
(g78
g59
NtRp4009
(dp4010
g62
(dp4011
g89
g90
ssg71
g4000
sg64
(lp4012
S':'
asbag57
(g78
g59
NtRp4013
(dp4014
g62
(dp4015
sg71
g4000
sg64
(lp4016
g57
(g58
g59
NtRp4017
(dp4018
g62
(dp4019
g70
I3
ssg71
g4013
sg64
(lp4020
S'None'
p4021
asbasbasbag57
(g73
g59
NtRp4022
(dp4023
g62
(dp4024
sg71
g3887
sg64
(lp4025
g57
(g78
g59
NtRp4026
(dp4027
g62
(dp4028
g82
g83
ssg71
g4022
sg64
(lp4029
S'registration_key'
p4030
asbag57
(g78
g59
NtRp4031
(dp4032
g62
(dp4033
g89
g90
ssg71
g4022
sg64
(lp4034
S':'
asbag57
(g78
g59
NtRp4035
(dp4036
g62
(dp4037
sg71
g4022
sg64
(lp4038
g57
(g58
g59
NtRp4039
(dp4040
g62
(dp4041
g70
I3
ssg71
g4035
sg64
(lp4042
S''
asbasbasbag57
(g73
g59
NtRp4043
(dp4044
g62
(dp4045
sg71
g3887
sg64
(lp4046
g57
(g78
g59
NtRp4047
(dp4048
g62
(dp4049
g82
g83
ssg71
g4043
sg64
(lp4050
S'reset_password_key'
p4051
asbag57
(g78
g59
NtRp4052
(dp4053
g62
(dp4054
g89
g90
ssg71
g4043
sg64
(lp4055
S':'
asbag57
(g78
g59
NtRp4056
(dp4057
g62
(dp4058
sg71
g4043
sg64
(lp4059
g57
(g58
g59
NtRp4060
(dp4061
g62
(dp4062
g70
I3
ssg71
g4056
sg64
(lp4063
S''
asbasbasbasbasbasbasbasbasbasbasbasbasbsS'etype'
p4064
S"<type 'exceptions.TypeError'>"
p4065
sS'date'
p4066
S'Sat Jan 21 18:36:12 2012'
p4067
sS'response'
p4068
g57
(g58
g59
NtRp4069
(dp4070
g62
(dp4071
sg64
(lp4072
g57
(g66
g59
NtRp4073
(dp4074
g62
(dp4075
g70
I5
ssg71
Nsg64
(lp4076
g57
(g73
g59
NtRp4077
(dp4078
g62
(dp4079
sg71
g4073
sg64
(lp4080
g57
(g78
g59
NtRp4081
(dp4082
g62
(dp4083
g82
g83
ssg71
g4077
sg64
(lp4084
g246
asbag57
(g78
g59
NtRp4085
(dp4086
g62
(dp4087
g89
g90
ssg71
g4077
sg64
(lp4088
S':'
asbag57
(g78
g59
NtRp4089
(dp4090
g62
(dp4091
sg71
g4077
sg64
(lp4092
g57
(g58
g59
NtRp4093
(dp4094
g62
(dp4095
g70
I5
ssg71
g4089
sg64
(lp4096
S'<cStringIO.StringO object at 0x451e458>'
p4097
asbasbasbag57
(g73
g59
NtRp4098
(dp4099
g62
(dp4100
sg71
g4073
sg64
(lp4101
g57
(g78
g59
NtRp4102
(dp4103
g62
(dp4104
g82
g83
ssg71
g4098
sg64
(lp4105
g334
asbag57
(g78
g59
NtRp4106
(dp4107
g62
(dp4108
g89
g90
ssg71
g4098
sg64
(lp4109
S':'
asbag57
(g78
g59
NtRp4110
(dp4111
g62
(dp4112
sg71
g4098
sg64
(lp4113
g57
(g58
g59
NtRp4114
(dp4115
g62
(dp4116
g70
I5
ssg71
g4110
sg64
(lp4117
g57
(g66
g59
NtRp4118
(dp4119
g62
(dp4120
g70
I4
ssg71
Nsg64
(lp4121
g57
(g73
g59
NtRp4122
(dp4123
g62
(dp4124
sg71
g4118
sg64
(lp4125
g57
(g78
g59
NtRp4126
(dp4127
g62
(dp4128
g82
g83
ssg71
g4122
sg64
(lp4129
S'session_id_topoi'
p4130
asbag57
(g78
g59
NtRp4131
(dp4132
g62
(dp4133
g89
g90
ssg71
g4122
sg64
(lp4134
S':'
asbag57
(g78
g59
NtRp4135
(dp4136
g62
(dp4137
sg71
g4122
sg64
(lp4138
g57
(g58
g59
NtRp4139
(dp4140
g62
(dp4141
g70
I4
ssg71
g4135
sg64
(lp4142
g57
(g66
g59
NtRp4143
(dp4144
g62
(dp4145
g70
I3
ssg71
Nsg64
(lp4146
g57
(g73
g59
NtRp4147
(dp4148
g62
(dp4149
sg71
g4143
sg64
(lp4150
g57
(g78
g59
NtRp4151
(dp4152
g62
(dp4153
g82
g83
ssg71
g4147
sg64
(lp4154
g384
asbag57
(g78
g59
NtRp4155
(dp4156
g62
(dp4157
g89
g90
ssg71
g4147
sg64
(lp4158
S':'
asbag57
(g78
g59
NtRp4159
(dp4160
g62
(dp4161
sg71
g4147
sg64
(lp4162
g57
(g58
g59
NtRp4163
(dp4164
g62
(dp4165
g70
I3
ssg71
g4159
sg64
(lp4166
S''
asbasbasbag57
(g73
g59
NtRp4167
(dp4168
g62
(dp4169
sg71
g4143
sg64
(lp4170
g57
(g78
g59
NtRp4171
(dp4172
g62
(dp4173
g82
g83
ssg71
g4167
sg64
(lp4174
g405
asbag57
(g78
g59
NtRp4175
(dp4176
g62
(dp4177
g89
g90
ssg71
g4167
sg64
(lp4178
S':'
asbag57
(g78
g59
NtRp4179
(dp4180
g62
(dp4181
sg71
g4167
sg64
(lp4182
g57
(g58
g59
NtRp4183
(dp4184
g62
(dp4185
g70
I3
ssg71
g4179
sg64
(lp4186
S''
asbasbasbag57
(g73
g59
NtRp4187
(dp4188
g62
(dp4189
sg71
g4143
sg64
(lp4190
g57
(g78
g59
NtRp4191
(dp4192
g62
(dp4193
g82
g83
ssg71
g4187
sg64
(lp4194
g426
asbag57
(g78
g59
NtRp4195
(dp4196
g62
(dp4197
g89
g90
ssg71
g4187
sg64
(lp4198
S':'
asbag57
(g78
g59
NtRp4199
(dp4200
g62
(dp4201
sg71
g4187
sg64
(lp4202
g57
(g58
g59
NtRp4203
(dp4204
g62
(dp4205
g70
I3
ssg71
g4199
sg64
(lp4206
S'2592000'
p4207
asbasbasbag57
(g73
g59
NtRp4208
(dp4209
g62
(dp4210
sg71
g4143
sg64
(lp4211
g57
(g78
g59
NtRp4212
(dp4213
g62
(dp4214
g82
g83
ssg71
g4208
sg64
(lp4215
g447
asbag57
(g78
g59
NtRp4216
(dp4217
g62
(dp4218
g89
g90
ssg71
g4208
sg64
(lp4219
S':'
asbag57
(g78
g59
NtRp4220
(dp4221
g62
(dp4222
sg71
g4208
sg64
(lp4223
g57
(g58
g59
NtRp4224
(dp4225
g62
(dp4226
g70
I3
ssg71
g4220
sg64
(lp4227
S''
asbasbasbag57
(g73
g59
NtRp4228
(dp4229
g62
(dp4230
sg71
g4143
sg64
(lp4231
g57
(g78
g59
NtRp4232
(dp4233
g62
(dp4234
g82
g83
ssg71
g4228
sg64
(lp4235
g468
asbag57
(g78
g59
NtRp4236
(dp4237
g62
(dp4238
g89
g90
ssg71
g4228
sg64
(lp4239
S':'
asbag57
(g78
g59
NtRp4240
(dp4241
g62
(dp4242
sg71
g4228
sg64
(lp4243
g57
(g58
g59
NtRp4244
(dp4245
g62
(dp4246
g70
I3
ssg71
g4240
sg64
(lp4247
S''
asbasbasbag57
(g73
g59
NtRp4248
(dp4249
g62
(dp4250
sg71
g4143
sg64
(lp4251
g57
(g78
g59
NtRp4252
(dp4253
g62
(dp4254
g82
g83
ssg71
g4248
sg64
(lp4255
g489
asbag57
(g78
g59
NtRp4256
(dp4257
g62
(dp4258
g89
g90
ssg71
g4248
sg64
(lp4259
S':'
asbag57
(g78
g59
NtRp4260
(dp4261
g62
(dp4262
sg71
g4248
sg64
(lp4263
g57
(g58
g59
NtRp4264
(dp4265
g62
(dp4266
g70
I3
ssg71
g4260
sg64
(lp4267
S'/'
asbasbasbag57
(g73
g59
NtRp4268
(dp4269
g62
(dp4270
sg71
g4143
sg64
(lp4271
g57
(g78
g59
NtRp4272
(dp4273
g62
(dp4274
g82
g83
ssg71
g4268
sg64
(lp4275
g510
asbag57
(g78
g59
NtRp4276
(dp4277
g62
(dp4278
g89
g90
ssg71
g4268
sg64
(lp4279
S':'
asbag57
(g78
g59
NtRp4280
(dp4281
g62
(dp4282
sg71
g4268
sg64
(lp4283
g57
(g58
g59
NtRp4284
(dp4285
g62
(dp4286
g70
I3
ssg71
g4280
sg64
(lp4287
S''
asbasbasbag57
(g73
g59
NtRp4288
(dp4289
g62
(dp4290
sg71
g4143
sg64
(lp4291
g57
(g78
g59
NtRp4292
(dp4293
g62
(dp4294
g82
g83
ssg71
g4288
sg64
(lp4295
g531
asbag57
(g78
g59
NtRp4296
(dp4297
g62
(dp4298
g89
g90
ssg71
g4288
sg64
(lp4299
S':'
asbag57
(g78
g59
NtRp4300
(dp4301
g62
(dp4302
sg71
g4288
sg64
(lp4303
g57
(g58
g59
NtRp4304
(dp4305
g62
(dp4306
g70
I3
ssg71
g4300
sg64
(lp4307
S''
asbasbasbasbasbasbasbasbasbasbasbag57
(g73
g59
NtRp4308
(dp4309
g62
(dp4310
sg71
g4073
sg64
(lp4311
g57
(g78
g59
NtRp4312
(dp4313
g62
(dp4314
g82
g83
ssg71
g4308
sg64
(lp4315
S'files'
p4316
asbag57
(g78
g59
NtRp4317
(dp4318
g62
(dp4319
g89
g90
ssg71
g4308
sg64
(lp4320
S':'
asbag57
(g78
g59
NtRp4321
(dp4322
g62
(dp4323
sg71
g4308
sg64
(lp4324
g57
(g58
g59
NtRp4325
(dp4326
g62
(dp4327
g70
I5
ssg71
g4321
sg64
(lp4328
g57
(g66
g59
NtRp4329
(dp4330
g62
(dp4331
g70
I4
ssg71
Nsg64
(lp4332
sbasbasbasbag57
(g73
g59
NtRp4333
(dp4334
g62
(dp4335
sg71
g4073
sg64
(lp4336
g57
(g78
g59
NtRp4337
(dp4338
g62
(dp4339
g82
g83
ssg71
g4333
sg64
(lp4340
S'flash'
p4341
asbag57
(g78
g59
NtRp4342
(dp4343
g62
(dp4344
g89
g90
ssg71
g4333
sg64
(lp4345
S':'
asbag57
(g78
g59
NtRp4346
(dp4347
g62
(dp4348
sg71
g4333
sg64
(lp4349
g57
(g58
g59
NtRp4350
(dp4351
g62
(dp4352
g70
I5
ssg71
g4346
sg64
(lp4353
S''
asbasbasbag57
(g73
g59
NtRp4354
(dp4355
g62
(dp4356
sg71
g4073
sg64
(lp4357
g57
(g78
g59
NtRp4358
(dp4359
g62
(dp4360
g82
g83
ssg71
g4354
sg64
(lp4361
S'generic_patterns'
p4362
asbag57
(g78
g59
NtRp4363
(dp4364
g62
(dp4365
g89
g90
ssg71
g4354
sg64
(lp4366
S':'
asbag57
(g78
g59
NtRp4367
(dp4368
g62
(dp4369
sg71
g4354
sg64
(lp4370
g57
(g58
g59
NtRp4371
(dp4372
g62
(dp4373
g70
I5
ssg71
g4367
sg64
(lp4374
g57
(g66
g59
NtRp4375
(dp4376
g62
(dp4377
g70
I4
ssg71
Nsg64
(lp4378
g57
(g73
g59
NtRp4379
(dp4380
g62
(dp4381
sg71
g4375
sg64
(lp4382
g57
(g78
g59
NtRp4383
(dp4384
g62
(dp4385
sg71
g4379
sg64
(lp4386
g57
(g58
g59
NtRp4387
(dp4388
g62
(dp4389
g70
I4
ssg71
g4383
sg64
(lp4390
S'*'
asbasbasbasbasbasbasbag57
(g73
g59
NtRp4391
(dp4392
g62
(dp4393
sg71
g4073
sg64
(lp4394
g57
(g78
g59
NtRp4395
(dp4396
g62
(dp4397
g82
g83
ssg71
g4391
sg64
(lp4398
S'headers'
p4399
asbag57
(g78
g59
NtRp4400
(dp4401
g62
(dp4402
g89
g90
ssg71
g4391
sg64
(lp4403
S':'
asbag57
(g78
g59
NtRp4404
(dp4405
g62
(dp4406
sg71
g4391
sg64
(lp4407
g57
(g58
g59
NtRp4408
(dp4409
g62
(dp4410
g70
I5
ssg71
g4404
sg64
(lp4411
g57
(g66
g59
NtRp4412
(dp4413
g62
(dp4414
g70
I4
ssg71
Nsg64
(lp4415
g57
(g73
g59
NtRp4416
(dp4417
g62
(dp4418
sg71
g4412
sg64
(lp4419
g57
(g78
g59
NtRp4420
(dp4421
g62
(dp4422
g82
g83
ssg71
g4416
sg64
(lp4423
S'Cache-Control'
p4424
asbag57
(g78
g59
NtRp4425
(dp4426
g62
(dp4427
g89
g90
ssg71
g4416
sg64
(lp4428
S':'
asbag57
(g78
g59
NtRp4429
(dp4430
g62
(dp4431
sg71
g4416
sg64
(lp4432
g57
(g58
g59
NtRp4433
(dp4434
g62
(dp4435
g70
I4
ssg71
g4429
sg64
(lp4436
S'no-store, no-cache, must-revalidate, post-check=0, pre-check=0'
p4437
asbasbasbag57
(g73
g59
NtRp4438
(dp4439
g62
(dp4440
sg71
g4412
sg64
(lp4441
g57
(g78
g59
NtRp4442
(dp4443
g62
(dp4444
g82
g83
ssg71
g4438
sg64
(lp4445
S'Content-Type'
p4446
asbag57
(g78
g59
NtRp4447
(dp4448
g62
(dp4449
g89
g90
ssg71
g4438
sg64
(lp4450
S':'
asbag57
(g78
g59
NtRp4451
(dp4452
g62
(dp4453
sg71
g4438
sg64
(lp4454
g57
(g58
g59
NtRp4455
(dp4456
g62
(dp4457
g70
I4
ssg71
g4451
sg64
(lp4458
S'text/html; charset=utf-8'
p4459
asbasbasbag57
(g73
g59
NtRp4460
(dp4461
g62
(dp4462
sg71
g4412
sg64
(lp4463
g57
(g78
g59
NtRp4464
(dp4465
g62
(dp4466
g82
g83
ssg71
g4460
sg64
(lp4467
S'Expires'
p4468
asbag57
(g78
g59
NtRp4469
(dp4470
g62
(dp4471
g89
g90
ssg71
g4460
sg64
(lp4472
S':'
asbag57
(g78
g59
NtRp4473
(dp4474
g62
(dp4475
sg71
g4460
sg64
(lp4476
g57
(g58
g59
NtRp4477
(dp4478
g62
(dp4479
g70
I4
ssg71
g4473
sg64
(lp4480
S'Sat, 21 Jan 2012 23:36:12 GMT'
p4481
asbasbasbag57
(g73
g59
NtRp4482
(dp4483
g62
(dp4484
sg71
g4412
sg64
(lp4485
g57
(g78
g59
NtRp4486
(dp4487
g62
(dp4488
g82
g83
ssg71
g4482
sg64
(lp4489
S'Pragma'
p4490
asbag57
(g78
g59
NtRp4491
(dp4492
g62
(dp4493
g89
g90
ssg71
g4482
sg64
(lp4494
S':'
asbag57
(g78
g59
NtRp4495
(dp4496
g62
(dp4497
sg71
g4482
sg64
(lp4498
g57
(g58
g59
NtRp4499
(dp4500
g62
(dp4501
g70
I4
ssg71
g4495
sg64
(lp4502
S'no-cache'
p4503
asbasbasbag57
(g73
g59
NtRp4504
(dp4505
g62
(dp4506
sg71
g4412
sg64
(lp4507
g57
(g78
g59
NtRp4508
(dp4509
g62
(dp4510
g82
g83
ssg71
g4504
sg64
(lp4511
S'X-Powered-By'
p4512
asbag57
(g78
g59
NtRp4513
(dp4514
g62
(dp4515
g89
g90
ssg71
g4504
sg64
(lp4516
S':'
asbag57
(g78
g59
NtRp4517
(dp4518
g62
(dp4519
sg71
g4504
sg64
(lp4520
g57
(g58
g59
NtRp4521
(dp4522
g62
(dp4523
g70
I4
ssg71
g4517
sg64
(lp4524
S'web2py'
p4525
asbasbasbasbasbasbasbag57
(g73
g59
NtRp4526
(dp4527
g62
(dp4528
sg71
g4073
sg64
(lp4529
g57
(g78
g59
NtRp4530
(dp4531
g62
(dp4532
g82
g83
ssg71
g4526
sg64
(lp4533
S'menu'
p4534
asbag57
(g78
g59
NtRp4535
(dp4536
g62
(dp4537
g89
g90
ssg71
g4526
sg64
(lp4538
S':'
asbag57
(g78
g59
NtRp4539
(dp4540
g62
(dp4541
sg71
g4526
sg64
(lp4542
g57
(g58
g59
NtRp4543
(dp4544
g62
(dp4545
g70
I5
ssg71
g4539
sg64
(lp4546
g57
(g66
g59
NtRp4547
(dp4548
g62
(dp4549
g70
I4
ssg71
Nsg64
(lp4550
g57
(g73
g59
NtRp4551
(dp4552
g62
(dp4553
sg71
g4547
sg64
(lp4554
g57
(g78
g59
NtRp4555
(dp4556
g62
(dp4557
sg71
g4551
sg64
(lp4558
g57
(g58
g59
NtRp4559
(dp4560
g62
(dp4561
g70
I4
ssg71
g4555
sg64
(lp4562
g57
(g66
g59
NtRp4563
(dp4564
g62
(dp4565
g70
I3
ssg71
Nsg64
(lp4566
g57
(g73
g59
NtRp4567
(dp4568
g62
(dp4569
sg71
g4563
sg64
(lp4570
g57
(g78
g59
NtRp4571
(dp4572
g62
(dp4573
sg71
g4567
sg64
(lp4574
g57
(g58
g59
NtRp4575
(dp4576
g62
(dp4577
g70
I3
ssg71
g4571
sg64
(lp4578
cgluon.languages
lazyT_unpickle
p4579
(S't\x04\x00\x00\x00Home'
tRp4580
asbasbasbag57
(g73
g59
NtRp4581
(dp4582
g62
(dp4583
sg71
g4563
sg64
(lp4584
g57
(g78
g59
NtRp4585
(dp4586
g62
(dp4587
sg71
g4581
sg64
(lp4588
g57
(g58
g59
NtRp4589
(dp4590
g62
(dp4591
g70
I3
ssg71
g4585
sg64
(lp4592
g1443
asbasbasbag57
(g73
g59
NtRp4593
(dp4594
g62
(dp4595
sg71
g4563
sg64
(lp4596
g57
(g78
g59
NtRp4597
(dp4598
g62
(dp4599
sg71
g4593
sg64
(lp4600
g57
(g58
g59
NtRp4601
(dp4602
g62
(dp4603
g70
I3
ssg71
g4597
sg64
(lp4604
S'/topoi/default/index.load'
p4605
asbasbasbag57
(g73
g59
NtRp4606
(dp4607
g62
(dp4608
sg71
g4563
sg64
(lp4609
g57
(g78
g59
NtRp4610
(dp4611
g62
(dp4612
sg71
g4606
sg64
(lp4613
g57
(g58
g59
NtRp4614
(dp4615
g62
(dp4616
g70
I3
ssg71
g4610
sg64
(lp4617
g57
(g66
g59
NtRp4618
(dp4619
g62
(dp4620
g70
I2
ssg71
Nsg64
(lp4621
sbasbasbasbasbasbasbasbag57
(g73
g59
NtRp4622
(dp4623
g62
(dp4624
sg71
g4547
sg64
(lp4625
g57
(g78
g59
NtRp4626
(dp4627
g62
(dp4628
sg71
g4622
sg64
(lp4629
g57
(g58
g59
NtRp4630
(dp4631
g62
(dp4632
g70
I4
ssg71
g4626
sg64
(lp4633
g57
(g66
g59
NtRp4634
(dp4635
g62
(dp4636
g70
I3
ssg71
Nsg64
(lp4637
g57
(g73
g59
NtRp4638
(dp4639
g62
(dp4640
sg71
g4634
sg64
(lp4641
g57
(g78
g59
NtRp4642
(dp4643
g62
(dp4644
sg71
g4638
sg64
(lp4645
g57
(g58
g59
NtRp4646
(dp4647
g62
(dp4648
g70
I3
ssg71
g4642
sg64
(lp4649
g4579
(S't\x01\x00\x00\x00S'
tRp4650
asbasbasbag57
(g73
g59
NtRp4651
(dp4652
g62
(dp4653
sg71
g4634
sg64
(lp4654
g57
(g78
g59
NtRp4655
(dp4656
g62
(dp4657
sg71
g4651
sg64
(lp4658
g57
(g58
g59
NtRp4659
(dp4660
g62
(dp4661
g70
I3
ssg71
g4655
sg64
(lp4662
g1443
asbasbasbag57
(g73
g59
NtRp4663
(dp4664
g62
(dp4665
sg71
g4634
sg64
(lp4666
g57
(g78
g59
NtRp4667
(dp4668
g62
(dp4669
sg71
g4663
sg64
(lp4670
g57
(g58
g59
NtRp4671
(dp4672
g62
(dp4673
g70
I3
ssg71
g4667
sg64
(lp4674
S'/admin/default/design/topoi.load'
p4675
asbasbasbag57
(g73
g59
NtRp4676
(dp4677
g62
(dp4678
sg71
g4634
sg64
(lp4679
g57
(g78
g59
NtRp4680
(dp4681
g62
(dp4682
sg71
g4676
sg64
(lp4683
g57
(g58
g59
NtRp4684
(dp4685
g62
(dp4686
g70
I3
ssg71
g4680
sg64
(lp4687
g57
(g66
g59
NtRp4688
(dp4689
g62
(dp4690
g70
I2
ssg71
Nsg64
(lp4691
g57
(g73
g59
NtRp4692
(dp4693
g62
(dp4694
sg71
g4688
sg64
(lp4695
g57
(g78
g59
NtRp4696
(dp4697
g62
(dp4698
sg71
g4692
sg64
(lp4699
g57
(g58
g59
NtRp4700
(dp4701
g62
(dp4702
g70
I2
ssg71
g4696
sg64
(lp4703
g57
(g66
g59
NtRp4704
(dp4705
g62
(dp4706
g70
I1
ssg71
Nsg64
(lp4707
g57
(g73
g59
NtRp4708
(dp4709
g62
(dp4710
sg71
g4704
sg64
(lp4711
g57
(g78
g59
NtRp4712
(dp4713
g62
(dp4714
sg71
g4708
sg64
(lp4715
g57
(g58
g59
NtRp4716
(dp4717
g62
(dp4718
g70
I1
ssg71
g4712
sg64
(lp4719
g4579
(S't\n\x00\x00\x00Controller'
tRp4720
asbasbasbag57
(g73
g59
NtRp4721
(dp4722
g62
(dp4723
sg71
g4704
sg64
(lp4724
g57
(g78
g59
NtRp4725
(dp4726
g62
(dp4727
sg71
g4721
sg64
(lp4728
g57
(g58
g59
NtRp4729
(dp4730
g62
(dp4731
g70
I1
ssg71
g4725
sg64
(lp4732
I00
asbasbasbag57
(g73
g59
NtRp4733
(dp4734
g62
(dp4735
sg71
g4704
sg64
(lp4736
g57
(g78
g59
NtRp4737
(dp4738
g62
(dp4739
sg71
g4733
sg64
(lp4740
g57
(g58
g59
NtRp4741
(dp4742
g62
(dp4743
g70
I1
ssg71
g4737
sg64
(lp4744
S'/admin/default/edit/topoi/controllers/plugin_ajaxselect.py'
p4745
asbasbasbasbasbasbasbag57
(g73
g59
NtRp4746
(dp4747
g62
(dp4748
sg71
g4688
sg64
(lp4749
g57
(g78
g59
NtRp4750
(dp4751
g62
(dp4752
sg71
g4746
sg64
(lp4753
g57
(g58
g59
NtRp4754
(dp4755
g62
(dp4756
g70
I2
ssg71
g4750
sg64
(lp4757
g57
(g66
g59
NtRp4758
(dp4759
g62
(dp4760
g70
I1
ssg71
Nsg64
(lp4761
g57
(g73
g59
NtRp4762
(dp4763
g62
(dp4764
sg71
g4758
sg64
(lp4765
g57
(g78
g59
NtRp4766
(dp4767
g62
(dp4768
sg71
g4762
sg64
(lp4769
g57
(g58
g59
NtRp4770
(dp4771
g62
(dp4772
g70
I1
ssg71
g4766
sg64
(lp4773
g4579
(S't\x04\x00\x00\x00View'
tRp4774
asbasbasbag57
(g73
g59
NtRp4775
(dp4776
g62
(dp4777
sg71
g4758
sg64
(lp4778
g57
(g78
g59
NtRp4779
(dp4780
g62
(dp4781
sg71
g4775
sg64
(lp4782
g57
(g58
g59
NtRp4783
(dp4784
g62
(dp4785
g70
I1
ssg71
g4779
sg64
(lp4786
I00
asbasbasbag57
(g73
g59
NtRp4787
(dp4788
g62
(dp4789
sg71
g4758
sg64
(lp4790
g57
(g78
g59
NtRp4791
(dp4792
g62
(dp4793
sg71
g4787
sg64
(lp4794
g57
(g58
g59
NtRp4795
(dp4796
g62
(dp4797
g70
I1
ssg71
g4791
sg64
(lp4798
S'/admin/default/edit/topoi/views/plugin_ajaxselect/set_widget.load'
p4799
asbasbasbasbasbasbasbag57
(g73
g59
NtRp4800
(dp4801
g62
(dp4802
sg71
g4688
sg64
(lp4803
g57
(g78
g59
NtRp4804
(dp4805
g62
(dp4806
sg71
g4800
sg64
(lp4807
g57
(g58
g59
NtRp4808
(dp4809
g62
(dp4810
g70
I2
ssg71
g4804
sg64
(lp4811
g57
(g66
g59
NtRp4812
(dp4813
g62
(dp4814
g70
I1
ssg71
Nsg64
(lp4815
g57
(g73
g59
NtRp4816
(dp4817
g62
(dp4818
sg71
g4812
sg64
(lp4819
g57
(g78
g59
NtRp4820
(dp4821
g62
(dp4822
sg71
g4816
sg64
(lp4823
g57
(g58
g59
NtRp4824
(dp4825
g62
(dp4826
g70
I1
ssg71
g4820
sg64
(lp4827
g4579
(S't\x06\x00\x00\x00Layout'
tRp4828
asbasbasbag57
(g73
g59
NtRp4829
(dp4830
g62
(dp4831
sg71
g4812
sg64
(lp4832
g57
(g78
g59
NtRp4833
(dp4834
g62
(dp4835
sg71
g4829
sg64
(lp4836
g57
(g58
g59
NtRp4837
(dp4838
g62
(dp4839
g70
I1
ssg71
g4833
sg64
(lp4840
I00
asbasbasbag57
(g73
g59
NtRp4841
(dp4842
g62
(dp4843
sg71
g4812
sg64
(lp4844
g57
(g78
g59
NtRp4845
(dp4846
g62
(dp4847
sg71
g4841
sg64
(lp4848
g57
(g58
g59
NtRp4849
(dp4850
g62
(dp4851
g70
I1
ssg71
g4845
sg64
(lp4852
S'/admin/default/edit/topoi/views/layout.html'
p4853
asbasbasbasbasbasbasbag57
(g73
g59
NtRp4854
(dp4855
g62
(dp4856
sg71
g4688
sg64
(lp4857
g57
(g78
g59
NtRp4858
(dp4859
g62
(dp4860
sg71
g4854
sg64
(lp4861
g57
(g58
g59
NtRp4862
(dp4863
g62
(dp4864
g70
I2
ssg71
g4858
sg64
(lp4865
g57
(g66
g59
NtRp4866
(dp4867
g62
(dp4868
g70
I1
ssg71
Nsg64
(lp4869
g57
(g73
g59
NtRp4870
(dp4871
g62
(dp4872
sg71
g4866
sg64
(lp4873
g57
(g78
g59
NtRp4874
(dp4875
g62
(dp4876
sg71
g4870
sg64
(lp4877
g57
(g58
g59
NtRp4878
(dp4879
g62
(dp4880
g70
I1
ssg71
g4874
sg64
(lp4881
g4579
(S't\n\x00\x00\x00Stylesheet'
tRp4882
asbasbasbag57
(g73
g59
NtRp4883
(dp4884
g62
(dp4885
sg71
g4866
sg64
(lp4886
g57
(g78
g59
NtRp4887
(dp4888
g62
(dp4889
sg71
g4883
sg64
(lp4890
g57
(g58
g59
NtRp4891
(dp4892
g62
(dp4893
g70
I1
ssg71
g4887
sg64
(lp4894
I00
asbasbasbag57
(g73
g59
NtRp4895
(dp4896
g62
(dp4897
sg71
g4866
sg64
(lp4898
g57
(g78
g59
NtRp4899
(dp4900
g62
(dp4901
sg71
g4895
sg64
(lp4902
g57
(g58
g59
NtRp4903
(dp4904
g62
(dp4905
g70
I1
ssg71
g4899
sg64
(lp4906
S'/admin/default/edit/topoi/static/base.css'
p4907
asbasbasbasbasbasbasbag57
(g73
g59
NtRp4908
(dp4909
g62
(dp4910
sg71
g4688
sg64
(lp4911
g57
(g78
g59
NtRp4912
(dp4913
g62
(dp4914
sg71
g4908
sg64
(lp4915
g57
(g58
g59
NtRp4916
(dp4917
g62
(dp4918
g70
I2
ssg71
g4912
sg64
(lp4919
g57
(g66
g59
NtRp4920
(dp4921
g62
(dp4922
g70
I1
ssg71
Nsg64
(lp4923
g57
(g73
g59
NtRp4924
(dp4925
g62
(dp4926
sg71
g4920
sg64
(lp4927
g57
(g78
g59
NtRp4928
(dp4929
g62
(dp4930
sg71
g4924
sg64
(lp4931
g57
(g58
g59
NtRp4932
(dp4933
g62
(dp4934
g70
I1
ssg71
g4928
sg64
(lp4935
g4579
(S's\x08\x00\x00\x00DB Model'
tRp4936
asbasbasbag57
(g73
g59
NtRp4937
(dp4938
g62
(dp4939
sg71
g4920
sg64
(lp4940
g57
(g78
g59
NtRp4941
(dp4942
g62
(dp4943
sg71
g4937
sg64
(lp4944
g57
(g58
g59
NtRp4945
(dp4946
g62
(dp4947
g70
I1
ssg71
g4941
sg64
(lp4948
I00
asbasbasbag57
(g73
g59
NtRp4949
(dp4950
g62
(dp4951
sg71
g4920
sg64
(lp4952
g57
(g78
g59
NtRp4953
(dp4954
g62
(dp4955
sg71
g4949
sg64
(lp4956
g57
(g58
g59
NtRp4957
(dp4958
g62
(dp4959
g70
I1
ssg71
g4953
sg64
(lp4960
S'/admin/default/edit/topoi/models/db.py'
p4961
asbasbasbasbasbasbasbag57
(g73
g59
NtRp4962
(dp4963
g62
(dp4964
sg71
g4688
sg64
(lp4965
g57
(g78
g59
NtRp4966
(dp4967
g62
(dp4968
sg71
g4962
sg64
(lp4969
g57
(g58
g59
NtRp4970
(dp4971
g62
(dp4972
g70
I2
ssg71
g4966
sg64
(lp4973
g57
(g66
g59
NtRp4974
(dp4975
g62
(dp4976
g70
I1
ssg71
Nsg64
(lp4977
g57
(g73
g59
NtRp4978
(dp4979
g62
(dp4980
sg71
g4974
sg64
(lp4981
g57
(g78
g59
NtRp4982
(dp4983
g62
(dp4984
sg71
g4978
sg64
(lp4985
g57
(g58
g59
NtRp4986
(dp4987
g62
(dp4988
g70
I1
ssg71
g4982
sg64
(lp4989
g4579
(S's\n\x00\x00\x00Menu Model'
tRp4990
asbasbasbag57
(g73
g59
NtRp4991
(dp4992
g62
(dp4993
sg71
g4974
sg64
(lp4994
g57
(g78
g59
NtRp4995
(dp4996
g62
(dp4997
sg71
g4991
sg64
(lp4998
g57
(g58
g59
NtRp4999
(dp5000
g62
(dp5001
g70
I1
ssg71
g4995
sg64
(lp5002
I00
asbasbasbag57
(g73
g59
NtRp5003
(dp5004
g62
(dp5005
sg71
g4974
sg64
(lp5006
g57
(g78
g59
NtRp5007
(dp5008
g62
(dp5009
sg71
g5003
sg64
(lp5010
g57
(g58
g59
NtRp5011
(dp5012
g62
(dp5013
g70
I1
ssg71
g5007
sg64
(lp5014
S'/admin/default/edit/topoi/models/menu.py'
p5015
asbasbasbasbasbasbasbag57
(g73
g59
NtRp5016
(dp5017
g62
(dp5018
sg71
g4688
sg64
(lp5019
g57
(g78
g59
NtRp5020
(dp5021
g62
(dp5022
sg71
g5016
sg64
(lp5023
g57
(g58
g59
NtRp5024
(dp5025
g62
(dp5026
g70
I2
ssg71
g5020
sg64
(lp5027
g57
(g66
g59
NtRp5028
(dp5029
g62
(dp5030
g70
I1
ssg71
Nsg64
(lp5031
g57
(g73
g59
NtRp5032
(dp5033
g62
(dp5034
sg71
g5028
sg64
(lp5035
g57
(g78
g59
NtRp5036
(dp5037
g62
(dp5038
sg71
g5032
sg64
(lp5039
g57
(g58
g59
NtRp5040
(dp5041
g62
(dp5042
g70
I1
ssg71
g5036
sg64
(lp5043
g4579
(S't\x08\x00\x00\x00Database'
tRp5044
asbasbasbag57
(g73
g59
NtRp5045
(dp5046
g62
(dp5047
sg71
g5028
sg64
(lp5048
g57
(g78
g59
NtRp5049
(dp5050
g62
(dp5051
sg71
g5045
sg64
(lp5052
g57
(g58
g59
NtRp5053
(dp5054
g62
(dp5055
g70
I1
ssg71
g5049
sg64
(lp5056
I00
asbasbasbag57
(g73
g59
NtRp5057
(dp5058
g62
(dp5059
sg71
g5028
sg64
(lp5060
g57
(g78
g59
NtRp5061
(dp5062
g62
(dp5063
sg71
g5057
sg64
(lp5064
g57
(g58
g59
NtRp5065
(dp5066
g62
(dp5067
g70
I1
ssg71
g5061
sg64
(lp5068
S'/topoi/appadmin/index.load'
p5069
asbasbasbasbasbasbasbag57
(g73
g59
NtRp5070
(dp5071
g62
(dp5072
sg71
g4688
sg64
(lp5073
g57
(g78
g59
NtRp5074
(dp5075
g62
(dp5076
sg71
g5070
sg64
(lp5077
g57
(g58
g59
NtRp5078
(dp5079
g62
(dp5080
g70
I2
ssg71
g5074
sg64
(lp5081
g57
(g66
g59
NtRp5082
(dp5083
g62
(dp5084
g70
I1
ssg71
Nsg64
(lp5085
g57
(g73
g59
NtRp5086
(dp5087
g62
(dp5088
sg71
g5082
sg64
(lp5089
g57
(g78
g59
NtRp5090
(dp5091
g62
(dp5092
sg71
g5086
sg64
(lp5093
g57
(g58
g59
NtRp5094
(dp5095
g62
(dp5096
g70
I1
ssg71
g5090
sg64
(lp5097
g4579
(S't\x06\x00\x00\x00Errors'
tRp5098
asbasbasbag57
(g73
g59
NtRp5099
(dp5100
g62
(dp5101
sg71
g5082
sg64
(lp5102
g57
(g78
g59
NtRp5103
(dp5104
g62
(dp5105
sg71
g5099
sg64
(lp5106
g57
(g58
g59
NtRp5107
(dp5108
g62
(dp5109
g70
I1
ssg71
g5103
sg64
(lp5110
I00
asbasbasbag57
(g73
g59
NtRp5111
(dp5112
g62
(dp5113
sg71
g5082
sg64
(lp5114
g57
(g78
g59
NtRp5115
(dp5116
g62
(dp5117
sg71
g5111
sg64
(lp5118
g57
(g58
g59
NtRp5119
(dp5120
g62
(dp5121
g70
I1
ssg71
g5115
sg64
(lp5122
S'/admin/default/errors/topoi.load'
p5123
asbasbasbasbasbasbasbag57
(g73
g59
NtRp5124
(dp5125
g62
(dp5126
sg71
g4688
sg64
(lp5127
g57
(g78
g59
NtRp5128
(dp5129
g62
(dp5130
sg71
g5124
sg64
(lp5131
g57
(g58
g59
NtRp5132
(dp5133
g62
(dp5134
g70
I2
ssg71
g5128
sg64
(lp5135
g57
(g66
g59
NtRp5136
(dp5137
g62
(dp5138
g70
I1
ssg71
Nsg64
(lp5139
g57
(g73
g59
NtRp5140
(dp5141
g62
(dp5142
sg71
g5136
sg64
(lp5143
g57
(g78
g59
NtRp5144
(dp5145
g62
(dp5146
sg71
g5140
sg64
(lp5147
g57
(g58
g59
NtRp5148
(dp5149
g62
(dp5150
g70
I1
ssg71
g5144
sg64
(lp5151
g4579
(S't\x05\x00\x00\x00About'
tRp5152
asbasbasbag57
(g73
g59
NtRp5153
(dp5154
g62
(dp5155
sg71
g5136
sg64
(lp5156
g57
(g78
g59
NtRp5157
(dp5158
g62
(dp5159
sg71
g5153
sg64
(lp5160
g57
(g58
g59
NtRp5161
(dp5162
g62
(dp5163
g70
I1
ssg71
g5157
sg64
(lp5164
I00
asbasbasbag57
(g73
g59
NtRp5165
(dp5166
g62
(dp5167
sg71
g5136
sg64
(lp5168
g57
(g78
g59
NtRp5169
(dp5170
g62
(dp5171
sg71
g5165
sg64
(lp5172
g57
(g58
g59
NtRp5173
(dp5174
g62
(dp5175
g70
I1
ssg71
g5169
sg64
(lp5176
S'/admin/default/about/topoi.load'
p5177
asbasbasbasbasbasbasbasbasbasbasbasbasbasbasbasbasbasbasbag57
(g73
g59
NtRp5178
(dp5179
g62
(dp5180
sg71
g4073
sg64
(lp5181
g57
(g78
g59
NtRp5182
(dp5183
g62
(dp5184
g82
g83
ssg71
g5178
sg64
(lp5185
S'meta'
p5186
asbag57
(g78
g59
NtRp5187
(dp5188
g62
(dp5189
g89
g90
ssg71
g5178
sg64
(lp5190
S':'
asbag57
(g78
g59
NtRp5191
(dp5192
g62
(dp5193
sg71
g5178
sg64
(lp5194
g57
(g58
g59
NtRp5195
(dp5196
g62
(dp5197
g70
I5
ssg71
g5191
sg64
(lp5198
g57
(g66
g59
NtRp5199
(dp5200
g62
(dp5201
g70
I4
ssg71
Nsg64
(lp5202
g57
(g73
g59
NtRp5203
(dp5204
g62
(dp5205
sg71
g5199
sg64
(lp5206
g57
(g78
g59
NtRp5207
(dp5208
g62
(dp5209
g82
g83
ssg71
g5203
sg64
(lp5210
S'author'
p5211
asbag57
(g78
g59
NtRp5212
(dp5213
g62
(dp5214
g89
g90
ssg71
g5203
sg64
(lp5215
S':'
asbag57
(g78
g59
NtRp5216
(dp5217
g62
(dp5218
sg71
g5203
sg64
(lp5219
g57
(g58
g59
NtRp5220
(dp5221
g62
(dp5222
g70
I4
ssg71
g5216
sg64
(lp5223
S'Ian W. Scott'
p5224
asbasbasbag57
(g73
g59
NtRp5225
(dp5226
g62
(dp5227
sg71
g5199
sg64
(lp5228
g57
(g78
g59
NtRp5229
(dp5230
g62
(dp5231
g82
g83
ssg71
g5225
sg64
(lp5232
S'copyright'
p5233
asbag57
(g78
g59
NtRp5234
(dp5235
g62
(dp5236
g89
g90
ssg71
g5225
sg64
(lp5237
S':'
asbag57
(g78
g59
NtRp5238
(dp5239
g62
(dp5240
sg71
g5225
sg64
(lp5241
g57
(g58
g59
NtRp5242
(dp5243
g62
(dp5244
g70
I4
ssg71
g5238
sg64
(lp5245
S'Copyright 2011'
p5246
asbasbasbag57
(g73
g59
NtRp5247
(dp5248
g62
(dp5249
sg71
g5199
sg64
(lp5250
g57
(g78
g59
NtRp5251
(dp5252
g62
(dp5253
g82
g83
ssg71
g5247
sg64
(lp5254
S'description'
p5255
asbag57
(g78
g59
NtRp5256
(dp5257
g62
(dp5258
g89
g90
ssg71
g5247
sg64
(lp5259
S':'
asbag57
(g78
g59
NtRp5260
(dp5261
g62
(dp5262
sg71
g5247
sg64
(lp5263
g57
(g58
g59
NtRp5264
(dp5265
g62
(dp5266
g70
I4
ssg71
g5260
sg64
(lp5267
S'A web-app for managing primary-text research in the humanities.'
p5268
asbasbasbag57
(g73
g59
NtRp5269
(dp5270
g62
(dp5271
sg71
g5199
sg64
(lp5272
g57
(g78
g59
NtRp5273
(dp5274
g62
(dp5275
g82
g83
ssg71
g5269
sg64
(lp5276
S'generator'
p5277
asbag57
(g78
g59
NtRp5278
(dp5279
g62
(dp5280
g89
g90
ssg71
g5269
sg64
(lp5281
S':'
asbag57
(g78
g59
NtRp5282
(dp5283
g62
(dp5284
sg71
g5269
sg64
(lp5285
g57
(g58
g59
NtRp5286
(dp5287
g62
(dp5288
g70
I4
ssg71
g5282
sg64
(lp5289
S'Web2py Enterprise Framework'
p5290
asbasbasbag57
(g73
g59
NtRp5291
(dp5292
g62
(dp5293
sg71
g5199
sg64
(lp5294
g57
(g78
g59
NtRp5295
(dp5296
g62
(dp5297
g82
g83
ssg71
g5291
sg64
(lp5298
S'keywords'
p5299
asbag57
(g78
g59
NtRp5300
(dp5301
g62
(dp5302
g89
g90
ssg71
g5291
sg64
(lp5303
S':'
asbag57
(g78
g59
NtRp5304
(dp5305
g62
(dp5306
sg71
g5291
sg64
(lp5307
g57
(g58
g59
NtRp5308
(dp5309
g62
(dp5310
g70
I4
ssg71
g5304
sg64
(lp5311
S'research, humanities, biblical'
p5312
asbasbasbasbasbasbasbag57
(g73
g59
NtRp5313
(dp5314
g62
(dp5315
sg71
g4073
sg64
(lp5316
g57
(g78
g59
NtRp5317
(dp5318
g62
(dp5319
g82
g83
ssg71
g5313
sg64
(lp5320
S'postprocessing'
p5321
asbag57
(g78
g59
NtRp5322
(dp5323
g62
(dp5324
g89
g90
ssg71
g5313
sg64
(lp5325
S':'
asbag57
(g78
g59
NtRp5326
(dp5327
g62
(dp5328
sg71
g5313
sg64
(lp5329
g57
(g58
g59
NtRp5330
(dp5331
g62
(dp5332
g70
I5
ssg71
g5326
sg64
(lp5333
g57
(g66
g59
NtRp5334
(dp5335
g62
(dp5336
g70
I4
ssg71
Nsg64
(lp5337
sbasbasbasbag57
(g73
g59
NtRp5338
(dp5339
g62
(dp5340
sg71
g4073
sg64
(lp5341
g57
(g78
g59
NtRp5342
(dp5343
g62
(dp5344
g82
g83
ssg71
g5338
sg64
(lp5345
S'session_file'
p5346
asbag57
(g78
g59
NtRp5347
(dp5348
g62
(dp5349
g89
g90
ssg71
g5338
sg64
(lp5350
S':'
asbag57
(g78
g59
NtRp5351
(dp5352
g62
(dp5353
sg71
g5338
sg64
(lp5354
g57
(g58
g59
NtRp5355
(dp5356
g62
(dp5357
g70
I5
ssg71
g5351
sg64
(lp5358
S"<open file '/home/ian/web2py/applications/topoi/sessions/127.0.0.1-36a47132-9f63-403c-93e8-4b961484278b', mode 'rb+' at 0x46cf030>"
p5359
asbasbasbag57
(g73
g59
NtRp5360
(dp5361
g62
(dp5362
sg71
g4073
sg64
(lp5363
g57
(g78
g59
NtRp5364
(dp5365
g62
(dp5366
g82
g83
ssg71
g5360
sg64
(lp5367
S'session_filename'
p5368
asbag57
(g78
g59
NtRp5369
(dp5370
g62
(dp5371
g89
g90
ssg71
g5360
sg64
(lp5372
S':'
asbag57
(g78
g59
NtRp5373
(dp5374
g62
(dp5375
sg71
g5360
sg64
(lp5376
g57
(g58
g59
NtRp5377
(dp5378
g62
(dp5379
g70
I5
ssg71
g5373
sg64
(lp5380
S'/home/ian/web2py/applications/topoi/sessions/127.0.0.1-36a47132-9f63-403c-93e8-4b961484278b'
p5381
asbasbasbag57
(g73
g59
NtRp5382
(dp5383
g62
(dp5384
sg71
g4073
sg64
(lp5385
g57
(g78
g59
NtRp5386
(dp5387
g62
(dp5388
g82
g83
ssg71
g5382
sg64
(lp5389
S'session_id'
p5390
asbag57
(g78
g59
NtRp5391
(dp5392
g62
(dp5393
g89
g90
ssg71
g5382
sg64
(lp5394
S':'
asbag57
(g78
g59
NtRp5395
(dp5396
g62
(dp5397
sg71
g5382
sg64
(lp5398
g57
(g58
g59
NtRp5399
(dp5400
g62
(dp5401
g70
I5
ssg71
g5395
sg64
(lp5402
S'127.0.0.1-36a47132-9f63-403c-93e8-4b961484278b'
p5403
asbasbasbag57
(g73
g59
NtRp5404
(dp5405
g62
(dp5406
sg71
g4073
sg64
(lp5407
g57
(g78
g59
NtRp5408
(dp5409
g62
(dp5410
g82
g83
ssg71
g5404
sg64
(lp5411
S'session_id_name'
p5412
asbag57
(g78
g59
NtRp5413
(dp5414
g62
(dp5415
g89
g90
ssg71
g5404
sg64
(lp5416
S':'
asbag57
(g78
g59
NtRp5417
(dp5418
g62
(dp5419
sg71
g5404
sg64
(lp5420
g57
(g58
g59
NtRp5421
(dp5422
g62
(dp5423
g70
I5
ssg71
g5417
sg64
(lp5424
g4130
asbasbasbag57
(g73
g59
NtRp5425
(dp5426
g62
(dp5427
sg71
g4073
sg64
(lp5428
g57
(g78
g59
NtRp5429
(dp5430
g62
(dp5431
g82
g83
ssg71
g5425
sg64
(lp5432
S'session_locked'
p5433
asbag57
(g78
g59
NtRp5434
(dp5435
g62
(dp5436
g89
g90
ssg71
g5425
sg64
(lp5437
S':'
asbag57
(g78
g59
NtRp5438
(dp5439
g62
(dp5440
sg71
g5425
sg64
(lp5441
g57
(g58
g59
NtRp5442
(dp5443
g62
(dp5444
g70
I5
ssg71
g5438
sg64
(lp5445
g100
asbasbasbag57
(g73
g59
NtRp5446
(dp5447
g62
(dp5448
sg71
g4073
sg64
(lp5449
g57
(g78
g59
NtRp5450
(dp5451
g62
(dp5452
g82
g83
ssg71
g5446
sg64
(lp5453
S'session_new'
p5454
asbag57
(g78
g59
NtRp5455
(dp5456
g62
(dp5457
g89
g90
ssg71
g5446
sg64
(lp5458
S':'
asbag57
(g78
g59
NtRp5459
(dp5460
g62
(dp5461
sg71
g5446
sg64
(lp5462
g57
(g58
g59
NtRp5463
(dp5464
g62
(dp5465
g70
I5
ssg71
g5459
sg64
(lp5466
g1443
asbasbasbag57
(g73
g59
NtRp5467
(dp5468
g62
(dp5469
sg71
g4073
sg64
(lp5470
g57
(g78
g59
NtRp5471
(dp5472
g62
(dp5473
g82
g83
ssg71
g5467
sg64
(lp5474
S'status'
p5475
asbag57
(g78
g59
NtRp5476
(dp5477
g62
(dp5478
g89
g90
ssg71
g5467
sg64
(lp5479
S':'
asbag57
(g78
g59
NtRp5480
(dp5481
g62
(dp5482
sg71
g5467
sg64
(lp5483
g57
(g58
g59
NtRp5484
(dp5485
g62
(dp5486
g70
I5
ssg71
g5480
sg64
(lp5487
S'200'
p5488
asbasbasbag57
(g73
g59
NtRp5489
(dp5490
g62
(dp5491
sg71
g4073
sg64
(lp5492
g57
(g78
g59
NtRp5493
(dp5494
g62
(dp5495
g82
g83
ssg71
g5489
sg64
(lp5496
S'subtitle'
p5497
asbag57
(g78
g59
NtRp5498
(dp5499
g62
(dp5500
g89
g90
ssg71
g5489
sg64
(lp5501
S':'
asbag57
(g78
g59
NtRp5502
(dp5503
g62
(dp5504
sg71
g5489
sg64
(lp5505
g57
(g58
g59
NtRp5506
(dp5507
g62
(dp5508
g70
I5
ssg71
g5502
sg64
(lp5509
g4579
(S's;\x00\x00\x00A tool for managing primary-text research in the humanities'
tRp5510
asbasbasbag57
(g73
g59
NtRp5511
(dp5512
g62
(dp5513
sg71
g4073
sg64
(lp5514
g57
(g78
g59
NtRp5515
(dp5516
g62
(dp5517
g82
g83
ssg71
g5511
sg64
(lp5518
S'title'
p5519
asbag57
(g78
g59
NtRp5520
(dp5521
g62
(dp5522
g89
g90
ssg71
g5511
sg64
(lp5523
S':'
asbag57
(g78
g59
NtRp5524
(dp5525
g62
(dp5526
sg71
g5511
sg64
(lp5527
g57
(g58
g59
NtRp5528
(dp5529
g62
(dp5530
g70
I5
ssg71
g5524
sg64
(lp5531
g122
asbasbasbag57
(g73
g59
NtRp5532
(dp5533
g62
(dp5534
sg71
g4073
sg64
(lp5535
g57
(g78
g59
NtRp5536
(dp5537
g62
(dp5538
g82
g83
ssg71
g5532
sg64
(lp5539
g2933
asbag57
(g78
g59
NtRp5540
(dp5541
g62
(dp5542
g89
g90
ssg71
g5532
sg64
(lp5543
S':'
asbag57
(g78
g59
NtRp5544
(dp5545
g62
(dp5546
sg71
g5532
sg64
(lp5547
g57
(g58
g59
NtRp5548
(dp5549
g62
(dp5550
g70
I5
ssg71
g5544
sg64
(lp5551
g2946
asbasbasbag57
(g73
g59
NtRp5552
(dp5553
g62
(dp5554
sg71
g4073
sg64
(lp5555
g57
(g78
g59
NtRp5556
(dp5557
g62
(dp5558
g82
g83
ssg71
g5552
sg64
(lp5559
S'view'
p5560
asbag57
(g78
g59
NtRp5561
(dp5562
g62
(dp5563
g89
g90
ssg71
g5552
sg64
(lp5564
S':'
asbag57
(g78
g59
NtRp5565
(dp5566
g62
(dp5567
sg71
g5552
sg64
(lp5568
g57
(g58
g59
NtRp5569
(dp5570
g62
(dp5571
g70
I5
ssg71
g5565
sg64
(lp5572
S'plugin_ajaxselect/set_widget.load'
p5573
asbasbasbasbasbsS'locals'
p5574
(dp5575
S'filter_val'
p5576
S"'11'"
p5577
sS'rows'
p5578
S'<gluon.dal.Rows object>'
p5579
sS'e'
S"<Row {'author': 11, 'update_record': <function <...elete_record': <function <lambda> at 0x48811b8>}>"
p5580
sS'linktable'
p5581
S"'works'"
p5582
sS'f'
S"'comments'"
p5583
sS'the_table'
p5584
S"<Table {'reference': <gluon.dal.Field object at ...e, '_id': <gluon.dal.Field object at 0x44f7510>}>"
p5585
sS'rep'
p5586
S"'title'"
p5587
sS'filter_t'
p5588
S"'authors'"
p5589
sS'cf'
p5590
S"'author'"
p5591
sS'value'
p5592
S"'None'"
p5593
sS'n'
S"'notes_work'"
p5594
sS'field'
p5595
S"'work'"
p5596
sS'the_field'
p5597
S'<gluon.dal.Field object>'
p5598
sS'table'
p5599
S"'notes'"
p5600
sS'ref'
p5601
S"'reference authors'"
p5602
sS'the_linktable'
p5603
S"<Table {'_db': <DAL {'auth_event': <Table {'orig...e, '_id': <gluon.dal.Field object at 0x37c4710>}>"
p5604
sssS'traceback'
p5605
S'Traceback (most recent call last):\n  File "/home/ian/web2py/gluon/restricted.py", line 204, in restricted\n    exec ccode in environment\n  File "/home/ian/web2py/applications/topoi/controllers/plugin_ajaxselect.py", line 86, in <module>\n  File "/home/ian/web2py/gluon/globals.py", line 172, in <lambda>\n    self._caller = lambda f: f()\n  File "/home/ian/web2py/applications/topoi/controllers/plugin_ajaxselect.py", line 40, in set_widget\n    w = SELECT(_id=n, _class=\'generic-widget\' *[OPTION(e[rep], _value=e.id) for e in rows])\nTypeError: can\'t multiply sequence by non-int of type \'list\'\n'
p5606
s.