(dp1
S'output'
p2
S'missing "pass" in view'
p3
sS'layer'
p4
S'ParserContainer'
p5
sS'code'
p6
S'response.write(\'<!DOCTYPE html>\\n<!-- adapted by Ian W. Scott from the default layout.html file included in the web2py scaffolding app -->\\n<html lang="\', escape=False)\nresponse.write(T.accepted_language or \'en\')\nresponse.write(\'" class="no-js"><!-- no-js need it for modernzr -->\\n  <head>\\n    \\n    <meta charset="utf-8" />        \\n    <!-- www.phpied.com/conditional-comments-block-downloads/ -->\\n    <!--[if IE]><![endif]-->    \\n    <!-- Always force latest IE rendering engine & Chrome Frame; Remove if you use .htaccess -->\\n    <meta http-equiv="X-UA-Compatible" content="IE=edge,chrome=1">\\n    <title>\', escape=False)\nresponse.write(response.title or request.application)\nresponse.write(\'</title>\\n    <!-- http://dev.w3.org/html5/markup/meta.name.html -->\\n    <meta name="application-name" content="\', escape=False)\nresponse.write(request.application)\nresponse.write(\'" /> \\n    <!-- http://google.com/webmasters -->\\n    <meta name="google-site-verification" content="" />\\n    <!--  Mobile Viewport Fix (j.mp/mobileviewport & davidbcalhoun.com/2010/viewport-metatag) -->\\n    <meta name="viewport" content="width=device-width, initial-scale=1.0, maximum-scale=1.0">\\n    \\n    <!-- Place favicon.ico and apple-touch-icon.png in the root of your domain and delete these references -->\\n    <link rel="shortcut icon" href="\', escape=False)\nresponse.write(URL(\'static\',\'favicon.ico\'))\nresponse.write(\'" type="image/x-icon">\\n    <link rel="apple-touch-icon" href="\', escape=False)\nresponse.write(URL(\'static\',\'favicon.png\'))\nresponse.write(\'">\\n    <!-- For the less-enabled mobile browsers like Opera Mini -->\\n    <link rel="stylesheet" media="handheld" href="\', escape=False)\nresponse.write(URL(\'static\',\'css/handheld.css\'))\nresponse.write(\'">\\n    \\n    <!-- All JavaScript at the bottom, except for Modernizr which enables HTML5 elements & feature detects -->\\n    <script src="\', escape=False)\nresponse.write(URL(\'static\',\'js/modernizr-1.7.min.js\'))\nresponse.write(\'"></script>\\n    \\n    <!--  require CSS and JS files for this page (read info in base.css) -->\\n    \', escape=False)\nresponse.files.append(URL(\'static\',\'plugin_framework/less-1.1.5.min.js\'))\nresponse.write(\'\\n    \', escape=False)\nresponse.files.append(URL(\'static\',\'plugin_framework/normalize.css\'))\nresponse.write(\'\\n    \', escape=False)\nresponse.files.append(URL(\'static\',\'css/superfish.css\'))\nresponse.write(\'\\n    \', escape=False)\nresponse.files.append(URL(\'static\',\'js/superfish.js\'))\nresponse.write(\'\\n    \', escape=False)\nresponse.files.append(\'/ajax/libs/jqueryui/1.7.2/themes/smoothness/jquery-ui.css\'))\nresponse.write(\'\\n    \', escape=False)\nresponse.files.append(\'https://ajax.googleapis.com/ajax/libs/jqueryui/1.8.16/jquery-ui.min.js\')\n<!-- include web2py specific js code (jquery, calendar, form stuff) -->\n{{include \'web2py_ajax.html\'\nresponse.write(\'\\n\\n    <!--sidebar settings-->    \\n    \', escape=False)\nleft_sidebar_enabled = globals().get(\'left_sidebar_enabled\',False)\nright_sidebar_enabled = globals().get(\'right_sidebar_enabled\',False)\nif left_sidebar_enabled and right_sidebar_enabled:\n    width_content=\'63%\'\nelif left_sidebar_enabled != right_sidebar_enabled:\n    width_content=\'740px\'\nelse:\n    width_content=\'100%\'\n    if left_sidebar_enabled:\n        left_sidebar_style = \'style="display: block;"\'\n    else:\n        left_sidebar_style = \'style="display: none;"\'\n        if right_sidebar_enabled:\n            right_sidebar_style = \'style="display: block;"\'\n        else:\n            right_sidebar_style = \'style="display: none;"\'\n            style_content = \'style="width: %s"\' % width_content\n            response.write(\'   \\n    \\n  </head>\\n  \\n  <!-- paulirish.com/2008/conditional-stylesheets-vs-css-hacks-answer-neither/ -->  \\n  <!--[if lt IE 7 ]> <body class="ie6"> <![endif]-->\\n  <!--[if IE 7 ]>    <body class="ie7"> <![endif]-->\\n  <!--[if IE 8 ]>    <body class="ie8"> <![endif]-->\\n  <!--[if IE 9 ]>    <body class="ie9"> <![endif]-->\\n  <!--[if (gt IE 9)|!(IE)]><!--> <body> <!--<![endif]-->\\n    \\n    <div class="flash">\', escape=False)\n            response.write(response.flash or \'\')\n            response.write("</div> <!-- notification div -->                           \\n    <div id=\'modal_frame\'></div>\\n    \\n    <header>\\n        \\n      \\t", escape=False)\n            response.write(\' <!-- this is default header -->\\n      \\t\\t\', escape=False)\n            try:\n                response.write(\'\\n\\t      \\t\\t\', escape=False)\n                response.write(auth.navbar(action=URL(\'default\',\'user\')))\n                response.write(\'\\n      \\t\\t\', escape=False)\n            except:pass\n            response.write(\'               \\n      \\t\\t<h1 id="appname">\', escape=False)\n            response.write(A(request.application.capitalize(), _href=URL(\'default\', \'index\')))\n            response.write(\'</h1>\\n      \\t\\t\', escape=False)\n            #FIXME: Shift this clearing div to css :after\n            response.write(\'\\n      \\t\\t<div style="clear: both;"></div><!-- Clear the divs -->\\n      \\t\', escape=False)\n            response.write(\'                \\n                             \\n    </header>\\n    \\n    <div id="page" class="\', escape=False)\n            response.write(request.controller)\n            response.write(\' \', escape=False)\n            response.write(request.function)\n            response.write(\'">    \\n\\n    \\t<!-- left_sidebar -->\\n      \\t\', escape=False)\n            if left_sidebar_enabled:\n                response.write(\'\\n          \\t<div id="left_sidebar" \', escape=False)\n                response.write(XML(left_sidebar_style))\n                response.write(\' >\\n            \\t<div>\\n\\t        \\t\\t\', escape=False)\n                response.write(\'Content Left Sidebar\', escape=False)\n                response.write(\'       \\n            \\t</div>\\n        \\t</div>\\n      \\t\', escape=False)\n                pass\n            response.write(\'\\n\\n      \\t<!-- content of views-->\\n      \\t\', escape=False)\n            response.write(\'\\n<h1></h1>\\n\\n<section id="viewpane">\\nPlease select an item from the list.\\n</section>\\n\\n<section id="listpane">\\n   <ul>\\n   \', escape=False)\n            for l in listset:\n                response.write(\'\\n      <li>\', escape=False)\n                response.write(l)\n                response.write(\'</li>\\n   \', escape=False)\n                pass\n            response.write(\'\\n   </ul>    \\n</section>\\n\', escape=False)\n            response.write(\' \\n\\n      \\t<!-- right_sidebar -->\\n      \\t\', escape=False)\n            if right_sidebar_enabled:\n                response.write(\'\\n          <div id="right_sidebar" \', escape=False)\n                response.write(XML(right_sidebar_style))\n                response.write(\' >\\n            <div style="padding: 4px;">\\n              \', escape=False)\n                response.write(\'Content Right Sidebar\', escape=False)\n                response.write(\'\\n            </div>\\n          </div>\\n      \\t\', escape=False)\n                pass\n            response.write(\'\\n       \\n      <div style="clear: both;"></div><!-- Clear the divs -->                         \\n    \\n    </div><!--page-->\\n    \\n    <footer>\\n      \', escape=False)\n            response.write(\' <!-- this is default footer -->\\n      <a href="http://www.web2py.com/" >\\n        <img src="\', escape=False)\n            response.write(URL(\'static\',\'images/poweredby.png\'))\n            response.write(\'"/>\\n      </a>\\n      \', escape=False)\n            response.write(T(\'Copyright\'))\n            response.write(\' &#169; Ian W. Scott 2011 (licensed under GPL 3.0)               \\n      <div style="clear: both;"></div><!-- Clear the divs -->\\n      \', escape=False)\n            response.write(\'\\n    </footer>           \\n\\n    \', escape=False)\n            if session.debug:\n                response.write(\'\\n        \', escape=False)\n                response.write(DIV(session.debug, _class="debug"))\n                response.write(\'\\n    \', escape=False)\n                pass\n            response.write(\'\\n\\n    <!--[if lt IE 7 ]>\\n    <script src="\', escape=False)\n            response.write(URL(\'static\',\'js/dd_belatedpng.js\'))\n            response.write(\'"></script>\\n    <script> DD_belatedPNG.fix(\\\'img, .png_bg\\\'); //fix any <img> or .png_bg background-images </script>\\n    <![endif]-->\\n    \\n    <!-- asynchronous google analytics: mathiasbynens.be/notes/async-analytics-snippet \\n     change the UA-XXXXX-X to be your site\\\'s ID -->\\n    <!--   \\n       <script>\\n         var _gaq = [[\\\'_setAccount\\\', \\\'UA-XXXXX-X\\\'], [\\\'_trackPageview\\\']];\\n         (function(d, t) {\\n         var g = d.createElement(t),\\n         s = d.getElementsByTagName(t)[0];\\n         g.async = true;\\n         g.src = \\\'//www.google-analytics.com/ga.js\\\';\\n         s.parentNode.insertBefore(g, s);\\n         })(document, \\\'script\\\');\\n       </script>\\n       -->    \\n  </body>\\n</html>\', escape=False)'
p7
sS'snapshot'
p8
(dp9
sS'traceback'
p10
S'None\n'
p11
s.