(dp1
S'output'
p2
S''
sS'layer'
p3
S'/home/ian/web2py/applications/topoi/controllers/plugin_ajaxselect.py'
p4
sS'code'
p5
S'from gluon.sqlhtml import OptionsWidget\n\n\ndef set_widget():\n    """\n    creates an instance of the OptionsWidget class defined in gluon.sqlhtml and returns the result to populate the ajax LOAD field\n    """\n\n    #get variables to build widget for the proper field, with proper current value\n    table = request.args[0]\n    field = request.args[1]\n    value = request.args[2]\n    linktable = request.args[3]\n    loadname = request.args[4]\n\n    the_table = db[table]\n    the_field = the_table[field]\n    the_linktable = db[linktable]\n\n    w = OptionsWidget.widget(the_field, value)\n\n    form = SQLFORM(the_linktable)\n\n    if form.process().accepted:\n        response.flash = \'form accepted\'\n        #response.js = "web2py_component(\'%\', \'%\');" % (comp_url, loadname)\n    else:\n        response.error = \'form was not processed\'\n\n    comp_url = URL(\'plugin_ajaxselect\', \'set_widget.load\', args=[table, field, value, linktable, loadname])\n\n    #create button to trigger adding dialog\n    bid = table + \'_\' + field + \'_option_add_trigger\'\n    button = A(\'Add New\', _href=\'#\', _id=bid, _class=\'button_secondary option_add_trigger\')\n\n    return dict(widget = w, button = button, form = f, comp_url = comp_url, loadname = loadname)\n\nresponse._vars=response._caller(set_widget)\n'
p6
sS'snapshot'
p7
(dp8
S'exception'
p9
(dp10
S'__hash__'
p11
S"<method-wrapper '__hash__' of exceptions.NameError object>"
p12
sS'__setattr__'
p13
S"<method-wrapper '__setattr__' of exceptions.NameError object>"
p14
sS'__reduce_ex__'
p15
S'<built-in method __reduce_ex__ of exceptions.NameError object>'
p16
sS'__getslice__'
p17
S"<method-wrapper '__getslice__' of exceptions.NameError object>"
p18
sS'__getitem__'
p19
S"<method-wrapper '__getitem__' of exceptions.NameError object>"
p20
sS'__setstate__'
p21
S'<built-in method __setstate__ of exceptions.NameError object>'
p22
sS'args'
p23
S'("global name \'f\' is not defined",)'
p24
sS'__reduce__'
p25
S'<built-in method __reduce__ of exceptions.NameError object>'
p26
sS'__str__'
p27
S"<method-wrapper '__str__' of exceptions.NameError object>"
p28
sS'__format__'
p29
S'<built-in method __format__ of exceptions.NameError object>'
p30
sS'__getattribute__'
p31
S"<method-wrapper '__getattribute__' of exceptions.NameError object>"
p32
sS'__class__'
p33
S"<type 'exceptions.NameError'>"
p34
sS'__unicode__'
p35
S'<built-in method __unicode__ of exceptions.NameError object>'
p36
sS'__delattr__'
p37
S"<method-wrapper '__delattr__' of exceptions.NameError object>"
p38
sS'__subclasshook__'
p39
S'<built-in method __subclasshook__ of type object>'
p40
sS'__repr__'
p41
S"<method-wrapper '__repr__' of exceptions.NameError object>"
p42
sS'__dict__'
p43
S'{}'
p44
sS'__sizeof__'
p45
S'<built-in method __sizeof__ of exceptions.NameError object>'
p46
sS'__doc__'
p47
S"'Name not found globally.'"
p48
sS'__init__'
p49
S"<method-wrapper '__init__' of exceptions.NameError object>"
p50
sS'__new__'
p51
S'<built-in method __new__ of type object>'
p52
ssS'evalue'
p53
S"global name 'f' is not defined"
p54
sS'request'
p55
ccopy_reg
_reconstructor
p56
(cgluon.html
BEAUTIFY
p57
c__builtin__
object
p58
NtRp59
(dp60
S'attributes'
p61
(dp62
sS'components'
p63
(lp64
g56
(cgluon.html
TABLE
p65
g58
NtRp66
(dp67
g61
(dp68
S'level'
p69
I5
ssS'parent'
p70
Nsg63
(lp71
g56
(cgluon.html
TR
p72
g58
NtRp73
(dp74
g61
(dp75
sg70
g66
sg63
(lp76
g56
(cgluon.html
TD
p77
g58
NtRp78
(dp79
g61
(dp80
S'_style'
p81
S'font-weight:bold;'
p82
ssg70
g73
sg63
(lp83
S'ajax'
p84
asbag56
(g77
g58
NtRp85
(dp86
g61
(dp87
S'_valign'
p88
S'top'
p89
ssg70
g73
sg63
(lp90
S':'
asbag56
(g77
g58
NtRp91
(dp92
g61
(dp93
sg70
g73
sg63
(lp94
g56
(g57
g58
NtRp95
(dp96
g61
(dp97
g69
I5
ssg70
g91
sg63
(lp98
S'True'
p99
asbasbasbag56
(g72
g58
NtRp100
(dp101
g61
(dp102
sg70
g66
sg63
(lp103
g56
(g77
g58
NtRp104
(dp105
g61
(dp106
g81
g82
ssg70
g100
sg63
(lp107
S'application'
p108
asbag56
(g77
g58
NtRp109
(dp110
g61
(dp111
g88
g89
ssg70
g100
sg63
(lp112
S':'
asbag56
(g77
g58
NtRp113
(dp114
g61
(dp115
sg70
g100
sg63
(lp116
g56
(g57
g58
NtRp117
(dp118
g61
(dp119
g69
I5
ssg70
g113
sg63
(lp120
S'topoi'
p121
asbasbasbag56
(g72
g58
NtRp122
(dp123
g61
(dp124
sg70
g66
sg63
(lp125
g56
(g77
g58
NtRp126
(dp127
g61
(dp128
g81
g82
ssg70
g122
sg63
(lp129
g23
asbag56
(g77
g58
NtRp130
(dp131
g61
(dp132
g88
g89
ssg70
g122
sg63
(lp133
S':'
asbag56
(g77
g58
NtRp134
(dp135
g61
(dp136
sg70
g122
sg63
(lp137
g56
(g57
g58
NtRp138
(dp139
g61
(dp140
g69
I5
ssg70
g134
sg63
(lp141
g56
(g65
g58
NtRp142
(dp143
g61
(dp144
g69
I4
ssg70
Nsg63
(lp145
g56
(g72
g58
NtRp146
(dp147
g61
(dp148
sg70
g142
sg63
(lp149
g56
(g77
g58
NtRp150
(dp151
g61
(dp152
sg70
g146
sg63
(lp153
g56
(g57
g58
NtRp154
(dp155
g61
(dp156
g69
I4
ssg70
g150
sg63
(lp157
S'notes'
p158
asbasbasbag56
(g72
g58
NtRp159
(dp160
g61
(dp161
sg70
g142
sg63
(lp162
g56
(g77
g58
NtRp163
(dp164
g61
(dp165
sg70
g159
sg63
(lp166
g56
(g57
g58
NtRp167
(dp168
g61
(dp169
g69
I4
ssg70
g163
sg63
(lp170
S'author'
p171
asbasbasbag56
(g72
g58
NtRp172
(dp173
g61
(dp174
sg70
g142
sg63
(lp175
g56
(g77
g58
NtRp176
(dp177
g61
(dp178
sg70
g172
sg63
(lp179
g56
(g57
g58
NtRp180
(dp181
g61
(dp182
g69
I4
ssg70
g176
sg63
(lp183
S'10'
p184
asbasbasbag56
(g72
g58
NtRp185
(dp186
g61
(dp187
sg70
g142
sg63
(lp188
g56
(g77
g58
NtRp189
(dp190
g61
(dp191
sg70
g185
sg63
(lp192
g56
(g57
g58
NtRp193
(dp194
g61
(dp195
g69
I4
ssg70
g189
sg63
(lp196
S'authors'
p197
asbasbasbag56
(g72
g58
NtRp198
(dp199
g61
(dp200
sg70
g142
sg63
(lp201
g56
(g77
g58
NtRp202
(dp203
g61
(dp204
sg70
g198
sg63
(lp205
g56
(g57
g58
NtRp206
(dp207
g61
(dp208
g69
I4
ssg70
g202
sg63
(lp209
S'notes_author_loader'
p210
asbasbasbasbasbasbasbag56
(g72
g58
NtRp211
(dp212
g61
(dp213
sg70
g66
sg63
(lp214
g56
(g77
g58
NtRp215
(dp216
g61
(dp217
g81
g82
ssg70
g211
sg63
(lp218
S'body'
p219
asbag56
(g77
g58
NtRp220
(dp221
g61
(dp222
g88
g89
ssg70
g211
sg63
(lp223
S':'
asbag56
(g77
g58
NtRp224
(dp225
g61
(dp226
sg70
g211
sg63
(lp227
g56
(g57
g58
NtRp228
(dp229
g61
(dp230
g69
I5
ssg70
g224
sg63
(lp231
S'<cStringIO.StringO object at 0x3a3d260>'
p232
asbasbasbag56
(g72
g58
NtRp233
(dp234
g61
(dp235
sg70
g66
sg63
(lp236
g56
(g77
g58
NtRp237
(dp238
g61
(dp239
g81
g82
ssg70
g233
sg63
(lp240
S'cid'
p241
asbag56
(g77
g58
NtRp242
(dp243
g61
(dp244
g88
g89
ssg70
g233
sg63
(lp245
S':'
asbag56
(g77
g58
NtRp246
(dp247
g61
(dp248
sg70
g233
sg63
(lp249
g56
(g57
g58
NtRp250
(dp251
g61
(dp252
g69
I5
ssg70
g246
sg63
(lp253
S'notes_author_loader'
p254
asbasbasbag56
(g72
g58
NtRp255
(dp256
g61
(dp257
sg70
g66
sg63
(lp258
g56
(g77
g58
NtRp259
(dp260
g61
(dp261
g81
g82
ssg70
g255
sg63
(lp262
S'client'
p263
asbag56
(g77
g58
NtRp264
(dp265
g61
(dp266
g88
g89
ssg70
g255
sg63
(lp267
S':'
asbag56
(g77
g58
NtRp268
(dp269
g61
(dp270
sg70
g255
sg63
(lp271
g56
(g57
g58
NtRp272
(dp273
g61
(dp274
g69
I5
ssg70
g268
sg63
(lp275
S'127.0.0.1'
p276
asbasbasbag56
(g72
g58
NtRp277
(dp278
g61
(dp279
sg70
g66
sg63
(lp280
g56
(g77
g58
NtRp281
(dp282
g61
(dp283
g81
g82
ssg70
g277
sg63
(lp284
S'controller'
p285
asbag56
(g77
g58
NtRp286
(dp287
g61
(dp288
g88
g89
ssg70
g277
sg63
(lp289
S':'
asbag56
(g77
g58
NtRp290
(dp291
g61
(dp292
sg70
g277
sg63
(lp293
g56
(g57
g58
NtRp294
(dp295
g61
(dp296
g69
I5
ssg70
g290
sg63
(lp297
S'plugin_ajaxselect'
p298
asbasbasbag56
(g72
g58
NtRp299
(dp300
g61
(dp301
sg70
g66
sg63
(lp302
g56
(g77
g58
NtRp303
(dp304
g61
(dp305
g81
g82
ssg70
g299
sg63
(lp306
S'cookies'
p307
asbag56
(g77
g58
NtRp308
(dp309
g61
(dp310
g88
g89
ssg70
g299
sg63
(lp311
S':'
asbag56
(g77
g58
NtRp312
(dp313
g61
(dp314
sg70
g299
sg63
(lp315
g56
(g57
g58
NtRp316
(dp317
g61
(dp318
g69
I5
ssg70
g312
sg63
(lp319
g56
(g65
g58
NtRp320
(dp321
g61
(dp322
g69
I4
ssg70
Nsg63
(lp323
g56
(g72
g58
NtRp324
(dp325
g61
(dp326
sg70
g320
sg63
(lp327
g56
(g77
g58
NtRp328
(dp329
g61
(dp330
g81
g82
ssg70
g324
sg63
(lp331
S'session_id_admin'
p332
asbag56
(g77
g58
NtRp333
(dp334
g61
(dp335
g88
g89
ssg70
g324
sg63
(lp336
S':'
asbag56
(g77
g58
NtRp337
(dp338
g61
(dp339
sg70
g324
sg63
(lp340
g56
(g57
g58
NtRp341
(dp342
g61
(dp343
g69
I4
ssg70
g337
sg63
(lp344
g56
(g65
g58
NtRp345
(dp346
g61
(dp347
g69
I3
ssg70
Nsg63
(lp348
g56
(g72
g58
NtRp349
(dp350
g61
(dp351
sg70
g345
sg63
(lp352
g56
(g77
g58
NtRp353
(dp354
g61
(dp355
g81
g82
ssg70
g349
sg63
(lp356
S'comment'
p357
asbag56
(g77
g58
NtRp358
(dp359
g61
(dp360
g88
g89
ssg70
g349
sg63
(lp361
S':'
asbag56
(g77
g58
NtRp362
(dp363
g61
(dp364
sg70
g349
sg63
(lp365
g56
(g57
g58
NtRp366
(dp367
g61
(dp368
g69
I3
ssg70
g362
sg63
(lp369
S''
asbasbasbag56
(g72
g58
NtRp370
(dp371
g61
(dp372
sg70
g345
sg63
(lp373
g56
(g77
g58
NtRp374
(dp375
g61
(dp376
g81
g82
ssg70
g370
sg63
(lp377
S'domain'
p378
asbag56
(g77
g58
NtRp379
(dp380
g61
(dp381
g88
g89
ssg70
g370
sg63
(lp382
S':'
asbag56
(g77
g58
NtRp383
(dp384
g61
(dp385
sg70
g370
sg63
(lp386
g56
(g57
g58
NtRp387
(dp388
g61
(dp389
g69
I3
ssg70
g383
sg63
(lp390
S''
asbasbasbag56
(g72
g58
NtRp391
(dp392
g61
(dp393
sg70
g345
sg63
(lp394
g56
(g77
g58
NtRp395
(dp396
g61
(dp397
g81
g82
ssg70
g391
sg63
(lp398
S'expires'
p399
asbag56
(g77
g58
NtRp400
(dp401
g61
(dp402
g88
g89
ssg70
g391
sg63
(lp403
S':'
asbag56
(g77
g58
NtRp404
(dp405
g61
(dp406
sg70
g391
sg63
(lp407
g56
(g57
g58
NtRp408
(dp409
g61
(dp410
g69
I3
ssg70
g404
sg63
(lp411
S''
asbasbasbag56
(g72
g58
NtRp412
(dp413
g61
(dp414
sg70
g345
sg63
(lp415
g56
(g77
g58
NtRp416
(dp417
g61
(dp418
g81
g82
ssg70
g412
sg63
(lp419
S'httponly'
p420
asbag56
(g77
g58
NtRp421
(dp422
g61
(dp423
g88
g89
ssg70
g412
sg63
(lp424
S':'
asbag56
(g77
g58
NtRp425
(dp426
g61
(dp427
sg70
g412
sg63
(lp428
g56
(g57
g58
NtRp429
(dp430
g61
(dp431
g69
I3
ssg70
g425
sg63
(lp432
S''
asbasbasbag56
(g72
g58
NtRp433
(dp434
g61
(dp435
sg70
g345
sg63
(lp436
g56
(g77
g58
NtRp437
(dp438
g61
(dp439
g81
g82
ssg70
g433
sg63
(lp440
S'max-age'
p441
asbag56
(g77
g58
NtRp442
(dp443
g61
(dp444
g88
g89
ssg70
g433
sg63
(lp445
S':'
asbag56
(g77
g58
NtRp446
(dp447
g61
(dp448
sg70
g433
sg63
(lp449
g56
(g57
g58
NtRp450
(dp451
g61
(dp452
g69
I3
ssg70
g446
sg63
(lp453
S''
asbasbasbag56
(g72
g58
NtRp454
(dp455
g61
(dp456
sg70
g345
sg63
(lp457
g56
(g77
g58
NtRp458
(dp459
g61
(dp460
g81
g82
ssg70
g454
sg63
(lp461
S'path'
p462
asbag56
(g77
g58
NtRp463
(dp464
g61
(dp465
g88
g89
ssg70
g454
sg63
(lp466
S':'
asbag56
(g77
g58
NtRp467
(dp468
g61
(dp469
sg70
g454
sg63
(lp470
g56
(g57
g58
NtRp471
(dp472
g61
(dp473
g69
I3
ssg70
g467
sg63
(lp474
S''
asbasbasbag56
(g72
g58
NtRp475
(dp476
g61
(dp477
sg70
g345
sg63
(lp478
g56
(g77
g58
NtRp479
(dp480
g61
(dp481
g81
g82
ssg70
g475
sg63
(lp482
S'secure'
p483
asbag56
(g77
g58
NtRp484
(dp485
g61
(dp486
g88
g89
ssg70
g475
sg63
(lp487
S':'
asbag56
(g77
g58
NtRp488
(dp489
g61
(dp490
sg70
g475
sg63
(lp491
g56
(g57
g58
NtRp492
(dp493
g61
(dp494
g69
I3
ssg70
g488
sg63
(lp495
S''
asbasbasbag56
(g72
g58
NtRp496
(dp497
g61
(dp498
sg70
g345
sg63
(lp499
g56
(g77
g58
NtRp500
(dp501
g61
(dp502
g81
g82
ssg70
g496
sg63
(lp503
S'version'
p504
asbag56
(g77
g58
NtRp505
(dp506
g61
(dp507
g88
g89
ssg70
g496
sg63
(lp508
S':'
asbag56
(g77
g58
NtRp509
(dp510
g61
(dp511
sg70
g496
sg63
(lp512
g56
(g57
g58
NtRp513
(dp514
g61
(dp515
g69
I3
ssg70
g509
sg63
(lp516
S''
asbasbasbasbasbasbasbag56
(g72
g58
NtRp517
(dp518
g61
(dp519
sg70
g320
sg63
(lp520
g56
(g77
g58
NtRp521
(dp522
g61
(dp523
g81
g82
ssg70
g517
sg63
(lp524
S'session_id_topoi'
p525
asbag56
(g77
g58
NtRp526
(dp527
g61
(dp528
g88
g89
ssg70
g517
sg63
(lp529
S':'
asbag56
(g77
g58
NtRp530
(dp531
g61
(dp532
sg70
g517
sg63
(lp533
g56
(g57
g58
NtRp534
(dp535
g61
(dp536
g69
I4
ssg70
g530
sg63
(lp537
g56
(g65
g58
NtRp538
(dp539
g61
(dp540
g69
I3
ssg70
Nsg63
(lp541
g56
(g72
g58
NtRp542
(dp543
g61
(dp544
sg70
g538
sg63
(lp545
g56
(g77
g58
NtRp546
(dp547
g61
(dp548
g81
g82
ssg70
g542
sg63
(lp549
g357
asbag56
(g77
g58
NtRp550
(dp551
g61
(dp552
g88
g89
ssg70
g542
sg63
(lp553
S':'
asbag56
(g77
g58
NtRp554
(dp555
g61
(dp556
sg70
g542
sg63
(lp557
g56
(g57
g58
NtRp558
(dp559
g61
(dp560
g69
I3
ssg70
g554
sg63
(lp561
S''
asbasbasbag56
(g72
g58
NtRp562
(dp563
g61
(dp564
sg70
g538
sg63
(lp565
g56
(g77
g58
NtRp566
(dp567
g61
(dp568
g81
g82
ssg70
g562
sg63
(lp569
g378
asbag56
(g77
g58
NtRp570
(dp571
g61
(dp572
g88
g89
ssg70
g562
sg63
(lp573
S':'
asbag56
(g77
g58
NtRp574
(dp575
g61
(dp576
sg70
g562
sg63
(lp577
g56
(g57
g58
NtRp578
(dp579
g61
(dp580
g69
I3
ssg70
g574
sg63
(lp581
S''
asbasbasbag56
(g72
g58
NtRp582
(dp583
g61
(dp584
sg70
g538
sg63
(lp585
g56
(g77
g58
NtRp586
(dp587
g61
(dp588
g81
g82
ssg70
g582
sg63
(lp589
g399
asbag56
(g77
g58
NtRp590
(dp591
g61
(dp592
g88
g89
ssg70
g582
sg63
(lp593
S':'
asbag56
(g77
g58
NtRp594
(dp595
g61
(dp596
sg70
g582
sg63
(lp597
g56
(g57
g58
NtRp598
(dp599
g61
(dp600
g69
I3
ssg70
g594
sg63
(lp601
S''
asbasbasbag56
(g72
g58
NtRp602
(dp603
g61
(dp604
sg70
g538
sg63
(lp605
g56
(g77
g58
NtRp606
(dp607
g61
(dp608
g81
g82
ssg70
g602
sg63
(lp609
g420
asbag56
(g77
g58
NtRp610
(dp611
g61
(dp612
g88
g89
ssg70
g602
sg63
(lp613
S':'
asbag56
(g77
g58
NtRp614
(dp615
g61
(dp616
sg70
g602
sg63
(lp617
g56
(g57
g58
NtRp618
(dp619
g61
(dp620
g69
I3
ssg70
g614
sg63
(lp621
S''
asbasbasbag56
(g72
g58
NtRp622
(dp623
g61
(dp624
sg70
g538
sg63
(lp625
g56
(g77
g58
NtRp626
(dp627
g61
(dp628
g81
g82
ssg70
g622
sg63
(lp629
g441
asbag56
(g77
g58
NtRp630
(dp631
g61
(dp632
g88
g89
ssg70
g622
sg63
(lp633
S':'
asbag56
(g77
g58
NtRp634
(dp635
g61
(dp636
sg70
g622
sg63
(lp637
g56
(g57
g58
NtRp638
(dp639
g61
(dp640
g69
I3
ssg70
g634
sg63
(lp641
S''
asbasbasbag56
(g72
g58
NtRp642
(dp643
g61
(dp644
sg70
g538
sg63
(lp645
g56
(g77
g58
NtRp646
(dp647
g61
(dp648
g81
g82
ssg70
g642
sg63
(lp649
g462
asbag56
(g77
g58
NtRp650
(dp651
g61
(dp652
g88
g89
ssg70
g642
sg63
(lp653
S':'
asbag56
(g77
g58
NtRp654
(dp655
g61
(dp656
sg70
g642
sg63
(lp657
g56
(g57
g58
NtRp658
(dp659
g61
(dp660
g69
I3
ssg70
g654
sg63
(lp661
S''
asbasbasbag56
(g72
g58
NtRp662
(dp663
g61
(dp664
sg70
g538
sg63
(lp665
g56
(g77
g58
NtRp666
(dp667
g61
(dp668
g81
g82
ssg70
g662
sg63
(lp669
g483
asbag56
(g77
g58
NtRp670
(dp671
g61
(dp672
g88
g89
ssg70
g662
sg63
(lp673
S':'
asbag56
(g77
g58
NtRp674
(dp675
g61
(dp676
sg70
g662
sg63
(lp677
g56
(g57
g58
NtRp678
(dp679
g61
(dp680
g69
I3
ssg70
g674
sg63
(lp681
S''
asbasbasbag56
(g72
g58
NtRp682
(dp683
g61
(dp684
sg70
g538
sg63
(lp685
g56
(g77
g58
NtRp686
(dp687
g61
(dp688
g81
g82
ssg70
g682
sg63
(lp689
g504
asbag56
(g77
g58
NtRp690
(dp691
g61
(dp692
g88
g89
ssg70
g682
sg63
(lp693
S':'
asbag56
(g77
g58
NtRp694
(dp695
g61
(dp696
sg70
g682
sg63
(lp697
g56
(g57
g58
NtRp698
(dp699
g61
(dp700
g69
I3
ssg70
g694
sg63
(lp701
S''
asbasbasbasbasbasbasbasbasbasbasbag56
(g72
g58
NtRp702
(dp703
g61
(dp704
sg70
g66
sg63
(lp705
g56
(g77
g58
NtRp706
(dp707
g61
(dp708
g81
g82
ssg70
g702
sg63
(lp709
S'env'
p710
asbag56
(g77
g58
NtRp711
(dp712
g61
(dp713
g88
g89
ssg70
g702
sg63
(lp714
S':'
asbag56
(g77
g58
NtRp715
(dp716
g61
(dp717
sg70
g702
sg63
(lp718
g56
(g57
g58
NtRp719
(dp720
g61
(dp721
g69
I5
ssg70
g715
sg63
(lp722
g56
(g65
g58
NtRp723
(dp724
g61
(dp725
g69
I4
ssg70
Nsg63
(lp726
g56
(g72
g58
NtRp727
(dp728
g61
(dp729
sg70
g723
sg63
(lp730
g56
(g77
g58
NtRp731
(dp732
g61
(dp733
g81
g82
ssg70
g727
sg63
(lp734
S'app_folders'
p735
asbag56
(g77
g58
NtRp736
(dp737
g61
(dp738
g88
g89
ssg70
g727
sg63
(lp739
S':'
asbag56
(g77
g58
NtRp740
(dp741
g61
(dp742
sg70
g727
sg63
(lp743
g56
(g57
g58
NtRp744
(dp745
g61
(dp746
g69
I4
ssg70
g740
sg63
(lp747
S"set(['/home/ian/web2py/applications/topoi/', '/home/ian/web2py/applications/admin/'])"
p748
asbasbasbag56
(g72
g58
NtRp749
(dp750
g61
(dp751
sg70
g723
sg63
(lp752
g56
(g77
g58
NtRp753
(dp754
g61
(dp755
g81
g82
ssg70
g749
sg63
(lp756
S'applications_parent'
p757
asbag56
(g77
g58
NtRp758
(dp759
g61
(dp760
g88
g89
ssg70
g749
sg63
(lp761
S':'
asbag56
(g77
g58
NtRp762
(dp763
g61
(dp764
sg70
g749
sg63
(lp765
g56
(g57
g58
NtRp766
(dp767
g61
(dp768
g69
I4
ssg70
g762
sg63
(lp769
S'/home/ian/web2py'
p770
asbasbasbag56
(g72
g58
NtRp771
(dp772
g61
(dp773
sg70
g723
sg63
(lp774
g56
(g77
g58
NtRp775
(dp776
g61
(dp777
g81
g82
ssg70
g771
sg63
(lp778
S'cmd_args'
p779
asbag56
(g77
g58
NtRp780
(dp781
g61
(dp782
g88
g89
ssg70
g771
sg63
(lp783
S':'
asbag56
(g77
g58
NtRp784
(dp785
g61
(dp786
sg70
g771
sg63
(lp787
g56
(g57
g58
NtRp788
(dp789
g61
(dp790
g69
I4
ssg70
g784
sg63
(lp791
g56
(g65
g58
NtRp792
(dp793
g61
(dp794
g69
I3
ssg70
Nsg63
(lp795
sbasbasbasbag56
(g72
g58
NtRp796
(dp797
g61
(dp798
sg70
g723
sg63
(lp799
g56
(g77
g58
NtRp800
(dp801
g61
(dp802
g81
g82
ssg70
g796
sg63
(lp803
S'cmd_options'
p804
asbag56
(g77
g58
NtRp805
(dp806
g61
(dp807
g88
g89
ssg70
g796
sg63
(lp808
S':'
asbag56
(g77
g58
NtRp809
(dp810
g61
(dp811
sg70
g796
sg63
(lp812
g56
(g57
g58
NtRp813
(dp814
g61
(dp815
g69
I4
ssg70
g809
sg63
(lp816
S"<Values at 0x2c53758: {'verbose': False, 'ip': '127.0.0.1', 'shutdown_timeout': 5, 'taskbar': False, 'nocron': False, 'pid_filename': 'httpserver.pid', 'maxthreads': None, 'softcron': False, 'server_name': 'uriel', 'bpython': False, 'nogui': False, 'port': 8000, 'extcron': False, 'debuglevel': 30, 'test': None, 'folder': '/home/ian/web2py', 'config': '', 'import_models': False, 'winservice': '', 'shell': None, 'run': '', 'log_filename': 'httpserver.log', 'args': [''], 'ssl_ca_certificate': None, 'scheduler': None, 'profiler_filename': None, 'ssl_private_key': '', 'password': '<ask>', 'request_queue_size': 5, 'ssl_certificate': '', 'cronjob': False, 'plain': False, 'quiet': False, 'interfaces': None, 'minthreads': None, 'timeout': 10, 'numthreads': None, 'nobanner': False}>"
p817
asbasbasbag56
(g72
g58
NtRp818
(dp819
g61
(dp820
sg70
g723
sg63
(lp821
g56
(g77
g58
NtRp822
(dp823
g61
(dp824
g81
g82
ssg70
g818
sg63
(lp825
S'db_sessions'
p826
asbag56
(g77
g58
NtRp827
(dp828
g61
(dp829
g88
g89
ssg70
g818
sg63
(lp830
S':'
asbag56
(g77
g58
NtRp831
(dp832
g61
(dp833
sg70
g818
sg63
(lp834
g56
(g57
g58
NtRp835
(dp836
g61
(dp837
g69
I4
ssg70
g831
sg63
(lp838
S'set([])'
p839
asbasbasbag56
(g72
g58
NtRp840
(dp841
g61
(dp842
sg70
g723
sg63
(lp843
g56
(g77
g58
NtRp844
(dp845
g61
(dp846
g81
g82
ssg70
g840
sg63
(lp847
S'debugging'
p848
asbag56
(g77
g58
NtRp849
(dp850
g61
(dp851
g88
g89
ssg70
g840
sg63
(lp852
S':'
asbag56
(g77
g58
NtRp853
(dp854
g61
(dp855
sg70
g840
sg63
(lp856
g56
(g57
g58
NtRp857
(dp858
g61
(dp859
g69
I4
ssg70
g853
sg63
(lp860
S'False'
p861
asbasbasbag56
(g72
g58
NtRp862
(dp863
g61
(dp864
sg70
g723
sg63
(lp865
g56
(g77
g58
NtRp866
(dp867
g61
(dp868
g81
g82
ssg70
g862
sg63
(lp869
S'gluon_parent'
p870
asbag56
(g77
g58
NtRp871
(dp872
g61
(dp873
g88
g89
ssg70
g862
sg63
(lp874
S':'
asbag56
(g77
g58
NtRp875
(dp876
g61
(dp877
sg70
g862
sg63
(lp878
g56
(g57
g58
NtRp879
(dp880
g61
(dp881
g69
I4
ssg70
g875
sg63
(lp882
S'/home/ian/web2py'
p883
asbasbasbag56
(g72
g58
NtRp884
(dp885
g61
(dp886
sg70
g723
sg63
(lp887
g56
(g77
g58
NtRp888
(dp889
g61
(dp890
g81
g82
ssg70
g884
sg63
(lp891
S'http_accept'
p892
asbag56
(g77
g58
NtRp893
(dp894
g61
(dp895
g88
g89
ssg70
g884
sg63
(lp896
S':'
asbag56
(g77
g58
NtRp897
(dp898
g61
(dp899
sg70
g884
sg63
(lp900
g56
(g57
g58
NtRp901
(dp902
g61
(dp903
g69
I4
ssg70
g897
sg63
(lp904
S'*/*'
p905
asbasbasbag56
(g72
g58
NtRp906
(dp907
g61
(dp908
sg70
g723
sg63
(lp909
g56
(g77
g58
NtRp910
(dp911
g61
(dp912
g81
g82
ssg70
g906
sg63
(lp913
S'http_accept_charset'
p914
asbag56
(g77
g58
NtRp915
(dp916
g61
(dp917
g88
g89
ssg70
g906
sg63
(lp918
S':'
asbag56
(g77
g58
NtRp919
(dp920
g61
(dp921
sg70
g906
sg63
(lp922
g56
(g57
g58
NtRp923
(dp924
g61
(dp925
g69
I4
ssg70
g919
sg63
(lp926
S'UTF-8,*'
p927
asbasbasbag56
(g72
g58
NtRp928
(dp929
g61
(dp930
sg70
g723
sg63
(lp931
g56
(g77
g58
NtRp932
(dp933
g61
(dp934
g81
g82
ssg70
g928
sg63
(lp935
S'http_accept_encoding'
p936
asbag56
(g77
g58
NtRp937
(dp938
g61
(dp939
g88
g89
ssg70
g928
sg63
(lp940
S':'
asbag56
(g77
g58
NtRp941
(dp942
g61
(dp943
sg70
g928
sg63
(lp944
g56
(g57
g58
NtRp945
(dp946
g61
(dp947
g69
I4
ssg70
g941
sg63
(lp948
S'gzip, deflate'
p949
asbasbasbag56
(g72
g58
NtRp950
(dp951
g61
(dp952
sg70
g723
sg63
(lp953
g56
(g77
g58
NtRp954
(dp955
g61
(dp956
g81
g82
ssg70
g950
sg63
(lp957
S'http_accept_language'
p958
asbag56
(g77
g58
NtRp959
(dp960
g61
(dp961
g88
g89
ssg70
g950
sg63
(lp962
S':'
asbag56
(g77
g58
NtRp963
(dp964
g61
(dp965
sg70
g950
sg63
(lp966
g56
(g57
g58
NtRp967
(dp968
g61
(dp969
g69
I4
ssg70
g963
sg63
(lp970
S'en-us,en;q=0.5'
p971
asbasbasbag56
(g72
g58
NtRp972
(dp973
g61
(dp974
sg70
g723
sg63
(lp975
g56
(g77
g58
NtRp976
(dp977
g61
(dp978
g81
g82
ssg70
g972
sg63
(lp979
S'http_connection'
p980
asbag56
(g77
g58
NtRp981
(dp982
g61
(dp983
g88
g89
ssg70
g972
sg63
(lp984
S':'
asbag56
(g77
g58
NtRp985
(dp986
g61
(dp987
sg70
g972
sg63
(lp988
g56
(g57
g58
NtRp989
(dp990
g61
(dp991
g69
I4
ssg70
g985
sg63
(lp992
S'keep-alive'
p993
asbasbasbag56
(g72
g58
NtRp994
(dp995
g61
(dp996
sg70
g723
sg63
(lp997
g56
(g77
g58
NtRp998
(dp999
g61
(dp1000
g81
g82
ssg70
g994
sg63
(lp1001
S'http_cookie'
p1002
asbag56
(g77
g58
NtRp1003
(dp1004
g61
(dp1005
g88
g89
ssg70
g994
sg63
(lp1006
S':'
asbag56
(g77
g58
NtRp1007
(dp1008
g61
(dp1009
sg70
g994
sg63
(lp1010
g56
(g57
g58
NtRp1011
(dp1012
g61
(dp1013
g69
I4
ssg70
g1007
sg63
(lp1014
S'session_id_topoi=127.0.0.1-fbfd7fa3-57f5-4d42-8f08-594178070e93; session_id_admin=127.0.0.1-d7c37b6e-5c02-4001-ac4d-6ba36c6ca1e8'
p1015
asbasbasbag56
(g72
g58
NtRp1016
(dp1017
g61
(dp1018
sg70
g723
sg63
(lp1019
g56
(g77
g58
NtRp1020
(dp1021
g61
(dp1022
g81
g82
ssg70
g1016
sg63
(lp1023
S'http_host'
p1024
asbag56
(g77
g58
NtRp1025
(dp1026
g61
(dp1027
g88
g89
ssg70
g1016
sg63
(lp1028
S':'
asbag56
(g77
g58
NtRp1029
(dp1030
g61
(dp1031
sg70
g1016
sg63
(lp1032
g56
(g57
g58
NtRp1033
(dp1034
g61
(dp1035
g69
I4
ssg70
g1029
sg63
(lp1036
S'127.0.0.1:8000'
p1037
asbasbasbag56
(g72
g58
NtRp1038
(dp1039
g61
(dp1040
sg70
g723
sg63
(lp1041
g56
(g77
g58
NtRp1042
(dp1043
g61
(dp1044
g81
g82
ssg70
g1038
sg63
(lp1045
S'http_referer'
p1046
asbag56
(g77
g58
NtRp1047
(dp1048
g61
(dp1049
g88
g89
ssg70
g1038
sg63
(lp1050
S':'
asbag56
(g77
g58
NtRp1051
(dp1052
g61
(dp1053
sg70
g1038
sg63
(lp1054
g56
(g57
g58
NtRp1055
(dp1056
g61
(dp1057
g69
I4
ssg70
g1051
sg63
(lp1058
S'http://127.0.0.1:8000/topoi/plugin_listandedit/list/notes/1?fields=author&fields=work&fields=reference'
p1059
asbasbasbag56
(g72
g58
NtRp1060
(dp1061
g61
(dp1062
sg70
g723
sg63
(lp1063
g56
(g77
g58
NtRp1064
(dp1065
g61
(dp1066
g81
g82
ssg70
g1060
sg63
(lp1067
S'http_user_agent'
p1068
asbag56
(g77
g58
NtRp1069
(dp1070
g61
(dp1071
g88
g89
ssg70
g1060
sg63
(lp1072
S':'
asbag56
(g77
g58
NtRp1073
(dp1074
g61
(dp1075
sg70
g1060
sg63
(lp1076
g56
(g57
g58
NtRp1077
(dp1078
g61
(dp1079
g69
I4
ssg70
g1073
sg63
(lp1080
S'Mozilla/5.0 (Ubuntu; X11; Linux x86_64; rv:8.0) Gecko/20100101 Firefox/8.0'
p1081
asbasbasbag56
(g72
g58
NtRp1082
(dp1083
g61
(dp1084
sg70
g723
sg63
(lp1085
g56
(g77
g58
NtRp1086
(dp1087
g61
(dp1088
g81
g82
ssg70
g1082
sg63
(lp1089
S'http_web2py_component_element'
p1090
asbag56
(g77
g58
NtRp1091
(dp1092
g61
(dp1093
g88
g89
ssg70
g1082
sg63
(lp1094
S':'
asbag56
(g77
g58
NtRp1095
(dp1096
g61
(dp1097
sg70
g1082
sg63
(lp1098
g56
(g57
g58
NtRp1099
(dp1100
g61
(dp1101
g69
I4
ssg70
g1095
sg63
(lp1102
g254
asbasbasbag56
(g72
g58
NtRp1103
(dp1104
g61
(dp1105
sg70
g723
sg63
(lp1106
g56
(g77
g58
NtRp1107
(dp1108
g61
(dp1109
g81
g82
ssg70
g1103
sg63
(lp1110
S'http_web2py_component_location'
p1111
asbag56
(g77
g58
NtRp1112
(dp1113
g61
(dp1114
g88
g89
ssg70
g1103
sg63
(lp1115
S':'
asbag56
(g77
g58
NtRp1116
(dp1117
g61
(dp1118
sg70
g1103
sg63
(lp1119
g56
(g57
g58
NtRp1120
(dp1121
g61
(dp1122
g69
I4
ssg70
g1116
sg63
(lp1123
S'http://127.0.0.1:8000/topoi/plugin_listandedit/list/notes/1?fields=author&fields=work&fields=reference'
p1124
asbasbasbag56
(g72
g58
NtRp1125
(dp1126
g61
(dp1127
sg70
g723
sg63
(lp1128
g56
(g77
g58
NtRp1129
(dp1130
g61
(dp1131
g81
g82
ssg70
g1125
sg63
(lp1132
S'http_x_requested_with'
p1133
asbag56
(g77
g58
NtRp1134
(dp1135
g61
(dp1136
g88
g89
ssg70
g1125
sg63
(lp1137
S':'
asbag56
(g77
g58
NtRp1138
(dp1139
g61
(dp1140
sg70
g1125
sg63
(lp1141
g56
(g57
g58
NtRp1142
(dp1143
g61
(dp1144
g69
I4
ssg70
g1138
sg63
(lp1145
S'XMLHttpRequest'
p1146
asbasbasbag56
(g72
g58
NtRp1147
(dp1148
g61
(dp1149
sg70
g723
sg63
(lp1150
g56
(g77
g58
NtRp1151
(dp1152
g61
(dp1153
g81
g82
ssg70
g1147
sg63
(lp1154
S'is_jython'
p1155
asbag56
(g77
g58
NtRp1156
(dp1157
g61
(dp1158
g88
g89
ssg70
g1147
sg63
(lp1159
S':'
asbag56
(g77
g58
NtRp1160
(dp1161
g61
(dp1162
sg70
g1147
sg63
(lp1163
g56
(g57
g58
NtRp1164
(dp1165
g61
(dp1166
g69
I4
ssg70
g1160
sg63
(lp1167
g861
asbasbasbag56
(g72
g58
NtRp1168
(dp1169
g61
(dp1170
sg70
g723
sg63
(lp1171
g56
(g77
g58
NtRp1172
(dp1173
g61
(dp1174
g81
g82
ssg70
g1168
sg63
(lp1175
S'path_info'
p1176
asbag56
(g77
g58
NtRp1177
(dp1178
g61
(dp1179
g88
g89
ssg70
g1168
sg63
(lp1180
S':'
asbag56
(g77
g58
NtRp1181
(dp1182
g61
(dp1183
sg70
g1168
sg63
(lp1184
g56
(g57
g58
NtRp1185
(dp1186
g61
(dp1187
g69
I4
ssg70
g1181
sg63
(lp1188
S'/topoi/plugin_ajaxselect/set_widget.load/notes/author/10/authors/notes_author_loader'
p1189
asbasbasbag56
(g72
g58
NtRp1190
(dp1191
g61
(dp1192
sg70
g723
sg63
(lp1193
g56
(g77
g58
NtRp1194
(dp1195
g61
(dp1196
g81
g82
ssg70
g1190
sg63
(lp1197
S'query_string'
p1198
asbag56
(g77
g58
NtRp1199
(dp1200
g61
(dp1201
g88
g89
ssg70
g1190
sg63
(lp1202
S':'
asbag56
(g77
g58
NtRp1203
(dp1204
g61
(dp1205
sg70
g1190
sg63
(lp1206
g56
(g57
g58
NtRp1207
(dp1208
g61
(dp1209
g69
I4
ssg70
g1203
sg63
(lp1210
S''
asbasbasbag56
(g72
g58
NtRp1211
(dp1212
g61
(dp1213
sg70
g723
sg63
(lp1214
g56
(g77
g58
NtRp1215
(dp1216
g61
(dp1217
g81
g82
ssg70
g1211
sg63
(lp1218
S'remote_addr'
p1219
asbag56
(g77
g58
NtRp1220
(dp1221
g61
(dp1222
g88
g89
ssg70
g1211
sg63
(lp1223
S':'
asbag56
(g77
g58
NtRp1224
(dp1225
g61
(dp1226
sg70
g1211
sg63
(lp1227
g56
(g57
g58
NtRp1228
(dp1229
g61
(dp1230
g69
I4
ssg70
g1224
sg63
(lp1231
g276
asbasbasbag56
(g72
g58
NtRp1232
(dp1233
g61
(dp1234
sg70
g723
sg63
(lp1235
g56
(g77
g58
NtRp1236
(dp1237
g61
(dp1238
g81
g82
ssg70
g1232
sg63
(lp1239
S'remote_port'
p1240
asbag56
(g77
g58
NtRp1241
(dp1242
g61
(dp1243
g88
g89
ssg70
g1232
sg63
(lp1244
S':'
asbag56
(g77
g58
NtRp1245
(dp1246
g61
(dp1247
sg70
g1232
sg63
(lp1248
g56
(g57
g58
NtRp1249
(dp1250
g61
(dp1251
g69
I4
ssg70
g1245
sg63
(lp1252
S'56300'
p1253
asbasbasbag56
(g72
g58
NtRp1254
(dp1255
g61
(dp1256
sg70
g723
sg63
(lp1257
g56
(g77
g58
NtRp1258
(dp1259
g61
(dp1260
g81
g82
ssg70
g1254
sg63
(lp1261
S'request_method'
p1262
asbag56
(g77
g58
NtRp1263
(dp1264
g61
(dp1265
g88
g89
ssg70
g1254
sg63
(lp1266
S':'
asbag56
(g77
g58
NtRp1267
(dp1268
g61
(dp1269
sg70
g1254
sg63
(lp1270
g56
(g57
g58
NtRp1271
(dp1272
g61
(dp1273
g69
I4
ssg70
g1267
sg63
(lp1274
S'GET'
p1275
asbasbasbag56
(g72
g58
NtRp1276
(dp1277
g61
(dp1278
sg70
g723
sg63
(lp1279
g56
(g77
g58
NtRp1280
(dp1281
g61
(dp1282
g81
g82
ssg70
g1276
sg63
(lp1283
S'script_name'
p1284
asbag56
(g77
g58
NtRp1285
(dp1286
g61
(dp1287
g88
g89
ssg70
g1276
sg63
(lp1288
S':'
asbag56
(g77
g58
NtRp1289
(dp1290
g61
(dp1291
sg70
g1276
sg63
(lp1292
g56
(g57
g58
NtRp1293
(dp1294
g61
(dp1295
g69
I4
ssg70
g1289
sg63
(lp1296
S''
asbasbasbag56
(g72
g58
NtRp1297
(dp1298
g61
(dp1299
sg70
g723
sg63
(lp1300
g56
(g77
g58
NtRp1301
(dp1302
g61
(dp1303
g81
g82
ssg70
g1297
sg63
(lp1304
S'server_name'
p1305
asbag56
(g77
g58
NtRp1306
(dp1307
g61
(dp1308
g88
g89
ssg70
g1297
sg63
(lp1309
S':'
asbag56
(g77
g58
NtRp1310
(dp1311
g61
(dp1312
sg70
g1297
sg63
(lp1313
g56
(g57
g58
NtRp1314
(dp1315
g61
(dp1316
g69
I4
ssg70
g1310
sg63
(lp1317
S'uriel'
p1318
asbasbasbag56
(g72
g58
NtRp1319
(dp1320
g61
(dp1321
sg70
g723
sg63
(lp1322
g56
(g77
g58
NtRp1323
(dp1324
g61
(dp1325
g81
g82
ssg70
g1319
sg63
(lp1326
S'server_port'
p1327
asbag56
(g77
g58
NtRp1328
(dp1329
g61
(dp1330
g88
g89
ssg70
g1319
sg63
(lp1331
S':'
asbag56
(g77
g58
NtRp1332
(dp1333
g61
(dp1334
sg70
g1319
sg63
(lp1335
g56
(g57
g58
NtRp1336
(dp1337
g61
(dp1338
g69
I4
ssg70
g1332
sg63
(lp1339
S'8000'
p1340
asbasbasbag56
(g72
g58
NtRp1341
(dp1342
g61
(dp1343
sg70
g723
sg63
(lp1344
g56
(g77
g58
NtRp1345
(dp1346
g61
(dp1347
g81
g82
ssg70
g1341
sg63
(lp1348
S'server_protocol'
p1349
asbag56
(g77
g58
NtRp1350
(dp1351
g61
(dp1352
g88
g89
ssg70
g1341
sg63
(lp1353
S':'
asbag56
(g77
g58
NtRp1354
(dp1355
g61
(dp1356
sg70
g1341
sg63
(lp1357
g56
(g57
g58
NtRp1358
(dp1359
g61
(dp1360
g69
I4
ssg70
g1354
sg63
(lp1361
S'HTTP/1.1'
p1362
asbasbasbag56
(g72
g58
NtRp1363
(dp1364
g61
(dp1365
sg70
g723
sg63
(lp1366
g56
(g77
g58
NtRp1367
(dp1368
g61
(dp1369
g81
g82
ssg70
g1363
sg63
(lp1370
S'server_software'
p1371
asbag56
(g77
g58
NtRp1372
(dp1373
g61
(dp1374
g88
g89
ssg70
g1363
sg63
(lp1375
S':'
asbag56
(g77
g58
NtRp1376
(dp1377
g61
(dp1378
sg70
g1363
sg63
(lp1379
g56
(g57
g58
NtRp1380
(dp1381
g61
(dp1382
g69
I4
ssg70
g1376
sg63
(lp1383
S'Rocket 1.2.4'
p1384
asbasbasbag56
(g72
g58
NtRp1385
(dp1386
g61
(dp1387
sg70
g723
sg63
(lp1388
g56
(g77
g58
NtRp1389
(dp1390
g61
(dp1391
g81
g82
ssg70
g1385
sg63
(lp1392
S'web2py_crontype'
p1393
asbag56
(g77
g58
NtRp1394
(dp1395
g61
(dp1396
g88
g89
ssg70
g1385
sg63
(lp1397
S':'
asbag56
(g77
g58
NtRp1398
(dp1399
g61
(dp1400
sg70
g1385
sg63
(lp1401
g56
(g57
g58
NtRp1402
(dp1403
g61
(dp1404
g69
I4
ssg70
g1398
sg63
(lp1405
S'hard'
p1406
asbasbasbag56
(g72
g58
NtRp1407
(dp1408
g61
(dp1409
sg70
g723
sg63
(lp1410
g56
(g77
g58
NtRp1411
(dp1412
g61
(dp1413
g81
g82
ssg70
g1407
sg63
(lp1414
S'web2py_path'
p1415
asbag56
(g77
g58
NtRp1416
(dp1417
g61
(dp1418
g88
g89
ssg70
g1407
sg63
(lp1419
S':'
asbag56
(g77
g58
NtRp1420
(dp1421
g61
(dp1422
sg70
g1407
sg63
(lp1423
g56
(g57
g58
NtRp1424
(dp1425
g61
(dp1426
g69
I4
ssg70
g1420
sg63
(lp1427
g770
asbasbasbag56
(g72
g58
NtRp1428
(dp1429
g61
(dp1430
sg70
g723
sg63
(lp1431
g56
(g77
g58
NtRp1432
(dp1433
g61
(dp1434
g81
g82
ssg70
g1428
sg63
(lp1435
S'web2py_version'
p1436
asbag56
(g77
g58
NtRp1437
(dp1438
g61
(dp1439
g88
g89
ssg70
g1428
sg63
(lp1440
S':'
asbag56
(g77
g58
NtRp1441
(dp1442
g61
(dp1443
sg70
g1428
sg63
(lp1444
g56
(g57
g58
NtRp1445
(dp1446
g61
(dp1447
g69
I4
ssg70
g1441
sg63
(lp1448
g56
(g65
g58
NtRp1449
(dp1450
g61
(dp1451
g69
I3
ssg70
Nsg63
(lp1452
g56
(g72
g58
NtRp1453
(dp1454
g61
(dp1455
sg70
g1449
sg63
(lp1456
g56
(g77
g58
NtRp1457
(dp1458
g61
(dp1459
sg70
g1453
sg63
(lp1460
g56
(g57
g58
NtRp1461
(dp1462
g61
(dp1463
g69
I3
ssg70
g1457
sg63
(lp1464
S'1'
asbasbasbag56
(g72
g58
NtRp1465
(dp1466
g61
(dp1467
sg70
g1449
sg63
(lp1468
g56
(g77
g58
NtRp1469
(dp1470
g61
(dp1471
sg70
g1465
sg63
(lp1472
g56
(g57
g58
NtRp1473
(dp1474
g61
(dp1475
g69
I3
ssg70
g1469
sg63
(lp1476
S'99'
p1477
asbasbasbag56
(g72
g58
NtRp1478
(dp1479
g61
(dp1480
sg70
g1449
sg63
(lp1481
g56
(g77
g58
NtRp1482
(dp1483
g61
(dp1484
sg70
g1478
sg63
(lp1485
g56
(g57
g58
NtRp1486
(dp1487
g61
(dp1488
g69
I3
ssg70
g1482
sg63
(lp1489
S'2'
asbasbasbag56
(g72
g58
NtRp1490
(dp1491
g61
(dp1492
sg70
g1449
sg63
(lp1493
g56
(g77
g58
NtRp1494
(dp1495
g61
(dp1496
sg70
g1490
sg63
(lp1497
g56
(g57
g58
NtRp1498
(dp1499
g61
(dp1500
g69
I3
ssg70
g1494
sg63
(lp1501
S'datetime.datetime(2011, 9, 26, 6, 55, 33)'
p1502
asbasbasbag56
(g72
g58
NtRp1503
(dp1504
g61
(dp1505
sg70
g1449
sg63
(lp1506
g56
(g77
g58
NtRp1507
(dp1508
g61
(dp1509
sg70
g1503
sg63
(lp1510
g56
(g57
g58
NtRp1511
(dp1512
g61
(dp1513
g69
I3
ssg70
g1507
sg63
(lp1514
S'stable'
p1515
asbasbasbasbasbasbasbag56
(g72
g58
NtRp1516
(dp1517
g61
(dp1518
sg70
g723
sg63
(lp1519
g56
(g77
g58
NtRp1520
(dp1521
g61
(dp1522
g81
g82
ssg70
g1516
sg63
(lp1523
S'wsgi_errors'
p1524
asbag56
(g77
g58
NtRp1525
(dp1526
g61
(dp1527
g88
g89
ssg70
g1516
sg63
(lp1528
S':'
asbag56
(g77
g58
NtRp1529
(dp1530
g61
(dp1531
sg70
g1516
sg63
(lp1532
g56
(g57
g58
NtRp1533
(dp1534
g61
(dp1535
g69
I4
ssg70
g1529
sg63
(lp1536
S"<open file '<stderr>', mode 'w' at 0x7f8b30c7d270>"
p1537
asbasbasbag56
(g72
g58
NtRp1538
(dp1539
g61
(dp1540
sg70
g723
sg63
(lp1541
g56
(g77
g58
NtRp1542
(dp1543
g61
(dp1544
g81
g82
ssg70
g1538
sg63
(lp1545
S'wsgi_file_wrapper'
p1546
asbag56
(g77
g58
NtRp1547
(dp1548
g61
(dp1549
g88
g89
ssg70
g1538
sg63
(lp1550
S':'
asbag56
(g77
g58
NtRp1551
(dp1552
g61
(dp1553
sg70
g1538
sg63
(lp1554
g56
(g57
g58
NtRp1555
(dp1556
g61
(dp1557
g69
I4
ssg70
g1551
sg63
(lp1558
S'<class wsgiref.util.FileWrapper at 0x2b1e870>'
p1559
asbasbasbag56
(g72
g58
NtRp1560
(dp1561
g61
(dp1562
sg70
g723
sg63
(lp1563
g56
(g77
g58
NtRp1564
(dp1565
g61
(dp1566
g81
g82
ssg70
g1560
sg63
(lp1567
S'wsgi_input'
p1568
asbag56
(g77
g58
NtRp1569
(dp1570
g61
(dp1571
g88
g89
ssg70
g1560
sg63
(lp1572
S':'
asbag56
(g77
g58
NtRp1573
(dp1574
g61
(dp1575
sg70
g1560
sg63
(lp1576
g56
(g57
g58
NtRp1577
(dp1578
g61
(dp1579
g69
I4
ssg70
g1573
sg63
(lp1580
S'<socket._fileobject object at 0x3accad0>'
p1581
asbasbasbag56
(g72
g58
NtRp1582
(dp1583
g61
(dp1584
sg70
g723
sg63
(lp1585
g56
(g77
g58
NtRp1586
(dp1587
g61
(dp1588
g81
g82
ssg70
g1582
sg63
(lp1589
S'wsgi_multiprocess'
p1590
asbag56
(g77
g58
NtRp1591
(dp1592
g61
(dp1593
g88
g89
ssg70
g1582
sg63
(lp1594
S':'
asbag56
(g77
g58
NtRp1595
(dp1596
g61
(dp1597
sg70
g1582
sg63
(lp1598
g56
(g57
g58
NtRp1599
(dp1600
g61
(dp1601
g69
I4
ssg70
g1595
sg63
(lp1602
g861
asbasbasbag56
(g72
g58
NtRp1603
(dp1604
g61
(dp1605
sg70
g723
sg63
(lp1606
g56
(g77
g58
NtRp1607
(dp1608
g61
(dp1609
g81
g82
ssg70
g1603
sg63
(lp1610
S'wsgi_multithread'
p1611
asbag56
(g77
g58
NtRp1612
(dp1613
g61
(dp1614
g88
g89
ssg70
g1603
sg63
(lp1615
S':'
asbag56
(g77
g58
NtRp1616
(dp1617
g61
(dp1618
sg70
g1603
sg63
(lp1619
g56
(g57
g58
NtRp1620
(dp1621
g61
(dp1622
g69
I4
ssg70
g1616
sg63
(lp1623
g99
asbasbasbag56
(g72
g58
NtRp1624
(dp1625
g61
(dp1626
sg70
g723
sg63
(lp1627
g56
(g77
g58
NtRp1628
(dp1629
g61
(dp1630
g81
g82
ssg70
g1624
sg63
(lp1631
S'wsgi_run_once'
p1632
asbag56
(g77
g58
NtRp1633
(dp1634
g61
(dp1635
g88
g89
ssg70
g1624
sg63
(lp1636
S':'
asbag56
(g77
g58
NtRp1637
(dp1638
g61
(dp1639
sg70
g1624
sg63
(lp1640
g56
(g57
g58
NtRp1641
(dp1642
g61
(dp1643
g69
I4
ssg70
g1637
sg63
(lp1644
g861
asbasbasbag56
(g72
g58
NtRp1645
(dp1646
g61
(dp1647
sg70
g723
sg63
(lp1648
g56
(g77
g58
NtRp1649
(dp1650
g61
(dp1651
g81
g82
ssg70
g1645
sg63
(lp1652
S'wsgi_url_scheme'
p1653
asbag56
(g77
g58
NtRp1654
(dp1655
g61
(dp1656
g88
g89
ssg70
g1645
sg63
(lp1657
S':'
asbag56
(g77
g58
NtRp1658
(dp1659
g61
(dp1660
sg70
g1645
sg63
(lp1661
g56
(g57
g58
NtRp1662
(dp1663
g61
(dp1664
g69
I4
ssg70
g1658
sg63
(lp1665
S'http'
p1666
asbasbasbag56
(g72
g58
NtRp1667
(dp1668
g61
(dp1669
sg70
g723
sg63
(lp1670
g56
(g77
g58
NtRp1671
(dp1672
g61
(dp1673
g81
g82
ssg70
g1667
sg63
(lp1674
S'wsgi_version'
p1675
asbag56
(g77
g58
NtRp1676
(dp1677
g61
(dp1678
g88
g89
ssg70
g1667
sg63
(lp1679
S':'
asbag56
(g77
g58
NtRp1680
(dp1681
g61
(dp1682
sg70
g1667
sg63
(lp1683
g56
(g57
g58
NtRp1684
(dp1685
g61
(dp1686
g69
I4
ssg70
g1680
sg63
(lp1687
g56
(g65
g58
NtRp1688
(dp1689
g61
(dp1690
g69
I3
ssg70
Nsg63
(lp1691
g56
(g72
g58
NtRp1692
(dp1693
g61
(dp1694
sg70
g1688
sg63
(lp1695
g56
(g77
g58
NtRp1696
(dp1697
g61
(dp1698
sg70
g1692
sg63
(lp1699
g56
(g57
g58
NtRp1700
(dp1701
g61
(dp1702
g69
I3
ssg70
g1696
sg63
(lp1703
S'1'
asbasbasbag56
(g72
g58
NtRp1704
(dp1705
g61
(dp1706
sg70
g1688
sg63
(lp1707
g56
(g77
g58
NtRp1708
(dp1709
g61
(dp1710
sg70
g1704
sg63
(lp1711
g56
(g57
g58
NtRp1712
(dp1713
g61
(dp1714
g69
I3
ssg70
g1708
sg63
(lp1715
S'0'
asbasbasbasbasbasbasbasbasbasbasbag56
(g72
g58
NtRp1716
(dp1717
g61
(dp1718
sg70
g66
sg63
(lp1719
g56
(g77
g58
NtRp1720
(dp1721
g61
(dp1722
g81
g82
ssg70
g1716
sg63
(lp1723
S'extension'
p1724
asbag56
(g77
g58
NtRp1725
(dp1726
g61
(dp1727
g88
g89
ssg70
g1716
sg63
(lp1728
S':'
asbag56
(g77
g58
NtRp1729
(dp1730
g61
(dp1731
sg70
g1716
sg63
(lp1732
g56
(g57
g58
NtRp1733
(dp1734
g61
(dp1735
g69
I5
ssg70
g1729
sg63
(lp1736
S'load'
p1737
asbasbasbag56
(g72
g58
NtRp1738
(dp1739
g61
(dp1740
sg70
g66
sg63
(lp1741
g56
(g77
g58
NtRp1742
(dp1743
g61
(dp1744
g81
g82
ssg70
g1738
sg63
(lp1745
S'folder'
p1746
asbag56
(g77
g58
NtRp1747
(dp1748
g61
(dp1749
g88
g89
ssg70
g1738
sg63
(lp1750
S':'
asbag56
(g77
g58
NtRp1751
(dp1752
g61
(dp1753
sg70
g1738
sg63
(lp1754
g56
(g57
g58
NtRp1755
(dp1756
g61
(dp1757
g69
I5
ssg70
g1751
sg63
(lp1758
S'/home/ian/web2py/applications/topoi/'
p1759
asbasbasbag56
(g72
g58
NtRp1760
(dp1761
g61
(dp1762
sg70
g66
sg63
(lp1763
g56
(g77
g58
NtRp1764
(dp1765
g61
(dp1766
g81
g82
ssg70
g1760
sg63
(lp1767
S'function'
p1768
asbag56
(g77
g58
NtRp1769
(dp1770
g61
(dp1771
g88
g89
ssg70
g1760
sg63
(lp1772
S':'
asbag56
(g77
g58
NtRp1773
(dp1774
g61
(dp1775
sg70
g1760
sg63
(lp1776
g56
(g57
g58
NtRp1777
(dp1778
g61
(dp1779
g69
I5
ssg70
g1773
sg63
(lp1780
S'set_widget'
p1781
asbasbasbag56
(g72
g58
NtRp1782
(dp1783
g61
(dp1784
sg70
g66
sg63
(lp1785
g56
(g77
g58
NtRp1786
(dp1787
g61
(dp1788
g81
g82
ssg70
g1782
sg63
(lp1789
S'get_vars'
p1790
asbag56
(g77
g58
NtRp1791
(dp1792
g61
(dp1793
g88
g89
ssg70
g1782
sg63
(lp1794
S':'
asbag56
(g77
g58
NtRp1795
(dp1796
g61
(dp1797
sg70
g1782
sg63
(lp1798
g56
(g57
g58
NtRp1799
(dp1800
g61
(dp1801
g69
I5
ssg70
g1795
sg63
(lp1802
g56
(g65
g58
NtRp1803
(dp1804
g61
(dp1805
g69
I4
ssg70
Nsg63
(lp1806
sbasbasbasbag56
(g72
g58
NtRp1807
(dp1808
g61
(dp1809
sg70
g66
sg63
(lp1810
g56
(g77
g58
NtRp1811
(dp1812
g61
(dp1813
g81
g82
ssg70
g1807
sg63
(lp1814
S'global_settings'
p1815
asbag56
(g77
g58
NtRp1816
(dp1817
g61
(dp1818
g88
g89
ssg70
g1807
sg63
(lp1819
S':'
asbag56
(g77
g58
NtRp1820
(dp1821
g61
(dp1822
sg70
g1807
sg63
(lp1823
g56
(g57
g58
NtRp1824
(dp1825
g61
(dp1826
g69
I5
ssg70
g1820
sg63
(lp1827
g56
(g65
g58
NtRp1828
(dp1829
g61
(dp1830
g69
I4
ssg70
Nsg63
(lp1831
g56
(g72
g58
NtRp1832
(dp1833
g61
(dp1834
sg70
g1828
sg63
(lp1835
g56
(g77
g58
NtRp1836
(dp1837
g61
(dp1838
g81
g82
ssg70
g1832
sg63
(lp1839
g735
asbag56
(g77
g58
NtRp1840
(dp1841
g61
(dp1842
g88
g89
ssg70
g1832
sg63
(lp1843
S':'
asbag56
(g77
g58
NtRp1844
(dp1845
g61
(dp1846
sg70
g1832
sg63
(lp1847
g56
(g57
g58
NtRp1848
(dp1849
g61
(dp1850
g69
I4
ssg70
g1844
sg63
(lp1851
S"set(['/home/ian/web2py/applications/topoi/', '/home/ian/web2py/applications/admin/'])"
p1852
asbasbasbag56
(g72
g58
NtRp1853
(dp1854
g61
(dp1855
sg70
g1828
sg63
(lp1856
g56
(g77
g58
NtRp1857
(dp1858
g61
(dp1859
g81
g82
ssg70
g1853
sg63
(lp1860
g757
asbag56
(g77
g58
NtRp1861
(dp1862
g61
(dp1863
g88
g89
ssg70
g1853
sg63
(lp1864
S':'
asbag56
(g77
g58
NtRp1865
(dp1866
g61
(dp1867
sg70
g1853
sg63
(lp1868
g56
(g57
g58
NtRp1869
(dp1870
g61
(dp1871
g69
I4
ssg70
g1865
sg63
(lp1872
g770
asbasbasbag56
(g72
g58
NtRp1873
(dp1874
g61
(dp1875
sg70
g1828
sg63
(lp1876
g56
(g77
g58
NtRp1877
(dp1878
g61
(dp1879
g81
g82
ssg70
g1873
sg63
(lp1880
g779
asbag56
(g77
g58
NtRp1881
(dp1882
g61
(dp1883
g88
g89
ssg70
g1873
sg63
(lp1884
S':'
asbag56
(g77
g58
NtRp1885
(dp1886
g61
(dp1887
sg70
g1873
sg63
(lp1888
g56
(g57
g58
NtRp1889
(dp1890
g61
(dp1891
g69
I4
ssg70
g1885
sg63
(lp1892
g56
(g65
g58
NtRp1893
(dp1894
g61
(dp1895
g69
I3
ssg70
Nsg63
(lp1896
sbasbasbasbag56
(g72
g58
NtRp1897
(dp1898
g61
(dp1899
sg70
g1828
sg63
(lp1900
g56
(g77
g58
NtRp1901
(dp1902
g61
(dp1903
g81
g82
ssg70
g1897
sg63
(lp1904
g804
asbag56
(g77
g58
NtRp1905
(dp1906
g61
(dp1907
g88
g89
ssg70
g1897
sg63
(lp1908
S':'
asbag56
(g77
g58
NtRp1909
(dp1910
g61
(dp1911
sg70
g1897
sg63
(lp1912
g56
(g57
g58
NtRp1913
(dp1914
g61
(dp1915
g69
I4
ssg70
g1909
sg63
(lp1916
S"<Values at 0x2c53758: {'verbose': False, 'ip': '127.0.0.1', 'shutdown_timeout': 5, 'taskbar': False, 'nocron': False, 'pid_filename': 'httpserver.pid', 'maxthreads': None, 'softcron': False, 'server_name': 'uriel', 'bpython': False, 'nogui': False, 'port': 8000, 'extcron': False, 'debuglevel': 30, 'test': None, 'folder': '/home/ian/web2py', 'config': '', 'import_models': False, 'winservice': '', 'shell': None, 'run': '', 'log_filename': 'httpserver.log', 'args': [''], 'ssl_ca_certificate': None, 'scheduler': None, 'profiler_filename': None, 'ssl_private_key': '', 'password': '<ask>', 'request_queue_size': 5, 'ssl_certificate': '', 'cronjob': False, 'plain': False, 'quiet': False, 'interfaces': None, 'minthreads': None, 'timeout': 10, 'numthreads': None, 'nobanner': False}>"
p1917
asbasbasbag56
(g72
g58
NtRp1918
(dp1919
g61
(dp1920
sg70
g1828
sg63
(lp1921
g56
(g77
g58
NtRp1922
(dp1923
g61
(dp1924
g81
g82
ssg70
g1918
sg63
(lp1925
g826
asbag56
(g77
g58
NtRp1926
(dp1927
g61
(dp1928
g88
g89
ssg70
g1918
sg63
(lp1929
S':'
asbag56
(g77
g58
NtRp1930
(dp1931
g61
(dp1932
sg70
g1918
sg63
(lp1933
g56
(g57
g58
NtRp1934
(dp1935
g61
(dp1936
g69
I4
ssg70
g1930
sg63
(lp1937
S'set([])'
p1938
asbasbasbag56
(g72
g58
NtRp1939
(dp1940
g61
(dp1941
sg70
g1828
sg63
(lp1942
g56
(g77
g58
NtRp1943
(dp1944
g61
(dp1945
g81
g82
ssg70
g1939
sg63
(lp1946
g848
asbag56
(g77
g58
NtRp1947
(dp1948
g61
(dp1949
g88
g89
ssg70
g1939
sg63
(lp1950
S':'
asbag56
(g77
g58
NtRp1951
(dp1952
g61
(dp1953
sg70
g1939
sg63
(lp1954
g56
(g57
g58
NtRp1955
(dp1956
g61
(dp1957
g69
I4
ssg70
g1951
sg63
(lp1958
g861
asbasbasbag56
(g72
g58
NtRp1959
(dp1960
g61
(dp1961
sg70
g1828
sg63
(lp1962
g56
(g77
g58
NtRp1963
(dp1964
g61
(dp1965
g81
g82
ssg70
g1959
sg63
(lp1966
g870
asbag56
(g77
g58
NtRp1967
(dp1968
g61
(dp1969
g88
g89
ssg70
g1959
sg63
(lp1970
S':'
asbag56
(g77
g58
NtRp1971
(dp1972
g61
(dp1973
sg70
g1959
sg63
(lp1974
g56
(g57
g58
NtRp1975
(dp1976
g61
(dp1977
g69
I4
ssg70
g1971
sg63
(lp1978
g883
asbasbasbag56
(g72
g58
NtRp1979
(dp1980
g61
(dp1981
sg70
g1828
sg63
(lp1982
g56
(g77
g58
NtRp1983
(dp1984
g61
(dp1985
g81
g82
ssg70
g1979
sg63
(lp1986
g1155
asbag56
(g77
g58
NtRp1987
(dp1988
g61
(dp1989
g88
g89
ssg70
g1979
sg63
(lp1990
S':'
asbag56
(g77
g58
NtRp1991
(dp1992
g61
(dp1993
sg70
g1979
sg63
(lp1994
g56
(g57
g58
NtRp1995
(dp1996
g61
(dp1997
g69
I4
ssg70
g1991
sg63
(lp1998
g861
asbasbasbag56
(g72
g58
NtRp1999
(dp2000
g61
(dp2001
sg70
g1828
sg63
(lp2002
g56
(g77
g58
NtRp2003
(dp2004
g61
(dp2005
g81
g82
ssg70
g1999
sg63
(lp2006
g1393
asbag56
(g77
g58
NtRp2007
(dp2008
g61
(dp2009
g88
g89
ssg70
g1999
sg63
(lp2010
S':'
asbag56
(g77
g58
NtRp2011
(dp2012
g61
(dp2013
sg70
g1999
sg63
(lp2014
g56
(g57
g58
NtRp2015
(dp2016
g61
(dp2017
g69
I4
ssg70
g2011
sg63
(lp2018
g1406
asbasbasbag56
(g72
g58
NtRp2019
(dp2020
g61
(dp2021
sg70
g1828
sg63
(lp2022
g56
(g77
g58
NtRp2023
(dp2024
g61
(dp2025
g81
g82
ssg70
g2019
sg63
(lp2026
g1436
asbag56
(g77
g58
NtRp2027
(dp2028
g61
(dp2029
g88
g89
ssg70
g2019
sg63
(lp2030
S':'
asbag56
(g77
g58
NtRp2031
(dp2032
g61
(dp2033
sg70
g2019
sg63
(lp2034
g56
(g57
g58
NtRp2035
(dp2036
g61
(dp2037
g69
I4
ssg70
g2031
sg63
(lp2038
g56
(g65
g58
NtRp2039
(dp2040
g61
(dp2041
g69
I3
ssg70
Nsg63
(lp2042
g56
(g72
g58
NtRp2043
(dp2044
g61
(dp2045
sg70
g2039
sg63
(lp2046
g56
(g77
g58
NtRp2047
(dp2048
g61
(dp2049
sg70
g2043
sg63
(lp2050
g56
(g57
g58
NtRp2051
(dp2052
g61
(dp2053
g69
I3
ssg70
g2047
sg63
(lp2054
S'1'
asbasbasbag56
(g72
g58
NtRp2055
(dp2056
g61
(dp2057
sg70
g2039
sg63
(lp2058
g56
(g77
g58
NtRp2059
(dp2060
g61
(dp2061
sg70
g2055
sg63
(lp2062
g56
(g57
g58
NtRp2063
(dp2064
g61
(dp2065
g69
I3
ssg70
g2059
sg63
(lp2066
S'99'
p2067
asbasbasbag56
(g72
g58
NtRp2068
(dp2069
g61
(dp2070
sg70
g2039
sg63
(lp2071
g56
(g77
g58
NtRp2072
(dp2073
g61
(dp2074
sg70
g2068
sg63
(lp2075
g56
(g57
g58
NtRp2076
(dp2077
g61
(dp2078
g69
I3
ssg70
g2072
sg63
(lp2079
S'2'
asbasbasbag56
(g72
g58
NtRp2080
(dp2081
g61
(dp2082
sg70
g2039
sg63
(lp2083
g56
(g77
g58
NtRp2084
(dp2085
g61
(dp2086
sg70
g2080
sg63
(lp2087
g56
(g57
g58
NtRp2088
(dp2089
g61
(dp2090
g69
I3
ssg70
g2084
sg63
(lp2091
S'datetime.datetime(2011, 9, 26, 6, 55, 33)'
p2092
asbasbasbag56
(g72
g58
NtRp2093
(dp2094
g61
(dp2095
sg70
g2039
sg63
(lp2096
g56
(g77
g58
NtRp2097
(dp2098
g61
(dp2099
sg70
g2093
sg63
(lp2100
g56
(g57
g58
NtRp2101
(dp2102
g61
(dp2103
g69
I3
ssg70
g2097
sg63
(lp2104
g1515
asbasbasbasbasbasbasbasbasbasbasbag56
(g72
g58
NtRp2105
(dp2106
g61
(dp2107
sg70
g66
sg63
(lp2108
g56
(g77
g58
NtRp2109
(dp2110
g61
(dp2111
g81
g82
ssg70
g2105
sg63
(lp2112
S'is_https'
p2113
asbag56
(g77
g58
NtRp2114
(dp2115
g61
(dp2116
g88
g89
ssg70
g2105
sg63
(lp2117
S':'
asbag56
(g77
g58
NtRp2118
(dp2119
g61
(dp2120
sg70
g2105
sg63
(lp2121
g56
(g57
g58
NtRp2122
(dp2123
g61
(dp2124
g69
I5
ssg70
g2118
sg63
(lp2125
g861
asbasbasbag56
(g72
g58
NtRp2126
(dp2127
g61
(dp2128
sg70
g66
sg63
(lp2129
g56
(g77
g58
NtRp2130
(dp2131
g61
(dp2132
g81
g82
ssg70
g2126
sg63
(lp2133
S'is_local'
p2134
asbag56
(g77
g58
NtRp2135
(dp2136
g61
(dp2137
g88
g89
ssg70
g2126
sg63
(lp2138
S':'
asbag56
(g77
g58
NtRp2139
(dp2140
g61
(dp2141
sg70
g2126
sg63
(lp2142
g56
(g57
g58
NtRp2143
(dp2144
g61
(dp2145
g69
I5
ssg70
g2139
sg63
(lp2146
g99
asbasbasbag56
(g72
g58
NtRp2147
(dp2148
g61
(dp2149
sg70
g66
sg63
(lp2150
g56
(g77
g58
NtRp2151
(dp2152
g61
(dp2153
g81
g82
ssg70
g2147
sg63
(lp2154
S'is_restful'
p2155
asbag56
(g77
g58
NtRp2156
(dp2157
g61
(dp2158
g88
g89
ssg70
g2147
sg63
(lp2159
S':'
asbag56
(g77
g58
NtRp2160
(dp2161
g61
(dp2162
sg70
g2147
sg63
(lp2163
g56
(g57
g58
NtRp2164
(dp2165
g61
(dp2166
g69
I5
ssg70
g2160
sg63
(lp2167
g861
asbasbasbag56
(g72
g58
NtRp2168
(dp2169
g61
(dp2170
sg70
g66
sg63
(lp2171
g56
(g77
g58
NtRp2172
(dp2173
g61
(dp2174
g81
g82
ssg70
g2168
sg63
(lp2175
S'now'
p2176
asbag56
(g77
g58
NtRp2177
(dp2178
g61
(dp2179
g88
g89
ssg70
g2168
sg63
(lp2180
S':'
asbag56
(g77
g58
NtRp2181
(dp2182
g61
(dp2183
sg70
g2168
sg63
(lp2184
g56
(g57
g58
NtRp2185
(dp2186
g61
(dp2187
g69
I5
ssg70
g2181
sg63
(lp2188
S'datetime.datetime(2011, 12, 17, 20, 43, 50, 619718)'
p2189
asbasbasbag56
(g72
g58
NtRp2190
(dp2191
g61
(dp2192
sg70
g66
sg63
(lp2193
g56
(g77
g58
NtRp2194
(dp2195
g61
(dp2196
g81
g82
ssg70
g2190
sg63
(lp2197
S'post_vars'
p2198
asbag56
(g77
g58
NtRp2199
(dp2200
g61
(dp2201
g88
g89
ssg70
g2190
sg63
(lp2202
S':'
asbag56
(g77
g58
NtRp2203
(dp2204
g61
(dp2205
sg70
g2190
sg63
(lp2206
g56
(g57
g58
NtRp2207
(dp2208
g61
(dp2209
g69
I5
ssg70
g2203
sg63
(lp2210
g56
(g65
g58
NtRp2211
(dp2212
g61
(dp2213
g69
I4
ssg70
Nsg63
(lp2214
sbasbasbasbag56
(g72
g58
NtRp2215
(dp2216
g61
(dp2217
sg70
g66
sg63
(lp2218
g56
(g77
g58
NtRp2219
(dp2220
g61
(dp2221
g81
g82
ssg70
g2215
sg63
(lp2222
S'raw_args'
p2223
asbag56
(g77
g58
NtRp2224
(dp2225
g61
(dp2226
g88
g89
ssg70
g2215
sg63
(lp2227
S':'
asbag56
(g77
g58
NtRp2228
(dp2229
g61
(dp2230
sg70
g2215
sg63
(lp2231
g56
(g57
g58
NtRp2232
(dp2233
g61
(dp2234
g69
I5
ssg70
g2228
sg63
(lp2235
S'notes/author/10/authors/notes_author_loader'
p2236
asbasbasbag56
(g72
g58
NtRp2237
(dp2238
g61
(dp2239
sg70
g66
sg63
(lp2240
g56
(g77
g58
NtRp2241
(dp2242
g61
(dp2243
g81
g82
ssg70
g2237
sg63
(lp2244
S'raw_extension'
p2245
asbag56
(g77
g58
NtRp2246
(dp2247
g61
(dp2248
g88
g89
ssg70
g2237
sg63
(lp2249
S':'
asbag56
(g77
g58
NtRp2250
(dp2251
g61
(dp2252
sg70
g2237
sg63
(lp2253
g56
(g57
g58
NtRp2254
(dp2255
g61
(dp2256
g69
I5
ssg70
g2250
sg63
(lp2257
g1737
asbasbasbag56
(g72
g58
NtRp2258
(dp2259
g61
(dp2260
sg70
g66
sg63
(lp2261
g56
(g77
g58
NtRp2262
(dp2263
g61
(dp2264
g81
g82
ssg70
g2258
sg63
(lp2265
S'url'
p2266
asbag56
(g77
g58
NtRp2267
(dp2268
g61
(dp2269
g88
g89
ssg70
g2258
sg63
(lp2270
S':'
asbag56
(g77
g58
NtRp2271
(dp2272
g61
(dp2273
sg70
g2258
sg63
(lp2274
g56
(g57
g58
NtRp2275
(dp2276
g61
(dp2277
g69
I5
ssg70
g2271
sg63
(lp2278
S'/topoi/plugin_ajaxselect/set_widget.load/notes/author/10/authors/notes_author_loader'
p2279
asbasbasbag56
(g72
g58
NtRp2280
(dp2281
g61
(dp2282
sg70
g66
sg63
(lp2283
g56
(g77
g58
NtRp2284
(dp2285
g61
(dp2286
g81
g82
ssg70
g2280
sg63
(lp2287
S'utcnow'
p2288
asbag56
(g77
g58
NtRp2289
(dp2290
g61
(dp2291
g88
g89
ssg70
g2280
sg63
(lp2292
S':'
asbag56
(g77
g58
NtRp2293
(dp2294
g61
(dp2295
sg70
g2280
sg63
(lp2296
g56
(g57
g58
NtRp2297
(dp2298
g61
(dp2299
g69
I5
ssg70
g2293
sg63
(lp2300
S'datetime.datetime(2011, 12, 18, 1, 43, 50, 619776)'
p2301
asbasbasbag56
(g72
g58
NtRp2302
(dp2303
g61
(dp2304
sg70
g66
sg63
(lp2305
g56
(g77
g58
NtRp2306
(dp2307
g61
(dp2308
g81
g82
ssg70
g2302
sg63
(lp2309
S'uuid'
p2310
asbag56
(g77
g58
NtRp2311
(dp2312
g61
(dp2313
g88
g89
ssg70
g2302
sg63
(lp2314
S':'
asbag56
(g77
g58
NtRp2315
(dp2316
g61
(dp2317
sg70
g2302
sg63
(lp2318
g56
(g57
g58
NtRp2319
(dp2320
g61
(dp2321
g69
I5
ssg70
g2315
sg63
(lp2322
S'topoi/127.0.0.1.2011-12-17.20-43-50.5455c08a-0528-4d0b-908e-8d1fb8f65849'
p2323
asbasbasbag56
(g72
g58
NtRp2324
(dp2325
g61
(dp2326
sg70
g66
sg63
(lp2327
g56
(g77
g58
NtRp2328
(dp2329
g61
(dp2330
g81
g82
ssg70
g2324
sg63
(lp2331
S'vars'
p2332
asbag56
(g77
g58
NtRp2333
(dp2334
g61
(dp2335
g88
g89
ssg70
g2324
sg63
(lp2336
S':'
asbag56
(g77
g58
NtRp2337
(dp2338
g61
(dp2339
sg70
g2324
sg63
(lp2340
g56
(g57
g58
NtRp2341
(dp2342
g61
(dp2343
g69
I5
ssg70
g2337
sg63
(lp2344
g56
(g65
g58
NtRp2345
(dp2346
g61
(dp2347
g69
I4
ssg70
Nsg63
(lp2348
sbasbasbasbag56
(g72
g58
NtRp2349
(dp2350
g61
(dp2351
sg70
g66
sg63
(lp2352
g56
(g77
g58
NtRp2353
(dp2354
g61
(dp2355
g81
g82
ssg70
g2349
sg63
(lp2356
S'wsgi'
p2357
asbag56
(g77
g58
NtRp2358
(dp2359
g61
(dp2360
g88
g89
ssg70
g2349
sg63
(lp2361
S':'
asbag56
(g77
g58
NtRp2362
(dp2363
g61
(dp2364
sg70
g2349
sg63
(lp2365
g56
(g57
g58
NtRp2366
(dp2367
g61
(dp2368
g69
I5
ssg70
g2362
sg63
(lp2369
g56
(g65
g58
NtRp2370
(dp2371
g61
(dp2372
g69
I4
ssg70
Nsg63
(lp2373
g56
(g72
g58
NtRp2374
(dp2375
g61
(dp2376
sg70
g2370
sg63
(lp2377
g56
(g77
g58
NtRp2378
(dp2379
g61
(dp2380
g81
g82
ssg70
g2374
sg63
(lp2381
S'environ'
p2382
asbag56
(g77
g58
NtRp2383
(dp2384
g61
(dp2385
g88
g89
ssg70
g2374
sg63
(lp2386
S':'
asbag56
(g77
g58
NtRp2387
(dp2388
g61
(dp2389
sg70
g2374
sg63
(lp2390
g56
(g57
g58
NtRp2391
(dp2392
g61
(dp2393
g69
I4
ssg70
g2387
sg63
(lp2394
g56
(g65
g58
NtRp2395
(dp2396
g61
(dp2397
g69
I3
ssg70
Nsg63
(lp2398
g56
(g72
g58
NtRp2399
(dp2400
g61
(dp2401
sg70
g2395
sg63
(lp2402
g56
(g77
g58
NtRp2403
(dp2404
g61
(dp2405
g81
g82
ssg70
g2399
sg63
(lp2406
S'HTTP_ACCEPT'
p2407
asbag56
(g77
g58
NtRp2408
(dp2409
g61
(dp2410
g88
g89
ssg70
g2399
sg63
(lp2411
S':'
asbag56
(g77
g58
NtRp2412
(dp2413
g61
(dp2414
sg70
g2399
sg63
(lp2415
g56
(g57
g58
NtRp2416
(dp2417
g61
(dp2418
g69
I3
ssg70
g2412
sg63
(lp2419
g905
asbasbasbag56
(g72
g58
NtRp2420
(dp2421
g61
(dp2422
sg70
g2395
sg63
(lp2423
g56
(g77
g58
NtRp2424
(dp2425
g61
(dp2426
g81
g82
ssg70
g2420
sg63
(lp2427
S'HTTP_ACCEPT_CHARSET'
p2428
asbag56
(g77
g58
NtRp2429
(dp2430
g61
(dp2431
g88
g89
ssg70
g2420
sg63
(lp2432
S':'
asbag56
(g77
g58
NtRp2433
(dp2434
g61
(dp2435
sg70
g2420
sg63
(lp2436
g56
(g57
g58
NtRp2437
(dp2438
g61
(dp2439
g69
I3
ssg70
g2433
sg63
(lp2440
g927
asbasbasbag56
(g72
g58
NtRp2441
(dp2442
g61
(dp2443
sg70
g2395
sg63
(lp2444
g56
(g77
g58
NtRp2445
(dp2446
g61
(dp2447
g81
g82
ssg70
g2441
sg63
(lp2448
S'HTTP_ACCEPT_ENCODING'
p2449
asbag56
(g77
g58
NtRp2450
(dp2451
g61
(dp2452
g88
g89
ssg70
g2441
sg63
(lp2453
S':'
asbag56
(g77
g58
NtRp2454
(dp2455
g61
(dp2456
sg70
g2441
sg63
(lp2457
g56
(g57
g58
NtRp2458
(dp2459
g61
(dp2460
g69
I3
ssg70
g2454
sg63
(lp2461
g949
asbasbasbag56
(g72
g58
NtRp2462
(dp2463
g61
(dp2464
sg70
g2395
sg63
(lp2465
g56
(g77
g58
NtRp2466
(dp2467
g61
(dp2468
g81
g82
ssg70
g2462
sg63
(lp2469
S'HTTP_ACCEPT_LANGUAGE'
p2470
asbag56
(g77
g58
NtRp2471
(dp2472
g61
(dp2473
g88
g89
ssg70
g2462
sg63
(lp2474
S':'
asbag56
(g77
g58
NtRp2475
(dp2476
g61
(dp2477
sg70
g2462
sg63
(lp2478
g56
(g57
g58
NtRp2479
(dp2480
g61
(dp2481
g69
I3
ssg70
g2475
sg63
(lp2482
g971
asbasbasbag56
(g72
g58
NtRp2483
(dp2484
g61
(dp2485
sg70
g2395
sg63
(lp2486
g56
(g77
g58
NtRp2487
(dp2488
g61
(dp2489
g81
g82
ssg70
g2483
sg63
(lp2490
S'HTTP_CONNECTION'
p2491
asbag56
(g77
g58
NtRp2492
(dp2493
g61
(dp2494
g88
g89
ssg70
g2483
sg63
(lp2495
S':'
asbag56
(g77
g58
NtRp2496
(dp2497
g61
(dp2498
sg70
g2483
sg63
(lp2499
g56
(g57
g58
NtRp2500
(dp2501
g61
(dp2502
g69
I3
ssg70
g2496
sg63
(lp2503
g993
asbasbasbag56
(g72
g58
NtRp2504
(dp2505
g61
(dp2506
sg70
g2395
sg63
(lp2507
g56
(g77
g58
NtRp2508
(dp2509
g61
(dp2510
g81
g82
ssg70
g2504
sg63
(lp2511
S'HTTP_COOKIE'
p2512
asbag56
(g77
g58
NtRp2513
(dp2514
g61
(dp2515
g88
g89
ssg70
g2504
sg63
(lp2516
S':'
asbag56
(g77
g58
NtRp2517
(dp2518
g61
(dp2519
sg70
g2504
sg63
(lp2520
g56
(g57
g58
NtRp2521
(dp2522
g61
(dp2523
g69
I3
ssg70
g2517
sg63
(lp2524
g1015
asbasbasbag56
(g72
g58
NtRp2525
(dp2526
g61
(dp2527
sg70
g2395
sg63
(lp2528
g56
(g77
g58
NtRp2529
(dp2530
g61
(dp2531
g81
g82
ssg70
g2525
sg63
(lp2532
S'HTTP_HOST'
p2533
asbag56
(g77
g58
NtRp2534
(dp2535
g61
(dp2536
g88
g89
ssg70
g2525
sg63
(lp2537
S':'
asbag56
(g77
g58
NtRp2538
(dp2539
g61
(dp2540
sg70
g2525
sg63
(lp2541
g56
(g57
g58
NtRp2542
(dp2543
g61
(dp2544
g69
I3
ssg70
g2538
sg63
(lp2545
g1037
asbasbasbag56
(g72
g58
NtRp2546
(dp2547
g61
(dp2548
sg70
g2395
sg63
(lp2549
g56
(g77
g58
NtRp2550
(dp2551
g61
(dp2552
g81
g82
ssg70
g2546
sg63
(lp2553
S'HTTP_REFERER'
p2554
asbag56
(g77
g58
NtRp2555
(dp2556
g61
(dp2557
g88
g89
ssg70
g2546
sg63
(lp2558
S':'
asbag56
(g77
g58
NtRp2559
(dp2560
g61
(dp2561
sg70
g2546
sg63
(lp2562
g56
(g57
g58
NtRp2563
(dp2564
g61
(dp2565
g69
I3
ssg70
g2559
sg63
(lp2566
g1059
asbasbasbag56
(g72
g58
NtRp2567
(dp2568
g61
(dp2569
sg70
g2395
sg63
(lp2570
g56
(g77
g58
NtRp2571
(dp2572
g61
(dp2573
g81
g82
ssg70
g2567
sg63
(lp2574
S'HTTP_USER_AGENT'
p2575
asbag56
(g77
g58
NtRp2576
(dp2577
g61
(dp2578
g88
g89
ssg70
g2567
sg63
(lp2579
S':'
asbag56
(g77
g58
NtRp2580
(dp2581
g61
(dp2582
sg70
g2567
sg63
(lp2583
g56
(g57
g58
NtRp2584
(dp2585
g61
(dp2586
g69
I3
ssg70
g2580
sg63
(lp2587
g1081
asbasbasbag56
(g72
g58
NtRp2588
(dp2589
g61
(dp2590
sg70
g2395
sg63
(lp2591
g56
(g77
g58
NtRp2592
(dp2593
g61
(dp2594
g81
g82
ssg70
g2588
sg63
(lp2595
S'HTTP_WEB2PY_COMPONENT_ELEMENT'
p2596
asbag56
(g77
g58
NtRp2597
(dp2598
g61
(dp2599
g88
g89
ssg70
g2588
sg63
(lp2600
S':'
asbag56
(g77
g58
NtRp2601
(dp2602
g61
(dp2603
sg70
g2588
sg63
(lp2604
g56
(g57
g58
NtRp2605
(dp2606
g61
(dp2607
g69
I3
ssg70
g2601
sg63
(lp2608
g254
asbasbasbag56
(g72
g58
NtRp2609
(dp2610
g61
(dp2611
sg70
g2395
sg63
(lp2612
g56
(g77
g58
NtRp2613
(dp2614
g61
(dp2615
g81
g82
ssg70
g2609
sg63
(lp2616
S'HTTP_WEB2PY_COMPONENT_LOCATION'
p2617
asbag56
(g77
g58
NtRp2618
(dp2619
g61
(dp2620
g88
g89
ssg70
g2609
sg63
(lp2621
S':'
asbag56
(g77
g58
NtRp2622
(dp2623
g61
(dp2624
sg70
g2609
sg63
(lp2625
g56
(g57
g58
NtRp2626
(dp2627
g61
(dp2628
g69
I3
ssg70
g2622
sg63
(lp2629
g1124
asbasbasbag56
(g72
g58
NtRp2630
(dp2631
g61
(dp2632
sg70
g2395
sg63
(lp2633
g56
(g77
g58
NtRp2634
(dp2635
g61
(dp2636
g81
g82
ssg70
g2630
sg63
(lp2637
S'HTTP_X_REQUESTED_WITH'
p2638
asbag56
(g77
g58
NtRp2639
(dp2640
g61
(dp2641
g88
g89
ssg70
g2630
sg63
(lp2642
S':'
asbag56
(g77
g58
NtRp2643
(dp2644
g61
(dp2645
sg70
g2630
sg63
(lp2646
g56
(g57
g58
NtRp2647
(dp2648
g61
(dp2649
g69
I3
ssg70
g2643
sg63
(lp2650
g1146
asbasbasbag56
(g72
g58
NtRp2651
(dp2652
g61
(dp2653
sg70
g2395
sg63
(lp2654
g56
(g77
g58
NtRp2655
(dp2656
g61
(dp2657
g81
g82
ssg70
g2651
sg63
(lp2658
S'PATH_INFO'
p2659
asbag56
(g77
g58
NtRp2660
(dp2661
g61
(dp2662
g88
g89
ssg70
g2651
sg63
(lp2663
S':'
asbag56
(g77
g58
NtRp2664
(dp2665
g61
(dp2666
sg70
g2651
sg63
(lp2667
g56
(g57
g58
NtRp2668
(dp2669
g61
(dp2670
g69
I3
ssg70
g2664
sg63
(lp2671
g1189
asbasbasbag56
(g72
g58
NtRp2672
(dp2673
g61
(dp2674
sg70
g2395
sg63
(lp2675
g56
(g77
g58
NtRp2676
(dp2677
g61
(dp2678
g81
g82
ssg70
g2672
sg63
(lp2679
S'QUERY_STRING'
p2680
asbag56
(g77
g58
NtRp2681
(dp2682
g61
(dp2683
g88
g89
ssg70
g2672
sg63
(lp2684
S':'
asbag56
(g77
g58
NtRp2685
(dp2686
g61
(dp2687
sg70
g2672
sg63
(lp2688
g56
(g57
g58
NtRp2689
(dp2690
g61
(dp2691
g69
I3
ssg70
g2685
sg63
(lp2692
S''
asbasbasbag56
(g72
g58
NtRp2693
(dp2694
g61
(dp2695
sg70
g2395
sg63
(lp2696
g56
(g77
g58
NtRp2697
(dp2698
g61
(dp2699
g81
g82
ssg70
g2693
sg63
(lp2700
S'REMOTE_ADDR'
p2701
asbag56
(g77
g58
NtRp2702
(dp2703
g61
(dp2704
g88
g89
ssg70
g2693
sg63
(lp2705
S':'
asbag56
(g77
g58
NtRp2706
(dp2707
g61
(dp2708
sg70
g2693
sg63
(lp2709
g56
(g57
g58
NtRp2710
(dp2711
g61
(dp2712
g69
I3
ssg70
g2706
sg63
(lp2713
g276
asbasbasbag56
(g72
g58
NtRp2714
(dp2715
g61
(dp2716
sg70
g2395
sg63
(lp2717
g56
(g77
g58
NtRp2718
(dp2719
g61
(dp2720
g81
g82
ssg70
g2714
sg63
(lp2721
S'REMOTE_PORT'
p2722
asbag56
(g77
g58
NtRp2723
(dp2724
g61
(dp2725
g88
g89
ssg70
g2714
sg63
(lp2726
S':'
asbag56
(g77
g58
NtRp2727
(dp2728
g61
(dp2729
sg70
g2714
sg63
(lp2730
g56
(g57
g58
NtRp2731
(dp2732
g61
(dp2733
g69
I3
ssg70
g2727
sg63
(lp2734
g1253
asbasbasbag56
(g72
g58
NtRp2735
(dp2736
g61
(dp2737
sg70
g2395
sg63
(lp2738
g56
(g77
g58
NtRp2739
(dp2740
g61
(dp2741
g81
g82
ssg70
g2735
sg63
(lp2742
S'REQUEST_METHOD'
p2743
asbag56
(g77
g58
NtRp2744
(dp2745
g61
(dp2746
g88
g89
ssg70
g2735
sg63
(lp2747
S':'
asbag56
(g77
g58
NtRp2748
(dp2749
g61
(dp2750
sg70
g2735
sg63
(lp2751
g56
(g57
g58
NtRp2752
(dp2753
g61
(dp2754
g69
I3
ssg70
g2748
sg63
(lp2755
g1275
asbasbasbag56
(g72
g58
NtRp2756
(dp2757
g61
(dp2758
sg70
g2395
sg63
(lp2759
g56
(g77
g58
NtRp2760
(dp2761
g61
(dp2762
g81
g82
ssg70
g2756
sg63
(lp2763
S'SCRIPT_NAME'
p2764
asbag56
(g77
g58
NtRp2765
(dp2766
g61
(dp2767
g88
g89
ssg70
g2756
sg63
(lp2768
S':'
asbag56
(g77
g58
NtRp2769
(dp2770
g61
(dp2771
sg70
g2756
sg63
(lp2772
g56
(g57
g58
NtRp2773
(dp2774
g61
(dp2775
g69
I3
ssg70
g2769
sg63
(lp2776
S''
asbasbasbag56
(g72
g58
NtRp2777
(dp2778
g61
(dp2779
sg70
g2395
sg63
(lp2780
g56
(g77
g58
NtRp2781
(dp2782
g61
(dp2783
g81
g82
ssg70
g2777
sg63
(lp2784
S'SERVER_NAME'
p2785
asbag56
(g77
g58
NtRp2786
(dp2787
g61
(dp2788
g88
g89
ssg70
g2777
sg63
(lp2789
S':'
asbag56
(g77
g58
NtRp2790
(dp2791
g61
(dp2792
sg70
g2777
sg63
(lp2793
g56
(g57
g58
NtRp2794
(dp2795
g61
(dp2796
g69
I3
ssg70
g2790
sg63
(lp2797
g1318
asbasbasbag56
(g72
g58
NtRp2798
(dp2799
g61
(dp2800
sg70
g2395
sg63
(lp2801
g56
(g77
g58
NtRp2802
(dp2803
g61
(dp2804
g81
g82
ssg70
g2798
sg63
(lp2805
S'SERVER_PORT'
p2806
asbag56
(g77
g58
NtRp2807
(dp2808
g61
(dp2809
g88
g89
ssg70
g2798
sg63
(lp2810
S':'
asbag56
(g77
g58
NtRp2811
(dp2812
g61
(dp2813
sg70
g2798
sg63
(lp2814
g56
(g57
g58
NtRp2815
(dp2816
g61
(dp2817
g69
I3
ssg70
g2811
sg63
(lp2818
g1340
asbasbasbag56
(g72
g58
NtRp2819
(dp2820
g61
(dp2821
sg70
g2395
sg63
(lp2822
g56
(g77
g58
NtRp2823
(dp2824
g61
(dp2825
g81
g82
ssg70
g2819
sg63
(lp2826
S'SERVER_PROTOCOL'
p2827
asbag56
(g77
g58
NtRp2828
(dp2829
g61
(dp2830
g88
g89
ssg70
g2819
sg63
(lp2831
S':'
asbag56
(g77
g58
NtRp2832
(dp2833
g61
(dp2834
sg70
g2819
sg63
(lp2835
g56
(g57
g58
NtRp2836
(dp2837
g61
(dp2838
g69
I3
ssg70
g2832
sg63
(lp2839
g1362
asbasbasbag56
(g72
g58
NtRp2840
(dp2841
g61
(dp2842
sg70
g2395
sg63
(lp2843
g56
(g77
g58
NtRp2844
(dp2845
g61
(dp2846
g81
g82
ssg70
g2840
sg63
(lp2847
S'SERVER_SOFTWARE'
p2848
asbag56
(g77
g58
NtRp2849
(dp2850
g61
(dp2851
g88
g89
ssg70
g2840
sg63
(lp2852
S':'
asbag56
(g77
g58
NtRp2853
(dp2854
g61
(dp2855
sg70
g2840
sg63
(lp2856
g56
(g57
g58
NtRp2857
(dp2858
g61
(dp2859
g69
I3
ssg70
g2853
sg63
(lp2860
g1384
asbasbasbag56
(g72
g58
NtRp2861
(dp2862
g61
(dp2863
sg70
g2395
sg63
(lp2864
g56
(g77
g58
NtRp2865
(dp2866
g61
(dp2867
g81
g82
ssg70
g2861
sg63
(lp2868
S'wsgi.errors'
p2869
asbag56
(g77
g58
NtRp2870
(dp2871
g61
(dp2872
g88
g89
ssg70
g2861
sg63
(lp2873
S':'
asbag56
(g77
g58
NtRp2874
(dp2875
g61
(dp2876
sg70
g2861
sg63
(lp2877
g56
(g57
g58
NtRp2878
(dp2879
g61
(dp2880
g69
I3
ssg70
g2874
sg63
(lp2881
S"<open file '<stderr>', mode 'w' at 0x7f8b30c7d270>"
p2882
asbasbasbag56
(g72
g58
NtRp2883
(dp2884
g61
(dp2885
sg70
g2395
sg63
(lp2886
g56
(g77
g58
NtRp2887
(dp2888
g61
(dp2889
g81
g82
ssg70
g2883
sg63
(lp2890
S'wsgi.file_wrapper'
p2891
asbag56
(g77
g58
NtRp2892
(dp2893
g61
(dp2894
g88
g89
ssg70
g2883
sg63
(lp2895
S':'
asbag56
(g77
g58
NtRp2896
(dp2897
g61
(dp2898
sg70
g2883
sg63
(lp2899
g56
(g57
g58
NtRp2900
(dp2901
g61
(dp2902
g69
I3
ssg70
g2896
sg63
(lp2903
S'<class wsgiref.util.FileWrapper at 0x2b1e870>'
p2904
asbasbasbag56
(g72
g58
NtRp2905
(dp2906
g61
(dp2907
sg70
g2395
sg63
(lp2908
g56
(g77
g58
NtRp2909
(dp2910
g61
(dp2911
g81
g82
ssg70
g2905
sg63
(lp2912
S'wsgi.input'
p2913
asbag56
(g77
g58
NtRp2914
(dp2915
g61
(dp2916
g88
g89
ssg70
g2905
sg63
(lp2917
S':'
asbag56
(g77
g58
NtRp2918
(dp2919
g61
(dp2920
sg70
g2905
sg63
(lp2921
g56
(g57
g58
NtRp2922
(dp2923
g61
(dp2924
g69
I3
ssg70
g2918
sg63
(lp2925
S'<cStringIO.StringO object at 0x3a3d260>'
p2926
asbasbasbag56
(g72
g58
NtRp2927
(dp2928
g61
(dp2929
sg70
g2395
sg63
(lp2930
g56
(g77
g58
NtRp2931
(dp2932
g61
(dp2933
g81
g82
ssg70
g2927
sg63
(lp2934
S'wsgi.multiprocess'
p2935
asbag56
(g77
g58
NtRp2936
(dp2937
g61
(dp2938
g88
g89
ssg70
g2927
sg63
(lp2939
S':'
asbag56
(g77
g58
NtRp2940
(dp2941
g61
(dp2942
sg70
g2927
sg63
(lp2943
g56
(g57
g58
NtRp2944
(dp2945
g61
(dp2946
g69
I3
ssg70
g2940
sg63
(lp2947
g861
asbasbasbag56
(g72
g58
NtRp2948
(dp2949
g61
(dp2950
sg70
g2395
sg63
(lp2951
g56
(g77
g58
NtRp2952
(dp2953
g61
(dp2954
g81
g82
ssg70
g2948
sg63
(lp2955
S'wsgi.multithread'
p2956
asbag56
(g77
g58
NtRp2957
(dp2958
g61
(dp2959
g88
g89
ssg70
g2948
sg63
(lp2960
S':'
asbag56
(g77
g58
NtRp2961
(dp2962
g61
(dp2963
sg70
g2948
sg63
(lp2964
g56
(g57
g58
NtRp2965
(dp2966
g61
(dp2967
g69
I3
ssg70
g2961
sg63
(lp2968
g99
asbasbasbag56
(g72
g58
NtRp2969
(dp2970
g61
(dp2971
sg70
g2395
sg63
(lp2972
g56
(g77
g58
NtRp2973
(dp2974
g61
(dp2975
g81
g82
ssg70
g2969
sg63
(lp2976
S'wsgi.run_once'
p2977
asbag56
(g77
g58
NtRp2978
(dp2979
g61
(dp2980
g88
g89
ssg70
g2969
sg63
(lp2981
S':'
asbag56
(g77
g58
NtRp2982
(dp2983
g61
(dp2984
sg70
g2969
sg63
(lp2985
g56
(g57
g58
NtRp2986
(dp2987
g61
(dp2988
g69
I3
ssg70
g2982
sg63
(lp2989
g861
asbasbasbag56
(g72
g58
NtRp2990
(dp2991
g61
(dp2992
sg70
g2395
sg63
(lp2993
g56
(g77
g58
NtRp2994
(dp2995
g61
(dp2996
g81
g82
ssg70
g2990
sg63
(lp2997
S'wsgi.url_scheme'
p2998
asbag56
(g77
g58
NtRp2999
(dp3000
g61
(dp3001
g88
g89
ssg70
g2990
sg63
(lp3002
S':'
asbag56
(g77
g58
NtRp3003
(dp3004
g61
(dp3005
sg70
g2990
sg63
(lp3006
g56
(g57
g58
NtRp3007
(dp3008
g61
(dp3009
g69
I3
ssg70
g3003
sg63
(lp3010
g1666
asbasbasbag56
(g72
g58
NtRp3011
(dp3012
g61
(dp3013
sg70
g2395
sg63
(lp3014
g56
(g77
g58
NtRp3015
(dp3016
g61
(dp3017
g81
g82
ssg70
g3011
sg63
(lp3018
S'wsgi.version'
p3019
asbag56
(g77
g58
NtRp3020
(dp3021
g61
(dp3022
g88
g89
ssg70
g3011
sg63
(lp3023
S':'
asbag56
(g77
g58
NtRp3024
(dp3025
g61
(dp3026
sg70
g3011
sg63
(lp3027
g56
(g57
g58
NtRp3028
(dp3029
g61
(dp3030
g69
I3
ssg70
g3024
sg63
(lp3031
S'1'
asbasbasbasbasbasbasbasbasbasbasbasbasbsS'frames'
p3032
(lp3033
(dp3034
S'file'
p3035
S'/home/ian/web2py/gluon/restricted.py'
p3036
sS'dump'
p3037
(dp3038
S'environment'
p3039
S"{'A': <class 'gluon.html.A'>, 'AjaxSelect': <class applications.topoi.modules.plugin_ajaxselect.AjaxSelect>, 'Auth': <class 'gluon.tools.Auth'>, 'B': <class 'gluon.html.B'>, 'BEAUTIFY': <class 'gluon.html.BEAUTIFY'>, 'BODY': <class 'gluon.html.BODY'>, 'BR': <class 'gluon.html.BR'>, 'BUTTON': <class 'gluon.html.BUTTON'>, 'CAT': <class 'gluon.html.CAT'>, 'CENTER': <class 'gluon.html.CENTER'>, ...}"
p3040
sS'ccode'
p3041
S'<code object <module> at 0x302f6b0, file "/home/.../topoi/controllers/plugin_ajaxselect.py", line 1>'
p3042
ssS'lnum'
p3043
I194
sS'lines'
p3044
(dp3045
I192
S'        else:'
p3046
sI193
S'            ccode = compile2(code,layer)'
p3047
sI194
S'        exec ccode in environment'
p3048
sI195
S'    except HTTP:'
p3049
sI196
S'        raise'
p3050
sI197
S'    except Exception, error:'
p3051
sI198
S'        # XXX Show exception in Wing IDE if running in debugger'
p3052
sI189
S'    try:'
p3053
sI190
S'        if type(code) == types.CodeType:'
p3054
sI191
S'            ccode = code'
p3055
ssS'call'
p3056
S"(code='from gluon.sqlhtml import OptionsWidget\\n\\n\\ndef se...me)\\n\\nresponse._vars=response._caller(set_widget)\\n', environment={'A': <class 'gluon.html.A'>, 'AjaxSelect': <class applications.topoi.modules.plugin_ajaxselect.AjaxSelect>, 'Auth': <class 'gluon.tools.Auth'>, 'B': <class 'gluon.html.B'>, 'BEAUTIFY': <class 'gluon.html.BEAUTIFY'>, 'BODY': <class 'gluon.html.BODY'>, 'BR': <class 'gluon.html.BR'>, 'BUTTON': <class 'gluon.html.BUTTON'>, 'CAT': <class 'gluon.html.CAT'>, 'CENTER': <class 'gluon.html.CENTER'>, ...}, layer='/home/ian/web2py/applications/topoi/controllers/plugin_ajaxselect.py')"
p3057
sS'func'
p3058
S'restricted'
p3059
sa(dp3060
g3035
S'/home/ian/web2py/applications/topoi/controllers/plugin_ajaxselect.py'
p3061
sg3037
(dp3062
sg3043
I38
sg3044
(dp3063
I32
S'    #create button to trigger adding dialog'
p3064
sI33
S"    bid = table + '_' + field + '_option_add_trigger'"
p3065
sI34
S"    button = A('Add New', _href='#', _id=bid, _class='button_secondary option_add_trigger')"
p3066
sI35
S''
sI36
S'    return dict(widget = w, button = button, form = f, comp_url = comp_url, loadname = loadname)'
p3067
sI27
S'    else:'
p3068
sI28
S"        response.error = 'form was not processed'"
p3069
sI29
S''
sI30
S"    comp_url = URL('plugin_ajaxselect', 'set_widget.load', args=[table, field, value, linktable, loadname])"
p3070
sI31
S''
ssg3056
S'()'
p3071
sg3058
S'<module>'
p3072
sa(dp3073
g3035
S'/home/ian/web2py/gluon/globals.py'
p3074
sg3037
(dp3075
S'self'
p3076
S'undefined'
p3077
sS'f'
S'<function set_widget>'
p3078
ssg3043
I149
sg3044
(dp3079
I144
S'        self.meta = Storage()      # used by web2py_ajax.html'
p3080
sI145
S'        self.menu = []             # used by the default view layout'
p3081
sI146
S'        self.files = []            # used by web2py_ajax.html'
p3082
sI147
S'        self.generic_patterns = [] # patterns to allow generic views'
p3083
sI148
S'        self._vars = None'
p3084
sI149
S'        self._caller = lambda f: f()'
p3085
sI150
S'        self._view_environment = None'
p3086
sI151
S'        self._custom_commit = None'
p3087
sI152
S'        self._custom_rollback = None'
p3088
sI153
S''
ssg3056
S'(f=<function set_widget>)'
p3089
sg3058
S'<lambda>'
p3090
sa(dp3091
g3035
S'/home/ian/web2py/applications/topoi/controllers/plugin_ajaxselect.py'
p3092
sg3037
(dp3093
S'widget'
p3094
g3077
sS'loadname'
p3095
S"'notes_author_loader'"
p3096
sS'form'
p3097
S'<gluon.sqlhtml.SQLFORM object>'
p3098
sS'f'
g3077
sS'button'
p3099
S'<gluon.html.A object>'
p3100
sS'comp_url'
p3101
S"'/topoi/plugin_ajaxselect/set_widget.load/notes/author/10/authors/notes_author_loader'"
p3102
sS'w'
S'<gluon.html.SELECT object>'
p3103
sS'builtindict'
p3104
S"<type 'dict'>"
p3105
ssg3043
I36
sg3044
(dp3106
I32
S'    #create button to trigger adding dialog'
p3107
sI33
S"    bid = table + '_' + field + '_option_add_trigger'"
p3108
sI34
S"    button = A('Add New', _href='#', _id=bid, _class='button_secondary option_add_trigger')"
p3109
sI35
S''
sI36
S'    return dict(widget = w, button = button, form = f, comp_url = comp_url, loadname = loadname)'
p3110
sI27
S'    else:'
p3111
sI28
S"        response.error = 'form was not processed'"
p3112
sI29
S''
sI30
S"    comp_url = URL('plugin_ajaxselect', 'set_widget.load', args=[table, field, value, linktable, loadname])"
p3113
sI31
S''
ssg3056
S'()'
p3114
sg3058
S'set_widget'
p3115
sasS'pyver'
p3116
S'Python 2.7.2+: /usr/bin/python2.7'
p3117
sS'session'
p3118
g56
(g57
g58
NtRp3119
(dp3120
g61
(dp3121
sg63
(lp3122
g56
(g65
g58
NtRp3123
(dp3124
g61
(dp3125
g69
I5
ssg70
Nsg63
(lp3126
g56
(g72
g58
NtRp3127
(dp3128
g61
(dp3129
sg70
g3123
sg63
(lp3130
g56
(g77
g58
NtRp3131
(dp3132
g61
(dp3133
g81
g82
ssg70
g3127
sg63
(lp3134
S'auth'
p3135
asbag56
(g77
g58
NtRp3136
(dp3137
g61
(dp3138
g88
g89
ssg70
g3127
sg63
(lp3139
S':'
asbag56
(g77
g58
NtRp3140
(dp3141
g61
(dp3142
sg70
g3127
sg63
(lp3143
g56
(g57
g58
NtRp3144
(dp3145
g61
(dp3146
g69
I5
ssg70
g3140
sg63
(lp3147
g56
(g65
g58
NtRp3148
(dp3149
g61
(dp3150
g69
I4
ssg70
Nsg63
(lp3151
g56
(g72
g58
NtRp3152
(dp3153
g61
(dp3154
sg70
g3148
sg63
(lp3155
g56
(g77
g58
NtRp3156
(dp3157
g61
(dp3158
g81
g82
ssg70
g3152
sg63
(lp3159
S'expiration'
p3160
asbag56
(g77
g58
NtRp3161
(dp3162
g61
(dp3163
g88
g89
ssg70
g3152
sg63
(lp3164
S':'
asbag56
(g77
g58
NtRp3165
(dp3166
g61
(dp3167
sg70
g3152
sg63
(lp3168
g56
(g57
g58
NtRp3169
(dp3170
g61
(dp3171
g69
I4
ssg70
g3165
sg63
(lp3172
S'2592000'
p3173
asbasbasbag56
(g72
g58
NtRp3174
(dp3175
g61
(dp3176
sg70
g3148
sg63
(lp3177
g56
(g77
g58
NtRp3178
(dp3179
g61
(dp3180
g81
g82
ssg70
g3174
sg63
(lp3181
S'hmac_key'
p3182
asbag56
(g77
g58
NtRp3183
(dp3184
g61
(dp3185
g88
g89
ssg70
g3174
sg63
(lp3186
S':'
asbag56
(g77
g58
NtRp3187
(dp3188
g61
(dp3189
sg70
g3174
sg63
(lp3190
g56
(g57
g58
NtRp3191
(dp3192
g61
(dp3193
g69
I4
ssg70
g3187
sg63
(lp3194
S'20c8192d-156c-406c-9f7b-eade4cd34288'
p3195
asbasbasbag56
(g72
g58
NtRp3196
(dp3197
g61
(dp3198
sg70
g3148
sg63
(lp3199
g56
(g77
g58
NtRp3200
(dp3201
g61
(dp3202
g81
g82
ssg70
g3196
sg63
(lp3203
S'last_visit'
p3204
asbag56
(g77
g58
NtRp3205
(dp3206
g61
(dp3207
g88
g89
ssg70
g3196
sg63
(lp3208
S':'
asbag56
(g77
g58
NtRp3209
(dp3210
g61
(dp3211
sg70
g3196
sg63
(lp3212
g56
(g57
g58
NtRp3213
(dp3214
g61
(dp3215
g69
I4
ssg70
g3209
sg63
(lp3216
S'datetime.datetime(2011, 12, 15, 14, 27, 18, 112795)'
p3217
asbasbasbag56
(g72
g58
NtRp3218
(dp3219
g61
(dp3220
sg70
g3148
sg63
(lp3221
g56
(g77
g58
NtRp3222
(dp3223
g61
(dp3224
g81
g82
ssg70
g3218
sg63
(lp3225
S'remember'
p3226
asbag56
(g77
g58
NtRp3227
(dp3228
g61
(dp3229
g88
g89
ssg70
g3218
sg63
(lp3230
S':'
asbag56
(g77
g58
NtRp3231
(dp3232
g61
(dp3233
sg70
g3218
sg63
(lp3234
g56
(g57
g58
NtRp3235
(dp3236
g61
(dp3237
g69
I4
ssg70
g3231
sg63
(lp3238
g99
asbasbasbag56
(g72
g58
NtRp3239
(dp3240
g61
(dp3241
sg70
g3148
sg63
(lp3242
g56
(g77
g58
NtRp3243
(dp3244
g61
(dp3245
g81
g82
ssg70
g3239
sg63
(lp3246
S'user'
p3247
asbag56
(g77
g58
NtRp3248
(dp3249
g61
(dp3250
g88
g89
ssg70
g3239
sg63
(lp3251
S':'
asbag56
(g77
g58
NtRp3252
(dp3253
g61
(dp3254
sg70
g3239
sg63
(lp3255
g56
(g57
g58
NtRp3256
(dp3257
g61
(dp3258
g69
I4
ssg70
g3252
sg63
(lp3259
g56
(g65
g58
NtRp3260
(dp3261
g61
(dp3262
g69
I3
ssg70
Nsg63
(lp3263
g56
(g72
g58
NtRp3264
(dp3265
g61
(dp3266
sg70
g3260
sg63
(lp3267
g56
(g77
g58
NtRp3268
(dp3269
g61
(dp3270
g81
g82
ssg70
g3264
sg63
(lp3271
S'email'
p3272
asbag56
(g77
g58
NtRp3273
(dp3274
g61
(dp3275
g88
g89
ssg70
g3264
sg63
(lp3276
S':'
asbag56
(g77
g58
NtRp3277
(dp3278
g61
(dp3279
sg70
g3264
sg63
(lp3280
g56
(g57
g58
NtRp3281
(dp3282
g61
(dp3283
g69
I3
ssg70
g3277
sg63
(lp3284
S'scottianw@gmail.com'
p3285
asbasbasbag56
(g72
g58
NtRp3286
(dp3287
g61
(dp3288
sg70
g3260
sg63
(lp3289
g56
(g77
g58
NtRp3290
(dp3291
g61
(dp3292
g81
g82
ssg70
g3286
sg63
(lp3293
S'first_name'
p3294
asbag56
(g77
g58
NtRp3295
(dp3296
g61
(dp3297
g88
g89
ssg70
g3286
sg63
(lp3298
S':'
asbag56
(g77
g58
NtRp3299
(dp3300
g61
(dp3301
sg70
g3286
sg63
(lp3302
g56
(g57
g58
NtRp3303
(dp3304
g61
(dp3305
g69
I3
ssg70
g3299
sg63
(lp3306
S'Ian'
p3307
asbasbasbag56
(g72
g58
NtRp3308
(dp3309
g61
(dp3310
sg70
g3260
sg63
(lp3311
g56
(g77
g58
NtRp3312
(dp3313
g61
(dp3314
g81
g82
ssg70
g3308
sg63
(lp3315
S'id'
p3316
asbag56
(g77
g58
NtRp3317
(dp3318
g61
(dp3319
g88
g89
ssg70
g3308
sg63
(lp3320
S':'
asbag56
(g77
g58
NtRp3321
(dp3322
g61
(dp3323
sg70
g3308
sg63
(lp3324
g56
(g57
g58
NtRp3325
(dp3326
g61
(dp3327
g69
I3
ssg70
g3321
sg63
(lp3328
S'1'
asbasbasbag56
(g72
g58
NtRp3329
(dp3330
g61
(dp3331
sg70
g3260
sg63
(lp3332
g56
(g77
g58
NtRp3333
(dp3334
g61
(dp3335
g81
g82
ssg70
g3329
sg63
(lp3336
S'last_name'
p3337
asbag56
(g77
g58
NtRp3338
(dp3339
g61
(dp3340
g88
g89
ssg70
g3329
sg63
(lp3341
S':'
asbag56
(g77
g58
NtRp3342
(dp3343
g61
(dp3344
sg70
g3329
sg63
(lp3345
g56
(g57
g58
NtRp3346
(dp3347
g61
(dp3348
g69
I3
ssg70
g3342
sg63
(lp3349
S'Scott'
p3350
asbasbasbag56
(g72
g58
NtRp3351
(dp3352
g61
(dp3353
sg70
g3260
sg63
(lp3354
g56
(g77
g58
NtRp3355
(dp3356
g61
(dp3357
g81
g82
ssg70
g3351
sg63
(lp3358
S'password'
p3359
asbag56
(g77
g58
NtRp3360
(dp3361
g61
(dp3362
g88
g89
ssg70
g3351
sg63
(lp3363
S':'
asbag56
(g77
g58
NtRp3364
(dp3365
g61
(dp3366
sg70
g3351
sg63
(lp3367
g56
(g57
g58
NtRp3368
(dp3369
g61
(dp3370
g69
I3
ssg70
g3364
sg63
(lp3371
S'6fb48d01a3959846ba0fe062b1789f17d9cf3d34d3ec5aa948f598bbf4387cb10eb60c797988f41dfea97ee691b338dd77413d430229e401cf7c84e6cd9c4458'
p3372
asbasbasbag56
(g72
g58
NtRp3373
(dp3374
g61
(dp3375
sg70
g3260
sg63
(lp3376
g56
(g77
g58
NtRp3377
(dp3378
g61
(dp3379
g81
g82
ssg70
g3373
sg63
(lp3380
S'registration_key'
p3381
asbag56
(g77
g58
NtRp3382
(dp3383
g61
(dp3384
g88
g89
ssg70
g3373
sg63
(lp3385
S':'
asbag56
(g77
g58
NtRp3386
(dp3387
g61
(dp3388
sg70
g3373
sg63
(lp3389
g56
(g57
g58
NtRp3390
(dp3391
g61
(dp3392
g69
I3
ssg70
g3386
sg63
(lp3393
S''
asbasbasbag56
(g72
g58
NtRp3394
(dp3395
g61
(dp3396
sg70
g3260
sg63
(lp3397
g56
(g77
g58
NtRp3398
(dp3399
g61
(dp3400
g81
g82
ssg70
g3394
sg63
(lp3401
S'reset_password_key'
p3402
asbag56
(g77
g58
NtRp3403
(dp3404
g61
(dp3405
g88
g89
ssg70
g3394
sg63
(lp3406
S':'
asbag56
(g77
g58
NtRp3407
(dp3408
g61
(dp3409
sg70
g3394
sg63
(lp3410
g56
(g57
g58
NtRp3411
(dp3412
g61
(dp3413
g69
I3
ssg70
g3407
sg63
(lp3414
S''
asbasbasbasbasbasbasbasbasbasbasbag56
(g72
g58
NtRp3415
(dp3416
g61
(dp3417
sg70
g3123
sg63
(lp3418
g56
(g77
g58
NtRp3419
(dp3420
g61
(dp3421
g81
g82
ssg70
g3415
sg63
(lp3422
S'last_query'
p3423
asbag56
(g77
g58
NtRp3424
(dp3425
g61
(dp3426
g88
g89
ssg70
g3415
sg63
(lp3427
S':'
asbag56
(g77
g58
NtRp3428
(dp3429
g61
(dp3430
sg70
g3415
sg63
(lp3431
g56
(g57
g58
NtRp3432
(dp3433
g61
(dp3434
g69
I5
ssg70
g3428
sg63
(lp3435
S'db.auth_user.id>0'
p3436
asbasbasbasbasbsS'etype'
p3437
S"<type 'exceptions.NameError'>"
p3438
sS'date'
p3439
S'Sat Dec 17 20:43:50 2011'
p3440
sS'response'
p3441
g56
(g57
g58
NtRp3442
(dp3443
g61
(dp3444
sg63
(lp3445
g56
(g65
g58
NtRp3446
(dp3447
g61
(dp3448
g69
I5
ssg70
Nsg63
(lp3449
g56
(g72
g58
NtRp3450
(dp3451
g61
(dp3452
sg70
g3446
sg63
(lp3453
g56
(g77
g58
NtRp3454
(dp3455
g61
(dp3456
g81
g82
ssg70
g3450
sg63
(lp3457
g219
asbag56
(g77
g58
NtRp3458
(dp3459
g61
(dp3460
g88
g89
ssg70
g3450
sg63
(lp3461
S':'
asbag56
(g77
g58
NtRp3462
(dp3463
g61
(dp3464
sg70
g3450
sg63
(lp3465
g56
(g57
g58
NtRp3466
(dp3467
g61
(dp3468
g69
I5
ssg70
g3462
sg63
(lp3469
S'<cStringIO.StringO object at 0x3a44d50>'
p3470
asbasbasbag56
(g72
g58
NtRp3471
(dp3472
g61
(dp3473
sg70
g3446
sg63
(lp3474
g56
(g77
g58
NtRp3475
(dp3476
g61
(dp3477
g81
g82
ssg70
g3471
sg63
(lp3478
g307
asbag56
(g77
g58
NtRp3479
(dp3480
g61
(dp3481
g88
g89
ssg70
g3471
sg63
(lp3482
S':'
asbag56
(g77
g58
NtRp3483
(dp3484
g61
(dp3485
sg70
g3471
sg63
(lp3486
g56
(g57
g58
NtRp3487
(dp3488
g61
(dp3489
g69
I5
ssg70
g3483
sg63
(lp3490
g56
(g65
g58
NtRp3491
(dp3492
g61
(dp3493
g69
I4
ssg70
Nsg63
(lp3494
g56
(g72
g58
NtRp3495
(dp3496
g61
(dp3497
sg70
g3491
sg63
(lp3498
g56
(g77
g58
NtRp3499
(dp3500
g61
(dp3501
g81
g82
ssg70
g3495
sg63
(lp3502
S'session_id_topoi'
p3503
asbag56
(g77
g58
NtRp3504
(dp3505
g61
(dp3506
g88
g89
ssg70
g3495
sg63
(lp3507
S':'
asbag56
(g77
g58
NtRp3508
(dp3509
g61
(dp3510
sg70
g3495
sg63
(lp3511
g56
(g57
g58
NtRp3512
(dp3513
g61
(dp3514
g69
I4
ssg70
g3508
sg63
(lp3515
g56
(g65
g58
NtRp3516
(dp3517
g61
(dp3518
g69
I3
ssg70
Nsg63
(lp3519
g56
(g72
g58
NtRp3520
(dp3521
g61
(dp3522
sg70
g3516
sg63
(lp3523
g56
(g77
g58
NtRp3524
(dp3525
g61
(dp3526
g81
g82
ssg70
g3520
sg63
(lp3527
g357
asbag56
(g77
g58
NtRp3528
(dp3529
g61
(dp3530
g88
g89
ssg70
g3520
sg63
(lp3531
S':'
asbag56
(g77
g58
NtRp3532
(dp3533
g61
(dp3534
sg70
g3520
sg63
(lp3535
g56
(g57
g58
NtRp3536
(dp3537
g61
(dp3538
g69
I3
ssg70
g3532
sg63
(lp3539
S''
asbasbasbag56
(g72
g58
NtRp3540
(dp3541
g61
(dp3542
sg70
g3516
sg63
(lp3543
g56
(g77
g58
NtRp3544
(dp3545
g61
(dp3546
g81
g82
ssg70
g3540
sg63
(lp3547
g378
asbag56
(g77
g58
NtRp3548
(dp3549
g61
(dp3550
g88
g89
ssg70
g3540
sg63
(lp3551
S':'
asbag56
(g77
g58
NtRp3552
(dp3553
g61
(dp3554
sg70
g3540
sg63
(lp3555
g56
(g57
g58
NtRp3556
(dp3557
g61
(dp3558
g69
I3
ssg70
g3552
sg63
(lp3559
S''
asbasbasbag56
(g72
g58
NtRp3560
(dp3561
g61
(dp3562
sg70
g3516
sg63
(lp3563
g56
(g77
g58
NtRp3564
(dp3565
g61
(dp3566
g81
g82
ssg70
g3560
sg63
(lp3567
g399
asbag56
(g77
g58
NtRp3568
(dp3569
g61
(dp3570
g88
g89
ssg70
g3560
sg63
(lp3571
S':'
asbag56
(g77
g58
NtRp3572
(dp3573
g61
(dp3574
sg70
g3560
sg63
(lp3575
g56
(g57
g58
NtRp3576
(dp3577
g61
(dp3578
g69
I3
ssg70
g3572
sg63
(lp3579
S'2592000'
p3580
asbasbasbag56
(g72
g58
NtRp3581
(dp3582
g61
(dp3583
sg70
g3516
sg63
(lp3584
g56
(g77
g58
NtRp3585
(dp3586
g61
(dp3587
g81
g82
ssg70
g3581
sg63
(lp3588
g420
asbag56
(g77
g58
NtRp3589
(dp3590
g61
(dp3591
g88
g89
ssg70
g3581
sg63
(lp3592
S':'
asbag56
(g77
g58
NtRp3593
(dp3594
g61
(dp3595
sg70
g3581
sg63
(lp3596
g56
(g57
g58
NtRp3597
(dp3598
g61
(dp3599
g69
I3
ssg70
g3593
sg63
(lp3600
S''
asbasbasbag56
(g72
g58
NtRp3601
(dp3602
g61
(dp3603
sg70
g3516
sg63
(lp3604
g56
(g77
g58
NtRp3605
(dp3606
g61
(dp3607
g81
g82
ssg70
g3601
sg63
(lp3608
g441
asbag56
(g77
g58
NtRp3609
(dp3610
g61
(dp3611
g88
g89
ssg70
g3601
sg63
(lp3612
S':'
asbag56
(g77
g58
NtRp3613
(dp3614
g61
(dp3615
sg70
g3601
sg63
(lp3616
g56
(g57
g58
NtRp3617
(dp3618
g61
(dp3619
g69
I3
ssg70
g3613
sg63
(lp3620
S''
asbasbasbag56
(g72
g58
NtRp3621
(dp3622
g61
(dp3623
sg70
g3516
sg63
(lp3624
g56
(g77
g58
NtRp3625
(dp3626
g61
(dp3627
g81
g82
ssg70
g3621
sg63
(lp3628
g462
asbag56
(g77
g58
NtRp3629
(dp3630
g61
(dp3631
g88
g89
ssg70
g3621
sg63
(lp3632
S':'
asbag56
(g77
g58
NtRp3633
(dp3634
g61
(dp3635
sg70
g3621
sg63
(lp3636
g56
(g57
g58
NtRp3637
(dp3638
g61
(dp3639
g69
I3
ssg70
g3633
sg63
(lp3640
S'/'
asbasbasbag56
(g72
g58
NtRp3641
(dp3642
g61
(dp3643
sg70
g3516
sg63
(lp3644
g56
(g77
g58
NtRp3645
(dp3646
g61
(dp3647
g81
g82
ssg70
g3641
sg63
(lp3648
g483
asbag56
(g77
g58
NtRp3649
(dp3650
g61
(dp3651
g88
g89
ssg70
g3641
sg63
(lp3652
S':'
asbag56
(g77
g58
NtRp3653
(dp3654
g61
(dp3655
sg70
g3641
sg63
(lp3656
g56
(g57
g58
NtRp3657
(dp3658
g61
(dp3659
g69
I3
ssg70
g3653
sg63
(lp3660
S''
asbasbasbag56
(g72
g58
NtRp3661
(dp3662
g61
(dp3663
sg70
g3516
sg63
(lp3664
g56
(g77
g58
NtRp3665
(dp3666
g61
(dp3667
g81
g82
ssg70
g3661
sg63
(lp3668
g504
asbag56
(g77
g58
NtRp3669
(dp3670
g61
(dp3671
g88
g89
ssg70
g3661
sg63
(lp3672
S':'
asbag56
(g77
g58
NtRp3673
(dp3674
g61
(dp3675
sg70
g3661
sg63
(lp3676
g56
(g57
g58
NtRp3677
(dp3678
g61
(dp3679
g69
I3
ssg70
g3673
sg63
(lp3680
S''
asbasbasbasbasbasbasbasbasbasbasbag56
(g72
g58
NtRp3681
(dp3682
g61
(dp3683
sg70
g3446
sg63
(lp3684
g56
(g77
g58
NtRp3685
(dp3686
g61
(dp3687
g81
g82
ssg70
g3681
sg63
(lp3688
S'error'
p3689
asbag56
(g77
g58
NtRp3690
(dp3691
g61
(dp3692
g88
g89
ssg70
g3681
sg63
(lp3693
S':'
asbag56
(g77
g58
NtRp3694
(dp3695
g61
(dp3696
sg70
g3681
sg63
(lp3697
g56
(g57
g58
NtRp3698
(dp3699
g61
(dp3700
g69
I5
ssg70
g3694
sg63
(lp3701
S'form was not processed'
p3702
asbasbasbag56
(g72
g58
NtRp3703
(dp3704
g61
(dp3705
sg70
g3446
sg63
(lp3706
g56
(g77
g58
NtRp3707
(dp3708
g61
(dp3709
g81
g82
ssg70
g3703
sg63
(lp3710
S'files'
p3711
asbag56
(g77
g58
NtRp3712
(dp3713
g61
(dp3714
g88
g89
ssg70
g3703
sg63
(lp3715
S':'
asbag56
(g77
g58
NtRp3716
(dp3717
g61
(dp3718
sg70
g3703
sg63
(lp3719
g56
(g57
g58
NtRp3720
(dp3721
g61
(dp3722
g69
I5
ssg70
g3716
sg63
(lp3723
g56
(g65
g58
NtRp3724
(dp3725
g61
(dp3726
g69
I4
ssg70
Nsg63
(lp3727
sbasbasbasbag56
(g72
g58
NtRp3728
(dp3729
g61
(dp3730
sg70
g3446
sg63
(lp3731
g56
(g77
g58
NtRp3732
(dp3733
g61
(dp3734
g81
g82
ssg70
g3728
sg63
(lp3735
S'flash'
p3736
asbag56
(g77
g58
NtRp3737
(dp3738
g61
(dp3739
g88
g89
ssg70
g3728
sg63
(lp3740
S':'
asbag56
(g77
g58
NtRp3741
(dp3742
g61
(dp3743
sg70
g3728
sg63
(lp3744
g56
(g57
g58
NtRp3745
(dp3746
g61
(dp3747
g69
I5
ssg70
g3741
sg63
(lp3748
S''
asbasbasbag56
(g72
g58
NtRp3749
(dp3750
g61
(dp3751
sg70
g3446
sg63
(lp3752
g56
(g77
g58
NtRp3753
(dp3754
g61
(dp3755
g81
g82
ssg70
g3749
sg63
(lp3756
S'generic_patterns'
p3757
asbag56
(g77
g58
NtRp3758
(dp3759
g61
(dp3760
g88
g89
ssg70
g3749
sg63
(lp3761
S':'
asbag56
(g77
g58
NtRp3762
(dp3763
g61
(dp3764
sg70
g3749
sg63
(lp3765
g56
(g57
g58
NtRp3766
(dp3767
g61
(dp3768
g69
I5
ssg70
g3762
sg63
(lp3769
g56
(g65
g58
NtRp3770
(dp3771
g61
(dp3772
g69
I4
ssg70
Nsg63
(lp3773
g56
(g72
g58
NtRp3774
(dp3775
g61
(dp3776
sg70
g3770
sg63
(lp3777
g56
(g77
g58
NtRp3778
(dp3779
g61
(dp3780
sg70
g3774
sg63
(lp3781
g56
(g57
g58
NtRp3782
(dp3783
g61
(dp3784
g69
I4
ssg70
g3778
sg63
(lp3785
S'*'
asbasbasbasbasbasbasbag56
(g72
g58
NtRp3786
(dp3787
g61
(dp3788
sg70
g3446
sg63
(lp3789
g56
(g77
g58
NtRp3790
(dp3791
g61
(dp3792
g81
g82
ssg70
g3786
sg63
(lp3793
S'headers'
p3794
asbag56
(g77
g58
NtRp3795
(dp3796
g61
(dp3797
g88
g89
ssg70
g3786
sg63
(lp3798
S':'
asbag56
(g77
g58
NtRp3799
(dp3800
g61
(dp3801
sg70
g3786
sg63
(lp3802
g56
(g57
g58
NtRp3803
(dp3804
g61
(dp3805
g69
I5
ssg70
g3799
sg63
(lp3806
g56
(g65
g58
NtRp3807
(dp3808
g61
(dp3809
g69
I4
ssg70
Nsg63
(lp3810
g56
(g72
g58
NtRp3811
(dp3812
g61
(dp3813
sg70
g3807
sg63
(lp3814
g56
(g77
g58
NtRp3815
(dp3816
g61
(dp3817
g81
g82
ssg70
g3811
sg63
(lp3818
S'Cache-Control'
p3819
asbag56
(g77
g58
NtRp3820
(dp3821
g61
(dp3822
g88
g89
ssg70
g3811
sg63
(lp3823
S':'
asbag56
(g77
g58
NtRp3824
(dp3825
g61
(dp3826
sg70
g3811
sg63
(lp3827
g56
(g57
g58
NtRp3828
(dp3829
g61
(dp3830
g69
I4
ssg70
g3824
sg63
(lp3831
S'no-store, no-cache, must-revalidate, post-check=0, pre-check=0'
p3832
asbasbasbag56
(g72
g58
NtRp3833
(dp3834
g61
(dp3835
sg70
g3807
sg63
(lp3836
g56
(g77
g58
NtRp3837
(dp3838
g61
(dp3839
g81
g82
ssg70
g3833
sg63
(lp3840
S'Content-Type'
p3841
asbag56
(g77
g58
NtRp3842
(dp3843
g61
(dp3844
g88
g89
ssg70
g3833
sg63
(lp3845
S':'
asbag56
(g77
g58
NtRp3846
(dp3847
g61
(dp3848
sg70
g3833
sg63
(lp3849
g56
(g57
g58
NtRp3850
(dp3851
g61
(dp3852
g69
I4
ssg70
g3846
sg63
(lp3853
S'text/html; charset=utf-8'
p3854
asbasbasbag56
(g72
g58
NtRp3855
(dp3856
g61
(dp3857
sg70
g3807
sg63
(lp3858
g56
(g77
g58
NtRp3859
(dp3860
g61
(dp3861
g81
g82
ssg70
g3855
sg63
(lp3862
S'Expires'
p3863
asbag56
(g77
g58
NtRp3864
(dp3865
g61
(dp3866
g88
g89
ssg70
g3855
sg63
(lp3867
S':'
asbag56
(g77
g58
NtRp3868
(dp3869
g61
(dp3870
sg70
g3855
sg63
(lp3871
g56
(g57
g58
NtRp3872
(dp3873
g61
(dp3874
g69
I4
ssg70
g3868
sg63
(lp3875
S'Sun, 18 Dec 2011 01:43:50 GMT'
p3876
asbasbasbag56
(g72
g58
NtRp3877
(dp3878
g61
(dp3879
sg70
g3807
sg63
(lp3880
g56
(g77
g58
NtRp3881
(dp3882
g61
(dp3883
g81
g82
ssg70
g3877
sg63
(lp3884
S'Pragma'
p3885
asbag56
(g77
g58
NtRp3886
(dp3887
g61
(dp3888
g88
g89
ssg70
g3877
sg63
(lp3889
S':'
asbag56
(g77
g58
NtRp3890
(dp3891
g61
(dp3892
sg70
g3877
sg63
(lp3893
g56
(g57
g58
NtRp3894
(dp3895
g61
(dp3896
g69
I4
ssg70
g3890
sg63
(lp3897
S'no-cache'
p3898
asbasbasbag56
(g72
g58
NtRp3899
(dp3900
g61
(dp3901
sg70
g3807
sg63
(lp3902
g56
(g77
g58
NtRp3903
(dp3904
g61
(dp3905
g81
g82
ssg70
g3899
sg63
(lp3906
S'X-Powered-By'
p3907
asbag56
(g77
g58
NtRp3908
(dp3909
g61
(dp3910
g88
g89
ssg70
g3899
sg63
(lp3911
S':'
asbag56
(g77
g58
NtRp3912
(dp3913
g61
(dp3914
sg70
g3899
sg63
(lp3915
g56
(g57
g58
NtRp3916
(dp3917
g61
(dp3918
g69
I4
ssg70
g3912
sg63
(lp3919
S'web2py'
p3920
asbasbasbasbasbasbasbag56
(g72
g58
NtRp3921
(dp3922
g61
(dp3923
sg70
g3446
sg63
(lp3924
g56
(g77
g58
NtRp3925
(dp3926
g61
(dp3927
g81
g82
ssg70
g3921
sg63
(lp3928
S'menu'
p3929
asbag56
(g77
g58
NtRp3930
(dp3931
g61
(dp3932
g88
g89
ssg70
g3921
sg63
(lp3933
S':'
asbag56
(g77
g58
NtRp3934
(dp3935
g61
(dp3936
sg70
g3921
sg63
(lp3937
g56
(g57
g58
NtRp3938
(dp3939
g61
(dp3940
g69
I5
ssg70
g3934
sg63
(lp3941
g56
(g65
g58
NtRp3942
(dp3943
g61
(dp3944
g69
I4
ssg70
Nsg63
(lp3945
g56
(g72
g58
NtRp3946
(dp3947
g61
(dp3948
sg70
g3942
sg63
(lp3949
g56
(g77
g58
NtRp3950
(dp3951
g61
(dp3952
sg70
g3946
sg63
(lp3953
g56
(g57
g58
NtRp3954
(dp3955
g61
(dp3956
g69
I4
ssg70
g3950
sg63
(lp3957
g56
(g65
g58
NtRp3958
(dp3959
g61
(dp3960
g69
I3
ssg70
Nsg63
(lp3961
g56
(g72
g58
NtRp3962
(dp3963
g61
(dp3964
sg70
g3958
sg63
(lp3965
g56
(g77
g58
NtRp3966
(dp3967
g61
(dp3968
sg70
g3962
sg63
(lp3969
g56
(g57
g58
NtRp3970
(dp3971
g61
(dp3972
g69
I3
ssg70
g3966
sg63
(lp3973
cgluon.languages
lazyT_unpickle
p3974
(S't\x04\x00\x00\x00Home'
tRp3975
asbasbasbag56
(g72
g58
NtRp3976
(dp3977
g61
(dp3978
sg70
g3958
sg63
(lp3979
g56
(g77
g58
NtRp3980
(dp3981
g61
(dp3982
sg70
g3976
sg63
(lp3983
g56
(g57
g58
NtRp3984
(dp3985
g61
(dp3986
g69
I3
ssg70
g3980
sg63
(lp3987
g861
asbasbasbag56
(g72
g58
NtRp3988
(dp3989
g61
(dp3990
sg70
g3958
sg63
(lp3991
g56
(g77
g58
NtRp3992
(dp3993
g61
(dp3994
sg70
g3988
sg63
(lp3995
g56
(g57
g58
NtRp3996
(dp3997
g61
(dp3998
g69
I3
ssg70
g3992
sg63
(lp3999
S'/topoi/default/index.load'
p4000
asbasbasbag56
(g72
g58
NtRp4001
(dp4002
g61
(dp4003
sg70
g3958
sg63
(lp4004
g56
(g77
g58
NtRp4005
(dp4006
g61
(dp4007
sg70
g4001
sg63
(lp4008
g56
(g57
g58
NtRp4009
(dp4010
g61
(dp4011
g69
I3
ssg70
g4005
sg63
(lp4012
g56
(g65
g58
NtRp4013
(dp4014
g61
(dp4015
g69
I2
ssg70
Nsg63
(lp4016
sbasbasbasbasbasbasbasbag56
(g72
g58
NtRp4017
(dp4018
g61
(dp4019
sg70
g3942
sg63
(lp4020
g56
(g77
g58
NtRp4021
(dp4022
g61
(dp4023
sg70
g4017
sg63
(lp4024
g56
(g57
g58
NtRp4025
(dp4026
g61
(dp4027
g69
I4
ssg70
g4021
sg63
(lp4028
g56
(g65
g58
NtRp4029
(dp4030
g61
(dp4031
g69
I3
ssg70
Nsg63
(lp4032
g56
(g72
g58
NtRp4033
(dp4034
g61
(dp4035
sg70
g4029
sg63
(lp4036
g56
(g77
g58
NtRp4037
(dp4038
g61
(dp4039
sg70
g4033
sg63
(lp4040
g56
(g57
g58
NtRp4041
(dp4042
g61
(dp4043
g69
I3
ssg70
g4037
sg63
(lp4044
g3974
(S't\x01\x00\x00\x00S'
tRp4045
asbasbasbag56
(g72
g58
NtRp4046
(dp4047
g61
(dp4048
sg70
g4029
sg63
(lp4049
g56
(g77
g58
NtRp4050
(dp4051
g61
(dp4052
sg70
g4046
sg63
(lp4053
g56
(g57
g58
NtRp4054
(dp4055
g61
(dp4056
g69
I3
ssg70
g4050
sg63
(lp4057
g861
asbasbasbag56
(g72
g58
NtRp4058
(dp4059
g61
(dp4060
sg70
g4029
sg63
(lp4061
g56
(g77
g58
NtRp4062
(dp4063
g61
(dp4064
sg70
g4058
sg63
(lp4065
g56
(g57
g58
NtRp4066
(dp4067
g61
(dp4068
g69
I3
ssg70
g4062
sg63
(lp4069
S'/admin/default/design/topoi.load'
p4070
asbasbasbag56
(g72
g58
NtRp4071
(dp4072
g61
(dp4073
sg70
g4029
sg63
(lp4074
g56
(g77
g58
NtRp4075
(dp4076
g61
(dp4077
sg70
g4071
sg63
(lp4078
g56
(g57
g58
NtRp4079
(dp4080
g61
(dp4081
g69
I3
ssg70
g4075
sg63
(lp4082
g56
(g65
g58
NtRp4083
(dp4084
g61
(dp4085
g69
I2
ssg70
Nsg63
(lp4086
g56
(g72
g58
NtRp4087
(dp4088
g61
(dp4089
sg70
g4083
sg63
(lp4090
g56
(g77
g58
NtRp4091
(dp4092
g61
(dp4093
sg70
g4087
sg63
(lp4094
g56
(g57
g58
NtRp4095
(dp4096
g61
(dp4097
g69
I2
ssg70
g4091
sg63
(lp4098
g56
(g65
g58
NtRp4099
(dp4100
g61
(dp4101
g69
I1
ssg70
Nsg63
(lp4102
g56
(g72
g58
NtRp4103
(dp4104
g61
(dp4105
sg70
g4099
sg63
(lp4106
g56
(g77
g58
NtRp4107
(dp4108
g61
(dp4109
sg70
g4103
sg63
(lp4110
g56
(g57
g58
NtRp4111
(dp4112
g61
(dp4113
g69
I1
ssg70
g4107
sg63
(lp4114
g3974
(S't\n\x00\x00\x00Controller'
tRp4115
asbasbasbag56
(g72
g58
NtRp4116
(dp4117
g61
(dp4118
sg70
g4099
sg63
(lp4119
g56
(g77
g58
NtRp4120
(dp4121
g61
(dp4122
sg70
g4116
sg63
(lp4123
g56
(g57
g58
NtRp4124
(dp4125
g61
(dp4126
g69
I1
ssg70
g4120
sg63
(lp4127
I00
asbasbasbag56
(g72
g58
NtRp4128
(dp4129
g61
(dp4130
sg70
g4099
sg63
(lp4131
g56
(g77
g58
NtRp4132
(dp4133
g61
(dp4134
sg70
g4128
sg63
(lp4135
g56
(g57
g58
NtRp4136
(dp4137
g61
(dp4138
g69
I1
ssg70
g4132
sg63
(lp4139
S'/admin/default/edit/topoi/controllers/plugin_ajaxselect.py'
p4140
asbasbasbasbasbasbasbag56
(g72
g58
NtRp4141
(dp4142
g61
(dp4143
sg70
g4083
sg63
(lp4144
g56
(g77
g58
NtRp4145
(dp4146
g61
(dp4147
sg70
g4141
sg63
(lp4148
g56
(g57
g58
NtRp4149
(dp4150
g61
(dp4151
g69
I2
ssg70
g4145
sg63
(lp4152
g56
(g65
g58
NtRp4153
(dp4154
g61
(dp4155
g69
I1
ssg70
Nsg63
(lp4156
g56
(g72
g58
NtRp4157
(dp4158
g61
(dp4159
sg70
g4153
sg63
(lp4160
g56
(g77
g58
NtRp4161
(dp4162
g61
(dp4163
sg70
g4157
sg63
(lp4164
g56
(g57
g58
NtRp4165
(dp4166
g61
(dp4167
g69
I1
ssg70
g4161
sg63
(lp4168
g3974
(S't\x04\x00\x00\x00View'
tRp4169
asbasbasbag56
(g72
g58
NtRp4170
(dp4171
g61
(dp4172
sg70
g4153
sg63
(lp4173
g56
(g77
g58
NtRp4174
(dp4175
g61
(dp4176
sg70
g4170
sg63
(lp4177
g56
(g57
g58
NtRp4178
(dp4179
g61
(dp4180
g69
I1
ssg70
g4174
sg63
(lp4181
I00
asbasbasbag56
(g72
g58
NtRp4182
(dp4183
g61
(dp4184
sg70
g4153
sg63
(lp4185
g56
(g77
g58
NtRp4186
(dp4187
g61
(dp4188
sg70
g4182
sg63
(lp4189
g56
(g57
g58
NtRp4190
(dp4191
g61
(dp4192
g69
I1
ssg70
g4186
sg63
(lp4193
S'/admin/default/edit/topoi/views/plugin_ajaxselect/set_widget.load'
p4194
asbasbasbasbasbasbasbag56
(g72
g58
NtRp4195
(dp4196
g61
(dp4197
sg70
g4083
sg63
(lp4198
g56
(g77
g58
NtRp4199
(dp4200
g61
(dp4201
sg70
g4195
sg63
(lp4202
g56
(g57
g58
NtRp4203
(dp4204
g61
(dp4205
g69
I2
ssg70
g4199
sg63
(lp4206
g56
(g65
g58
NtRp4207
(dp4208
g61
(dp4209
g69
I1
ssg70
Nsg63
(lp4210
g56
(g72
g58
NtRp4211
(dp4212
g61
(dp4213
sg70
g4207
sg63
(lp4214
g56
(g77
g58
NtRp4215
(dp4216
g61
(dp4217
sg70
g4211
sg63
(lp4218
g56
(g57
g58
NtRp4219
(dp4220
g61
(dp4221
g69
I1
ssg70
g4215
sg63
(lp4222
g3974
(S't\x06\x00\x00\x00Layout'
tRp4223
asbasbasbag56
(g72
g58
NtRp4224
(dp4225
g61
(dp4226
sg70
g4207
sg63
(lp4227
g56
(g77
g58
NtRp4228
(dp4229
g61
(dp4230
sg70
g4224
sg63
(lp4231
g56
(g57
g58
NtRp4232
(dp4233
g61
(dp4234
g69
I1
ssg70
g4228
sg63
(lp4235
I00
asbasbasbag56
(g72
g58
NtRp4236
(dp4237
g61
(dp4238
sg70
g4207
sg63
(lp4239
g56
(g77
g58
NtRp4240
(dp4241
g61
(dp4242
sg70
g4236
sg63
(lp4243
g56
(g57
g58
NtRp4244
(dp4245
g61
(dp4246
g69
I1
ssg70
g4240
sg63
(lp4247
S'/admin/default/edit/topoi/views/layout.html'
p4248
asbasbasbasbasbasbasbag56
(g72
g58
NtRp4249
(dp4250
g61
(dp4251
sg70
g4083
sg63
(lp4252
g56
(g77
g58
NtRp4253
(dp4254
g61
(dp4255
sg70
g4249
sg63
(lp4256
g56
(g57
g58
NtRp4257
(dp4258
g61
(dp4259
g69
I2
ssg70
g4253
sg63
(lp4260
g56
(g65
g58
NtRp4261
(dp4262
g61
(dp4263
g69
I1
ssg70
Nsg63
(lp4264
g56
(g72
g58
NtRp4265
(dp4266
g61
(dp4267
sg70
g4261
sg63
(lp4268
g56
(g77
g58
NtRp4269
(dp4270
g61
(dp4271
sg70
g4265
sg63
(lp4272
g56
(g57
g58
NtRp4273
(dp4274
g61
(dp4275
g69
I1
ssg70
g4269
sg63
(lp4276
g3974
(S't\n\x00\x00\x00Stylesheet'
tRp4277
asbasbasbag56
(g72
g58
NtRp4278
(dp4279
g61
(dp4280
sg70
g4261
sg63
(lp4281
g56
(g77
g58
NtRp4282
(dp4283
g61
(dp4284
sg70
g4278
sg63
(lp4285
g56
(g57
g58
NtRp4286
(dp4287
g61
(dp4288
g69
I1
ssg70
g4282
sg63
(lp4289
I00
asbasbasbag56
(g72
g58
NtRp4290
(dp4291
g61
(dp4292
sg70
g4261
sg63
(lp4293
g56
(g77
g58
NtRp4294
(dp4295
g61
(dp4296
sg70
g4290
sg63
(lp4297
g56
(g57
g58
NtRp4298
(dp4299
g61
(dp4300
g69
I1
ssg70
g4294
sg63
(lp4301
S'/admin/default/edit/topoi/static/base.css'
p4302
asbasbasbasbasbasbasbag56
(g72
g58
NtRp4303
(dp4304
g61
(dp4305
sg70
g4083
sg63
(lp4306
g56
(g77
g58
NtRp4307
(dp4308
g61
(dp4309
sg70
g4303
sg63
(lp4310
g56
(g57
g58
NtRp4311
(dp4312
g61
(dp4313
g69
I2
ssg70
g4307
sg63
(lp4314
g56
(g65
g58
NtRp4315
(dp4316
g61
(dp4317
g69
I1
ssg70
Nsg63
(lp4318
g56
(g72
g58
NtRp4319
(dp4320
g61
(dp4321
sg70
g4315
sg63
(lp4322
g56
(g77
g58
NtRp4323
(dp4324
g61
(dp4325
sg70
g4319
sg63
(lp4326
g56
(g57
g58
NtRp4327
(dp4328
g61
(dp4329
g69
I1
ssg70
g4323
sg63
(lp4330
g3974
(S's\x08\x00\x00\x00DB Model'
tRp4331
asbasbasbag56
(g72
g58
NtRp4332
(dp4333
g61
(dp4334
sg70
g4315
sg63
(lp4335
g56
(g77
g58
NtRp4336
(dp4337
g61
(dp4338
sg70
g4332
sg63
(lp4339
g56
(g57
g58
NtRp4340
(dp4341
g61
(dp4342
g69
I1
ssg70
g4336
sg63
(lp4343
I00
asbasbasbag56
(g72
g58
NtRp4344
(dp4345
g61
(dp4346
sg70
g4315
sg63
(lp4347
g56
(g77
g58
NtRp4348
(dp4349
g61
(dp4350
sg70
g4344
sg63
(lp4351
g56
(g57
g58
NtRp4352
(dp4353
g61
(dp4354
g69
I1
ssg70
g4348
sg63
(lp4355
S'/admin/default/edit/topoi/models/db.py'
p4356
asbasbasbasbasbasbasbag56
(g72
g58
NtRp4357
(dp4358
g61
(dp4359
sg70
g4083
sg63
(lp4360
g56
(g77
g58
NtRp4361
(dp4362
g61
(dp4363
sg70
g4357
sg63
(lp4364
g56
(g57
g58
NtRp4365
(dp4366
g61
(dp4367
g69
I2
ssg70
g4361
sg63
(lp4368
g56
(g65
g58
NtRp4369
(dp4370
g61
(dp4371
g69
I1
ssg70
Nsg63
(lp4372
g56
(g72
g58
NtRp4373
(dp4374
g61
(dp4375
sg70
g4369
sg63
(lp4376
g56
(g77
g58
NtRp4377
(dp4378
g61
(dp4379
sg70
g4373
sg63
(lp4380
g56
(g57
g58
NtRp4381
(dp4382
g61
(dp4383
g69
I1
ssg70
g4377
sg63
(lp4384
g3974
(S's\n\x00\x00\x00Menu Model'
tRp4385
asbasbasbag56
(g72
g58
NtRp4386
(dp4387
g61
(dp4388
sg70
g4369
sg63
(lp4389
g56
(g77
g58
NtRp4390
(dp4391
g61
(dp4392
sg70
g4386
sg63
(lp4393
g56
(g57
g58
NtRp4394
(dp4395
g61
(dp4396
g69
I1
ssg70
g4390
sg63
(lp4397
I00
asbasbasbag56
(g72
g58
NtRp4398
(dp4399
g61
(dp4400
sg70
g4369
sg63
(lp4401
g56
(g77
g58
NtRp4402
(dp4403
g61
(dp4404
sg70
g4398
sg63
(lp4405
g56
(g57
g58
NtRp4406
(dp4407
g61
(dp4408
g69
I1
ssg70
g4402
sg63
(lp4409
S'/admin/default/edit/topoi/models/menu.py'
p4410
asbasbasbasbasbasbasbag56
(g72
g58
NtRp4411
(dp4412
g61
(dp4413
sg70
g4083
sg63
(lp4414
g56
(g77
g58
NtRp4415
(dp4416
g61
(dp4417
sg70
g4411
sg63
(lp4418
g56
(g57
g58
NtRp4419
(dp4420
g61
(dp4421
g69
I2
ssg70
g4415
sg63
(lp4422
g56
(g65
g58
NtRp4423
(dp4424
g61
(dp4425
g69
I1
ssg70
Nsg63
(lp4426
g56
(g72
g58
NtRp4427
(dp4428
g61
(dp4429
sg70
g4423
sg63
(lp4430
g56
(g77
g58
NtRp4431
(dp4432
g61
(dp4433
sg70
g4427
sg63
(lp4434
g56
(g57
g58
NtRp4435
(dp4436
g61
(dp4437
g69
I1
ssg70
g4431
sg63
(lp4438
g3974
(S't\x08\x00\x00\x00Database'
tRp4439
asbasbasbag56
(g72
g58
NtRp4440
(dp4441
g61
(dp4442
sg70
g4423
sg63
(lp4443
g56
(g77
g58
NtRp4444
(dp4445
g61
(dp4446
sg70
g4440
sg63
(lp4447
g56
(g57
g58
NtRp4448
(dp4449
g61
(dp4450
g69
I1
ssg70
g4444
sg63
(lp4451
I00
asbasbasbag56
(g72
g58
NtRp4452
(dp4453
g61
(dp4454
sg70
g4423
sg63
(lp4455
g56
(g77
g58
NtRp4456
(dp4457
g61
(dp4458
sg70
g4452
sg63
(lp4459
g56
(g57
g58
NtRp4460
(dp4461
g61
(dp4462
g69
I1
ssg70
g4456
sg63
(lp4463
S'/topoi/appadmin/index.load'
p4464
asbasbasbasbasbasbasbag56
(g72
g58
NtRp4465
(dp4466
g61
(dp4467
sg70
g4083
sg63
(lp4468
g56
(g77
g58
NtRp4469
(dp4470
g61
(dp4471
sg70
g4465
sg63
(lp4472
g56
(g57
g58
NtRp4473
(dp4474
g61
(dp4475
g69
I2
ssg70
g4469
sg63
(lp4476
g56
(g65
g58
NtRp4477
(dp4478
g61
(dp4479
g69
I1
ssg70
Nsg63
(lp4480
g56
(g72
g58
NtRp4481
(dp4482
g61
(dp4483
sg70
g4477
sg63
(lp4484
g56
(g77
g58
NtRp4485
(dp4486
g61
(dp4487
sg70
g4481
sg63
(lp4488
g56
(g57
g58
NtRp4489
(dp4490
g61
(dp4491
g69
I1
ssg70
g4485
sg63
(lp4492
g3974
(S't\x06\x00\x00\x00Errors'
tRp4493
asbasbasbag56
(g72
g58
NtRp4494
(dp4495
g61
(dp4496
sg70
g4477
sg63
(lp4497
g56
(g77
g58
NtRp4498
(dp4499
g61
(dp4500
sg70
g4494
sg63
(lp4501
g56
(g57
g58
NtRp4502
(dp4503
g61
(dp4504
g69
I1
ssg70
g4498
sg63
(lp4505
I00
asbasbasbag56
(g72
g58
NtRp4506
(dp4507
g61
(dp4508
sg70
g4477
sg63
(lp4509
g56
(g77
g58
NtRp4510
(dp4511
g61
(dp4512
sg70
g4506
sg63
(lp4513
g56
(g57
g58
NtRp4514
(dp4515
g61
(dp4516
g69
I1
ssg70
g4510
sg63
(lp4517
S'/admin/default/errors/topoi.load'
p4518
asbasbasbasbasbasbasbag56
(g72
g58
NtRp4519
(dp4520
g61
(dp4521
sg70
g4083
sg63
(lp4522
g56
(g77
g58
NtRp4523
(dp4524
g61
(dp4525
sg70
g4519
sg63
(lp4526
g56
(g57
g58
NtRp4527
(dp4528
g61
(dp4529
g69
I2
ssg70
g4523
sg63
(lp4530
g56
(g65
g58
NtRp4531
(dp4532
g61
(dp4533
g69
I1
ssg70
Nsg63
(lp4534
g56
(g72
g58
NtRp4535
(dp4536
g61
(dp4537
sg70
g4531
sg63
(lp4538
g56
(g77
g58
NtRp4539
(dp4540
g61
(dp4541
sg70
g4535
sg63
(lp4542
g56
(g57
g58
NtRp4543
(dp4544
g61
(dp4545
g69
I1
ssg70
g4539
sg63
(lp4546
g3974
(S't\x05\x00\x00\x00About'
tRp4547
asbasbasbag56
(g72
g58
NtRp4548
(dp4549
g61
(dp4550
sg70
g4531
sg63
(lp4551
g56
(g77
g58
NtRp4552
(dp4553
g61
(dp4554
sg70
g4548
sg63
(lp4555
g56
(g57
g58
NtRp4556
(dp4557
g61
(dp4558
g69
I1
ssg70
g4552
sg63
(lp4559
I00
asbasbasbag56
(g72
g58
NtRp4560
(dp4561
g61
(dp4562
sg70
g4531
sg63
(lp4563
g56
(g77
g58
NtRp4564
(dp4565
g61
(dp4566
sg70
g4560
sg63
(lp4567
g56
(g57
g58
NtRp4568
(dp4569
g61
(dp4570
g69
I1
ssg70
g4564
sg63
(lp4571
S'/admin/default/about/topoi.load'
p4572
asbasbasbasbasbasbasbasbasbasbasbasbasbasbasbasbasbasbasbag56
(g72
g58
NtRp4573
(dp4574
g61
(dp4575
sg70
g3446
sg63
(lp4576
g56
(g77
g58
NtRp4577
(dp4578
g61
(dp4579
g81
g82
ssg70
g4573
sg63
(lp4580
S'meta'
p4581
asbag56
(g77
g58
NtRp4582
(dp4583
g61
(dp4584
g88
g89
ssg70
g4573
sg63
(lp4585
S':'
asbag56
(g77
g58
NtRp4586
(dp4587
g61
(dp4588
sg70
g4573
sg63
(lp4589
g56
(g57
g58
NtRp4590
(dp4591
g61
(dp4592
g69
I5
ssg70
g4586
sg63
(lp4593
g56
(g65
g58
NtRp4594
(dp4595
g61
(dp4596
g69
I4
ssg70
Nsg63
(lp4597
g56
(g72
g58
NtRp4598
(dp4599
g61
(dp4600
sg70
g4594
sg63
(lp4601
g56
(g77
g58
NtRp4602
(dp4603
g61
(dp4604
g81
g82
ssg70
g4598
sg63
(lp4605
S'author'
p4606
asbag56
(g77
g58
NtRp4607
(dp4608
g61
(dp4609
g88
g89
ssg70
g4598
sg63
(lp4610
S':'
asbag56
(g77
g58
NtRp4611
(dp4612
g61
(dp4613
sg70
g4598
sg63
(lp4614
g56
(g57
g58
NtRp4615
(dp4616
g61
(dp4617
g69
I4
ssg70
g4611
sg63
(lp4618
S'Ian W. Scott'
p4619
asbasbasbag56
(g72
g58
NtRp4620
(dp4621
g61
(dp4622
sg70
g4594
sg63
(lp4623
g56
(g77
g58
NtRp4624
(dp4625
g61
(dp4626
g81
g82
ssg70
g4620
sg63
(lp4627
S'copyright'
p4628
asbag56
(g77
g58
NtRp4629
(dp4630
g61
(dp4631
g88
g89
ssg70
g4620
sg63
(lp4632
S':'
asbag56
(g77
g58
NtRp4633
(dp4634
g61
(dp4635
sg70
g4620
sg63
(lp4636
g56
(g57
g58
NtRp4637
(dp4638
g61
(dp4639
g69
I4
ssg70
g4633
sg63
(lp4640
S'Copyright 2011'
p4641
asbasbasbag56
(g72
g58
NtRp4642
(dp4643
g61
(dp4644
sg70
g4594
sg63
(lp4645
g56
(g77
g58
NtRp4646
(dp4647
g61
(dp4648
g81
g82
ssg70
g4642
sg63
(lp4649
S'description'
p4650
asbag56
(g77
g58
NtRp4651
(dp4652
g61
(dp4653
g88
g89
ssg70
g4642
sg63
(lp4654
S':'
asbag56
(g77
g58
NtRp4655
(dp4656
g61
(dp4657
sg70
g4642
sg63
(lp4658
g56
(g57
g58
NtRp4659
(dp4660
g61
(dp4661
g69
I4
ssg70
g4655
sg63
(lp4662
S'A web-app for managing primary-text research in the humanities.'
p4663
asbasbasbag56
(g72
g58
NtRp4664
(dp4665
g61
(dp4666
sg70
g4594
sg63
(lp4667
g56
(g77
g58
NtRp4668
(dp4669
g61
(dp4670
g81
g82
ssg70
g4664
sg63
(lp4671
S'generator'
p4672
asbag56
(g77
g58
NtRp4673
(dp4674
g61
(dp4675
g88
g89
ssg70
g4664
sg63
(lp4676
S':'
asbag56
(g77
g58
NtRp4677
(dp4678
g61
(dp4679
sg70
g4664
sg63
(lp4680
g56
(g57
g58
NtRp4681
(dp4682
g61
(dp4683
g69
I4
ssg70
g4677
sg63
(lp4684
S'Web2py Enterprise Framework'
p4685
asbasbasbag56
(g72
g58
NtRp4686
(dp4687
g61
(dp4688
sg70
g4594
sg63
(lp4689
g56
(g77
g58
NtRp4690
(dp4691
g61
(dp4692
g81
g82
ssg70
g4686
sg63
(lp4693
S'keywords'
p4694
asbag56
(g77
g58
NtRp4695
(dp4696
g61
(dp4697
g88
g89
ssg70
g4686
sg63
(lp4698
S':'
asbag56
(g77
g58
NtRp4699
(dp4700
g61
(dp4701
sg70
g4686
sg63
(lp4702
g56
(g57
g58
NtRp4703
(dp4704
g61
(dp4705
g69
I4
ssg70
g4699
sg63
(lp4706
S'research, humanities, biblical'
p4707
asbasbasbasbasbasbasbag56
(g72
g58
NtRp4708
(dp4709
g61
(dp4710
sg70
g3446
sg63
(lp4711
g56
(g77
g58
NtRp4712
(dp4713
g61
(dp4714
g81
g82
ssg70
g4708
sg63
(lp4715
S'postprocessing'
p4716
asbag56
(g77
g58
NtRp4717
(dp4718
g61
(dp4719
g88
g89
ssg70
g4708
sg63
(lp4720
S':'
asbag56
(g77
g58
NtRp4721
(dp4722
g61
(dp4723
sg70
g4708
sg63
(lp4724
g56
(g57
g58
NtRp4725
(dp4726
g61
(dp4727
g69
I5
ssg70
g4721
sg63
(lp4728
g56
(g65
g58
NtRp4729
(dp4730
g61
(dp4731
g69
I4
ssg70
Nsg63
(lp4732
sbasbasbasbag56
(g72
g58
NtRp4733
(dp4734
g61
(dp4735
sg70
g3446
sg63
(lp4736
g56
(g77
g58
NtRp4737
(dp4738
g61
(dp4739
g81
g82
ssg70
g4733
sg63
(lp4740
S'session_file'
p4741
asbag56
(g77
g58
NtRp4742
(dp4743
g61
(dp4744
g88
g89
ssg70
g4733
sg63
(lp4745
S':'
asbag56
(g77
g58
NtRp4746
(dp4747
g61
(dp4748
sg70
g4733
sg63
(lp4749
g56
(g57
g58
NtRp4750
(dp4751
g61
(dp4752
g69
I5
ssg70
g4746
sg63
(lp4753
S"<open file '/home/ian/web2py/applications/topoi/sessions/127.0.0.1-fbfd7fa3-57f5-4d42-8f08-594178070e93', mode 'rb+' at 0x2c58540>"
p4754
asbasbasbag56
(g72
g58
NtRp4755
(dp4756
g61
(dp4757
sg70
g3446
sg63
(lp4758
g56
(g77
g58
NtRp4759
(dp4760
g61
(dp4761
g81
g82
ssg70
g4755
sg63
(lp4762
S'session_filename'
p4763
asbag56
(g77
g58
NtRp4764
(dp4765
g61
(dp4766
g88
g89
ssg70
g4755
sg63
(lp4767
S':'
asbag56
(g77
g58
NtRp4768
(dp4769
g61
(dp4770
sg70
g4755
sg63
(lp4771
g56
(g57
g58
NtRp4772
(dp4773
g61
(dp4774
g69
I5
ssg70
g4768
sg63
(lp4775
S'/home/ian/web2py/applications/topoi/sessions/127.0.0.1-fbfd7fa3-57f5-4d42-8f08-594178070e93'
p4776
asbasbasbag56
(g72
g58
NtRp4777
(dp4778
g61
(dp4779
sg70
g3446
sg63
(lp4780
g56
(g77
g58
NtRp4781
(dp4782
g61
(dp4783
g81
g82
ssg70
g4777
sg63
(lp4784
S'session_id'
p4785
asbag56
(g77
g58
NtRp4786
(dp4787
g61
(dp4788
g88
g89
ssg70
g4777
sg63
(lp4789
S':'
asbag56
(g77
g58
NtRp4790
(dp4791
g61
(dp4792
sg70
g4777
sg63
(lp4793
g56
(g57
g58
NtRp4794
(dp4795
g61
(dp4796
g69
I5
ssg70
g4790
sg63
(lp4797
S'127.0.0.1-fbfd7fa3-57f5-4d42-8f08-594178070e93'
p4798
asbasbasbag56
(g72
g58
NtRp4799
(dp4800
g61
(dp4801
sg70
g3446
sg63
(lp4802
g56
(g77
g58
NtRp4803
(dp4804
g61
(dp4805
g81
g82
ssg70
g4799
sg63
(lp4806
S'session_id_name'
p4807
asbag56
(g77
g58
NtRp4808
(dp4809
g61
(dp4810
g88
g89
ssg70
g4799
sg63
(lp4811
S':'
asbag56
(g77
g58
NtRp4812
(dp4813
g61
(dp4814
sg70
g4799
sg63
(lp4815
g56
(g57
g58
NtRp4816
(dp4817
g61
(dp4818
g69
I5
ssg70
g4812
sg63
(lp4819
g3503
asbasbasbag56
(g72
g58
NtRp4820
(dp4821
g61
(dp4822
sg70
g3446
sg63
(lp4823
g56
(g77
g58
NtRp4824
(dp4825
g61
(dp4826
g81
g82
ssg70
g4820
sg63
(lp4827
S'session_locked'
p4828
asbag56
(g77
g58
NtRp4829
(dp4830
g61
(dp4831
g88
g89
ssg70
g4820
sg63
(lp4832
S':'
asbag56
(g77
g58
NtRp4833
(dp4834
g61
(dp4835
sg70
g4820
sg63
(lp4836
g56
(g57
g58
NtRp4837
(dp4838
g61
(dp4839
g69
I5
ssg70
g4833
sg63
(lp4840
g99
asbasbasbag56
(g72
g58
NtRp4841
(dp4842
g61
(dp4843
sg70
g3446
sg63
(lp4844
g56
(g77
g58
NtRp4845
(dp4846
g61
(dp4847
g81
g82
ssg70
g4841
sg63
(lp4848
S'session_new'
p4849
asbag56
(g77
g58
NtRp4850
(dp4851
g61
(dp4852
g88
g89
ssg70
g4841
sg63
(lp4853
S':'
asbag56
(g77
g58
NtRp4854
(dp4855
g61
(dp4856
sg70
g4841
sg63
(lp4857
g56
(g57
g58
NtRp4858
(dp4859
g61
(dp4860
g69
I5
ssg70
g4854
sg63
(lp4861
g861
asbasbasbag56
(g72
g58
NtRp4862
(dp4863
g61
(dp4864
sg70
g3446
sg63
(lp4865
g56
(g77
g58
NtRp4866
(dp4867
g61
(dp4868
g81
g82
ssg70
g4862
sg63
(lp4869
S'status'
p4870
asbag56
(g77
g58
NtRp4871
(dp4872
g61
(dp4873
g88
g89
ssg70
g4862
sg63
(lp4874
S':'
asbag56
(g77
g58
NtRp4875
(dp4876
g61
(dp4877
sg70
g4862
sg63
(lp4878
g56
(g57
g58
NtRp4879
(dp4880
g61
(dp4881
g69
I5
ssg70
g4875
sg63
(lp4882
S'200'
p4883
asbasbasbag56
(g72
g58
NtRp4884
(dp4885
g61
(dp4886
sg70
g3446
sg63
(lp4887
g56
(g77
g58
NtRp4888
(dp4889
g61
(dp4890
g81
g82
ssg70
g4884
sg63
(lp4891
S'subtitle'
p4892
asbag56
(g77
g58
NtRp4893
(dp4894
g61
(dp4895
g88
g89
ssg70
g4884
sg63
(lp4896
S':'
asbag56
(g77
g58
NtRp4897
(dp4898
g61
(dp4899
sg70
g4884
sg63
(lp4900
g56
(g57
g58
NtRp4901
(dp4902
g61
(dp4903
g69
I5
ssg70
g4897
sg63
(lp4904
g3974
(S's;\x00\x00\x00A tool for managing primary-text research in the humanities'
tRp4905
asbasbasbag56
(g72
g58
NtRp4906
(dp4907
g61
(dp4908
sg70
g3446
sg63
(lp4909
g56
(g77
g58
NtRp4910
(dp4911
g61
(dp4912
g81
g82
ssg70
g4906
sg63
(lp4913
S'title'
p4914
asbag56
(g77
g58
NtRp4915
(dp4916
g61
(dp4917
g88
g89
ssg70
g4906
sg63
(lp4918
S':'
asbag56
(g77
g58
NtRp4919
(dp4920
g61
(dp4921
sg70
g4906
sg63
(lp4922
g56
(g57
g58
NtRp4923
(dp4924
g61
(dp4925
g69
I5
ssg70
g4919
sg63
(lp4926
g121
asbasbasbag56
(g72
g58
NtRp4927
(dp4928
g61
(dp4929
sg70
g3446
sg63
(lp4930
g56
(g77
g58
NtRp4931
(dp4932
g61
(dp4933
g81
g82
ssg70
g4927
sg63
(lp4934
g2310
asbag56
(g77
g58
NtRp4935
(dp4936
g61
(dp4937
g88
g89
ssg70
g4927
sg63
(lp4938
S':'
asbag56
(g77
g58
NtRp4939
(dp4940
g61
(dp4941
sg70
g4927
sg63
(lp4942
g56
(g57
g58
NtRp4943
(dp4944
g61
(dp4945
g69
I5
ssg70
g4939
sg63
(lp4946
g2323
asbasbasbag56
(g72
g58
NtRp4947
(dp4948
g61
(dp4949
sg70
g3446
sg63
(lp4950
g56
(g77
g58
NtRp4951
(dp4952
g61
(dp4953
g81
g82
ssg70
g4947
sg63
(lp4954
S'view'
p4955
asbag56
(g77
g58
NtRp4956
(dp4957
g61
(dp4958
g88
g89
ssg70
g4947
sg63
(lp4959
S':'
asbag56
(g77
g58
NtRp4960
(dp4961
g61
(dp4962
sg70
g4947
sg63
(lp4963
g56
(g57
g58
NtRp4964
(dp4965
g61
(dp4966
g69
I5
ssg70
g4960
sg63
(lp4967
S'plugin_ajaxselect/set_widget.load'
p4968
asbasbasbasbasbsS'locals'
p4969
(dp4970
S'bid'
p4971
S"'notes_author_option_add_trigger'"
p4972
sS'loadname'
p4973
S"'notes_author_loader'"
p4974
sS'form'
p4975
S'<gluon.sqlhtml.SQLFORM object>'
p4976
sS'the_table'
p4977
S"<Table {'reference': <gluon.dal.Field object at ...>, '_id': <gluon.dal.Field object at 0x3a2b6d0>}>"
p4978
sS'button'
p4979
S'<gluon.html.A object>'
p4980
sS'comp_url'
p4981
S"'/topoi/plugin_ajaxselect/set_widget.load/notes/author/10/authors/notes_author_loader'"
p4982
sS'value'
p4983
S"'10'"
p4984
sS'field'
p4985
S"'author'"
p4986
sS'w'
S'<gluon.html.SELECT object>'
p4987
sS'the_field'
p4988
S'<gluon.dal.Field object>'
p4989
sS'table'
p4990
S"'notes'"
p4991
sS'the_linktable'
p4992
S"<Table {'ALL': <gluon.dal.SQLALL object at 0x367...0>, 'id': <gluon.dal.Field object at 0x3676a10>}>"
p4993
sS'linktable'
p4994
S"'authors'"
p4995
sssS'traceback'
p4996
S'Traceback (most recent call last):\n  File "/home/ian/web2py/gluon/restricted.py", line 194, in restricted\n    exec ccode in environment\n  File "/home/ian/web2py/applications/topoi/controllers/plugin_ajaxselect.py", line 38, in <module>\n  File "/home/ian/web2py/gluon/globals.py", line 149, in <lambda>\n    self._caller = lambda f: f()\n  File "/home/ian/web2py/applications/topoi/controllers/plugin_ajaxselect.py", line 36, in set_widget\n    return dict(widget = w, button = button, form = f, comp_url = comp_url, loadname = loadname)\nNameError: global name \'f\' is not defined\n'
p4997
s.