(dp1
S'output'
p2
S''
sS'layer'
p3
S'/home/ian/web2py/applications/topoi/controllers/default.py'
p4
sS'code'
p5
S'# -*- coding: utf-8 -*-\n# this file is released under public domain and you can use without limitations\n\n#########################################################################\n## This is a samples controller\n## - index is the default action of any application\n## - user is required for authentication and authorization\n## - download is for downloading files uploaded in the db (does streaming)\n## - call exposes all registered services (none by default)\n#########################################################################\n\ndef index():\n    """\n    example action using the internationalization operator T and flash\n    rendered by views/default/index.html or views/generic.html\n    """\n    return dict(message=T(\'Hello World\'))\n\ndef user():\n    """\n    exposes:\n    http://..../[app]/default/user/login\n    http://..../[app]/default/user/logout\n    http://..../[app]/default/user/register\n    http://..../[app]/default/user/profile\n    http://..../[app]/default/user/retrieve_password\n    http://..../[app]/default/user/change_password\n    use @auth.requires_login()\n        @auth.requires_membership(\'group name\')\n        @auth.requires_permission(\'read\',\'table name\',record_id)\n    to decorate functions that need access control\n    """\n    return dict(form=auth())\n\n\ndef download():\n    """\n    allows downloading of uploaded files\n    http://..../[app]/default/download/[filename]\n    """\n    return response.download(request,db)\n\n\ndef call():\n    """\n    exposes services. for example:\n    http://..../[app]/default/call/jsonrpc\n    decorate with @services.jsonrpc the functions to expose\n    supports xml, json, xmlrpc, jsonrpc, amfrpc, rss, csv\n    """\n    return service()\n\n\n@auth.requires_signature()\ndef data():\n    """\n    http://..../[app]/default/data/tables\n    http://..../[app]/default/data/create/[table]\n    http://..../[app]/default/data/read/[table]/[id]\n    http://..../[app]/default/data/update/[table]/[id]\n    http://..../[app]/default/data/delete/[table]/[id[\n    http://..../[app]/default/data/select/[table]\n    http://..../[app]/default/data/search/[table]\n    but URLs bust be signed, i.e. linked with\n      A(\'table\',_href=URL(\'data/tables\',user_signature=True))\n    or with the signed load operator\n      LOAD(\'default\',\'data.load\',args=\'tables\',ajax=True,user_signature=True)\n    """\n    return dict(form=crud())\n\n@auth.requires_login()\ndef notes():\n    form = SQLFORM.grid(db.notes)\n    \n    return dict(form=form)\n\n@auth.requires_login()\n\ndef add():\n    tb = request.args[0]\n    #FIXME: Hack here to solve problem of field name not being identical to table name\n    tb = tb.split(\'_\')[1] + \'s\'\n    the_table = "db.%s" % tb\n    print the_table\n    form = SQLFORM(the_table)\n    if form.accepts(request.vars):\n        response.flash = T("new author added")\n        target= request.args[0]\n        #close the widget\'s dialog box\n        response.js = \'$( "#%s_dialog-form" ).dialog( "close" ); \' %(target)\n        #update the options they can select their new category in the main form                \n        response.js += """$("#%s").append("<option value=\'%s\'>%s</option>");""" % (target, form.vars.id, form.vars.name)\n        #and select the one they just added\n        response.js += """$("#%s").val("%s");""" % (target, form.vars.id)\n        #finally, return a blank form incase for some reason they wanted to add another option\n        return form\n    elif form.errors:\n        #silly user, just send back the form and it\'ll still be in our dialog box complete with error messages\n        return form\n    else:\n        #hasn\'t been submitted yet, just give them the fresh blank form        \n        return form\n    return dict(form = form)\n\nresponse._vars=response._caller(add)\n'
p6
sS'snapshot'
p7
(dp8
S'exception'
p9
(dp10
S'__hash__'
p11
S"<method-wrapper '__hash__' of exceptions.AttributeError object>"
p12
sS'__setattr__'
p13
S"<method-wrapper '__setattr__' of exceptions.AttributeError object>"
p14
sS'__reduce_ex__'
p15
S'<built-in method __reduce_ex__ of exceptions.AttributeError object>'
p16
sS'__getslice__'
p17
S"<method-wrapper '__getslice__' of exceptions.AttributeError object>"
p18
sS'__getitem__'
p19
S"<method-wrapper '__getitem__' of exceptions.AttributeError object>"
p20
sS'__setstate__'
p21
S'<built-in method __setstate__ of exceptions.AttributeError object>'
p22
sS'args'
p23
S'("\'str\' object has no attribute \'writable\'",)'
p24
sS'__reduce__'
p25
S'<built-in method __reduce__ of exceptions.AttributeError object>'
p26
sS'__str__'
p27
S"<method-wrapper '__str__' of exceptions.AttributeError object>"
p28
sS'__format__'
p29
S'<built-in method __format__ of exceptions.AttributeError object>'
p30
sS'__getattribute__'
p31
S"<method-wrapper '__getattribute__' of exceptions.AttributeError object>"
p32
sS'__class__'
p33
S"<type 'exceptions.AttributeError'>"
p34
sS'__unicode__'
p35
S'<built-in method __unicode__ of exceptions.AttributeError object>'
p36
sS'__delattr__'
p37
S"<method-wrapper '__delattr__' of exceptions.AttributeError object>"
p38
sS'__subclasshook__'
p39
S'<built-in method __subclasshook__ of type object>'
p40
sS'__repr__'
p41
S"<method-wrapper '__repr__' of exceptions.AttributeError object>"
p42
sS'__dict__'
p43
S'{}'
p44
sS'__sizeof__'
p45
S'<built-in method __sizeof__ of exceptions.AttributeError object>'
p46
sS'__doc__'
p47
S"'Attribute not found.'"
p48
sS'__init__'
p49
S"<method-wrapper '__init__' of exceptions.AttributeError object>"
p50
sS'__new__'
p51
S'<built-in method __new__ of type object>'
p52
ssS'evalue'
p53
S"'str' object has no attribute 'writable'"
p54
sS'request'
p55
ccopy_reg
_reconstructor
p56
(cgluon.html
BEAUTIFY
p57
c__builtin__
object
p58
NtRp59
(dp60
S'attributes'
p61
(dp62
sS'components'
p63
(lp64
g56
(cgluon.html
TABLE
p65
g58
NtRp66
(dp67
g61
(dp68
S'level'
p69
I5
ssS'parent'
p70
Nsg63
(lp71
g56
(cgluon.html
TR
p72
g58
NtRp73
(dp74
g61
(dp75
sg70
g66
sg63
(lp76
g56
(cgluon.html
TD
p77
g58
NtRp78
(dp79
g61
(dp80
S'_style'
p81
S'font-weight:bold;'
p82
ssg70
g73
sg63
(lp83
S'ajax'
p84
asbag56
(g77
g58
NtRp85
(dp86
g61
(dp87
S'_valign'
p88
S'top'
p89
ssg70
g73
sg63
(lp90
S':'
asbag56
(g77
g58
NtRp91
(dp92
g61
(dp93
sg70
g73
sg63
(lp94
g56
(g57
g58
NtRp95
(dp96
g61
(dp97
g69
I5
ssg70
g91
sg63
(lp98
S'True'
p99
asbasbasbag56
(g72
g58
NtRp100
(dp101
g61
(dp102
sg70
g66
sg63
(lp103
g56
(g77
g58
NtRp104
(dp105
g61
(dp106
g81
g82
ssg70
g100
sg63
(lp107
S'application'
p108
asbag56
(g77
g58
NtRp109
(dp110
g61
(dp111
g88
g89
ssg70
g100
sg63
(lp112
S':'
asbag56
(g77
g58
NtRp113
(dp114
g61
(dp115
sg70
g100
sg63
(lp116
g56
(g57
g58
NtRp117
(dp118
g61
(dp119
g69
I5
ssg70
g113
sg63
(lp120
S'topoi'
p121
asbasbasbag56
(g72
g58
NtRp122
(dp123
g61
(dp124
sg70
g66
sg63
(lp125
g56
(g77
g58
NtRp126
(dp127
g61
(dp128
g81
g82
ssg70
g122
sg63
(lp129
g23
asbag56
(g77
g58
NtRp130
(dp131
g61
(dp132
g88
g89
ssg70
g122
sg63
(lp133
S':'
asbag56
(g77
g58
NtRp134
(dp135
g61
(dp136
sg70
g122
sg63
(lp137
g56
(g57
g58
NtRp138
(dp139
g61
(dp140
g69
I5
ssg70
g134
sg63
(lp141
g56
(g65
g58
NtRp142
(dp143
g61
(dp144
g69
I4
ssg70
Nsg63
(lp145
g56
(g72
g58
NtRp146
(dp147
g61
(dp148
sg70
g142
sg63
(lp149
g56
(g77
g58
NtRp150
(dp151
g61
(dp152
sg70
g146
sg63
(lp153
g56
(g57
g58
NtRp154
(dp155
g61
(dp156
g69
I4
ssg70
g150
sg63
(lp157
S'notes_project'
p158
asbasbasbasbasbasbasbag56
(g72
g58
NtRp159
(dp160
g61
(dp161
sg70
g66
sg63
(lp162
g56
(g77
g58
NtRp163
(dp164
g61
(dp165
g81
g82
ssg70
g159
sg63
(lp166
S'body'
p167
asbag56
(g77
g58
NtRp168
(dp169
g61
(dp170
g88
g89
ssg70
g159
sg63
(lp171
S':'
asbag56
(g77
g58
NtRp172
(dp173
g61
(dp174
sg70
g159
sg63
(lp175
g56
(g57
g58
NtRp176
(dp177
g61
(dp178
g69
I5
ssg70
g172
sg63
(lp179
S'<cStringIO.StringO object at 0x59fc8b8>'
p180
asbasbasbag56
(g72
g58
NtRp181
(dp182
g61
(dp183
sg70
g66
sg63
(lp184
g56
(g77
g58
NtRp185
(dp186
g61
(dp187
g81
g82
ssg70
g181
sg63
(lp188
S'cid'
p189
asbag56
(g77
g58
NtRp190
(dp191
g61
(dp192
g88
g89
ssg70
g181
sg63
(lp193
S':'
asbag56
(g77
g58
NtRp194
(dp195
g61
(dp196
sg70
g181
sg63
(lp197
g56
(g57
g58
NtRp198
(dp199
g61
(dp200
g69
I5
ssg70
g194
sg63
(lp201
S'c677148928735'
p202
asbasbasbag56
(g72
g58
NtRp203
(dp204
g61
(dp205
sg70
g66
sg63
(lp206
g56
(g77
g58
NtRp207
(dp208
g61
(dp209
g81
g82
ssg70
g203
sg63
(lp210
S'client'
p211
asbag56
(g77
g58
NtRp212
(dp213
g61
(dp214
g88
g89
ssg70
g203
sg63
(lp215
S':'
asbag56
(g77
g58
NtRp216
(dp217
g61
(dp218
sg70
g203
sg63
(lp219
g56
(g57
g58
NtRp220
(dp221
g61
(dp222
g69
I5
ssg70
g216
sg63
(lp223
S'127.0.0.1'
p224
asbasbasbag56
(g72
g58
NtRp225
(dp226
g61
(dp227
sg70
g66
sg63
(lp228
g56
(g77
g58
NtRp229
(dp230
g61
(dp231
g81
g82
ssg70
g225
sg63
(lp232
S'controller'
p233
asbag56
(g77
g58
NtRp234
(dp235
g61
(dp236
g88
g89
ssg70
g225
sg63
(lp237
S':'
asbag56
(g77
g58
NtRp238
(dp239
g61
(dp240
sg70
g225
sg63
(lp241
g56
(g57
g58
NtRp242
(dp243
g61
(dp244
g69
I5
ssg70
g238
sg63
(lp245
S'default'
p246
asbasbasbag56
(g72
g58
NtRp247
(dp248
g61
(dp249
sg70
g66
sg63
(lp250
g56
(g77
g58
NtRp251
(dp252
g61
(dp253
g81
g82
ssg70
g247
sg63
(lp254
S'cookies'
p255
asbag56
(g77
g58
NtRp256
(dp257
g61
(dp258
g88
g89
ssg70
g247
sg63
(lp259
S':'
asbag56
(g77
g58
NtRp260
(dp261
g61
(dp262
sg70
g247
sg63
(lp263
g56
(g57
g58
NtRp264
(dp265
g61
(dp266
g69
I5
ssg70
g260
sg63
(lp267
g56
(g65
g58
NtRp268
(dp269
g61
(dp270
g69
I4
ssg70
Nsg63
(lp271
g56
(g72
g58
NtRp272
(dp273
g61
(dp274
sg70
g268
sg63
(lp275
g56
(g77
g58
NtRp276
(dp277
g61
(dp278
g81
g82
ssg70
g272
sg63
(lp279
S'session_id_admin'
p280
asbag56
(g77
g58
NtRp281
(dp282
g61
(dp283
g88
g89
ssg70
g272
sg63
(lp284
S':'
asbag56
(g77
g58
NtRp285
(dp286
g61
(dp287
sg70
g272
sg63
(lp288
g56
(g57
g58
NtRp289
(dp290
g61
(dp291
g69
I4
ssg70
g285
sg63
(lp292
g56
(g65
g58
NtRp293
(dp294
g61
(dp295
g69
I3
ssg70
Nsg63
(lp296
g56
(g72
g58
NtRp297
(dp298
g61
(dp299
sg70
g293
sg63
(lp300
g56
(g77
g58
NtRp301
(dp302
g61
(dp303
g81
g82
ssg70
g297
sg63
(lp304
S'comment'
p305
asbag56
(g77
g58
NtRp306
(dp307
g61
(dp308
g88
g89
ssg70
g297
sg63
(lp309
S':'
asbag56
(g77
g58
NtRp310
(dp311
g61
(dp312
sg70
g297
sg63
(lp313
g56
(g57
g58
NtRp314
(dp315
g61
(dp316
g69
I3
ssg70
g310
sg63
(lp317
S''
asbasbasbag56
(g72
g58
NtRp318
(dp319
g61
(dp320
sg70
g293
sg63
(lp321
g56
(g77
g58
NtRp322
(dp323
g61
(dp324
g81
g82
ssg70
g318
sg63
(lp325
S'domain'
p326
asbag56
(g77
g58
NtRp327
(dp328
g61
(dp329
g88
g89
ssg70
g318
sg63
(lp330
S':'
asbag56
(g77
g58
NtRp331
(dp332
g61
(dp333
sg70
g318
sg63
(lp334
g56
(g57
g58
NtRp335
(dp336
g61
(dp337
g69
I3
ssg70
g331
sg63
(lp338
S''
asbasbasbag56
(g72
g58
NtRp339
(dp340
g61
(dp341
sg70
g293
sg63
(lp342
g56
(g77
g58
NtRp343
(dp344
g61
(dp345
g81
g82
ssg70
g339
sg63
(lp346
S'expires'
p347
asbag56
(g77
g58
NtRp348
(dp349
g61
(dp350
g88
g89
ssg70
g339
sg63
(lp351
S':'
asbag56
(g77
g58
NtRp352
(dp353
g61
(dp354
sg70
g339
sg63
(lp355
g56
(g57
g58
NtRp356
(dp357
g61
(dp358
g69
I3
ssg70
g352
sg63
(lp359
S''
asbasbasbag56
(g72
g58
NtRp360
(dp361
g61
(dp362
sg70
g293
sg63
(lp363
g56
(g77
g58
NtRp364
(dp365
g61
(dp366
g81
g82
ssg70
g360
sg63
(lp367
S'httponly'
p368
asbag56
(g77
g58
NtRp369
(dp370
g61
(dp371
g88
g89
ssg70
g360
sg63
(lp372
S':'
asbag56
(g77
g58
NtRp373
(dp374
g61
(dp375
sg70
g360
sg63
(lp376
g56
(g57
g58
NtRp377
(dp378
g61
(dp379
g69
I3
ssg70
g373
sg63
(lp380
S''
asbasbasbag56
(g72
g58
NtRp381
(dp382
g61
(dp383
sg70
g293
sg63
(lp384
g56
(g77
g58
NtRp385
(dp386
g61
(dp387
g81
g82
ssg70
g381
sg63
(lp388
S'max-age'
p389
asbag56
(g77
g58
NtRp390
(dp391
g61
(dp392
g88
g89
ssg70
g381
sg63
(lp393
S':'
asbag56
(g77
g58
NtRp394
(dp395
g61
(dp396
sg70
g381
sg63
(lp397
g56
(g57
g58
NtRp398
(dp399
g61
(dp400
g69
I3
ssg70
g394
sg63
(lp401
S''
asbasbasbag56
(g72
g58
NtRp402
(dp403
g61
(dp404
sg70
g293
sg63
(lp405
g56
(g77
g58
NtRp406
(dp407
g61
(dp408
g81
g82
ssg70
g402
sg63
(lp409
S'path'
p410
asbag56
(g77
g58
NtRp411
(dp412
g61
(dp413
g88
g89
ssg70
g402
sg63
(lp414
S':'
asbag56
(g77
g58
NtRp415
(dp416
g61
(dp417
sg70
g402
sg63
(lp418
g56
(g57
g58
NtRp419
(dp420
g61
(dp421
g69
I3
ssg70
g415
sg63
(lp422
S''
asbasbasbag56
(g72
g58
NtRp423
(dp424
g61
(dp425
sg70
g293
sg63
(lp426
g56
(g77
g58
NtRp427
(dp428
g61
(dp429
g81
g82
ssg70
g423
sg63
(lp430
S'secure'
p431
asbag56
(g77
g58
NtRp432
(dp433
g61
(dp434
g88
g89
ssg70
g423
sg63
(lp435
S':'
asbag56
(g77
g58
NtRp436
(dp437
g61
(dp438
sg70
g423
sg63
(lp439
g56
(g57
g58
NtRp440
(dp441
g61
(dp442
g69
I3
ssg70
g436
sg63
(lp443
S''
asbasbasbag56
(g72
g58
NtRp444
(dp445
g61
(dp446
sg70
g293
sg63
(lp447
g56
(g77
g58
NtRp448
(dp449
g61
(dp450
g81
g82
ssg70
g444
sg63
(lp451
S'version'
p452
asbag56
(g77
g58
NtRp453
(dp454
g61
(dp455
g88
g89
ssg70
g444
sg63
(lp456
S':'
asbag56
(g77
g58
NtRp457
(dp458
g61
(dp459
sg70
g444
sg63
(lp460
g56
(g57
g58
NtRp461
(dp462
g61
(dp463
g69
I3
ssg70
g457
sg63
(lp464
S''
asbasbasbasbasbasbasbag56
(g72
g58
NtRp465
(dp466
g61
(dp467
sg70
g268
sg63
(lp468
g56
(g77
g58
NtRp469
(dp470
g61
(dp471
g81
g82
ssg70
g465
sg63
(lp472
S'session_id_topoi'
p473
asbag56
(g77
g58
NtRp474
(dp475
g61
(dp476
g88
g89
ssg70
g465
sg63
(lp477
S':'
asbag56
(g77
g58
NtRp478
(dp479
g61
(dp480
sg70
g465
sg63
(lp481
g56
(g57
g58
NtRp482
(dp483
g61
(dp484
g69
I4
ssg70
g478
sg63
(lp485
g56
(g65
g58
NtRp486
(dp487
g61
(dp488
g69
I3
ssg70
Nsg63
(lp489
g56
(g72
g58
NtRp490
(dp491
g61
(dp492
sg70
g486
sg63
(lp493
g56
(g77
g58
NtRp494
(dp495
g61
(dp496
g81
g82
ssg70
g490
sg63
(lp497
g305
asbag56
(g77
g58
NtRp498
(dp499
g61
(dp500
g88
g89
ssg70
g490
sg63
(lp501
S':'
asbag56
(g77
g58
NtRp502
(dp503
g61
(dp504
sg70
g490
sg63
(lp505
g56
(g57
g58
NtRp506
(dp507
g61
(dp508
g69
I3
ssg70
g502
sg63
(lp509
S''
asbasbasbag56
(g72
g58
NtRp510
(dp511
g61
(dp512
sg70
g486
sg63
(lp513
g56
(g77
g58
NtRp514
(dp515
g61
(dp516
g81
g82
ssg70
g510
sg63
(lp517
g326
asbag56
(g77
g58
NtRp518
(dp519
g61
(dp520
g88
g89
ssg70
g510
sg63
(lp521
S':'
asbag56
(g77
g58
NtRp522
(dp523
g61
(dp524
sg70
g510
sg63
(lp525
g56
(g57
g58
NtRp526
(dp527
g61
(dp528
g69
I3
ssg70
g522
sg63
(lp529
S''
asbasbasbag56
(g72
g58
NtRp530
(dp531
g61
(dp532
sg70
g486
sg63
(lp533
g56
(g77
g58
NtRp534
(dp535
g61
(dp536
g81
g82
ssg70
g530
sg63
(lp537
g347
asbag56
(g77
g58
NtRp538
(dp539
g61
(dp540
g88
g89
ssg70
g530
sg63
(lp541
S':'
asbag56
(g77
g58
NtRp542
(dp543
g61
(dp544
sg70
g530
sg63
(lp545
g56
(g57
g58
NtRp546
(dp547
g61
(dp548
g69
I3
ssg70
g542
sg63
(lp549
S''
asbasbasbag56
(g72
g58
NtRp550
(dp551
g61
(dp552
sg70
g486
sg63
(lp553
g56
(g77
g58
NtRp554
(dp555
g61
(dp556
g81
g82
ssg70
g550
sg63
(lp557
g368
asbag56
(g77
g58
NtRp558
(dp559
g61
(dp560
g88
g89
ssg70
g550
sg63
(lp561
S':'
asbag56
(g77
g58
NtRp562
(dp563
g61
(dp564
sg70
g550
sg63
(lp565
g56
(g57
g58
NtRp566
(dp567
g61
(dp568
g69
I3
ssg70
g562
sg63
(lp569
S''
asbasbasbag56
(g72
g58
NtRp570
(dp571
g61
(dp572
sg70
g486
sg63
(lp573
g56
(g77
g58
NtRp574
(dp575
g61
(dp576
g81
g82
ssg70
g570
sg63
(lp577
g389
asbag56
(g77
g58
NtRp578
(dp579
g61
(dp580
g88
g89
ssg70
g570
sg63
(lp581
S':'
asbag56
(g77
g58
NtRp582
(dp583
g61
(dp584
sg70
g570
sg63
(lp585
g56
(g57
g58
NtRp586
(dp587
g61
(dp588
g69
I3
ssg70
g582
sg63
(lp589
S''
asbasbasbag56
(g72
g58
NtRp590
(dp591
g61
(dp592
sg70
g486
sg63
(lp593
g56
(g77
g58
NtRp594
(dp595
g61
(dp596
g81
g82
ssg70
g590
sg63
(lp597
g410
asbag56
(g77
g58
NtRp598
(dp599
g61
(dp600
g88
g89
ssg70
g590
sg63
(lp601
S':'
asbag56
(g77
g58
NtRp602
(dp603
g61
(dp604
sg70
g590
sg63
(lp605
g56
(g57
g58
NtRp606
(dp607
g61
(dp608
g69
I3
ssg70
g602
sg63
(lp609
S''
asbasbasbag56
(g72
g58
NtRp610
(dp611
g61
(dp612
sg70
g486
sg63
(lp613
g56
(g77
g58
NtRp614
(dp615
g61
(dp616
g81
g82
ssg70
g610
sg63
(lp617
g431
asbag56
(g77
g58
NtRp618
(dp619
g61
(dp620
g88
g89
ssg70
g610
sg63
(lp621
S':'
asbag56
(g77
g58
NtRp622
(dp623
g61
(dp624
sg70
g610
sg63
(lp625
g56
(g57
g58
NtRp626
(dp627
g61
(dp628
g69
I3
ssg70
g622
sg63
(lp629
S''
asbasbasbag56
(g72
g58
NtRp630
(dp631
g61
(dp632
sg70
g486
sg63
(lp633
g56
(g77
g58
NtRp634
(dp635
g61
(dp636
g81
g82
ssg70
g630
sg63
(lp637
g452
asbag56
(g77
g58
NtRp638
(dp639
g61
(dp640
g88
g89
ssg70
g630
sg63
(lp641
S':'
asbag56
(g77
g58
NtRp642
(dp643
g61
(dp644
sg70
g630
sg63
(lp645
g56
(g57
g58
NtRp646
(dp647
g61
(dp648
g69
I3
ssg70
g642
sg63
(lp649
S''
asbasbasbasbasbasbasbag56
(g72
g58
NtRp650
(dp651
g61
(dp652
sg70
g268
sg63
(lp653
g56
(g77
g58
NtRp654
(dp655
g61
(dp656
g81
g82
ssg70
g650
sg63
(lp657
S'session_id_welcome'
p658
asbag56
(g77
g58
NtRp659
(dp660
g61
(dp661
g88
g89
ssg70
g650
sg63
(lp662
S':'
asbag56
(g77
g58
NtRp663
(dp664
g61
(dp665
sg70
g650
sg63
(lp666
g56
(g57
g58
NtRp667
(dp668
g61
(dp669
g69
I4
ssg70
g663
sg63
(lp670
g56
(g65
g58
NtRp671
(dp672
g61
(dp673
g69
I3
ssg70
Nsg63
(lp674
g56
(g72
g58
NtRp675
(dp676
g61
(dp677
sg70
g671
sg63
(lp678
g56
(g77
g58
NtRp679
(dp680
g61
(dp681
g81
g82
ssg70
g675
sg63
(lp682
g305
asbag56
(g77
g58
NtRp683
(dp684
g61
(dp685
g88
g89
ssg70
g675
sg63
(lp686
S':'
asbag56
(g77
g58
NtRp687
(dp688
g61
(dp689
sg70
g675
sg63
(lp690
g56
(g57
g58
NtRp691
(dp692
g61
(dp693
g69
I3
ssg70
g687
sg63
(lp694
S''
asbasbasbag56
(g72
g58
NtRp695
(dp696
g61
(dp697
sg70
g671
sg63
(lp698
g56
(g77
g58
NtRp699
(dp700
g61
(dp701
g81
g82
ssg70
g695
sg63
(lp702
g326
asbag56
(g77
g58
NtRp703
(dp704
g61
(dp705
g88
g89
ssg70
g695
sg63
(lp706
S':'
asbag56
(g77
g58
NtRp707
(dp708
g61
(dp709
sg70
g695
sg63
(lp710
g56
(g57
g58
NtRp711
(dp712
g61
(dp713
g69
I3
ssg70
g707
sg63
(lp714
S''
asbasbasbag56
(g72
g58
NtRp715
(dp716
g61
(dp717
sg70
g671
sg63
(lp718
g56
(g77
g58
NtRp719
(dp720
g61
(dp721
g81
g82
ssg70
g715
sg63
(lp722
g347
asbag56
(g77
g58
NtRp723
(dp724
g61
(dp725
g88
g89
ssg70
g715
sg63
(lp726
S':'
asbag56
(g77
g58
NtRp727
(dp728
g61
(dp729
sg70
g715
sg63
(lp730
g56
(g57
g58
NtRp731
(dp732
g61
(dp733
g69
I3
ssg70
g727
sg63
(lp734
S''
asbasbasbag56
(g72
g58
NtRp735
(dp736
g61
(dp737
sg70
g671
sg63
(lp738
g56
(g77
g58
NtRp739
(dp740
g61
(dp741
g81
g82
ssg70
g735
sg63
(lp742
g368
asbag56
(g77
g58
NtRp743
(dp744
g61
(dp745
g88
g89
ssg70
g735
sg63
(lp746
S':'
asbag56
(g77
g58
NtRp747
(dp748
g61
(dp749
sg70
g735
sg63
(lp750
g56
(g57
g58
NtRp751
(dp752
g61
(dp753
g69
I3
ssg70
g747
sg63
(lp754
S''
asbasbasbag56
(g72
g58
NtRp755
(dp756
g61
(dp757
sg70
g671
sg63
(lp758
g56
(g77
g58
NtRp759
(dp760
g61
(dp761
g81
g82
ssg70
g755
sg63
(lp762
g389
asbag56
(g77
g58
NtRp763
(dp764
g61
(dp765
g88
g89
ssg70
g755
sg63
(lp766
S':'
asbag56
(g77
g58
NtRp767
(dp768
g61
(dp769
sg70
g755
sg63
(lp770
g56
(g57
g58
NtRp771
(dp772
g61
(dp773
g69
I3
ssg70
g767
sg63
(lp774
S''
asbasbasbag56
(g72
g58
NtRp775
(dp776
g61
(dp777
sg70
g671
sg63
(lp778
g56
(g77
g58
NtRp779
(dp780
g61
(dp781
g81
g82
ssg70
g775
sg63
(lp782
g410
asbag56
(g77
g58
NtRp783
(dp784
g61
(dp785
g88
g89
ssg70
g775
sg63
(lp786
S':'
asbag56
(g77
g58
NtRp787
(dp788
g61
(dp789
sg70
g775
sg63
(lp790
g56
(g57
g58
NtRp791
(dp792
g61
(dp793
g69
I3
ssg70
g787
sg63
(lp794
S''
asbasbasbag56
(g72
g58
NtRp795
(dp796
g61
(dp797
sg70
g671
sg63
(lp798
g56
(g77
g58
NtRp799
(dp800
g61
(dp801
g81
g82
ssg70
g795
sg63
(lp802
g431
asbag56
(g77
g58
NtRp803
(dp804
g61
(dp805
g88
g89
ssg70
g795
sg63
(lp806
S':'
asbag56
(g77
g58
NtRp807
(dp808
g61
(dp809
sg70
g795
sg63
(lp810
g56
(g57
g58
NtRp811
(dp812
g61
(dp813
g69
I3
ssg70
g807
sg63
(lp814
S''
asbasbasbag56
(g72
g58
NtRp815
(dp816
g61
(dp817
sg70
g671
sg63
(lp818
g56
(g77
g58
NtRp819
(dp820
g61
(dp821
g81
g82
ssg70
g815
sg63
(lp822
g452
asbag56
(g77
g58
NtRp823
(dp824
g61
(dp825
g88
g89
ssg70
g815
sg63
(lp826
S':'
asbag56
(g77
g58
NtRp827
(dp828
g61
(dp829
sg70
g815
sg63
(lp830
g56
(g57
g58
NtRp831
(dp832
g61
(dp833
g69
I3
ssg70
g827
sg63
(lp834
S''
asbasbasbasbasbasbasbasbasbasbasbag56
(g72
g58
NtRp835
(dp836
g61
(dp837
sg70
g66
sg63
(lp838
g56
(g77
g58
NtRp839
(dp840
g61
(dp841
g81
g82
ssg70
g835
sg63
(lp842
S'env'
p843
asbag56
(g77
g58
NtRp844
(dp845
g61
(dp846
g88
g89
ssg70
g835
sg63
(lp847
S':'
asbag56
(g77
g58
NtRp848
(dp849
g61
(dp850
sg70
g835
sg63
(lp851
g56
(g57
g58
NtRp852
(dp853
g61
(dp854
g69
I5
ssg70
g848
sg63
(lp855
g56
(g65
g58
NtRp856
(dp857
g61
(dp858
g69
I4
ssg70
Nsg63
(lp859
g56
(g72
g58
NtRp860
(dp861
g61
(dp862
sg70
g856
sg63
(lp863
g56
(g77
g58
NtRp864
(dp865
g61
(dp866
g81
g82
ssg70
g860
sg63
(lp867
S'app_folders'
p868
asbag56
(g77
g58
NtRp869
(dp870
g61
(dp871
g88
g89
ssg70
g860
sg63
(lp872
S':'
asbag56
(g77
g58
NtRp873
(dp874
g61
(dp875
sg70
g860
sg63
(lp876
g56
(g57
g58
NtRp877
(dp878
g61
(dp879
g69
I4
ssg70
g873
sg63
(lp880
S"set(['/home/ian/web2py/applications/topoi/', '/home/ian/web2py/applications/welcome/', '/home/ian/web2py/applications/admin/'])"
p881
asbasbasbag56
(g72
g58
NtRp882
(dp883
g61
(dp884
sg70
g856
sg63
(lp885
g56
(g77
g58
NtRp886
(dp887
g61
(dp888
g81
g82
ssg70
g882
sg63
(lp889
S'applications_parent'
p890
asbag56
(g77
g58
NtRp891
(dp892
g61
(dp893
g88
g89
ssg70
g882
sg63
(lp894
S':'
asbag56
(g77
g58
NtRp895
(dp896
g61
(dp897
sg70
g882
sg63
(lp898
g56
(g57
g58
NtRp899
(dp900
g61
(dp901
g69
I4
ssg70
g895
sg63
(lp902
S'/home/ian/web2py'
p903
asbasbasbag56
(g72
g58
NtRp904
(dp905
g61
(dp906
sg70
g856
sg63
(lp907
g56
(g77
g58
NtRp908
(dp909
g61
(dp910
g81
g82
ssg70
g904
sg63
(lp911
S'cmd_args'
p912
asbag56
(g77
g58
NtRp913
(dp914
g61
(dp915
g88
g89
ssg70
g904
sg63
(lp916
S':'
asbag56
(g77
g58
NtRp917
(dp918
g61
(dp919
sg70
g904
sg63
(lp920
g56
(g57
g58
NtRp921
(dp922
g61
(dp923
g69
I4
ssg70
g917
sg63
(lp924
g56
(g65
g58
NtRp925
(dp926
g61
(dp927
g69
I3
ssg70
Nsg63
(lp928
sbasbasbasbag56
(g72
g58
NtRp929
(dp930
g61
(dp931
sg70
g856
sg63
(lp932
g56
(g77
g58
NtRp933
(dp934
g61
(dp935
g81
g82
ssg70
g929
sg63
(lp936
S'cmd_options'
p937
asbag56
(g77
g58
NtRp938
(dp939
g61
(dp940
g88
g89
ssg70
g929
sg63
(lp941
S':'
asbag56
(g77
g58
NtRp942
(dp943
g61
(dp944
sg70
g929
sg63
(lp945
g56
(g57
g58
NtRp946
(dp947
g61
(dp948
g69
I4
ssg70
g942
sg63
(lp949
S"<Values at 0x1e5f7e8: {'verbose': False, 'ip': '127.0.0.1', 'shutdown_timeout': 5, 'taskbar': False, 'nocron': False, 'pid_filename': 'httpserver.pid', 'maxthreads': None, 'softcron': False, 'server_name': 'Ariel-ubuntu', 'bpython': False, 'nogui': False, 'port': 8000, 'extcron': False, 'debuglevel': 30, 'test': None, 'folder': '/home/ian/web2py', 'config': '', 'import_models': False, 'winservice': '', 'shell': None, 'run': '', 'log_filename': 'httpserver.log', 'args': [''], 'ssl_ca_certificate': None, 'scheduler': None, 'profiler_filename': None, 'ssl_private_key': '', 'password': '<ask>', 'request_queue_size': 5, 'ssl_certificate': '', 'cronjob': False, 'plain': False, 'quiet': False, 'interfaces': None, 'minthreads': None, 'timeout': 10, 'numthreads': None, 'nobanner': False}>"
p950
asbasbasbag56
(g72
g58
NtRp951
(dp952
g61
(dp953
sg70
g856
sg63
(lp954
g56
(g77
g58
NtRp955
(dp956
g61
(dp957
g81
g82
ssg70
g951
sg63
(lp958
S'db_sessions'
p959
asbag56
(g77
g58
NtRp960
(dp961
g61
(dp962
g88
g89
ssg70
g951
sg63
(lp963
S':'
asbag56
(g77
g58
NtRp964
(dp965
g61
(dp966
sg70
g951
sg63
(lp967
g56
(g57
g58
NtRp968
(dp969
g61
(dp970
g69
I4
ssg70
g964
sg63
(lp971
S'set([])'
p972
asbasbasbag56
(g72
g58
NtRp973
(dp974
g61
(dp975
sg70
g856
sg63
(lp976
g56
(g77
g58
NtRp977
(dp978
g61
(dp979
g81
g82
ssg70
g973
sg63
(lp980
S'debugging'
p981
asbag56
(g77
g58
NtRp982
(dp983
g61
(dp984
g88
g89
ssg70
g973
sg63
(lp985
S':'
asbag56
(g77
g58
NtRp986
(dp987
g61
(dp988
sg70
g973
sg63
(lp989
g56
(g57
g58
NtRp990
(dp991
g61
(dp992
g69
I4
ssg70
g986
sg63
(lp993
S'False'
p994
asbasbasbag56
(g72
g58
NtRp995
(dp996
g61
(dp997
sg70
g856
sg63
(lp998
g56
(g77
g58
NtRp999
(dp1000
g61
(dp1001
g81
g82
ssg70
g995
sg63
(lp1002
S'gluon_parent'
p1003
asbag56
(g77
g58
NtRp1004
(dp1005
g61
(dp1006
g88
g89
ssg70
g995
sg63
(lp1007
S':'
asbag56
(g77
g58
NtRp1008
(dp1009
g61
(dp1010
sg70
g995
sg63
(lp1011
g56
(g57
g58
NtRp1012
(dp1013
g61
(dp1014
g69
I4
ssg70
g1008
sg63
(lp1015
S'/home/ian/web2py'
p1016
asbasbasbag56
(g72
g58
NtRp1017
(dp1018
g61
(dp1019
sg70
g856
sg63
(lp1020
g56
(g77
g58
NtRp1021
(dp1022
g61
(dp1023
g81
g82
ssg70
g1017
sg63
(lp1024
S'http_accept'
p1025
asbag56
(g77
g58
NtRp1026
(dp1027
g61
(dp1028
g88
g89
ssg70
g1017
sg63
(lp1029
S':'
asbag56
(g77
g58
NtRp1030
(dp1031
g61
(dp1032
sg70
g1017
sg63
(lp1033
g56
(g57
g58
NtRp1034
(dp1035
g61
(dp1036
g69
I4
ssg70
g1030
sg63
(lp1037
S'*/*'
p1038
asbasbasbag56
(g72
g58
NtRp1039
(dp1040
g61
(dp1041
sg70
g856
sg63
(lp1042
g56
(g77
g58
NtRp1043
(dp1044
g61
(dp1045
g81
g82
ssg70
g1039
sg63
(lp1046
S'http_accept_charset'
p1047
asbag56
(g77
g58
NtRp1048
(dp1049
g61
(dp1050
g88
g89
ssg70
g1039
sg63
(lp1051
S':'
asbag56
(g77
g58
NtRp1052
(dp1053
g61
(dp1054
sg70
g1039
sg63
(lp1055
g56
(g57
g58
NtRp1056
(dp1057
g61
(dp1058
g69
I4
ssg70
g1052
sg63
(lp1059
S'ISO-8859-1,utf-8;q=0.7,*;q=0.7'
p1060
asbasbasbag56
(g72
g58
NtRp1061
(dp1062
g61
(dp1063
sg70
g856
sg63
(lp1064
g56
(g77
g58
NtRp1065
(dp1066
g61
(dp1067
g81
g82
ssg70
g1061
sg63
(lp1068
S'http_accept_encoding'
p1069
asbag56
(g77
g58
NtRp1070
(dp1071
g61
(dp1072
g88
g89
ssg70
g1061
sg63
(lp1073
S':'
asbag56
(g77
g58
NtRp1074
(dp1075
g61
(dp1076
sg70
g1061
sg63
(lp1077
g56
(g57
g58
NtRp1078
(dp1079
g61
(dp1080
g69
I4
ssg70
g1074
sg63
(lp1081
S'gzip, deflate'
p1082
asbasbasbag56
(g72
g58
NtRp1083
(dp1084
g61
(dp1085
sg70
g856
sg63
(lp1086
g56
(g77
g58
NtRp1087
(dp1088
g61
(dp1089
g81
g82
ssg70
g1083
sg63
(lp1090
S'http_accept_language'
p1091
asbag56
(g77
g58
NtRp1092
(dp1093
g61
(dp1094
g88
g89
ssg70
g1083
sg63
(lp1095
S':'
asbag56
(g77
g58
NtRp1096
(dp1097
g61
(dp1098
sg70
g1083
sg63
(lp1099
g56
(g57
g58
NtRp1100
(dp1101
g61
(dp1102
g69
I4
ssg70
g1096
sg63
(lp1103
S'en-us,en;q=0.5'
p1104
asbasbasbag56
(g72
g58
NtRp1105
(dp1106
g61
(dp1107
sg70
g856
sg63
(lp1108
g56
(g77
g58
NtRp1109
(dp1110
g61
(dp1111
g81
g82
ssg70
g1105
sg63
(lp1112
S'http_cache_control'
p1113
asbag56
(g77
g58
NtRp1114
(dp1115
g61
(dp1116
g88
g89
ssg70
g1105
sg63
(lp1117
S':'
asbag56
(g77
g58
NtRp1118
(dp1119
g61
(dp1120
sg70
g1105
sg63
(lp1121
g56
(g57
g58
NtRp1122
(dp1123
g61
(dp1124
g69
I4
ssg70
g1118
sg63
(lp1125
S'max-age=0'
p1126
asbasbasbag56
(g72
g58
NtRp1127
(dp1128
g61
(dp1129
sg70
g856
sg63
(lp1130
g56
(g77
g58
NtRp1131
(dp1132
g61
(dp1133
g81
g82
ssg70
g1127
sg63
(lp1134
S'http_connection'
p1135
asbag56
(g77
g58
NtRp1136
(dp1137
g61
(dp1138
g88
g89
ssg70
g1127
sg63
(lp1139
S':'
asbag56
(g77
g58
NtRp1140
(dp1141
g61
(dp1142
sg70
g1127
sg63
(lp1143
g56
(g57
g58
NtRp1144
(dp1145
g61
(dp1146
g69
I4
ssg70
g1140
sg63
(lp1147
S'keep-alive'
p1148
asbasbasbag56
(g72
g58
NtRp1149
(dp1150
g61
(dp1151
sg70
g856
sg63
(lp1152
g56
(g77
g58
NtRp1153
(dp1154
g61
(dp1155
g81
g82
ssg70
g1149
sg63
(lp1156
S'http_cookie'
p1157
asbag56
(g77
g58
NtRp1158
(dp1159
g61
(dp1160
g88
g89
ssg70
g1149
sg63
(lp1161
S':'
asbag56
(g77
g58
NtRp1162
(dp1163
g61
(dp1164
sg70
g1149
sg63
(lp1165
g56
(g57
g58
NtRp1166
(dp1167
g61
(dp1168
g69
I4
ssg70
g1162
sg63
(lp1169
S'__utma_a2a=9789918665.1351576430.1320019504.1320019504.1320019504.1; session_id_welcome=127.0.0.1-801d3c18-bd4b-45b6-9a2f-8d3498975c58; session_id_topoi=127.0.0.1-26891f27-7a1a-4fa5-81a0-16ff25069026; session_id_admin=127.0.0.1-9dc69978-32f5-488b-bf3c-74ef5b2a4254'
p1170
asbasbasbag56
(g72
g58
NtRp1171
(dp1172
g61
(dp1173
sg70
g856
sg63
(lp1174
g56
(g77
g58
NtRp1175
(dp1176
g61
(dp1177
g81
g82
ssg70
g1171
sg63
(lp1178
S'http_host'
p1179
asbag56
(g77
g58
NtRp1180
(dp1181
g61
(dp1182
g88
g89
ssg70
g1171
sg63
(lp1183
S':'
asbag56
(g77
g58
NtRp1184
(dp1185
g61
(dp1186
sg70
g1171
sg63
(lp1187
g56
(g57
g58
NtRp1188
(dp1189
g61
(dp1190
g69
I4
ssg70
g1184
sg63
(lp1191
S'127.0.0.1:8000'
p1192
asbasbasbag56
(g72
g58
NtRp1193
(dp1194
g61
(dp1195
sg70
g856
sg63
(lp1196
g56
(g77
g58
NtRp1197
(dp1198
g61
(dp1199
g81
g82
ssg70
g1193
sg63
(lp1200
S'http_referer'
p1201
asbag56
(g77
g58
NtRp1202
(dp1203
g61
(dp1204
g88
g89
ssg70
g1193
sg63
(lp1205
S':'
asbag56
(g77
g58
NtRp1206
(dp1207
g61
(dp1208
sg70
g1193
sg63
(lp1209
g56
(g57
g58
NtRp1210
(dp1211
g61
(dp1212
g69
I4
ssg70
g1206
sg63
(lp1213
S'http://127.0.0.1:8000/topoi/default/notes/new/notes?_signature=a1ce2a1be157ab8cf4b99a9cd11fad104f00e7cc'
p1214
asbasbasbag56
(g72
g58
NtRp1215
(dp1216
g61
(dp1217
sg70
g856
sg63
(lp1218
g56
(g77
g58
NtRp1219
(dp1220
g61
(dp1221
g81
g82
ssg70
g1215
sg63
(lp1222
S'http_user_agent'
p1223
asbag56
(g77
g58
NtRp1224
(dp1225
g61
(dp1226
g88
g89
ssg70
g1215
sg63
(lp1227
S':'
asbag56
(g77
g58
NtRp1228
(dp1229
g61
(dp1230
sg70
g1215
sg63
(lp1231
g56
(g57
g58
NtRp1232
(dp1233
g61
(dp1234
g69
I4
ssg70
g1228
sg63
(lp1235
S'Mozilla/5.0 (X11; Linux x86_64; rv:7.0.1) Gecko/20100101 Firefox/7.0.1'
p1236
asbasbasbag56
(g72
g58
NtRp1237
(dp1238
g61
(dp1239
sg70
g856
sg63
(lp1240
g56
(g77
g58
NtRp1241
(dp1242
g61
(dp1243
g81
g82
ssg70
g1237
sg63
(lp1244
S'http_web2py_component_element'
p1245
asbag56
(g77
g58
NtRp1246
(dp1247
g61
(dp1248
g88
g89
ssg70
g1237
sg63
(lp1249
S':'
asbag56
(g77
g58
NtRp1250
(dp1251
g61
(dp1252
sg70
g1237
sg63
(lp1253
g56
(g57
g58
NtRp1254
(dp1255
g61
(dp1256
g69
I4
ssg70
g1250
sg63
(lp1257
g202
asbasbasbag56
(g72
g58
NtRp1258
(dp1259
g61
(dp1260
sg70
g856
sg63
(lp1261
g56
(g77
g58
NtRp1262
(dp1263
g61
(dp1264
g81
g82
ssg70
g1258
sg63
(lp1265
S'http_web2py_component_location'
p1266
asbag56
(g77
g58
NtRp1267
(dp1268
g61
(dp1269
g88
g89
ssg70
g1258
sg63
(lp1270
S':'
asbag56
(g77
g58
NtRp1271
(dp1272
g61
(dp1273
sg70
g1258
sg63
(lp1274
g56
(g57
g58
NtRp1275
(dp1276
g61
(dp1277
g69
I4
ssg70
g1271
sg63
(lp1278
S'http://127.0.0.1:8000/topoi/default/notes/new/notes?_signature=a1ce2a1be157ab8cf4b99a9cd11fad104f00e7cc'
p1279
asbasbasbag56
(g72
g58
NtRp1280
(dp1281
g61
(dp1282
sg70
g856
sg63
(lp1283
g56
(g77
g58
NtRp1284
(dp1285
g61
(dp1286
g81
g82
ssg70
g1280
sg63
(lp1287
S'http_x_requested_with'
p1288
asbag56
(g77
g58
NtRp1289
(dp1290
g61
(dp1291
g88
g89
ssg70
g1280
sg63
(lp1292
S':'
asbag56
(g77
g58
NtRp1293
(dp1294
g61
(dp1295
sg70
g1280
sg63
(lp1296
g56
(g57
g58
NtRp1297
(dp1298
g61
(dp1299
g69
I4
ssg70
g1293
sg63
(lp1300
S'XMLHttpRequest'
p1301
asbasbasbag56
(g72
g58
NtRp1302
(dp1303
g61
(dp1304
sg70
g856
sg63
(lp1305
g56
(g77
g58
NtRp1306
(dp1307
g61
(dp1308
g81
g82
ssg70
g1302
sg63
(lp1309
S'is_jython'
p1310
asbag56
(g77
g58
NtRp1311
(dp1312
g61
(dp1313
g88
g89
ssg70
g1302
sg63
(lp1314
S':'
asbag56
(g77
g58
NtRp1315
(dp1316
g61
(dp1317
sg70
g1302
sg63
(lp1318
g56
(g57
g58
NtRp1319
(dp1320
g61
(dp1321
g69
I4
ssg70
g1315
sg63
(lp1322
g994
asbasbasbag56
(g72
g58
NtRp1323
(dp1324
g61
(dp1325
sg70
g856
sg63
(lp1326
g56
(g77
g58
NtRp1327
(dp1328
g61
(dp1329
g81
g82
ssg70
g1323
sg63
(lp1330
S'path_info'
p1331
asbag56
(g77
g58
NtRp1332
(dp1333
g61
(dp1334
g88
g89
ssg70
g1323
sg63
(lp1335
S':'
asbag56
(g77
g58
NtRp1336
(dp1337
g61
(dp1338
sg70
g1323
sg63
(lp1339
g56
(g57
g58
NtRp1340
(dp1341
g61
(dp1342
g69
I4
ssg70
g1336
sg63
(lp1343
S'/topoi/default/add/notes_project'
p1344
asbasbasbag56
(g72
g58
NtRp1345
(dp1346
g61
(dp1347
sg70
g856
sg63
(lp1348
g56
(g77
g58
NtRp1349
(dp1350
g61
(dp1351
g81
g82
ssg70
g1345
sg63
(lp1352
S'query_string'
p1353
asbag56
(g77
g58
NtRp1354
(dp1355
g61
(dp1356
g88
g89
ssg70
g1345
sg63
(lp1357
S':'
asbag56
(g77
g58
NtRp1358
(dp1359
g61
(dp1360
sg70
g1345
sg63
(lp1361
g56
(g57
g58
NtRp1362
(dp1363
g61
(dp1364
g69
I4
ssg70
g1358
sg63
(lp1365
S''
asbasbasbag56
(g72
g58
NtRp1366
(dp1367
g61
(dp1368
sg70
g856
sg63
(lp1369
g56
(g77
g58
NtRp1370
(dp1371
g61
(dp1372
g81
g82
ssg70
g1366
sg63
(lp1373
S'remote_addr'
p1374
asbag56
(g77
g58
NtRp1375
(dp1376
g61
(dp1377
g88
g89
ssg70
g1366
sg63
(lp1378
S':'
asbag56
(g77
g58
NtRp1379
(dp1380
g61
(dp1381
sg70
g1366
sg63
(lp1382
g56
(g57
g58
NtRp1383
(dp1384
g61
(dp1385
g69
I4
ssg70
g1379
sg63
(lp1386
g224
asbasbasbag56
(g72
g58
NtRp1387
(dp1388
g61
(dp1389
sg70
g856
sg63
(lp1390
g56
(g77
g58
NtRp1391
(dp1392
g61
(dp1393
g81
g82
ssg70
g1387
sg63
(lp1394
S'remote_port'
p1395
asbag56
(g77
g58
NtRp1396
(dp1397
g61
(dp1398
g88
g89
ssg70
g1387
sg63
(lp1399
S':'
asbag56
(g77
g58
NtRp1400
(dp1401
g61
(dp1402
sg70
g1387
sg63
(lp1403
g56
(g57
g58
NtRp1404
(dp1405
g61
(dp1406
g69
I4
ssg70
g1400
sg63
(lp1407
S'35468'
p1408
asbasbasbag56
(g72
g58
NtRp1409
(dp1410
g61
(dp1411
sg70
g856
sg63
(lp1412
g56
(g77
g58
NtRp1413
(dp1414
g61
(dp1415
g81
g82
ssg70
g1409
sg63
(lp1416
S'request_method'
p1417
asbag56
(g77
g58
NtRp1418
(dp1419
g61
(dp1420
g88
g89
ssg70
g1409
sg63
(lp1421
S':'
asbag56
(g77
g58
NtRp1422
(dp1423
g61
(dp1424
sg70
g1409
sg63
(lp1425
g56
(g57
g58
NtRp1426
(dp1427
g61
(dp1428
g69
I4
ssg70
g1422
sg63
(lp1429
S'GET'
p1430
asbasbasbag56
(g72
g58
NtRp1431
(dp1432
g61
(dp1433
sg70
g856
sg63
(lp1434
g56
(g77
g58
NtRp1435
(dp1436
g61
(dp1437
g81
g82
ssg70
g1431
sg63
(lp1438
S'script_name'
p1439
asbag56
(g77
g58
NtRp1440
(dp1441
g61
(dp1442
g88
g89
ssg70
g1431
sg63
(lp1443
S':'
asbag56
(g77
g58
NtRp1444
(dp1445
g61
(dp1446
sg70
g1431
sg63
(lp1447
g56
(g57
g58
NtRp1448
(dp1449
g61
(dp1450
g69
I4
ssg70
g1444
sg63
(lp1451
S''
asbasbasbag56
(g72
g58
NtRp1452
(dp1453
g61
(dp1454
sg70
g856
sg63
(lp1455
g56
(g77
g58
NtRp1456
(dp1457
g61
(dp1458
g81
g82
ssg70
g1452
sg63
(lp1459
S'server_name'
p1460
asbag56
(g77
g58
NtRp1461
(dp1462
g61
(dp1463
g88
g89
ssg70
g1452
sg63
(lp1464
S':'
asbag56
(g77
g58
NtRp1465
(dp1466
g61
(dp1467
sg70
g1452
sg63
(lp1468
g56
(g57
g58
NtRp1469
(dp1470
g61
(dp1471
g69
I4
ssg70
g1465
sg63
(lp1472
S'Ariel-ubuntu'
p1473
asbasbasbag56
(g72
g58
NtRp1474
(dp1475
g61
(dp1476
sg70
g856
sg63
(lp1477
g56
(g77
g58
NtRp1478
(dp1479
g61
(dp1480
g81
g82
ssg70
g1474
sg63
(lp1481
S'server_port'
p1482
asbag56
(g77
g58
NtRp1483
(dp1484
g61
(dp1485
g88
g89
ssg70
g1474
sg63
(lp1486
S':'
asbag56
(g77
g58
NtRp1487
(dp1488
g61
(dp1489
sg70
g1474
sg63
(lp1490
g56
(g57
g58
NtRp1491
(dp1492
g61
(dp1493
g69
I4
ssg70
g1487
sg63
(lp1494
S'8000'
p1495
asbasbasbag56
(g72
g58
NtRp1496
(dp1497
g61
(dp1498
sg70
g856
sg63
(lp1499
g56
(g77
g58
NtRp1500
(dp1501
g61
(dp1502
g81
g82
ssg70
g1496
sg63
(lp1503
S'server_protocol'
p1504
asbag56
(g77
g58
NtRp1505
(dp1506
g61
(dp1507
g88
g89
ssg70
g1496
sg63
(lp1508
S':'
asbag56
(g77
g58
NtRp1509
(dp1510
g61
(dp1511
sg70
g1496
sg63
(lp1512
g56
(g57
g58
NtRp1513
(dp1514
g61
(dp1515
g69
I4
ssg70
g1509
sg63
(lp1516
S'HTTP/1.1'
p1517
asbasbasbag56
(g72
g58
NtRp1518
(dp1519
g61
(dp1520
sg70
g856
sg63
(lp1521
g56
(g77
g58
NtRp1522
(dp1523
g61
(dp1524
g81
g82
ssg70
g1518
sg63
(lp1525
S'server_software'
p1526
asbag56
(g77
g58
NtRp1527
(dp1528
g61
(dp1529
g88
g89
ssg70
g1518
sg63
(lp1530
S':'
asbag56
(g77
g58
NtRp1531
(dp1532
g61
(dp1533
sg70
g1518
sg63
(lp1534
g56
(g57
g58
NtRp1535
(dp1536
g61
(dp1537
g69
I4
ssg70
g1531
sg63
(lp1538
S'Rocket 1.2.4'
p1539
asbasbasbag56
(g72
g58
NtRp1540
(dp1541
g61
(dp1542
sg70
g856
sg63
(lp1543
g56
(g77
g58
NtRp1544
(dp1545
g61
(dp1546
g81
g82
ssg70
g1540
sg63
(lp1547
S'web2py_crontype'
p1548
asbag56
(g77
g58
NtRp1549
(dp1550
g61
(dp1551
g88
g89
ssg70
g1540
sg63
(lp1552
S':'
asbag56
(g77
g58
NtRp1553
(dp1554
g61
(dp1555
sg70
g1540
sg63
(lp1556
g56
(g57
g58
NtRp1557
(dp1558
g61
(dp1559
g69
I4
ssg70
g1553
sg63
(lp1560
S'hard'
p1561
asbasbasbag56
(g72
g58
NtRp1562
(dp1563
g61
(dp1564
sg70
g856
sg63
(lp1565
g56
(g77
g58
NtRp1566
(dp1567
g61
(dp1568
g81
g82
ssg70
g1562
sg63
(lp1569
S'web2py_path'
p1570
asbag56
(g77
g58
NtRp1571
(dp1572
g61
(dp1573
g88
g89
ssg70
g1562
sg63
(lp1574
S':'
asbag56
(g77
g58
NtRp1575
(dp1576
g61
(dp1577
sg70
g1562
sg63
(lp1578
g56
(g57
g58
NtRp1579
(dp1580
g61
(dp1581
g69
I4
ssg70
g1575
sg63
(lp1582
g903
asbasbasbag56
(g72
g58
NtRp1583
(dp1584
g61
(dp1585
sg70
g856
sg63
(lp1586
g56
(g77
g58
NtRp1587
(dp1588
g61
(dp1589
g81
g82
ssg70
g1583
sg63
(lp1590
S'web2py_version'
p1591
asbag56
(g77
g58
NtRp1592
(dp1593
g61
(dp1594
g88
g89
ssg70
g1583
sg63
(lp1595
S':'
asbag56
(g77
g58
NtRp1596
(dp1597
g61
(dp1598
sg70
g1583
sg63
(lp1599
g56
(g57
g58
NtRp1600
(dp1601
g61
(dp1602
g69
I4
ssg70
g1596
sg63
(lp1603
g56
(g65
g58
NtRp1604
(dp1605
g61
(dp1606
g69
I3
ssg70
Nsg63
(lp1607
g56
(g72
g58
NtRp1608
(dp1609
g61
(dp1610
sg70
g1604
sg63
(lp1611
g56
(g77
g58
NtRp1612
(dp1613
g61
(dp1614
sg70
g1608
sg63
(lp1615
g56
(g57
g58
NtRp1616
(dp1617
g61
(dp1618
g69
I3
ssg70
g1612
sg63
(lp1619
S'1'
asbasbasbag56
(g72
g58
NtRp1620
(dp1621
g61
(dp1622
sg70
g1604
sg63
(lp1623
g56
(g77
g58
NtRp1624
(dp1625
g61
(dp1626
sg70
g1620
sg63
(lp1627
g56
(g57
g58
NtRp1628
(dp1629
g61
(dp1630
g69
I3
ssg70
g1624
sg63
(lp1631
S'99'
p1632
asbasbasbag56
(g72
g58
NtRp1633
(dp1634
g61
(dp1635
sg70
g1604
sg63
(lp1636
g56
(g77
g58
NtRp1637
(dp1638
g61
(dp1639
sg70
g1633
sg63
(lp1640
g56
(g57
g58
NtRp1641
(dp1642
g61
(dp1643
g69
I3
ssg70
g1637
sg63
(lp1644
S'2'
asbasbasbag56
(g72
g58
NtRp1645
(dp1646
g61
(dp1647
sg70
g1604
sg63
(lp1648
g56
(g77
g58
NtRp1649
(dp1650
g61
(dp1651
sg70
g1645
sg63
(lp1652
g56
(g57
g58
NtRp1653
(dp1654
g61
(dp1655
g69
I3
ssg70
g1649
sg63
(lp1656
S'datetime.datetime(2011, 9, 26, 6, 55, 33)'
p1657
asbasbasbag56
(g72
g58
NtRp1658
(dp1659
g61
(dp1660
sg70
g1604
sg63
(lp1661
g56
(g77
g58
NtRp1662
(dp1663
g61
(dp1664
sg70
g1658
sg63
(lp1665
g56
(g57
g58
NtRp1666
(dp1667
g61
(dp1668
g69
I3
ssg70
g1662
sg63
(lp1669
S'stable'
p1670
asbasbasbasbasbasbasbag56
(g72
g58
NtRp1671
(dp1672
g61
(dp1673
sg70
g856
sg63
(lp1674
g56
(g77
g58
NtRp1675
(dp1676
g61
(dp1677
g81
g82
ssg70
g1671
sg63
(lp1678
S'wsgi_errors'
p1679
asbag56
(g77
g58
NtRp1680
(dp1681
g61
(dp1682
g88
g89
ssg70
g1671
sg63
(lp1683
S':'
asbag56
(g77
g58
NtRp1684
(dp1685
g61
(dp1686
sg70
g1671
sg63
(lp1687
g56
(g57
g58
NtRp1688
(dp1689
g61
(dp1690
g69
I4
ssg70
g1684
sg63
(lp1691
S"<open file '<stderr>', mode 'w' at 0x7fafe3e4a270>"
p1692
asbasbasbag56
(g72
g58
NtRp1693
(dp1694
g61
(dp1695
sg70
g856
sg63
(lp1696
g56
(g77
g58
NtRp1697
(dp1698
g61
(dp1699
g81
g82
ssg70
g1693
sg63
(lp1700
S'wsgi_file_wrapper'
p1701
asbag56
(g77
g58
NtRp1702
(dp1703
g61
(dp1704
g88
g89
ssg70
g1693
sg63
(lp1705
S':'
asbag56
(g77
g58
NtRp1706
(dp1707
g61
(dp1708
sg70
g1693
sg63
(lp1709
g56
(g57
g58
NtRp1710
(dp1711
g61
(dp1712
g69
I4
ssg70
g1706
sg63
(lp1713
S'<class wsgiref.util.FileWrapper at 0x1d28808>'
p1714
asbasbasbag56
(g72
g58
NtRp1715
(dp1716
g61
(dp1717
sg70
g856
sg63
(lp1718
g56
(g77
g58
NtRp1719
(dp1720
g61
(dp1721
g81
g82
ssg70
g1715
sg63
(lp1722
S'wsgi_input'
p1723
asbag56
(g77
g58
NtRp1724
(dp1725
g61
(dp1726
g88
g89
ssg70
g1715
sg63
(lp1727
S':'
asbag56
(g77
g58
NtRp1728
(dp1729
g61
(dp1730
sg70
g1715
sg63
(lp1731
g56
(g57
g58
NtRp1732
(dp1733
g61
(dp1734
g69
I4
ssg70
g1728
sg63
(lp1735
S'<socket._fileobject object at 0x270c9d0>'
p1736
asbasbasbag56
(g72
g58
NtRp1737
(dp1738
g61
(dp1739
sg70
g856
sg63
(lp1740
g56
(g77
g58
NtRp1741
(dp1742
g61
(dp1743
g81
g82
ssg70
g1737
sg63
(lp1744
S'wsgi_multiprocess'
p1745
asbag56
(g77
g58
NtRp1746
(dp1747
g61
(dp1748
g88
g89
ssg70
g1737
sg63
(lp1749
S':'
asbag56
(g77
g58
NtRp1750
(dp1751
g61
(dp1752
sg70
g1737
sg63
(lp1753
g56
(g57
g58
NtRp1754
(dp1755
g61
(dp1756
g69
I4
ssg70
g1750
sg63
(lp1757
g994
asbasbasbag56
(g72
g58
NtRp1758
(dp1759
g61
(dp1760
sg70
g856
sg63
(lp1761
g56
(g77
g58
NtRp1762
(dp1763
g61
(dp1764
g81
g82
ssg70
g1758
sg63
(lp1765
S'wsgi_multithread'
p1766
asbag56
(g77
g58
NtRp1767
(dp1768
g61
(dp1769
g88
g89
ssg70
g1758
sg63
(lp1770
S':'
asbag56
(g77
g58
NtRp1771
(dp1772
g61
(dp1773
sg70
g1758
sg63
(lp1774
g56
(g57
g58
NtRp1775
(dp1776
g61
(dp1777
g69
I4
ssg70
g1771
sg63
(lp1778
g99
asbasbasbag56
(g72
g58
NtRp1779
(dp1780
g61
(dp1781
sg70
g856
sg63
(lp1782
g56
(g77
g58
NtRp1783
(dp1784
g61
(dp1785
g81
g82
ssg70
g1779
sg63
(lp1786
S'wsgi_run_once'
p1787
asbag56
(g77
g58
NtRp1788
(dp1789
g61
(dp1790
g88
g89
ssg70
g1779
sg63
(lp1791
S':'
asbag56
(g77
g58
NtRp1792
(dp1793
g61
(dp1794
sg70
g1779
sg63
(lp1795
g56
(g57
g58
NtRp1796
(dp1797
g61
(dp1798
g69
I4
ssg70
g1792
sg63
(lp1799
g994
asbasbasbag56
(g72
g58
NtRp1800
(dp1801
g61
(dp1802
sg70
g856
sg63
(lp1803
g56
(g77
g58
NtRp1804
(dp1805
g61
(dp1806
g81
g82
ssg70
g1800
sg63
(lp1807
S'wsgi_url_scheme'
p1808
asbag56
(g77
g58
NtRp1809
(dp1810
g61
(dp1811
g88
g89
ssg70
g1800
sg63
(lp1812
S':'
asbag56
(g77
g58
NtRp1813
(dp1814
g61
(dp1815
sg70
g1800
sg63
(lp1816
g56
(g57
g58
NtRp1817
(dp1818
g61
(dp1819
g69
I4
ssg70
g1813
sg63
(lp1820
S'http'
p1821
asbasbasbag56
(g72
g58
NtRp1822
(dp1823
g61
(dp1824
sg70
g856
sg63
(lp1825
g56
(g77
g58
NtRp1826
(dp1827
g61
(dp1828
g81
g82
ssg70
g1822
sg63
(lp1829
S'wsgi_version'
p1830
asbag56
(g77
g58
NtRp1831
(dp1832
g61
(dp1833
g88
g89
ssg70
g1822
sg63
(lp1834
S':'
asbag56
(g77
g58
NtRp1835
(dp1836
g61
(dp1837
sg70
g1822
sg63
(lp1838
g56
(g57
g58
NtRp1839
(dp1840
g61
(dp1841
g69
I4
ssg70
g1835
sg63
(lp1842
g56
(g65
g58
NtRp1843
(dp1844
g61
(dp1845
g69
I3
ssg70
Nsg63
(lp1846
g56
(g72
g58
NtRp1847
(dp1848
g61
(dp1849
sg70
g1843
sg63
(lp1850
g56
(g77
g58
NtRp1851
(dp1852
g61
(dp1853
sg70
g1847
sg63
(lp1854
g56
(g57
g58
NtRp1855
(dp1856
g61
(dp1857
g69
I3
ssg70
g1851
sg63
(lp1858
S'1'
asbasbasbag56
(g72
g58
NtRp1859
(dp1860
g61
(dp1861
sg70
g1843
sg63
(lp1862
g56
(g77
g58
NtRp1863
(dp1864
g61
(dp1865
sg70
g1859
sg63
(lp1866
g56
(g57
g58
NtRp1867
(dp1868
g61
(dp1869
g69
I3
ssg70
g1863
sg63
(lp1870
S'0'
asbasbasbasbasbasbasbasbasbasbasbag56
(g72
g58
NtRp1871
(dp1872
g61
(dp1873
sg70
g66
sg63
(lp1874
g56
(g77
g58
NtRp1875
(dp1876
g61
(dp1877
g81
g82
ssg70
g1871
sg63
(lp1878
S'extension'
p1879
asbag56
(g77
g58
NtRp1880
(dp1881
g61
(dp1882
g88
g89
ssg70
g1871
sg63
(lp1883
S':'
asbag56
(g77
g58
NtRp1884
(dp1885
g61
(dp1886
sg70
g1871
sg63
(lp1887
g56
(g57
g58
NtRp1888
(dp1889
g61
(dp1890
g69
I5
ssg70
g1884
sg63
(lp1891
S'html'
p1892
asbasbasbag56
(g72
g58
NtRp1893
(dp1894
g61
(dp1895
sg70
g66
sg63
(lp1896
g56
(g77
g58
NtRp1897
(dp1898
g61
(dp1899
g81
g82
ssg70
g1893
sg63
(lp1900
S'folder'
p1901
asbag56
(g77
g58
NtRp1902
(dp1903
g61
(dp1904
g88
g89
ssg70
g1893
sg63
(lp1905
S':'
asbag56
(g77
g58
NtRp1906
(dp1907
g61
(dp1908
sg70
g1893
sg63
(lp1909
g56
(g57
g58
NtRp1910
(dp1911
g61
(dp1912
g69
I5
ssg70
g1906
sg63
(lp1913
S'/home/ian/web2py/applications/topoi/'
p1914
asbasbasbag56
(g72
g58
NtRp1915
(dp1916
g61
(dp1917
sg70
g66
sg63
(lp1918
g56
(g77
g58
NtRp1919
(dp1920
g61
(dp1921
g81
g82
ssg70
g1915
sg63
(lp1922
S'function'
p1923
asbag56
(g77
g58
NtRp1924
(dp1925
g61
(dp1926
g88
g89
ssg70
g1915
sg63
(lp1927
S':'
asbag56
(g77
g58
NtRp1928
(dp1929
g61
(dp1930
sg70
g1915
sg63
(lp1931
g56
(g57
g58
NtRp1932
(dp1933
g61
(dp1934
g69
I5
ssg70
g1928
sg63
(lp1935
S'add'
p1936
asbasbasbag56
(g72
g58
NtRp1937
(dp1938
g61
(dp1939
sg70
g66
sg63
(lp1940
g56
(g77
g58
NtRp1941
(dp1942
g61
(dp1943
g81
g82
ssg70
g1937
sg63
(lp1944
S'get_vars'
p1945
asbag56
(g77
g58
NtRp1946
(dp1947
g61
(dp1948
g88
g89
ssg70
g1937
sg63
(lp1949
S':'
asbag56
(g77
g58
NtRp1950
(dp1951
g61
(dp1952
sg70
g1937
sg63
(lp1953
g56
(g57
g58
NtRp1954
(dp1955
g61
(dp1956
g69
I5
ssg70
g1950
sg63
(lp1957
g56
(g65
g58
NtRp1958
(dp1959
g61
(dp1960
g69
I4
ssg70
Nsg63
(lp1961
sbasbasbasbag56
(g72
g58
NtRp1962
(dp1963
g61
(dp1964
sg70
g66
sg63
(lp1965
g56
(g77
g58
NtRp1966
(dp1967
g61
(dp1968
g81
g82
ssg70
g1962
sg63
(lp1969
S'global_settings'
p1970
asbag56
(g77
g58
NtRp1971
(dp1972
g61
(dp1973
g88
g89
ssg70
g1962
sg63
(lp1974
S':'
asbag56
(g77
g58
NtRp1975
(dp1976
g61
(dp1977
sg70
g1962
sg63
(lp1978
g56
(g57
g58
NtRp1979
(dp1980
g61
(dp1981
g69
I5
ssg70
g1975
sg63
(lp1982
g56
(g65
g58
NtRp1983
(dp1984
g61
(dp1985
g69
I4
ssg70
Nsg63
(lp1986
g56
(g72
g58
NtRp1987
(dp1988
g61
(dp1989
sg70
g1983
sg63
(lp1990
g56
(g77
g58
NtRp1991
(dp1992
g61
(dp1993
g81
g82
ssg70
g1987
sg63
(lp1994
g868
asbag56
(g77
g58
NtRp1995
(dp1996
g61
(dp1997
g88
g89
ssg70
g1987
sg63
(lp1998
S':'
asbag56
(g77
g58
NtRp1999
(dp2000
g61
(dp2001
sg70
g1987
sg63
(lp2002
g56
(g57
g58
NtRp2003
(dp2004
g61
(dp2005
g69
I4
ssg70
g1999
sg63
(lp2006
S"set(['/home/ian/web2py/applications/topoi/', '/home/ian/web2py/applications/welcome/', '/home/ian/web2py/applications/admin/'])"
p2007
asbasbasbag56
(g72
g58
NtRp2008
(dp2009
g61
(dp2010
sg70
g1983
sg63
(lp2011
g56
(g77
g58
NtRp2012
(dp2013
g61
(dp2014
g81
g82
ssg70
g2008
sg63
(lp2015
g890
asbag56
(g77
g58
NtRp2016
(dp2017
g61
(dp2018
g88
g89
ssg70
g2008
sg63
(lp2019
S':'
asbag56
(g77
g58
NtRp2020
(dp2021
g61
(dp2022
sg70
g2008
sg63
(lp2023
g56
(g57
g58
NtRp2024
(dp2025
g61
(dp2026
g69
I4
ssg70
g2020
sg63
(lp2027
g903
asbasbasbag56
(g72
g58
NtRp2028
(dp2029
g61
(dp2030
sg70
g1983
sg63
(lp2031
g56
(g77
g58
NtRp2032
(dp2033
g61
(dp2034
g81
g82
ssg70
g2028
sg63
(lp2035
g912
asbag56
(g77
g58
NtRp2036
(dp2037
g61
(dp2038
g88
g89
ssg70
g2028
sg63
(lp2039
S':'
asbag56
(g77
g58
NtRp2040
(dp2041
g61
(dp2042
sg70
g2028
sg63
(lp2043
g56
(g57
g58
NtRp2044
(dp2045
g61
(dp2046
g69
I4
ssg70
g2040
sg63
(lp2047
g56
(g65
g58
NtRp2048
(dp2049
g61
(dp2050
g69
I3
ssg70
Nsg63
(lp2051
sbasbasbasbag56
(g72
g58
NtRp2052
(dp2053
g61
(dp2054
sg70
g1983
sg63
(lp2055
g56
(g77
g58
NtRp2056
(dp2057
g61
(dp2058
g81
g82
ssg70
g2052
sg63
(lp2059
g937
asbag56
(g77
g58
NtRp2060
(dp2061
g61
(dp2062
g88
g89
ssg70
g2052
sg63
(lp2063
S':'
asbag56
(g77
g58
NtRp2064
(dp2065
g61
(dp2066
sg70
g2052
sg63
(lp2067
g56
(g57
g58
NtRp2068
(dp2069
g61
(dp2070
g69
I4
ssg70
g2064
sg63
(lp2071
S"<Values at 0x1e5f7e8: {'verbose': False, 'ip': '127.0.0.1', 'shutdown_timeout': 5, 'taskbar': False, 'nocron': False, 'pid_filename': 'httpserver.pid', 'maxthreads': None, 'softcron': False, 'server_name': 'Ariel-ubuntu', 'bpython': False, 'nogui': False, 'port': 8000, 'extcron': False, 'debuglevel': 30, 'test': None, 'folder': '/home/ian/web2py', 'config': '', 'import_models': False, 'winservice': '', 'shell': None, 'run': '', 'log_filename': 'httpserver.log', 'args': [''], 'ssl_ca_certificate': None, 'scheduler': None, 'profiler_filename': None, 'ssl_private_key': '', 'password': '<ask>', 'request_queue_size': 5, 'ssl_certificate': '', 'cronjob': False, 'plain': False, 'quiet': False, 'interfaces': None, 'minthreads': None, 'timeout': 10, 'numthreads': None, 'nobanner': False}>"
p2072
asbasbasbag56
(g72
g58
NtRp2073
(dp2074
g61
(dp2075
sg70
g1983
sg63
(lp2076
g56
(g77
g58
NtRp2077
(dp2078
g61
(dp2079
g81
g82
ssg70
g2073
sg63
(lp2080
g959
asbag56
(g77
g58
NtRp2081
(dp2082
g61
(dp2083
g88
g89
ssg70
g2073
sg63
(lp2084
S':'
asbag56
(g77
g58
NtRp2085
(dp2086
g61
(dp2087
sg70
g2073
sg63
(lp2088
g56
(g57
g58
NtRp2089
(dp2090
g61
(dp2091
g69
I4
ssg70
g2085
sg63
(lp2092
S'set([])'
p2093
asbasbasbag56
(g72
g58
NtRp2094
(dp2095
g61
(dp2096
sg70
g1983
sg63
(lp2097
g56
(g77
g58
NtRp2098
(dp2099
g61
(dp2100
g81
g82
ssg70
g2094
sg63
(lp2101
g981
asbag56
(g77
g58
NtRp2102
(dp2103
g61
(dp2104
g88
g89
ssg70
g2094
sg63
(lp2105
S':'
asbag56
(g77
g58
NtRp2106
(dp2107
g61
(dp2108
sg70
g2094
sg63
(lp2109
g56
(g57
g58
NtRp2110
(dp2111
g61
(dp2112
g69
I4
ssg70
g2106
sg63
(lp2113
g994
asbasbasbag56
(g72
g58
NtRp2114
(dp2115
g61
(dp2116
sg70
g1983
sg63
(lp2117
g56
(g77
g58
NtRp2118
(dp2119
g61
(dp2120
g81
g82
ssg70
g2114
sg63
(lp2121
g1003
asbag56
(g77
g58
NtRp2122
(dp2123
g61
(dp2124
g88
g89
ssg70
g2114
sg63
(lp2125
S':'
asbag56
(g77
g58
NtRp2126
(dp2127
g61
(dp2128
sg70
g2114
sg63
(lp2129
g56
(g57
g58
NtRp2130
(dp2131
g61
(dp2132
g69
I4
ssg70
g2126
sg63
(lp2133
g1016
asbasbasbag56
(g72
g58
NtRp2134
(dp2135
g61
(dp2136
sg70
g1983
sg63
(lp2137
g56
(g77
g58
NtRp2138
(dp2139
g61
(dp2140
g81
g82
ssg70
g2134
sg63
(lp2141
g1310
asbag56
(g77
g58
NtRp2142
(dp2143
g61
(dp2144
g88
g89
ssg70
g2134
sg63
(lp2145
S':'
asbag56
(g77
g58
NtRp2146
(dp2147
g61
(dp2148
sg70
g2134
sg63
(lp2149
g56
(g57
g58
NtRp2150
(dp2151
g61
(dp2152
g69
I4
ssg70
g2146
sg63
(lp2153
g994
asbasbasbag56
(g72
g58
NtRp2154
(dp2155
g61
(dp2156
sg70
g1983
sg63
(lp2157
g56
(g77
g58
NtRp2158
(dp2159
g61
(dp2160
g81
g82
ssg70
g2154
sg63
(lp2161
g1548
asbag56
(g77
g58
NtRp2162
(dp2163
g61
(dp2164
g88
g89
ssg70
g2154
sg63
(lp2165
S':'
asbag56
(g77
g58
NtRp2166
(dp2167
g61
(dp2168
sg70
g2154
sg63
(lp2169
g56
(g57
g58
NtRp2170
(dp2171
g61
(dp2172
g69
I4
ssg70
g2166
sg63
(lp2173
g1561
asbasbasbag56
(g72
g58
NtRp2174
(dp2175
g61
(dp2176
sg70
g1983
sg63
(lp2177
g56
(g77
g58
NtRp2178
(dp2179
g61
(dp2180
g81
g82
ssg70
g2174
sg63
(lp2181
g1591
asbag56
(g77
g58
NtRp2182
(dp2183
g61
(dp2184
g88
g89
ssg70
g2174
sg63
(lp2185
S':'
asbag56
(g77
g58
NtRp2186
(dp2187
g61
(dp2188
sg70
g2174
sg63
(lp2189
g56
(g57
g58
NtRp2190
(dp2191
g61
(dp2192
g69
I4
ssg70
g2186
sg63
(lp2193
g56
(g65
g58
NtRp2194
(dp2195
g61
(dp2196
g69
I3
ssg70
Nsg63
(lp2197
g56
(g72
g58
NtRp2198
(dp2199
g61
(dp2200
sg70
g2194
sg63
(lp2201
g56
(g77
g58
NtRp2202
(dp2203
g61
(dp2204
sg70
g2198
sg63
(lp2205
g56
(g57
g58
NtRp2206
(dp2207
g61
(dp2208
g69
I3
ssg70
g2202
sg63
(lp2209
S'1'
asbasbasbag56
(g72
g58
NtRp2210
(dp2211
g61
(dp2212
sg70
g2194
sg63
(lp2213
g56
(g77
g58
NtRp2214
(dp2215
g61
(dp2216
sg70
g2210
sg63
(lp2217
g56
(g57
g58
NtRp2218
(dp2219
g61
(dp2220
g69
I3
ssg70
g2214
sg63
(lp2221
S'99'
p2222
asbasbasbag56
(g72
g58
NtRp2223
(dp2224
g61
(dp2225
sg70
g2194
sg63
(lp2226
g56
(g77
g58
NtRp2227
(dp2228
g61
(dp2229
sg70
g2223
sg63
(lp2230
g56
(g57
g58
NtRp2231
(dp2232
g61
(dp2233
g69
I3
ssg70
g2227
sg63
(lp2234
S'2'
asbasbasbag56
(g72
g58
NtRp2235
(dp2236
g61
(dp2237
sg70
g2194
sg63
(lp2238
g56
(g77
g58
NtRp2239
(dp2240
g61
(dp2241
sg70
g2235
sg63
(lp2242
g56
(g57
g58
NtRp2243
(dp2244
g61
(dp2245
g69
I3
ssg70
g2239
sg63
(lp2246
S'datetime.datetime(2011, 9, 26, 6, 55, 33)'
p2247
asbasbasbag56
(g72
g58
NtRp2248
(dp2249
g61
(dp2250
sg70
g2194
sg63
(lp2251
g56
(g77
g58
NtRp2252
(dp2253
g61
(dp2254
sg70
g2248
sg63
(lp2255
g56
(g57
g58
NtRp2256
(dp2257
g61
(dp2258
g69
I3
ssg70
g2252
sg63
(lp2259
g1670
asbasbasbasbasbasbasbasbasbasbasbag56
(g72
g58
NtRp2260
(dp2261
g61
(dp2262
sg70
g66
sg63
(lp2263
g56
(g77
g58
NtRp2264
(dp2265
g61
(dp2266
g81
g82
ssg70
g2260
sg63
(lp2267
S'is_https'
p2268
asbag56
(g77
g58
NtRp2269
(dp2270
g61
(dp2271
g88
g89
ssg70
g2260
sg63
(lp2272
S':'
asbag56
(g77
g58
NtRp2273
(dp2274
g61
(dp2275
sg70
g2260
sg63
(lp2276
g56
(g57
g58
NtRp2277
(dp2278
g61
(dp2279
g69
I5
ssg70
g2273
sg63
(lp2280
g994
asbasbasbag56
(g72
g58
NtRp2281
(dp2282
g61
(dp2283
sg70
g66
sg63
(lp2284
g56
(g77
g58
NtRp2285
(dp2286
g61
(dp2287
g81
g82
ssg70
g2281
sg63
(lp2288
S'is_local'
p2289
asbag56
(g77
g58
NtRp2290
(dp2291
g61
(dp2292
g88
g89
ssg70
g2281
sg63
(lp2293
S':'
asbag56
(g77
g58
NtRp2294
(dp2295
g61
(dp2296
sg70
g2281
sg63
(lp2297
g56
(g57
g58
NtRp2298
(dp2299
g61
(dp2300
g69
I5
ssg70
g2294
sg63
(lp2301
g99
asbasbasbag56
(g72
g58
NtRp2302
(dp2303
g61
(dp2304
sg70
g66
sg63
(lp2305
g56
(g77
g58
NtRp2306
(dp2307
g61
(dp2308
g81
g82
ssg70
g2302
sg63
(lp2309
S'is_restful'
p2310
asbag56
(g77
g58
NtRp2311
(dp2312
g61
(dp2313
g88
g89
ssg70
g2302
sg63
(lp2314
S':'
asbag56
(g77
g58
NtRp2315
(dp2316
g61
(dp2317
sg70
g2302
sg63
(lp2318
g56
(g57
g58
NtRp2319
(dp2320
g61
(dp2321
g69
I5
ssg70
g2315
sg63
(lp2322
g994
asbasbasbag56
(g72
g58
NtRp2323
(dp2324
g61
(dp2325
sg70
g66
sg63
(lp2326
g56
(g77
g58
NtRp2327
(dp2328
g61
(dp2329
g81
g82
ssg70
g2323
sg63
(lp2330
S'now'
p2331
asbag56
(g77
g58
NtRp2332
(dp2333
g61
(dp2334
g88
g89
ssg70
g2323
sg63
(lp2335
S':'
asbag56
(g77
g58
NtRp2336
(dp2337
g61
(dp2338
sg70
g2323
sg63
(lp2339
g56
(g57
g58
NtRp2340
(dp2341
g61
(dp2342
g69
I5
ssg70
g2336
sg63
(lp2343
S'datetime.datetime(2011, 11, 21, 16, 50, 51, 886929)'
p2344
asbasbasbag56
(g72
g58
NtRp2345
(dp2346
g61
(dp2347
sg70
g66
sg63
(lp2348
g56
(g77
g58
NtRp2349
(dp2350
g61
(dp2351
g81
g82
ssg70
g2345
sg63
(lp2352
S'post_vars'
p2353
asbag56
(g77
g58
NtRp2354
(dp2355
g61
(dp2356
g88
g89
ssg70
g2345
sg63
(lp2357
S':'
asbag56
(g77
g58
NtRp2358
(dp2359
g61
(dp2360
sg70
g2345
sg63
(lp2361
g56
(g57
g58
NtRp2362
(dp2363
g61
(dp2364
g69
I5
ssg70
g2358
sg63
(lp2365
g56
(g65
g58
NtRp2366
(dp2367
g61
(dp2368
g69
I4
ssg70
Nsg63
(lp2369
sbasbasbasbag56
(g72
g58
NtRp2370
(dp2371
g61
(dp2372
sg70
g66
sg63
(lp2373
g56
(g77
g58
NtRp2374
(dp2375
g61
(dp2376
g81
g82
ssg70
g2370
sg63
(lp2377
S'raw_args'
p2378
asbag56
(g77
g58
NtRp2379
(dp2380
g61
(dp2381
g88
g89
ssg70
g2370
sg63
(lp2382
S':'
asbag56
(g77
g58
NtRp2383
(dp2384
g61
(dp2385
sg70
g2370
sg63
(lp2386
g56
(g57
g58
NtRp2387
(dp2388
g61
(dp2389
g69
I5
ssg70
g2383
sg63
(lp2390
g158
asbasbasbag56
(g72
g58
NtRp2391
(dp2392
g61
(dp2393
sg70
g66
sg63
(lp2394
g56
(g77
g58
NtRp2395
(dp2396
g61
(dp2397
g81
g82
ssg70
g2391
sg63
(lp2398
S'url'
p2399
asbag56
(g77
g58
NtRp2400
(dp2401
g61
(dp2402
g88
g89
ssg70
g2391
sg63
(lp2403
S':'
asbag56
(g77
g58
NtRp2404
(dp2405
g61
(dp2406
sg70
g2391
sg63
(lp2407
g56
(g57
g58
NtRp2408
(dp2409
g61
(dp2410
g69
I5
ssg70
g2404
sg63
(lp2411
S'/topoi/default/add/notes_project'
p2412
asbasbasbag56
(g72
g58
NtRp2413
(dp2414
g61
(dp2415
sg70
g66
sg63
(lp2416
g56
(g77
g58
NtRp2417
(dp2418
g61
(dp2419
g81
g82
ssg70
g2413
sg63
(lp2420
S'utcnow'
p2421
asbag56
(g77
g58
NtRp2422
(dp2423
g61
(dp2424
g88
g89
ssg70
g2413
sg63
(lp2425
S':'
asbag56
(g77
g58
NtRp2426
(dp2427
g61
(dp2428
sg70
g2413
sg63
(lp2429
g56
(g57
g58
NtRp2430
(dp2431
g61
(dp2432
g69
I5
ssg70
g2426
sg63
(lp2433
S'datetime.datetime(2011, 11, 22, 0, 50, 51, 886997)'
p2434
asbasbasbag56
(g72
g58
NtRp2435
(dp2436
g61
(dp2437
sg70
g66
sg63
(lp2438
g56
(g77
g58
NtRp2439
(dp2440
g61
(dp2441
g81
g82
ssg70
g2435
sg63
(lp2442
S'uuid'
p2443
asbag56
(g77
g58
NtRp2444
(dp2445
g61
(dp2446
g88
g89
ssg70
g2435
sg63
(lp2447
S':'
asbag56
(g77
g58
NtRp2448
(dp2449
g61
(dp2450
sg70
g2435
sg63
(lp2451
g56
(g57
g58
NtRp2452
(dp2453
g61
(dp2454
g69
I5
ssg70
g2448
sg63
(lp2455
S'topoi/127.0.0.1.2011-11-21.16-50-51.0cba42e0-1409-45c9-a4c4-19ae5179677a'
p2456
asbasbasbag56
(g72
g58
NtRp2457
(dp2458
g61
(dp2459
sg70
g66
sg63
(lp2460
g56
(g77
g58
NtRp2461
(dp2462
g61
(dp2463
g81
g82
ssg70
g2457
sg63
(lp2464
S'vars'
p2465
asbag56
(g77
g58
NtRp2466
(dp2467
g61
(dp2468
g88
g89
ssg70
g2457
sg63
(lp2469
S':'
asbag56
(g77
g58
NtRp2470
(dp2471
g61
(dp2472
sg70
g2457
sg63
(lp2473
g56
(g57
g58
NtRp2474
(dp2475
g61
(dp2476
g69
I5
ssg70
g2470
sg63
(lp2477
g56
(g65
g58
NtRp2478
(dp2479
g61
(dp2480
g69
I4
ssg70
Nsg63
(lp2481
sbasbasbasbag56
(g72
g58
NtRp2482
(dp2483
g61
(dp2484
sg70
g66
sg63
(lp2485
g56
(g77
g58
NtRp2486
(dp2487
g61
(dp2488
g81
g82
ssg70
g2482
sg63
(lp2489
S'wsgi'
p2490
asbag56
(g77
g58
NtRp2491
(dp2492
g61
(dp2493
g88
g89
ssg70
g2482
sg63
(lp2494
S':'
asbag56
(g77
g58
NtRp2495
(dp2496
g61
(dp2497
sg70
g2482
sg63
(lp2498
g56
(g57
g58
NtRp2499
(dp2500
g61
(dp2501
g69
I5
ssg70
g2495
sg63
(lp2502
g56
(g65
g58
NtRp2503
(dp2504
g61
(dp2505
g69
I4
ssg70
Nsg63
(lp2506
g56
(g72
g58
NtRp2507
(dp2508
g61
(dp2509
sg70
g2503
sg63
(lp2510
g56
(g77
g58
NtRp2511
(dp2512
g61
(dp2513
g81
g82
ssg70
g2507
sg63
(lp2514
S'environ'
p2515
asbag56
(g77
g58
NtRp2516
(dp2517
g61
(dp2518
g88
g89
ssg70
g2507
sg63
(lp2519
S':'
asbag56
(g77
g58
NtRp2520
(dp2521
g61
(dp2522
sg70
g2507
sg63
(lp2523
g56
(g57
g58
NtRp2524
(dp2525
g61
(dp2526
g69
I4
ssg70
g2520
sg63
(lp2527
g56
(g65
g58
NtRp2528
(dp2529
g61
(dp2530
g69
I3
ssg70
Nsg63
(lp2531
g56
(g72
g58
NtRp2532
(dp2533
g61
(dp2534
sg70
g2528
sg63
(lp2535
g56
(g77
g58
NtRp2536
(dp2537
g61
(dp2538
g81
g82
ssg70
g2532
sg63
(lp2539
S'HTTP_ACCEPT'
p2540
asbag56
(g77
g58
NtRp2541
(dp2542
g61
(dp2543
g88
g89
ssg70
g2532
sg63
(lp2544
S':'
asbag56
(g77
g58
NtRp2545
(dp2546
g61
(dp2547
sg70
g2532
sg63
(lp2548
g56
(g57
g58
NtRp2549
(dp2550
g61
(dp2551
g69
I3
ssg70
g2545
sg63
(lp2552
g1038
asbasbasbag56
(g72
g58
NtRp2553
(dp2554
g61
(dp2555
sg70
g2528
sg63
(lp2556
g56
(g77
g58
NtRp2557
(dp2558
g61
(dp2559
g81
g82
ssg70
g2553
sg63
(lp2560
S'HTTP_ACCEPT_CHARSET'
p2561
asbag56
(g77
g58
NtRp2562
(dp2563
g61
(dp2564
g88
g89
ssg70
g2553
sg63
(lp2565
S':'
asbag56
(g77
g58
NtRp2566
(dp2567
g61
(dp2568
sg70
g2553
sg63
(lp2569
g56
(g57
g58
NtRp2570
(dp2571
g61
(dp2572
g69
I3
ssg70
g2566
sg63
(lp2573
g1060
asbasbasbag56
(g72
g58
NtRp2574
(dp2575
g61
(dp2576
sg70
g2528
sg63
(lp2577
g56
(g77
g58
NtRp2578
(dp2579
g61
(dp2580
g81
g82
ssg70
g2574
sg63
(lp2581
S'HTTP_ACCEPT_ENCODING'
p2582
asbag56
(g77
g58
NtRp2583
(dp2584
g61
(dp2585
g88
g89
ssg70
g2574
sg63
(lp2586
S':'
asbag56
(g77
g58
NtRp2587
(dp2588
g61
(dp2589
sg70
g2574
sg63
(lp2590
g56
(g57
g58
NtRp2591
(dp2592
g61
(dp2593
g69
I3
ssg70
g2587
sg63
(lp2594
g1082
asbasbasbag56
(g72
g58
NtRp2595
(dp2596
g61
(dp2597
sg70
g2528
sg63
(lp2598
g56
(g77
g58
NtRp2599
(dp2600
g61
(dp2601
g81
g82
ssg70
g2595
sg63
(lp2602
S'HTTP_ACCEPT_LANGUAGE'
p2603
asbag56
(g77
g58
NtRp2604
(dp2605
g61
(dp2606
g88
g89
ssg70
g2595
sg63
(lp2607
S':'
asbag56
(g77
g58
NtRp2608
(dp2609
g61
(dp2610
sg70
g2595
sg63
(lp2611
g56
(g57
g58
NtRp2612
(dp2613
g61
(dp2614
g69
I3
ssg70
g2608
sg63
(lp2615
g1104
asbasbasbag56
(g72
g58
NtRp2616
(dp2617
g61
(dp2618
sg70
g2528
sg63
(lp2619
g56
(g77
g58
NtRp2620
(dp2621
g61
(dp2622
g81
g82
ssg70
g2616
sg63
(lp2623
S'HTTP_CACHE_CONTROL'
p2624
asbag56
(g77
g58
NtRp2625
(dp2626
g61
(dp2627
g88
g89
ssg70
g2616
sg63
(lp2628
S':'
asbag56
(g77
g58
NtRp2629
(dp2630
g61
(dp2631
sg70
g2616
sg63
(lp2632
g56
(g57
g58
NtRp2633
(dp2634
g61
(dp2635
g69
I3
ssg70
g2629
sg63
(lp2636
g1126
asbasbasbag56
(g72
g58
NtRp2637
(dp2638
g61
(dp2639
sg70
g2528
sg63
(lp2640
g56
(g77
g58
NtRp2641
(dp2642
g61
(dp2643
g81
g82
ssg70
g2637
sg63
(lp2644
S'HTTP_CONNECTION'
p2645
asbag56
(g77
g58
NtRp2646
(dp2647
g61
(dp2648
g88
g89
ssg70
g2637
sg63
(lp2649
S':'
asbag56
(g77
g58
NtRp2650
(dp2651
g61
(dp2652
sg70
g2637
sg63
(lp2653
g56
(g57
g58
NtRp2654
(dp2655
g61
(dp2656
g69
I3
ssg70
g2650
sg63
(lp2657
g1148
asbasbasbag56
(g72
g58
NtRp2658
(dp2659
g61
(dp2660
sg70
g2528
sg63
(lp2661
g56
(g77
g58
NtRp2662
(dp2663
g61
(dp2664
g81
g82
ssg70
g2658
sg63
(lp2665
S'HTTP_COOKIE'
p2666
asbag56
(g77
g58
NtRp2667
(dp2668
g61
(dp2669
g88
g89
ssg70
g2658
sg63
(lp2670
S':'
asbag56
(g77
g58
NtRp2671
(dp2672
g61
(dp2673
sg70
g2658
sg63
(lp2674
g56
(g57
g58
NtRp2675
(dp2676
g61
(dp2677
g69
I3
ssg70
g2671
sg63
(lp2678
g1170
asbasbasbag56
(g72
g58
NtRp2679
(dp2680
g61
(dp2681
sg70
g2528
sg63
(lp2682
g56
(g77
g58
NtRp2683
(dp2684
g61
(dp2685
g81
g82
ssg70
g2679
sg63
(lp2686
S'HTTP_HOST'
p2687
asbag56
(g77
g58
NtRp2688
(dp2689
g61
(dp2690
g88
g89
ssg70
g2679
sg63
(lp2691
S':'
asbag56
(g77
g58
NtRp2692
(dp2693
g61
(dp2694
sg70
g2679
sg63
(lp2695
g56
(g57
g58
NtRp2696
(dp2697
g61
(dp2698
g69
I3
ssg70
g2692
sg63
(lp2699
g1192
asbasbasbag56
(g72
g58
NtRp2700
(dp2701
g61
(dp2702
sg70
g2528
sg63
(lp2703
g56
(g77
g58
NtRp2704
(dp2705
g61
(dp2706
g81
g82
ssg70
g2700
sg63
(lp2707
S'HTTP_REFERER'
p2708
asbag56
(g77
g58
NtRp2709
(dp2710
g61
(dp2711
g88
g89
ssg70
g2700
sg63
(lp2712
S':'
asbag56
(g77
g58
NtRp2713
(dp2714
g61
(dp2715
sg70
g2700
sg63
(lp2716
g56
(g57
g58
NtRp2717
(dp2718
g61
(dp2719
g69
I3
ssg70
g2713
sg63
(lp2720
g1214
asbasbasbag56
(g72
g58
NtRp2721
(dp2722
g61
(dp2723
sg70
g2528
sg63
(lp2724
g56
(g77
g58
NtRp2725
(dp2726
g61
(dp2727
g81
g82
ssg70
g2721
sg63
(lp2728
S'HTTP_USER_AGENT'
p2729
asbag56
(g77
g58
NtRp2730
(dp2731
g61
(dp2732
g88
g89
ssg70
g2721
sg63
(lp2733
S':'
asbag56
(g77
g58
NtRp2734
(dp2735
g61
(dp2736
sg70
g2721
sg63
(lp2737
g56
(g57
g58
NtRp2738
(dp2739
g61
(dp2740
g69
I3
ssg70
g2734
sg63
(lp2741
g1236
asbasbasbag56
(g72
g58
NtRp2742
(dp2743
g61
(dp2744
sg70
g2528
sg63
(lp2745
g56
(g77
g58
NtRp2746
(dp2747
g61
(dp2748
g81
g82
ssg70
g2742
sg63
(lp2749
S'HTTP_WEB2PY_COMPONENT_ELEMENT'
p2750
asbag56
(g77
g58
NtRp2751
(dp2752
g61
(dp2753
g88
g89
ssg70
g2742
sg63
(lp2754
S':'
asbag56
(g77
g58
NtRp2755
(dp2756
g61
(dp2757
sg70
g2742
sg63
(lp2758
g56
(g57
g58
NtRp2759
(dp2760
g61
(dp2761
g69
I3
ssg70
g2755
sg63
(lp2762
g202
asbasbasbag56
(g72
g58
NtRp2763
(dp2764
g61
(dp2765
sg70
g2528
sg63
(lp2766
g56
(g77
g58
NtRp2767
(dp2768
g61
(dp2769
g81
g82
ssg70
g2763
sg63
(lp2770
S'HTTP_WEB2PY_COMPONENT_LOCATION'
p2771
asbag56
(g77
g58
NtRp2772
(dp2773
g61
(dp2774
g88
g89
ssg70
g2763
sg63
(lp2775
S':'
asbag56
(g77
g58
NtRp2776
(dp2777
g61
(dp2778
sg70
g2763
sg63
(lp2779
g56
(g57
g58
NtRp2780
(dp2781
g61
(dp2782
g69
I3
ssg70
g2776
sg63
(lp2783
g1279
asbasbasbag56
(g72
g58
NtRp2784
(dp2785
g61
(dp2786
sg70
g2528
sg63
(lp2787
g56
(g77
g58
NtRp2788
(dp2789
g61
(dp2790
g81
g82
ssg70
g2784
sg63
(lp2791
S'HTTP_X_REQUESTED_WITH'
p2792
asbag56
(g77
g58
NtRp2793
(dp2794
g61
(dp2795
g88
g89
ssg70
g2784
sg63
(lp2796
S':'
asbag56
(g77
g58
NtRp2797
(dp2798
g61
(dp2799
sg70
g2784
sg63
(lp2800
g56
(g57
g58
NtRp2801
(dp2802
g61
(dp2803
g69
I3
ssg70
g2797
sg63
(lp2804
g1301
asbasbasbag56
(g72
g58
NtRp2805
(dp2806
g61
(dp2807
sg70
g2528
sg63
(lp2808
g56
(g77
g58
NtRp2809
(dp2810
g61
(dp2811
g81
g82
ssg70
g2805
sg63
(lp2812
S'PATH_INFO'
p2813
asbag56
(g77
g58
NtRp2814
(dp2815
g61
(dp2816
g88
g89
ssg70
g2805
sg63
(lp2817
S':'
asbag56
(g77
g58
NtRp2818
(dp2819
g61
(dp2820
sg70
g2805
sg63
(lp2821
g56
(g57
g58
NtRp2822
(dp2823
g61
(dp2824
g69
I3
ssg70
g2818
sg63
(lp2825
g1344
asbasbasbag56
(g72
g58
NtRp2826
(dp2827
g61
(dp2828
sg70
g2528
sg63
(lp2829
g56
(g77
g58
NtRp2830
(dp2831
g61
(dp2832
g81
g82
ssg70
g2826
sg63
(lp2833
S'QUERY_STRING'
p2834
asbag56
(g77
g58
NtRp2835
(dp2836
g61
(dp2837
g88
g89
ssg70
g2826
sg63
(lp2838
S':'
asbag56
(g77
g58
NtRp2839
(dp2840
g61
(dp2841
sg70
g2826
sg63
(lp2842
g56
(g57
g58
NtRp2843
(dp2844
g61
(dp2845
g69
I3
ssg70
g2839
sg63
(lp2846
S''
asbasbasbag56
(g72
g58
NtRp2847
(dp2848
g61
(dp2849
sg70
g2528
sg63
(lp2850
g56
(g77
g58
NtRp2851
(dp2852
g61
(dp2853
g81
g82
ssg70
g2847
sg63
(lp2854
S'REMOTE_ADDR'
p2855
asbag56
(g77
g58
NtRp2856
(dp2857
g61
(dp2858
g88
g89
ssg70
g2847
sg63
(lp2859
S':'
asbag56
(g77
g58
NtRp2860
(dp2861
g61
(dp2862
sg70
g2847
sg63
(lp2863
g56
(g57
g58
NtRp2864
(dp2865
g61
(dp2866
g69
I3
ssg70
g2860
sg63
(lp2867
g224
asbasbasbag56
(g72
g58
NtRp2868
(dp2869
g61
(dp2870
sg70
g2528
sg63
(lp2871
g56
(g77
g58
NtRp2872
(dp2873
g61
(dp2874
g81
g82
ssg70
g2868
sg63
(lp2875
S'REMOTE_PORT'
p2876
asbag56
(g77
g58
NtRp2877
(dp2878
g61
(dp2879
g88
g89
ssg70
g2868
sg63
(lp2880
S':'
asbag56
(g77
g58
NtRp2881
(dp2882
g61
(dp2883
sg70
g2868
sg63
(lp2884
g56
(g57
g58
NtRp2885
(dp2886
g61
(dp2887
g69
I3
ssg70
g2881
sg63
(lp2888
g1408
asbasbasbag56
(g72
g58
NtRp2889
(dp2890
g61
(dp2891
sg70
g2528
sg63
(lp2892
g56
(g77
g58
NtRp2893
(dp2894
g61
(dp2895
g81
g82
ssg70
g2889
sg63
(lp2896
S'REQUEST_METHOD'
p2897
asbag56
(g77
g58
NtRp2898
(dp2899
g61
(dp2900
g88
g89
ssg70
g2889
sg63
(lp2901
S':'
asbag56
(g77
g58
NtRp2902
(dp2903
g61
(dp2904
sg70
g2889
sg63
(lp2905
g56
(g57
g58
NtRp2906
(dp2907
g61
(dp2908
g69
I3
ssg70
g2902
sg63
(lp2909
g1430
asbasbasbag56
(g72
g58
NtRp2910
(dp2911
g61
(dp2912
sg70
g2528
sg63
(lp2913
g56
(g77
g58
NtRp2914
(dp2915
g61
(dp2916
g81
g82
ssg70
g2910
sg63
(lp2917
S'SCRIPT_NAME'
p2918
asbag56
(g77
g58
NtRp2919
(dp2920
g61
(dp2921
g88
g89
ssg70
g2910
sg63
(lp2922
S':'
asbag56
(g77
g58
NtRp2923
(dp2924
g61
(dp2925
sg70
g2910
sg63
(lp2926
g56
(g57
g58
NtRp2927
(dp2928
g61
(dp2929
g69
I3
ssg70
g2923
sg63
(lp2930
S''
asbasbasbag56
(g72
g58
NtRp2931
(dp2932
g61
(dp2933
sg70
g2528
sg63
(lp2934
g56
(g77
g58
NtRp2935
(dp2936
g61
(dp2937
g81
g82
ssg70
g2931
sg63
(lp2938
S'SERVER_NAME'
p2939
asbag56
(g77
g58
NtRp2940
(dp2941
g61
(dp2942
g88
g89
ssg70
g2931
sg63
(lp2943
S':'
asbag56
(g77
g58
NtRp2944
(dp2945
g61
(dp2946
sg70
g2931
sg63
(lp2947
g56
(g57
g58
NtRp2948
(dp2949
g61
(dp2950
g69
I3
ssg70
g2944
sg63
(lp2951
g1473
asbasbasbag56
(g72
g58
NtRp2952
(dp2953
g61
(dp2954
sg70
g2528
sg63
(lp2955
g56
(g77
g58
NtRp2956
(dp2957
g61
(dp2958
g81
g82
ssg70
g2952
sg63
(lp2959
S'SERVER_PORT'
p2960
asbag56
(g77
g58
NtRp2961
(dp2962
g61
(dp2963
g88
g89
ssg70
g2952
sg63
(lp2964
S':'
asbag56
(g77
g58
NtRp2965
(dp2966
g61
(dp2967
sg70
g2952
sg63
(lp2968
g56
(g57
g58
NtRp2969
(dp2970
g61
(dp2971
g69
I3
ssg70
g2965
sg63
(lp2972
g1495
asbasbasbag56
(g72
g58
NtRp2973
(dp2974
g61
(dp2975
sg70
g2528
sg63
(lp2976
g56
(g77
g58
NtRp2977
(dp2978
g61
(dp2979
g81
g82
ssg70
g2973
sg63
(lp2980
S'SERVER_PROTOCOL'
p2981
asbag56
(g77
g58
NtRp2982
(dp2983
g61
(dp2984
g88
g89
ssg70
g2973
sg63
(lp2985
S':'
asbag56
(g77
g58
NtRp2986
(dp2987
g61
(dp2988
sg70
g2973
sg63
(lp2989
g56
(g57
g58
NtRp2990
(dp2991
g61
(dp2992
g69
I3
ssg70
g2986
sg63
(lp2993
g1517
asbasbasbag56
(g72
g58
NtRp2994
(dp2995
g61
(dp2996
sg70
g2528
sg63
(lp2997
g56
(g77
g58
NtRp2998
(dp2999
g61
(dp3000
g81
g82
ssg70
g2994
sg63
(lp3001
S'SERVER_SOFTWARE'
p3002
asbag56
(g77
g58
NtRp3003
(dp3004
g61
(dp3005
g88
g89
ssg70
g2994
sg63
(lp3006
S':'
asbag56
(g77
g58
NtRp3007
(dp3008
g61
(dp3009
sg70
g2994
sg63
(lp3010
g56
(g57
g58
NtRp3011
(dp3012
g61
(dp3013
g69
I3
ssg70
g3007
sg63
(lp3014
g1539
asbasbasbag56
(g72
g58
NtRp3015
(dp3016
g61
(dp3017
sg70
g2528
sg63
(lp3018
g56
(g77
g58
NtRp3019
(dp3020
g61
(dp3021
g81
g82
ssg70
g3015
sg63
(lp3022
S'wsgi.errors'
p3023
asbag56
(g77
g58
NtRp3024
(dp3025
g61
(dp3026
g88
g89
ssg70
g3015
sg63
(lp3027
S':'
asbag56
(g77
g58
NtRp3028
(dp3029
g61
(dp3030
sg70
g3015
sg63
(lp3031
g56
(g57
g58
NtRp3032
(dp3033
g61
(dp3034
g69
I3
ssg70
g3028
sg63
(lp3035
S"<open file '<stderr>', mode 'w' at 0x7fafe3e4a270>"
p3036
asbasbasbag56
(g72
g58
NtRp3037
(dp3038
g61
(dp3039
sg70
g2528
sg63
(lp3040
g56
(g77
g58
NtRp3041
(dp3042
g61
(dp3043
g81
g82
ssg70
g3037
sg63
(lp3044
S'wsgi.file_wrapper'
p3045
asbag56
(g77
g58
NtRp3046
(dp3047
g61
(dp3048
g88
g89
ssg70
g3037
sg63
(lp3049
S':'
asbag56
(g77
g58
NtRp3050
(dp3051
g61
(dp3052
sg70
g3037
sg63
(lp3053
g56
(g57
g58
NtRp3054
(dp3055
g61
(dp3056
g69
I3
ssg70
g3050
sg63
(lp3057
S'<class wsgiref.util.FileWrapper at 0x1d28808>'
p3058
asbasbasbag56
(g72
g58
NtRp3059
(dp3060
g61
(dp3061
sg70
g2528
sg63
(lp3062
g56
(g77
g58
NtRp3063
(dp3064
g61
(dp3065
g81
g82
ssg70
g3059
sg63
(lp3066
S'wsgi.input'
p3067
asbag56
(g77
g58
NtRp3068
(dp3069
g61
(dp3070
g88
g89
ssg70
g3059
sg63
(lp3071
S':'
asbag56
(g77
g58
NtRp3072
(dp3073
g61
(dp3074
sg70
g3059
sg63
(lp3075
g56
(g57
g58
NtRp3076
(dp3077
g61
(dp3078
g69
I3
ssg70
g3072
sg63
(lp3079
S'<cStringIO.StringO object at 0x59fc8b8>'
p3080
asbasbasbag56
(g72
g58
NtRp3081
(dp3082
g61
(dp3083
sg70
g2528
sg63
(lp3084
g56
(g77
g58
NtRp3085
(dp3086
g61
(dp3087
g81
g82
ssg70
g3081
sg63
(lp3088
S'wsgi.multiprocess'
p3089
asbag56
(g77
g58
NtRp3090
(dp3091
g61
(dp3092
g88
g89
ssg70
g3081
sg63
(lp3093
S':'
asbag56
(g77
g58
NtRp3094
(dp3095
g61
(dp3096
sg70
g3081
sg63
(lp3097
g56
(g57
g58
NtRp3098
(dp3099
g61
(dp3100
g69
I3
ssg70
g3094
sg63
(lp3101
g994
asbasbasbag56
(g72
g58
NtRp3102
(dp3103
g61
(dp3104
sg70
g2528
sg63
(lp3105
g56
(g77
g58
NtRp3106
(dp3107
g61
(dp3108
g81
g82
ssg70
g3102
sg63
(lp3109
S'wsgi.multithread'
p3110
asbag56
(g77
g58
NtRp3111
(dp3112
g61
(dp3113
g88
g89
ssg70
g3102
sg63
(lp3114
S':'
asbag56
(g77
g58
NtRp3115
(dp3116
g61
(dp3117
sg70
g3102
sg63
(lp3118
g56
(g57
g58
NtRp3119
(dp3120
g61
(dp3121
g69
I3
ssg70
g3115
sg63
(lp3122
g99
asbasbasbag56
(g72
g58
NtRp3123
(dp3124
g61
(dp3125
sg70
g2528
sg63
(lp3126
g56
(g77
g58
NtRp3127
(dp3128
g61
(dp3129
g81
g82
ssg70
g3123
sg63
(lp3130
S'wsgi.run_once'
p3131
asbag56
(g77
g58
NtRp3132
(dp3133
g61
(dp3134
g88
g89
ssg70
g3123
sg63
(lp3135
S':'
asbag56
(g77
g58
NtRp3136
(dp3137
g61
(dp3138
sg70
g3123
sg63
(lp3139
g56
(g57
g58
NtRp3140
(dp3141
g61
(dp3142
g69
I3
ssg70
g3136
sg63
(lp3143
g994
asbasbasbag56
(g72
g58
NtRp3144
(dp3145
g61
(dp3146
sg70
g2528
sg63
(lp3147
g56
(g77
g58
NtRp3148
(dp3149
g61
(dp3150
g81
g82
ssg70
g3144
sg63
(lp3151
S'wsgi.url_scheme'
p3152
asbag56
(g77
g58
NtRp3153
(dp3154
g61
(dp3155
g88
g89
ssg70
g3144
sg63
(lp3156
S':'
asbag56
(g77
g58
NtRp3157
(dp3158
g61
(dp3159
sg70
g3144
sg63
(lp3160
g56
(g57
g58
NtRp3161
(dp3162
g61
(dp3163
g69
I3
ssg70
g3157
sg63
(lp3164
g1821
asbasbasbag56
(g72
g58
NtRp3165
(dp3166
g61
(dp3167
sg70
g2528
sg63
(lp3168
g56
(g77
g58
NtRp3169
(dp3170
g61
(dp3171
g81
g82
ssg70
g3165
sg63
(lp3172
S'wsgi.version'
p3173
asbag56
(g77
g58
NtRp3174
(dp3175
g61
(dp3176
g88
g89
ssg70
g3165
sg63
(lp3177
S':'
asbag56
(g77
g58
NtRp3178
(dp3179
g61
(dp3180
sg70
g3165
sg63
(lp3181
g56
(g57
g58
NtRp3182
(dp3183
g61
(dp3184
g69
I3
ssg70
g3178
sg63
(lp3185
S'1'
asbasbasbasbasbasbasbasbasbasbasbasbasbsS'frames'
p3186
(lp3187
(dp3188
S'file'
p3189
S'/home/ian/web2py/gluon/restricted.py'
p3190
sS'dump'
p3191
(dp3192
S'environment'
p3193
S"{'A': <class 'gluon.html.A'>, 'Auth': <class 'gluon.tools.Auth'>, 'AutocompleteWidget': <class 'gluon.sqlhtml.AutocompleteWidget'>, 'B': <class 'gluon.html.B'>, 'BEAUTIFY': <class 'gluon.html.BEAUTIFY'>, 'BODY': <class 'gluon.html.BODY'>, 'BR': <class 'gluon.html.BR'>, 'BUTTON': <class 'gluon.html.BUTTON'>, 'BooleanWidget': <class 'gluon.sqlhtml.BooleanWidget'>, 'CALLABLETYPES': (<type 'function'>, <type 'function'>, <type 'builtin_function_or_method'>, <type 'instancemethod'>, <type 'builtin_function_or_method'>), ...}"
p3194
sS'ccode'
p3195
S'<code object <module> at 0x24c6e30, file "/home/...lications/topoi/controllers/default.py", line 12>'
p3196
ssS'lnum'
p3197
I194
sS'lines'
p3198
(dp3199
I192
S'        else:'
p3200
sI193
S'            ccode = compile2(code,layer)'
p3201
sI194
S'        exec ccode in environment'
p3202
sI195
S'    except HTTP:'
p3203
sI196
S'        raise'
p3204
sI197
S'    except Exception, error:'
p3205
sI198
S'        # XXX Show exception in Wing IDE if running in debugger'
p3206
sI189
S'    try:'
p3207
sI190
S'        if type(code) == types.CodeType:'
p3208
sI191
S'            ccode = code'
p3209
ssS'call'
p3210
S"(code='# -*- coding: utf-8 -*-\\n# this file is released ...rm = form)\\n\\nresponse._vars=response._caller(add)\\n', environment={'A': <class 'gluon.html.A'>, 'Auth': <class 'gluon.tools.Auth'>, 'AutocompleteWidget': <class 'gluon.sqlhtml.AutocompleteWidget'>, 'B': <class 'gluon.html.B'>, 'BEAUTIFY': <class 'gluon.html.BEAUTIFY'>, 'BODY': <class 'gluon.html.BODY'>, 'BR': <class 'gluon.html.BR'>, 'BUTTON': <class 'gluon.html.BUTTON'>, 'BooleanWidget': <class 'gluon.sqlhtml.BooleanWidget'>, 'CALLABLETYPES': (<type 'function'>, <type 'function'>, <type 'builtin_function_or_method'>, <type 'instancemethod'>, <type 'builtin_function_or_method'>), ...}, layer='/home/ian/web2py/applications/topoi/controllers/default.py')"
p3211
sS'func'
p3212
S'restricted'
p3213
sa(dp3214
g3189
S'/home/ian/web2py/applications/topoi/controllers/default.py'
p3215
sg3191
(dp3216
sg3197
I105
sg3198
(dp3217
I96
S'        return form'
p3218
sI97
S'    elif form.errors:'
p3219
sI98
S"        #silly user, just send back the form and it'll still be in our dialog box complete with error messages"
p3220
sI99
S'        return form'
p3221
sI100
S'    else:'
p3222
sI101
S"        #hasn't been submitted yet, just give them the fresh blank form"
p3223
sI102
S'        return form'
p3224
sI103
S'    return dict(form = form)'
p3225
sI94
S'        response.js += """$("#%s").val("%s");""" % (target, form.vars.id)'
p3226
sI95
S'        #finally, return a blank form incase for some reason they wanted to add another option'
p3227
ssg3210
S'()'
p3228
sg3212
S'<module>'
p3229
sa(dp3230
g3189
S'/home/ian/web2py/gluon/globals.py'
p3231
sg3191
(dp3232
S'self'
p3233
S'undefined'
p3234
sS'f'
S'<function add>'
p3235
ssg3197
I149
sg3198
(dp3236
I144
S'        self.meta = Storage()      # used by web2py_ajax.html'
p3237
sI145
S'        self.menu = []             # used by the default view layout'
p3238
sI146
S'        self.files = []            # used by web2py_ajax.html'
p3239
sI147
S'        self.generic_patterns = [] # patterns to allow generic views'
p3240
sI148
S'        self._vars = None'
p3241
sI149
S'        self._caller = lambda f: f()'
p3242
sI150
S'        self._view_environment = None'
p3243
sI151
S'        self._custom_commit = None'
p3244
sI152
S'        self._custom_rollback = None'
p3245
sI153
S''
ssg3210
S'(f=<function add>)'
p3246
sg3212
S'<lambda>'
p3247
sa(dp3248
g3189
S'/home/ian/web2py/gluon/tools.py'
p3249
sg3191
(dp3250
S'action'
p3251
S'<function add>'
p3252
sS'a'
S'()'
p3253
sS'b'
g44
ssg3197
I2456
sg3198
(dp3254
I2451
S"                            '?_next='+urllib.quote(next))"
p3255
sI2452
S'                if not condition:'
p3256
sI2453
S'                    current.session.flash = self.messages.access_denied'
p3257
sI2454
S'                    return call_or_redirect('
p3258
sI2455
S'                        self.settings.on_failed_authorization)'
p3259
sI2456
S'                return action(*a, **b)'
p3260
sI2457
S'            f.__doc__ = action.__doc__'
p3261
sI2458
S'            f.__name__ = action.__name__'
p3262
sI2459
S'            f.__dict__.update(action.__dict__)'
p3263
sI2460
S'            return f'
p3264
ssg3210
S'(*a=(), **b={})'
p3265
sg3212
S'f'
sa(dp3266
g3189
S'/home/ian/web2py/applications/topoi/controllers/default.py'
p3267
sg3191
(dp3268
S'global SQLFORM'
p3269
S"<class 'gluon.sqlhtml.SQLFORM'>"
p3270
sS'form'
p3271
g3234
sS'the_table'
p3272
S"'db.projects'"
p3273
ssg3197
I85
sg3198
(dp3274
I80
S'    tb = request.args[0]'
p3275
sI81
S'    #FIXME: Hack here to solve problem of field name not being identical to table name'
p3276
sI82
S"    tb = tb.split('_')[1] + 's'"
p3277
sI83
S'    the_table = "db.%s" % tb'
p3278
sI84
S'    print the_table'
p3279
sI85
S'    form = SQLFORM(the_table)'
p3280
sI86
S'    if form.accepts(request.vars):'
p3281
sI87
S'        response.flash = T("new author added")'
p3282
sI88
S'        target= request.args[0]'
p3283
sI89
S"        #close the widget's dialog box"
p3284
ssg3210
S'()'
p3285
sg3212
S'add'
p3286
sa(dp3287
g3189
S'/home/ian/web2py/gluon/sqlhtml.py'
p3288
sg3191
(dp3289
S'f.name'
p3290
g3234
sS'f'
S"'d'"
p3291
sS'fields'
p3292
S'None'
p3293
sS'f.readable'
p3294
g3234
sS'ignore_rw'
p3295
g994
sS'f.compute'
p3296
g3234
sS'table'
p3297
S"'db.projects'"
p3298
sS'f.writable'
p3299
g3234
ssg3197
I735
sg3198
(dp3300
I736
S'        self.fields = fields'
p3301
sI737
S''
sI738
S'        # make sure we have an id'
p3302
sI739
S'        if self.fields[0] != table.fields[0] and \\'
p3303
sI730
S"        keyed = hasattr(table,'_primarykey')"
p3304
sI731
S''
sI732
S'        # if no fields are provided, build it from the provided table'
p3305
sI733
S'        # will only use writable or readable fields, unless forced to ignore'
p3306
sI734
S'        if fields is None:'
p3307
sI735
S'            fields = [f.name for f in table if (ignore_rw or f.writable or f.readable) and not f.compute]'
p3308
ssg3210
S"(self=<gluon.sqlhtml.SQLFORM object>, table='db.projects', record=None, deletable=False, linkto=None, upload=None, fields=None, labels=None, col3={}, submit_button='Submit', delete_label='Check to delete:', showid=True, readonly=False, comments=True, keepopts=[], ignore_rw=False, record_id=None, formstyle='table3cols', buttons=['submit'], separator=': ', **attributes={})"
p3309
sg3212
g49
sasS'pyver'
p3310
S'Python 2.7.2+: /usr/bin/python2.7'
p3311
sS'session'
p3312
g56
(g57
g58
NtRp3313
(dp3314
g61
(dp3315
sg63
(lp3316
g56
(g65
g58
NtRp3317
(dp3318
g61
(dp3319
g69
I5
ssg70
Nsg63
(lp3320
g56
(g72
g58
NtRp3321
(dp3322
g61
(dp3323
sg70
g3317
sg63
(lp3324
g56
(g77
g58
NtRp3325
(dp3326
g61
(dp3327
g81
g82
ssg70
g3321
sg63
(lp3328
S'auth'
p3329
asbag56
(g77
g58
NtRp3330
(dp3331
g61
(dp3332
g88
g89
ssg70
g3321
sg63
(lp3333
S':'
asbag56
(g77
g58
NtRp3334
(dp3335
g61
(dp3336
sg70
g3321
sg63
(lp3337
g56
(g57
g58
NtRp3338
(dp3339
g61
(dp3340
g69
I5
ssg70
g3334
sg63
(lp3341
g56
(g65
g58
NtRp3342
(dp3343
g61
(dp3344
g69
I4
ssg70
Nsg63
(lp3345
g56
(g72
g58
NtRp3346
(dp3347
g61
(dp3348
sg70
g3342
sg63
(lp3349
g56
(g77
g58
NtRp3350
(dp3351
g61
(dp3352
g81
g82
ssg70
g3346
sg63
(lp3353
S'expiration'
p3354
asbag56
(g77
g58
NtRp3355
(dp3356
g61
(dp3357
g88
g89
ssg70
g3346
sg63
(lp3358
S':'
asbag56
(g77
g58
NtRp3359
(dp3360
g61
(dp3361
sg70
g3346
sg63
(lp3362
g56
(g57
g58
NtRp3363
(dp3364
g61
(dp3365
g69
I4
ssg70
g3359
sg63
(lp3366
S'2592000'
p3367
asbasbasbag56
(g72
g58
NtRp3368
(dp3369
g61
(dp3370
sg70
g3342
sg63
(lp3371
g56
(g77
g58
NtRp3372
(dp3373
g61
(dp3374
g81
g82
ssg70
g3368
sg63
(lp3375
S'hmac_key'
p3376
asbag56
(g77
g58
NtRp3377
(dp3378
g61
(dp3379
g88
g89
ssg70
g3368
sg63
(lp3380
S':'
asbag56
(g77
g58
NtRp3381
(dp3382
g61
(dp3383
sg70
g3368
sg63
(lp3384
g56
(g57
g58
NtRp3385
(dp3386
g61
(dp3387
g69
I4
ssg70
g3381
sg63
(lp3388
S'8775d0f3-def5-448d-b826-6c678fe79968'
p3389
asbasbasbag56
(g72
g58
NtRp3390
(dp3391
g61
(dp3392
sg70
g3342
sg63
(lp3393
g56
(g77
g58
NtRp3394
(dp3395
g61
(dp3396
g81
g82
ssg70
g3390
sg63
(lp3397
S'last_visit'
p3398
asbag56
(g77
g58
NtRp3399
(dp3400
g61
(dp3401
g88
g89
ssg70
g3390
sg63
(lp3402
S':'
asbag56
(g77
g58
NtRp3403
(dp3404
g61
(dp3405
sg70
g3390
sg63
(lp3406
g56
(g57
g58
NtRp3407
(dp3408
g61
(dp3409
g69
I4
ssg70
g3403
sg63
(lp3410
S'datetime.datetime(2011, 11, 21, 9, 36, 1, 518712)'
p3411
asbasbasbag56
(g72
g58
NtRp3412
(dp3413
g61
(dp3414
sg70
g3342
sg63
(lp3415
g56
(g77
g58
NtRp3416
(dp3417
g61
(dp3418
g81
g82
ssg70
g3412
sg63
(lp3419
S'remember'
p3420
asbag56
(g77
g58
NtRp3421
(dp3422
g61
(dp3423
g88
g89
ssg70
g3412
sg63
(lp3424
S':'
asbag56
(g77
g58
NtRp3425
(dp3426
g61
(dp3427
sg70
g3412
sg63
(lp3428
g56
(g57
g58
NtRp3429
(dp3430
g61
(dp3431
g69
I4
ssg70
g3425
sg63
(lp3432
g994
asbasbasbag56
(g72
g58
NtRp3433
(dp3434
g61
(dp3435
sg70
g3342
sg63
(lp3436
g56
(g77
g58
NtRp3437
(dp3438
g61
(dp3439
g81
g82
ssg70
g3433
sg63
(lp3440
S'user'
p3441
asbag56
(g77
g58
NtRp3442
(dp3443
g61
(dp3444
g88
g89
ssg70
g3433
sg63
(lp3445
S':'
asbag56
(g77
g58
NtRp3446
(dp3447
g61
(dp3448
sg70
g3433
sg63
(lp3449
g56
(g57
g58
NtRp3450
(dp3451
g61
(dp3452
g69
I4
ssg70
g3446
sg63
(lp3453
g56
(g65
g58
NtRp3454
(dp3455
g61
(dp3456
g69
I3
ssg70
Nsg63
(lp3457
g56
(g72
g58
NtRp3458
(dp3459
g61
(dp3460
sg70
g3454
sg63
(lp3461
g56
(g77
g58
NtRp3462
(dp3463
g61
(dp3464
g81
g82
ssg70
g3458
sg63
(lp3465
S'email'
p3466
asbag56
(g77
g58
NtRp3467
(dp3468
g61
(dp3469
g88
g89
ssg70
g3458
sg63
(lp3470
S':'
asbag56
(g77
g58
NtRp3471
(dp3472
g61
(dp3473
sg70
g3458
sg63
(lp3474
g56
(g57
g58
NtRp3475
(dp3476
g61
(dp3477
g69
I3
ssg70
g3471
sg63
(lp3478
S'scottianw@gmail.com'
p3479
asbasbasbag56
(g72
g58
NtRp3480
(dp3481
g61
(dp3482
sg70
g3454
sg63
(lp3483
g56
(g77
g58
NtRp3484
(dp3485
g61
(dp3486
g81
g82
ssg70
g3480
sg63
(lp3487
S'first_name'
p3488
asbag56
(g77
g58
NtRp3489
(dp3490
g61
(dp3491
g88
g89
ssg70
g3480
sg63
(lp3492
S':'
asbag56
(g77
g58
NtRp3493
(dp3494
g61
(dp3495
sg70
g3480
sg63
(lp3496
g56
(g57
g58
NtRp3497
(dp3498
g61
(dp3499
g69
I3
ssg70
g3493
sg63
(lp3500
S'Ian'
p3501
asbasbasbag56
(g72
g58
NtRp3502
(dp3503
g61
(dp3504
sg70
g3454
sg63
(lp3505
g56
(g77
g58
NtRp3506
(dp3507
g61
(dp3508
g81
g82
ssg70
g3502
sg63
(lp3509
S'id'
p3510
asbag56
(g77
g58
NtRp3511
(dp3512
g61
(dp3513
g88
g89
ssg70
g3502
sg63
(lp3514
S':'
asbag56
(g77
g58
NtRp3515
(dp3516
g61
(dp3517
sg70
g3502
sg63
(lp3518
g56
(g57
g58
NtRp3519
(dp3520
g61
(dp3521
g69
I3
ssg70
g3515
sg63
(lp3522
S'1'
asbasbasbag56
(g72
g58
NtRp3523
(dp3524
g61
(dp3525
sg70
g3454
sg63
(lp3526
g56
(g77
g58
NtRp3527
(dp3528
g61
(dp3529
g81
g82
ssg70
g3523
sg63
(lp3530
S'last_name'
p3531
asbag56
(g77
g58
NtRp3532
(dp3533
g61
(dp3534
g88
g89
ssg70
g3523
sg63
(lp3535
S':'
asbag56
(g77
g58
NtRp3536
(dp3537
g61
(dp3538
sg70
g3523
sg63
(lp3539
g56
(g57
g58
NtRp3540
(dp3541
g61
(dp3542
g69
I3
ssg70
g3536
sg63
(lp3543
S'Scott'
p3544
asbasbasbag56
(g72
g58
NtRp3545
(dp3546
g61
(dp3547
sg70
g3454
sg63
(lp3548
g56
(g77
g58
NtRp3549
(dp3550
g61
(dp3551
g81
g82
ssg70
g3545
sg63
(lp3552
S'password'
p3553
asbag56
(g77
g58
NtRp3554
(dp3555
g61
(dp3556
g88
g89
ssg70
g3545
sg63
(lp3557
S':'
asbag56
(g77
g58
NtRp3558
(dp3559
g61
(dp3560
sg70
g3545
sg63
(lp3561
g56
(g57
g58
NtRp3562
(dp3563
g61
(dp3564
g69
I3
ssg70
g3558
sg63
(lp3565
S'6fb48d01a3959846ba0fe062b1789f17d9cf3d34d3ec5aa948f598bbf4387cb10eb60c797988f41dfea97ee691b338dd77413d430229e401cf7c84e6cd9c4458'
p3566
asbasbasbag56
(g72
g58
NtRp3567
(dp3568
g61
(dp3569
sg70
g3454
sg63
(lp3570
g56
(g77
g58
NtRp3571
(dp3572
g61
(dp3573
g81
g82
ssg70
g3567
sg63
(lp3574
S'registration_key'
p3575
asbag56
(g77
g58
NtRp3576
(dp3577
g61
(dp3578
g88
g89
ssg70
g3567
sg63
(lp3579
S':'
asbag56
(g77
g58
NtRp3580
(dp3581
g61
(dp3582
sg70
g3567
sg63
(lp3583
g56
(g57
g58
NtRp3584
(dp3585
g61
(dp3586
g69
I3
ssg70
g3580
sg63
(lp3587
S''
asbasbasbag56
(g72
g58
NtRp3588
(dp3589
g61
(dp3590
sg70
g3454
sg63
(lp3591
g56
(g77
g58
NtRp3592
(dp3593
g61
(dp3594
g81
g82
ssg70
g3588
sg63
(lp3595
S'reset_password_key'
p3596
asbag56
(g77
g58
NtRp3597
(dp3598
g61
(dp3599
g88
g89
ssg70
g3588
sg63
(lp3600
S':'
asbag56
(g77
g58
NtRp3601
(dp3602
g61
(dp3603
sg70
g3588
sg63
(lp3604
g56
(g57
g58
NtRp3605
(dp3606
g61
(dp3607
g69
I3
ssg70
g3601
sg63
(lp3608
S''
asbasbasbasbasbasbasbasbasbasbasbag56
(g72
g58
NtRp3609
(dp3610
g61
(dp3611
sg70
g3317
sg63
(lp3612
g56
(g77
g58
NtRp3613
(dp3614
g61
(dp3615
g81
g82
ssg70
g3609
sg63
(lp3616
S'last_query'
p3617
asbag56
(g77
g58
NtRp3618
(dp3619
g61
(dp3620
g88
g89
ssg70
g3609
sg63
(lp3621
S':'
asbag56
(g77
g58
NtRp3622
(dp3623
g61
(dp3624
sg70
g3609
sg63
(lp3625
g56
(g57
g58
NtRp3626
(dp3627
g61
(dp3628
g69
I5
ssg70
g3622
sg63
(lp3629
S'db.authors.id>0'
p3630
asbasbasbasbasbsS'etype'
p3631
S"<type 'exceptions.AttributeError'>"
p3632
sS'date'
p3633
S'Mon Nov 21 16:50:52 2011'
p3634
sS'response'
p3635
g56
(g57
g58
NtRp3636
(dp3637
g61
(dp3638
sg63
(lp3639
g56
(g65
g58
NtRp3640
(dp3641
g61
(dp3642
g69
I5
ssg70
Nsg63
(lp3643
g56
(g72
g58
NtRp3644
(dp3645
g61
(dp3646
sg70
g3640
sg63
(lp3647
g56
(g77
g58
NtRp3648
(dp3649
g61
(dp3650
g81
g82
ssg70
g3644
sg63
(lp3651
g167
asbag56
(g77
g58
NtRp3652
(dp3653
g61
(dp3654
g88
g89
ssg70
g3644
sg63
(lp3655
S':'
asbag56
(g77
g58
NtRp3656
(dp3657
g61
(dp3658
sg70
g3644
sg63
(lp3659
g56
(g57
g58
NtRp3660
(dp3661
g61
(dp3662
g69
I5
ssg70
g3656
sg63
(lp3663
S'<cStringIO.StringO object at 0x27ab148>'
p3664
asbasbasbag56
(g72
g58
NtRp3665
(dp3666
g61
(dp3667
sg70
g3640
sg63
(lp3668
g56
(g77
g58
NtRp3669
(dp3670
g61
(dp3671
g81
g82
ssg70
g3665
sg63
(lp3672
g255
asbag56
(g77
g58
NtRp3673
(dp3674
g61
(dp3675
g88
g89
ssg70
g3665
sg63
(lp3676
S':'
asbag56
(g77
g58
NtRp3677
(dp3678
g61
(dp3679
sg70
g3665
sg63
(lp3680
g56
(g57
g58
NtRp3681
(dp3682
g61
(dp3683
g69
I5
ssg70
g3677
sg63
(lp3684
g56
(g65
g58
NtRp3685
(dp3686
g61
(dp3687
g69
I4
ssg70
Nsg63
(lp3688
g56
(g72
g58
NtRp3689
(dp3690
g61
(dp3691
sg70
g3685
sg63
(lp3692
g56
(g77
g58
NtRp3693
(dp3694
g61
(dp3695
g81
g82
ssg70
g3689
sg63
(lp3696
S'session_id_topoi'
p3697
asbag56
(g77
g58
NtRp3698
(dp3699
g61
(dp3700
g88
g89
ssg70
g3689
sg63
(lp3701
S':'
asbag56
(g77
g58
NtRp3702
(dp3703
g61
(dp3704
sg70
g3689
sg63
(lp3705
g56
(g57
g58
NtRp3706
(dp3707
g61
(dp3708
g69
I4
ssg70
g3702
sg63
(lp3709
g56
(g65
g58
NtRp3710
(dp3711
g61
(dp3712
g69
I3
ssg70
Nsg63
(lp3713
g56
(g72
g58
NtRp3714
(dp3715
g61
(dp3716
sg70
g3710
sg63
(lp3717
g56
(g77
g58
NtRp3718
(dp3719
g61
(dp3720
g81
g82
ssg70
g3714
sg63
(lp3721
g305
asbag56
(g77
g58
NtRp3722
(dp3723
g61
(dp3724
g88
g89
ssg70
g3714
sg63
(lp3725
S':'
asbag56
(g77
g58
NtRp3726
(dp3727
g61
(dp3728
sg70
g3714
sg63
(lp3729
g56
(g57
g58
NtRp3730
(dp3731
g61
(dp3732
g69
I3
ssg70
g3726
sg63
(lp3733
S''
asbasbasbag56
(g72
g58
NtRp3734
(dp3735
g61
(dp3736
sg70
g3710
sg63
(lp3737
g56
(g77
g58
NtRp3738
(dp3739
g61
(dp3740
g81
g82
ssg70
g3734
sg63
(lp3741
g326
asbag56
(g77
g58
NtRp3742
(dp3743
g61
(dp3744
g88
g89
ssg70
g3734
sg63
(lp3745
S':'
asbag56
(g77
g58
NtRp3746
(dp3747
g61
(dp3748
sg70
g3734
sg63
(lp3749
g56
(g57
g58
NtRp3750
(dp3751
g61
(dp3752
g69
I3
ssg70
g3746
sg63
(lp3753
S''
asbasbasbag56
(g72
g58
NtRp3754
(dp3755
g61
(dp3756
sg70
g3710
sg63
(lp3757
g56
(g77
g58
NtRp3758
(dp3759
g61
(dp3760
g81
g82
ssg70
g3754
sg63
(lp3761
g347
asbag56
(g77
g58
NtRp3762
(dp3763
g61
(dp3764
g88
g89
ssg70
g3754
sg63
(lp3765
S':'
asbag56
(g77
g58
NtRp3766
(dp3767
g61
(dp3768
sg70
g3754
sg63
(lp3769
g56
(g57
g58
NtRp3770
(dp3771
g61
(dp3772
g69
I3
ssg70
g3766
sg63
(lp3773
S''
asbasbasbag56
(g72
g58
NtRp3774
(dp3775
g61
(dp3776
sg70
g3710
sg63
(lp3777
g56
(g77
g58
NtRp3778
(dp3779
g61
(dp3780
g81
g82
ssg70
g3774
sg63
(lp3781
g368
asbag56
(g77
g58
NtRp3782
(dp3783
g61
(dp3784
g88
g89
ssg70
g3774
sg63
(lp3785
S':'
asbag56
(g77
g58
NtRp3786
(dp3787
g61
(dp3788
sg70
g3774
sg63
(lp3789
g56
(g57
g58
NtRp3790
(dp3791
g61
(dp3792
g69
I3
ssg70
g3786
sg63
(lp3793
S''
asbasbasbag56
(g72
g58
NtRp3794
(dp3795
g61
(dp3796
sg70
g3710
sg63
(lp3797
g56
(g77
g58
NtRp3798
(dp3799
g61
(dp3800
g81
g82
ssg70
g3794
sg63
(lp3801
g389
asbag56
(g77
g58
NtRp3802
(dp3803
g61
(dp3804
g88
g89
ssg70
g3794
sg63
(lp3805
S':'
asbag56
(g77
g58
NtRp3806
(dp3807
g61
(dp3808
sg70
g3794
sg63
(lp3809
g56
(g57
g58
NtRp3810
(dp3811
g61
(dp3812
g69
I3
ssg70
g3806
sg63
(lp3813
S''
asbasbasbag56
(g72
g58
NtRp3814
(dp3815
g61
(dp3816
sg70
g3710
sg63
(lp3817
g56
(g77
g58
NtRp3818
(dp3819
g61
(dp3820
g81
g82
ssg70
g3814
sg63
(lp3821
g410
asbag56
(g77
g58
NtRp3822
(dp3823
g61
(dp3824
g88
g89
ssg70
g3814
sg63
(lp3825
S':'
asbag56
(g77
g58
NtRp3826
(dp3827
g61
(dp3828
sg70
g3814
sg63
(lp3829
g56
(g57
g58
NtRp3830
(dp3831
g61
(dp3832
g69
I3
ssg70
g3826
sg63
(lp3833
S'/'
asbasbasbag56
(g72
g58
NtRp3834
(dp3835
g61
(dp3836
sg70
g3710
sg63
(lp3837
g56
(g77
g58
NtRp3838
(dp3839
g61
(dp3840
g81
g82
ssg70
g3834
sg63
(lp3841
g431
asbag56
(g77
g58
NtRp3842
(dp3843
g61
(dp3844
g88
g89
ssg70
g3834
sg63
(lp3845
S':'
asbag56
(g77
g58
NtRp3846
(dp3847
g61
(dp3848
sg70
g3834
sg63
(lp3849
g56
(g57
g58
NtRp3850
(dp3851
g61
(dp3852
g69
I3
ssg70
g3846
sg63
(lp3853
S''
asbasbasbag56
(g72
g58
NtRp3854
(dp3855
g61
(dp3856
sg70
g3710
sg63
(lp3857
g56
(g77
g58
NtRp3858
(dp3859
g61
(dp3860
g81
g82
ssg70
g3854
sg63
(lp3861
g452
asbag56
(g77
g58
NtRp3862
(dp3863
g61
(dp3864
g88
g89
ssg70
g3854
sg63
(lp3865
S':'
asbag56
(g77
g58
NtRp3866
(dp3867
g61
(dp3868
sg70
g3854
sg63
(lp3869
g56
(g57
g58
NtRp3870
(dp3871
g61
(dp3872
g69
I3
ssg70
g3866
sg63
(lp3873
S''
asbasbasbasbasbasbasbasbasbasbasbag56
(g72
g58
NtRp3874
(dp3875
g61
(dp3876
sg70
g3640
sg63
(lp3877
g56
(g77
g58
NtRp3878
(dp3879
g61
(dp3880
g81
g82
ssg70
g3874
sg63
(lp3881
S'files'
p3882
asbag56
(g77
g58
NtRp3883
(dp3884
g61
(dp3885
g88
g89
ssg70
g3874
sg63
(lp3886
S':'
asbag56
(g77
g58
NtRp3887
(dp3888
g61
(dp3889
sg70
g3874
sg63
(lp3890
g56
(g57
g58
NtRp3891
(dp3892
g61
(dp3893
g69
I5
ssg70
g3887
sg63
(lp3894
g56
(g65
g58
NtRp3895
(dp3896
g61
(dp3897
g69
I4
ssg70
Nsg63
(lp3898
sbasbasbasbag56
(g72
g58
NtRp3899
(dp3900
g61
(dp3901
sg70
g3640
sg63
(lp3902
g56
(g77
g58
NtRp3903
(dp3904
g61
(dp3905
g81
g82
ssg70
g3899
sg63
(lp3906
S'flash'
p3907
asbag56
(g77
g58
NtRp3908
(dp3909
g61
(dp3910
g88
g89
ssg70
g3899
sg63
(lp3911
S':'
asbag56
(g77
g58
NtRp3912
(dp3913
g61
(dp3914
sg70
g3899
sg63
(lp3915
g56
(g57
g58
NtRp3916
(dp3917
g61
(dp3918
g69
I5
ssg70
g3912
sg63
(lp3919
S''
asbasbasbag56
(g72
g58
NtRp3920
(dp3921
g61
(dp3922
sg70
g3640
sg63
(lp3923
g56
(g77
g58
NtRp3924
(dp3925
g61
(dp3926
g81
g82
ssg70
g3920
sg63
(lp3927
S'generic_patterns'
p3928
asbag56
(g77
g58
NtRp3929
(dp3930
g61
(dp3931
g88
g89
ssg70
g3920
sg63
(lp3932
S':'
asbag56
(g77
g58
NtRp3933
(dp3934
g61
(dp3935
sg70
g3920
sg63
(lp3936
g56
(g57
g58
NtRp3937
(dp3938
g61
(dp3939
g69
I5
ssg70
g3933
sg63
(lp3940
g56
(g65
g58
NtRp3941
(dp3942
g61
(dp3943
g69
I4
ssg70
Nsg63
(lp3944
g56
(g72
g58
NtRp3945
(dp3946
g61
(dp3947
sg70
g3941
sg63
(lp3948
g56
(g77
g58
NtRp3949
(dp3950
g61
(dp3951
sg70
g3945
sg63
(lp3952
g56
(g57
g58
NtRp3953
(dp3954
g61
(dp3955
g69
I4
ssg70
g3949
sg63
(lp3956
S'*'
asbasbasbasbasbasbasbag56
(g72
g58
NtRp3957
(dp3958
g61
(dp3959
sg70
g3640
sg63
(lp3960
g56
(g77
g58
NtRp3961
(dp3962
g61
(dp3963
g81
g82
ssg70
g3957
sg63
(lp3964
S'headers'
p3965
asbag56
(g77
g58
NtRp3966
(dp3967
g61
(dp3968
g88
g89
ssg70
g3957
sg63
(lp3969
S':'
asbag56
(g77
g58
NtRp3970
(dp3971
g61
(dp3972
sg70
g3957
sg63
(lp3973
g56
(g57
g58
NtRp3974
(dp3975
g61
(dp3976
g69
I5
ssg70
g3970
sg63
(lp3977
g56
(g65
g58
NtRp3978
(dp3979
g61
(dp3980
g69
I4
ssg70
Nsg63
(lp3981
g56
(g72
g58
NtRp3982
(dp3983
g61
(dp3984
sg70
g3978
sg63
(lp3985
g56
(g77
g58
NtRp3986
(dp3987
g61
(dp3988
g81
g82
ssg70
g3982
sg63
(lp3989
S'Cache-Control'
p3990
asbag56
(g77
g58
NtRp3991
(dp3992
g61
(dp3993
g88
g89
ssg70
g3982
sg63
(lp3994
S':'
asbag56
(g77
g58
NtRp3995
(dp3996
g61
(dp3997
sg70
g3982
sg63
(lp3998
g56
(g57
g58
NtRp3999
(dp4000
g61
(dp4001
g69
I4
ssg70
g3995
sg63
(lp4002
S'no-store, no-cache, must-revalidate, post-check=0, pre-check=0'
p4003
asbasbasbag56
(g72
g58
NtRp4004
(dp4005
g61
(dp4006
sg70
g3978
sg63
(lp4007
g56
(g77
g58
NtRp4008
(dp4009
g61
(dp4010
g81
g82
ssg70
g4004
sg63
(lp4011
S'Content-Type'
p4012
asbag56
(g77
g58
NtRp4013
(dp4014
g61
(dp4015
g88
g89
ssg70
g4004
sg63
(lp4016
S':'
asbag56
(g77
g58
NtRp4017
(dp4018
g61
(dp4019
sg70
g4004
sg63
(lp4020
g56
(g57
g58
NtRp4021
(dp4022
g61
(dp4023
g69
I4
ssg70
g4017
sg63
(lp4024
S'text/html; charset=utf-8'
p4025
asbasbasbag56
(g72
g58
NtRp4026
(dp4027
g61
(dp4028
sg70
g3978
sg63
(lp4029
g56
(g77
g58
NtRp4030
(dp4031
g61
(dp4032
g81
g82
ssg70
g4026
sg63
(lp4033
S'Expires'
p4034
asbag56
(g77
g58
NtRp4035
(dp4036
g61
(dp4037
g88
g89
ssg70
g4026
sg63
(lp4038
S':'
asbag56
(g77
g58
NtRp4039
(dp4040
g61
(dp4041
sg70
g4026
sg63
(lp4042
g56
(g57
g58
NtRp4043
(dp4044
g61
(dp4045
g69
I4
ssg70
g4039
sg63
(lp4046
S'Tue, 22 Nov 2011 00:50:52 GMT'
p4047
asbasbasbag56
(g72
g58
NtRp4048
(dp4049
g61
(dp4050
sg70
g3978
sg63
(lp4051
g56
(g77
g58
NtRp4052
(dp4053
g61
(dp4054
g81
g82
ssg70
g4048
sg63
(lp4055
S'Pragma'
p4056
asbag56
(g77
g58
NtRp4057
(dp4058
g61
(dp4059
g88
g89
ssg70
g4048
sg63
(lp4060
S':'
asbag56
(g77
g58
NtRp4061
(dp4062
g61
(dp4063
sg70
g4048
sg63
(lp4064
g56
(g57
g58
NtRp4065
(dp4066
g61
(dp4067
g69
I4
ssg70
g4061
sg63
(lp4068
S'no-cache'
p4069
asbasbasbag56
(g72
g58
NtRp4070
(dp4071
g61
(dp4072
sg70
g3978
sg63
(lp4073
g56
(g77
g58
NtRp4074
(dp4075
g61
(dp4076
g81
g82
ssg70
g4070
sg63
(lp4077
S'X-Powered-By'
p4078
asbag56
(g77
g58
NtRp4079
(dp4080
g61
(dp4081
g88
g89
ssg70
g4070
sg63
(lp4082
S':'
asbag56
(g77
g58
NtRp4083
(dp4084
g61
(dp4085
sg70
g4070
sg63
(lp4086
g56
(g57
g58
NtRp4087
(dp4088
g61
(dp4089
g69
I4
ssg70
g4083
sg63
(lp4090
S'web2py'
p4091
asbasbasbasbasbasbasbag56
(g72
g58
NtRp4092
(dp4093
g61
(dp4094
sg70
g3640
sg63
(lp4095
g56
(g77
g58
NtRp4096
(dp4097
g61
(dp4098
g81
g82
ssg70
g4092
sg63
(lp4099
S'menu'
p4100
asbag56
(g77
g58
NtRp4101
(dp4102
g61
(dp4103
g88
g89
ssg70
g4092
sg63
(lp4104
S':'
asbag56
(g77
g58
NtRp4105
(dp4106
g61
(dp4107
sg70
g4092
sg63
(lp4108
g56
(g57
g58
NtRp4109
(dp4110
g61
(dp4111
g69
I5
ssg70
g4105
sg63
(lp4112
g56
(g65
g58
NtRp4113
(dp4114
g61
(dp4115
g69
I4
ssg70
Nsg63
(lp4116
g56
(g72
g58
NtRp4117
(dp4118
g61
(dp4119
sg70
g4113
sg63
(lp4120
g56
(g77
g58
NtRp4121
(dp4122
g61
(dp4123
sg70
g4117
sg63
(lp4124
g56
(g57
g58
NtRp4125
(dp4126
g61
(dp4127
g69
I4
ssg70
g4121
sg63
(lp4128
g56
(g65
g58
NtRp4129
(dp4130
g61
(dp4131
g69
I3
ssg70
Nsg63
(lp4132
g56
(g72
g58
NtRp4133
(dp4134
g61
(dp4135
sg70
g4129
sg63
(lp4136
g56
(g77
g58
NtRp4137
(dp4138
g61
(dp4139
sg70
g4133
sg63
(lp4140
g56
(g57
g58
NtRp4141
(dp4142
g61
(dp4143
g69
I3
ssg70
g4137
sg63
(lp4144
cgluon.languages
lazyT_unpickle
p4145
(S't\x04\x00\x00\x00Home'
tRp4146
asbasbasbag56
(g72
g58
NtRp4147
(dp4148
g61
(dp4149
sg70
g4129
sg63
(lp4150
g56
(g77
g58
NtRp4151
(dp4152
g61
(dp4153
sg70
g4147
sg63
(lp4154
g56
(g57
g58
NtRp4155
(dp4156
g61
(dp4157
g69
I3
ssg70
g4151
sg63
(lp4158
g994
asbasbasbag56
(g72
g58
NtRp4159
(dp4160
g61
(dp4161
sg70
g4129
sg63
(lp4162
g56
(g77
g58
NtRp4163
(dp4164
g61
(dp4165
sg70
g4159
sg63
(lp4166
g56
(g57
g58
NtRp4167
(dp4168
g61
(dp4169
g69
I3
ssg70
g4163
sg63
(lp4170
S'/topoi/default/index'
p4171
asbasbasbag56
(g72
g58
NtRp4172
(dp4173
g61
(dp4174
sg70
g4129
sg63
(lp4175
g56
(g77
g58
NtRp4176
(dp4177
g61
(dp4178
sg70
g4172
sg63
(lp4179
g56
(g57
g58
NtRp4180
(dp4181
g61
(dp4182
g69
I3
ssg70
g4176
sg63
(lp4183
g56
(g65
g58
NtRp4184
(dp4185
g61
(dp4186
g69
I2
ssg70
Nsg63
(lp4187
sbasbasbasbasbasbasbasbag56
(g72
g58
NtRp4188
(dp4189
g61
(dp4190
sg70
g4113
sg63
(lp4191
g56
(g77
g58
NtRp4192
(dp4193
g61
(dp4194
sg70
g4188
sg63
(lp4195
g56
(g57
g58
NtRp4196
(dp4197
g61
(dp4198
g69
I4
ssg70
g4192
sg63
(lp4199
g56
(g65
g58
NtRp4200
(dp4201
g61
(dp4202
g69
I3
ssg70
Nsg63
(lp4203
g56
(g72
g58
NtRp4204
(dp4205
g61
(dp4206
sg70
g4200
sg63
(lp4207
g56
(g77
g58
NtRp4208
(dp4209
g61
(dp4210
sg70
g4204
sg63
(lp4211
g56
(g57
g58
NtRp4212
(dp4213
g61
(dp4214
g69
I3
ssg70
g4208
sg63
(lp4215
g4145
(S's\x08\x00\x00\x00This App'
tRp4216
asbasbasbag56
(g72
g58
NtRp4217
(dp4218
g61
(dp4219
sg70
g4200
sg63
(lp4220
g56
(g77
g58
NtRp4221
(dp4222
g61
(dp4223
sg70
g4217
sg63
(lp4224
g56
(g57
g58
NtRp4225
(dp4226
g61
(dp4227
g69
I3
ssg70
g4221
sg63
(lp4228
g994
asbasbasbag56
(g72
g58
NtRp4229
(dp4230
g61
(dp4231
sg70
g4200
sg63
(lp4232
g56
(g77
g58
NtRp4233
(dp4234
g61
(dp4235
sg70
g4229
sg63
(lp4236
g56
(g57
g58
NtRp4237
(dp4238
g61
(dp4239
g69
I3
ssg70
g4233
sg63
(lp4240
S'/admin/default/design/topoi'
p4241
asbasbasbag56
(g72
g58
NtRp4242
(dp4243
g61
(dp4244
sg70
g4200
sg63
(lp4245
g56
(g77
g58
NtRp4246
(dp4247
g61
(dp4248
sg70
g4242
sg63
(lp4249
g56
(g57
g58
NtRp4250
(dp4251
g61
(dp4252
g69
I3
ssg70
g4246
sg63
(lp4253
g56
(g65
g58
NtRp4254
(dp4255
g61
(dp4256
g69
I2
ssg70
Nsg63
(lp4257
g56
(g72
g58
NtRp4258
(dp4259
g61
(dp4260
sg70
g4254
sg63
(lp4261
g56
(g77
g58
NtRp4262
(dp4263
g61
(dp4264
sg70
g4258
sg63
(lp4265
g56
(g57
g58
NtRp4266
(dp4267
g61
(dp4268
g69
I2
ssg70
g4262
sg63
(lp4269
g56
(g65
g58
NtRp4270
(dp4271
g61
(dp4272
g69
I1
ssg70
Nsg63
(lp4273
g56
(g72
g58
NtRp4274
(dp4275
g61
(dp4276
sg70
g4270
sg63
(lp4277
g56
(g77
g58
NtRp4278
(dp4279
g61
(dp4280
sg70
g4274
sg63
(lp4281
g56
(g57
g58
NtRp4282
(dp4283
g61
(dp4284
g69
I1
ssg70
g4278
sg63
(lp4285
g4145
(S't\n\x00\x00\x00Controller'
tRp4286
asbasbasbag56
(g72
g58
NtRp4287
(dp4288
g61
(dp4289
sg70
g4270
sg63
(lp4290
g56
(g77
g58
NtRp4291
(dp4292
g61
(dp4293
sg70
g4287
sg63
(lp4294
g56
(g57
g58
NtRp4295
(dp4296
g61
(dp4297
g69
I1
ssg70
g4291
sg63
(lp4298
I00
asbasbasbag56
(g72
g58
NtRp4299
(dp4300
g61
(dp4301
sg70
g4270
sg63
(lp4302
g56
(g77
g58
NtRp4303
(dp4304
g61
(dp4305
sg70
g4299
sg63
(lp4306
g56
(g57
g58
NtRp4307
(dp4308
g61
(dp4309
g69
I1
ssg70
g4303
sg63
(lp4310
S'/admin/default/edit/topoi/controllers/default.py'
p4311
asbasbasbasbasbasbasbag56
(g72
g58
NtRp4312
(dp4313
g61
(dp4314
sg70
g4254
sg63
(lp4315
g56
(g77
g58
NtRp4316
(dp4317
g61
(dp4318
sg70
g4312
sg63
(lp4319
g56
(g57
g58
NtRp4320
(dp4321
g61
(dp4322
g69
I2
ssg70
g4316
sg63
(lp4323
g56
(g65
g58
NtRp4324
(dp4325
g61
(dp4326
g69
I1
ssg70
Nsg63
(lp4327
g56
(g72
g58
NtRp4328
(dp4329
g61
(dp4330
sg70
g4324
sg63
(lp4331
g56
(g77
g58
NtRp4332
(dp4333
g61
(dp4334
sg70
g4328
sg63
(lp4335
g56
(g57
g58
NtRp4336
(dp4337
g61
(dp4338
g69
I1
ssg70
g4332
sg63
(lp4339
g4145
(S't\x04\x00\x00\x00View'
tRp4340
asbasbasbag56
(g72
g58
NtRp4341
(dp4342
g61
(dp4343
sg70
g4324
sg63
(lp4344
g56
(g77
g58
NtRp4345
(dp4346
g61
(dp4347
sg70
g4341
sg63
(lp4348
g56
(g57
g58
NtRp4349
(dp4350
g61
(dp4351
g69
I1
ssg70
g4345
sg63
(lp4352
I00
asbasbasbag56
(g72
g58
NtRp4353
(dp4354
g61
(dp4355
sg70
g4324
sg63
(lp4356
g56
(g77
g58
NtRp4357
(dp4358
g61
(dp4359
sg70
g4353
sg63
(lp4360
g56
(g57
g58
NtRp4361
(dp4362
g61
(dp4363
g69
I1
ssg70
g4357
sg63
(lp4364
S'/admin/default/edit/topoi/views/default/add.html'
p4365
asbasbasbasbasbasbasbag56
(g72
g58
NtRp4366
(dp4367
g61
(dp4368
sg70
g4254
sg63
(lp4369
g56
(g77
g58
NtRp4370
(dp4371
g61
(dp4372
sg70
g4366
sg63
(lp4373
g56
(g57
g58
NtRp4374
(dp4375
g61
(dp4376
g69
I2
ssg70
g4370
sg63
(lp4377
g56
(g65
g58
NtRp4378
(dp4379
g61
(dp4380
g69
I1
ssg70
Nsg63
(lp4381
g56
(g72
g58
NtRp4382
(dp4383
g61
(dp4384
sg70
g4378
sg63
(lp4385
g56
(g77
g58
NtRp4386
(dp4387
g61
(dp4388
sg70
g4382
sg63
(lp4389
g56
(g57
g58
NtRp4390
(dp4391
g61
(dp4392
g69
I1
ssg70
g4386
sg63
(lp4393
g4145
(S't\x06\x00\x00\x00Layout'
tRp4394
asbasbasbag56
(g72
g58
NtRp4395
(dp4396
g61
(dp4397
sg70
g4378
sg63
(lp4398
g56
(g77
g58
NtRp4399
(dp4400
g61
(dp4401
sg70
g4395
sg63
(lp4402
g56
(g57
g58
NtRp4403
(dp4404
g61
(dp4405
g69
I1
ssg70
g4399
sg63
(lp4406
I00
asbasbasbag56
(g72
g58
NtRp4407
(dp4408
g61
(dp4409
sg70
g4378
sg63
(lp4410
g56
(g77
g58
NtRp4411
(dp4412
g61
(dp4413
sg70
g4407
sg63
(lp4414
g56
(g57
g58
NtRp4415
(dp4416
g61
(dp4417
g69
I1
ssg70
g4411
sg63
(lp4418
S'/admin/default/edit/topoi/views/layout.html'
p4419
asbasbasbasbasbasbasbag56
(g72
g58
NtRp4420
(dp4421
g61
(dp4422
sg70
g4254
sg63
(lp4423
g56
(g77
g58
NtRp4424
(dp4425
g61
(dp4426
sg70
g4420
sg63
(lp4427
g56
(g57
g58
NtRp4428
(dp4429
g61
(dp4430
g69
I2
ssg70
g4424
sg63
(lp4431
g56
(g65
g58
NtRp4432
(dp4433
g61
(dp4434
g69
I1
ssg70
Nsg63
(lp4435
g56
(g72
g58
NtRp4436
(dp4437
g61
(dp4438
sg70
g4432
sg63
(lp4439
g56
(g77
g58
NtRp4440
(dp4441
g61
(dp4442
sg70
g4436
sg63
(lp4443
g56
(g57
g58
NtRp4444
(dp4445
g61
(dp4446
g69
I1
ssg70
g4440
sg63
(lp4447
g4145
(S't\n\x00\x00\x00Stylesheet'
tRp4448
asbasbasbag56
(g72
g58
NtRp4449
(dp4450
g61
(dp4451
sg70
g4432
sg63
(lp4452
g56
(g77
g58
NtRp4453
(dp4454
g61
(dp4455
sg70
g4449
sg63
(lp4456
g56
(g57
g58
NtRp4457
(dp4458
g61
(dp4459
g69
I1
ssg70
g4453
sg63
(lp4460
I00
asbasbasbag56
(g72
g58
NtRp4461
(dp4462
g61
(dp4463
sg70
g4432
sg63
(lp4464
g56
(g77
g58
NtRp4465
(dp4466
g61
(dp4467
sg70
g4461
sg63
(lp4468
g56
(g57
g58
NtRp4469
(dp4470
g61
(dp4471
g69
I1
ssg70
g4465
sg63
(lp4472
S'/admin/default/edit/topoi/static/base.css'
p4473
asbasbasbasbasbasbasbag56
(g72
g58
NtRp4474
(dp4475
g61
(dp4476
sg70
g4254
sg63
(lp4477
g56
(g77
g58
NtRp4478
(dp4479
g61
(dp4480
sg70
g4474
sg63
(lp4481
g56
(g57
g58
NtRp4482
(dp4483
g61
(dp4484
g69
I2
ssg70
g4478
sg63
(lp4485
g56
(g65
g58
NtRp4486
(dp4487
g61
(dp4488
g69
I1
ssg70
Nsg63
(lp4489
g56
(g72
g58
NtRp4490
(dp4491
g61
(dp4492
sg70
g4486
sg63
(lp4493
g56
(g77
g58
NtRp4494
(dp4495
g61
(dp4496
sg70
g4490
sg63
(lp4497
g56
(g57
g58
NtRp4498
(dp4499
g61
(dp4500
g69
I1
ssg70
g4494
sg63
(lp4501
g4145
(S's\x08\x00\x00\x00DB Model'
tRp4502
asbasbasbag56
(g72
g58
NtRp4503
(dp4504
g61
(dp4505
sg70
g4486
sg63
(lp4506
g56
(g77
g58
NtRp4507
(dp4508
g61
(dp4509
sg70
g4503
sg63
(lp4510
g56
(g57
g58
NtRp4511
(dp4512
g61
(dp4513
g69
I1
ssg70
g4507
sg63
(lp4514
I00
asbasbasbag56
(g72
g58
NtRp4515
(dp4516
g61
(dp4517
sg70
g4486
sg63
(lp4518
g56
(g77
g58
NtRp4519
(dp4520
g61
(dp4521
sg70
g4515
sg63
(lp4522
g56
(g57
g58
NtRp4523
(dp4524
g61
(dp4525
g69
I1
ssg70
g4519
sg63
(lp4526
S'/admin/default/edit/topoi/models/db.py'
p4527
asbasbasbasbasbasbasbag56
(g72
g58
NtRp4528
(dp4529
g61
(dp4530
sg70
g4254
sg63
(lp4531
g56
(g77
g58
NtRp4532
(dp4533
g61
(dp4534
sg70
g4528
sg63
(lp4535
g56
(g57
g58
NtRp4536
(dp4537
g61
(dp4538
g69
I2
ssg70
g4532
sg63
(lp4539
g56
(g65
g58
NtRp4540
(dp4541
g61
(dp4542
g69
I1
ssg70
Nsg63
(lp4543
g56
(g72
g58
NtRp4544
(dp4545
g61
(dp4546
sg70
g4540
sg63
(lp4547
g56
(g77
g58
NtRp4548
(dp4549
g61
(dp4550
sg70
g4544
sg63
(lp4551
g56
(g57
g58
NtRp4552
(dp4553
g61
(dp4554
g69
I1
ssg70
g4548
sg63
(lp4555
g4145
(S's\n\x00\x00\x00Menu Model'
tRp4556
asbasbasbag56
(g72
g58
NtRp4557
(dp4558
g61
(dp4559
sg70
g4540
sg63
(lp4560
g56
(g77
g58
NtRp4561
(dp4562
g61
(dp4563
sg70
g4557
sg63
(lp4564
g56
(g57
g58
NtRp4565
(dp4566
g61
(dp4567
g69
I1
ssg70
g4561
sg63
(lp4568
I00
asbasbasbag56
(g72
g58
NtRp4569
(dp4570
g61
(dp4571
sg70
g4540
sg63
(lp4572
g56
(g77
g58
NtRp4573
(dp4574
g61
(dp4575
sg70
g4569
sg63
(lp4576
g56
(g57
g58
NtRp4577
(dp4578
g61
(dp4579
g69
I1
ssg70
g4573
sg63
(lp4580
S'/admin/default/edit/topoi/models/menu.py'
p4581
asbasbasbasbasbasbasbag56
(g72
g58
NtRp4582
(dp4583
g61
(dp4584
sg70
g4254
sg63
(lp4585
g56
(g77
g58
NtRp4586
(dp4587
g61
(dp4588
sg70
g4582
sg63
(lp4589
g56
(g57
g58
NtRp4590
(dp4591
g61
(dp4592
g69
I2
ssg70
g4586
sg63
(lp4593
g56
(g65
g58
NtRp4594
(dp4595
g61
(dp4596
g69
I1
ssg70
Nsg63
(lp4597
g56
(g72
g58
NtRp4598
(dp4599
g61
(dp4600
sg70
g4594
sg63
(lp4601
g56
(g77
g58
NtRp4602
(dp4603
g61
(dp4604
sg70
g4598
sg63
(lp4605
g56
(g57
g58
NtRp4606
(dp4607
g61
(dp4608
g69
I1
ssg70
g4602
sg63
(lp4609
g4145
(S't\x08\x00\x00\x00Database'
tRp4610
asbasbasbag56
(g72
g58
NtRp4611
(dp4612
g61
(dp4613
sg70
g4594
sg63
(lp4614
g56
(g77
g58
NtRp4615
(dp4616
g61
(dp4617
sg70
g4611
sg63
(lp4618
g56
(g57
g58
NtRp4619
(dp4620
g61
(dp4621
g69
I1
ssg70
g4615
sg63
(lp4622
I00
asbasbasbag56
(g72
g58
NtRp4623
(dp4624
g61
(dp4625
sg70
g4594
sg63
(lp4626
g56
(g77
g58
NtRp4627
(dp4628
g61
(dp4629
sg70
g4623
sg63
(lp4630
g56
(g57
g58
NtRp4631
(dp4632
g61
(dp4633
g69
I1
ssg70
g4627
sg63
(lp4634
S'/topoi/appadmin/index'
p4635
asbasbasbasbasbasbasbag56
(g72
g58
NtRp4636
(dp4637
g61
(dp4638
sg70
g4254
sg63
(lp4639
g56
(g77
g58
NtRp4640
(dp4641
g61
(dp4642
sg70
g4636
sg63
(lp4643
g56
(g57
g58
NtRp4644
(dp4645
g61
(dp4646
g69
I2
ssg70
g4640
sg63
(lp4647
g56
(g65
g58
NtRp4648
(dp4649
g61
(dp4650
g69
I1
ssg70
Nsg63
(lp4651
g56
(g72
g58
NtRp4652
(dp4653
g61
(dp4654
sg70
g4648
sg63
(lp4655
g56
(g77
g58
NtRp4656
(dp4657
g61
(dp4658
sg70
g4652
sg63
(lp4659
g56
(g57
g58
NtRp4660
(dp4661
g61
(dp4662
g69
I1
ssg70
g4656
sg63
(lp4663
g4145
(S't\x06\x00\x00\x00Errors'
tRp4664
asbasbasbag56
(g72
g58
NtRp4665
(dp4666
g61
(dp4667
sg70
g4648
sg63
(lp4668
g56
(g77
g58
NtRp4669
(dp4670
g61
(dp4671
sg70
g4665
sg63
(lp4672
g56
(g57
g58
NtRp4673
(dp4674
g61
(dp4675
g69
I1
ssg70
g4669
sg63
(lp4676
I00
asbasbasbag56
(g72
g58
NtRp4677
(dp4678
g61
(dp4679
sg70
g4648
sg63
(lp4680
g56
(g77
g58
NtRp4681
(dp4682
g61
(dp4683
sg70
g4677
sg63
(lp4684
g56
(g57
g58
NtRp4685
(dp4686
g61
(dp4687
g69
I1
ssg70
g4681
sg63
(lp4688
S'/admin/default/errors/topoi'
p4689
asbasbasbasbasbasbasbag56
(g72
g58
NtRp4690
(dp4691
g61
(dp4692
sg70
g4254
sg63
(lp4693
g56
(g77
g58
NtRp4694
(dp4695
g61
(dp4696
sg70
g4690
sg63
(lp4697
g56
(g57
g58
NtRp4698
(dp4699
g61
(dp4700
g69
I2
ssg70
g4694
sg63
(lp4701
g56
(g65
g58
NtRp4702
(dp4703
g61
(dp4704
g69
I1
ssg70
Nsg63
(lp4705
g56
(g72
g58
NtRp4706
(dp4707
g61
(dp4708
sg70
g4702
sg63
(lp4709
g56
(g77
g58
NtRp4710
(dp4711
g61
(dp4712
sg70
g4706
sg63
(lp4713
g56
(g57
g58
NtRp4714
(dp4715
g61
(dp4716
g69
I1
ssg70
g4710
sg63
(lp4717
g4145
(S't\x05\x00\x00\x00About'
tRp4718
asbasbasbag56
(g72
g58
NtRp4719
(dp4720
g61
(dp4721
sg70
g4702
sg63
(lp4722
g56
(g77
g58
NtRp4723
(dp4724
g61
(dp4725
sg70
g4719
sg63
(lp4726
g56
(g57
g58
NtRp4727
(dp4728
g61
(dp4729
g69
I1
ssg70
g4723
sg63
(lp4730
I00
asbasbasbag56
(g72
g58
NtRp4731
(dp4732
g61
(dp4733
sg70
g4702
sg63
(lp4734
g56
(g77
g58
NtRp4735
(dp4736
g61
(dp4737
sg70
g4731
sg63
(lp4738
g56
(g57
g58
NtRp4739
(dp4740
g61
(dp4741
g69
I1
ssg70
g4735
sg63
(lp4742
S'/admin/default/about/topoi'
p4743
asbasbasbasbasbasbasbasbasbasbasbasbasbasbasbag56
(g72
g58
NtRp4744
(dp4745
g61
(dp4746
sg70
g4113
sg63
(lp4747
g56
(g77
g58
NtRp4748
(dp4749
g61
(dp4750
sg70
g4744
sg63
(lp4751
g56
(g57
g58
NtRp4752
(dp4753
g61
(dp4754
g69
I4
ssg70
g4748
sg63
(lp4755
g56
(g65
g58
NtRp4756
(dp4757
g61
(dp4758
g69
I3
ssg70
Nsg63
(lp4759
g56
(g72
g58
NtRp4760
(dp4761
g61
(dp4762
sg70
g4756
sg63
(lp4763
g56
(g77
g58
NtRp4764
(dp4765
g61
(dp4766
sg70
g4760
sg63
(lp4767
g56
(g57
g58
NtRp4768
(dp4769
g61
(dp4770
g69
I3
ssg70
g4764
sg63
(lp4771
g4145
(S't\t\x00\x00\x00Resources'
tRp4772
asbasbasbag56
(g72
g58
NtRp4773
(dp4774
g61
(dp4775
sg70
g4756
sg63
(lp4776
g56
(g77
g58
NtRp4777
(dp4778
g61
(dp4779
sg70
g4773
sg63
(lp4780
g56
(g57
g58
NtRp4781
(dp4782
g61
(dp4783
g69
I3
ssg70
g4777
sg63
(lp4784
g994
asbasbasbag56
(g72
g58
NtRp4785
(dp4786
g61
(dp4787
sg70
g4756
sg63
(lp4788
g56
(g77
g58
NtRp4789
(dp4790
g61
(dp4791
sg70
g4785
sg63
(lp4792
g56
(g57
g58
NtRp4793
(dp4794
g61
(dp4795
g69
I3
ssg70
g4789
sg63
(lp4796
S'None'
p4797
asbasbasbag56
(g72
g58
NtRp4798
(dp4799
g61
(dp4800
sg70
g4756
sg63
(lp4801
g56
(g77
g58
NtRp4802
(dp4803
g61
(dp4804
sg70
g4798
sg63
(lp4805
g56
(g57
g58
NtRp4806
(dp4807
g61
(dp4808
g69
I3
ssg70
g4802
sg63
(lp4809
g56
(g65
g58
NtRp4810
(dp4811
g61
(dp4812
g69
I2
ssg70
Nsg63
(lp4813
g56
(g72
g58
NtRp4814
(dp4815
g61
(dp4816
sg70
g4810
sg63
(lp4817
g56
(g77
g58
NtRp4818
(dp4819
g61
(dp4820
sg70
g4814
sg63
(lp4821
g56
(g57
g58
NtRp4822
(dp4823
g61
(dp4824
g69
I2
ssg70
g4818
sg63
(lp4825
g56
(g65
g58
NtRp4826
(dp4827
g61
(dp4828
g69
I1
ssg70
Nsg63
(lp4829
g56
(g72
g58
NtRp4830
(dp4831
g61
(dp4832
sg70
g4826
sg63
(lp4833
g56
(g77
g58
NtRp4834
(dp4835
g61
(dp4836
sg70
g4830
sg63
(lp4837
g56
(g57
g58
NtRp4838
(dp4839
g61
(dp4840
g69
I1
ssg70
g4834
sg63
(lp4841
g4145
(S't\r\x00\x00\x00Documentation'
tRp4842
asbasbasbag56
(g72
g58
NtRp4843
(dp4844
g61
(dp4845
sg70
g4826
sg63
(lp4846
g56
(g77
g58
NtRp4847
(dp4848
g61
(dp4849
sg70
g4843
sg63
(lp4850
g56
(g57
g58
NtRp4851
(dp4852
g61
(dp4853
g69
I1
ssg70
g4847
sg63
(lp4854
I00
asbasbasbag56
(g72
g58
NtRp4855
(dp4856
g61
(dp4857
sg70
g4826
sg63
(lp4858
g56
(g77
g58
NtRp4859
(dp4860
g61
(dp4861
sg70
g4855
sg63
(lp4862
g56
(g57
g58
NtRp4863
(dp4864
g61
(dp4865
g69
I1
ssg70
g4859
sg63
(lp4866
S'http://www.web2py.com/book'
p4867
asbasbasbag56
(g72
g58
NtRp4868
(dp4869
g61
(dp4870
sg70
g4826
sg63
(lp4871
g56
(g77
g58
NtRp4872
(dp4873
g61
(dp4874
sg70
g4868
sg63
(lp4875
g56
(g57
g58
NtRp4876
(dp4877
g61
(dp4878
g69
I1
ssg70
g4872
sg63
(lp4879
(lp4880
(g4145
(S't\x07\x00\x00\x00Preface'
tRp4881
I00
S'http://www.web2py.com/book/default/chapter/00'
tp4882
a(g4145
(S't\x0c\x00\x00\x00Introduction'
tRp4883
I00
S'http://www.web2py.com/book/default/chapter/01'
tp4884
a(g4145
(S't\x06\x00\x00\x00Python'
tRp4885
I00
S'http://www.web2py.com/book/default/chapter/02'
tp4886
a(g4145
(S't\x08\x00\x00\x00Overview'
tRp4887
I00
S'http://www.web2py.com/book/default/chapter/03'
tp4888
a(g4145
(S's\x08\x00\x00\x00The Core'
tRp4889
I00
S'http://www.web2py.com/book/default/chapter/04'
tp4890
a(g4145
(S's\t\x00\x00\x00The Views'
tRp4891
I00
S'http://www.web2py.com/book/default/chapter/05'
tp4892
a(g4145
(S't\x08\x00\x00\x00Database'
tRp4893
I00
S'http://www.web2py.com/book/default/chapter/06'
tp4894
a(g4145
(S's\x14\x00\x00\x00Forms and Validators'
tRp4895
I00
S'http://www.web2py.com/book/default/chapter/07'
tp4896
a(g4145
(S's\x0e\x00\x00\x00Access Control'
tRp4897
I00
S'http://www.web2py.com/book/default/chapter/08'
tp4898
a(g4145
(S't\x08\x00\x00\x00Services'
tRp4899
I00
S'http://www.web2py.com/book/default/chapter/09'
tp4900
a(g4145
(S's\x0c\x00\x00\x00Ajax Recipes'
tRp4901
I00
S'http://www.web2py.com/book/default/chapter/10'
tp4902
a(g4145
(S's\x12\x00\x00\x00Deployment Recipes'
tRp4903
I00
S'http://www.web2py.com/book/default/chapter/11'
tp4904
a(g4145
(S's\r\x00\x00\x00Other Recipes'
tRp4905
I00
S'http://www.web2py.com/book/default/chapter/12'
tp4906
a(g4145
(S's\r\x00\x00\x00Buy this book'
tRp4907
I00
S'http://stores.lulu.com/web2py'
tp4908
aasbasbasbasbasbasbasbag56
(g72
g58
NtRp4909
(dp4910
g61
(dp4911
sg70
g4810
sg63
(lp4912
g56
(g77
g58
NtRp4913
(dp4914
g61
(dp4915
sg70
g4909
sg63
(lp4916
g56
(g57
g58
NtRp4917
(dp4918
g61
(dp4919
g69
I2
ssg70
g4913
sg63
(lp4920
g56
(g65
g58
NtRp4921
(dp4922
g61
(dp4923
g69
I1
ssg70
Nsg63
(lp4924
g56
(g72
g58
NtRp4925
(dp4926
g61
(dp4927
sg70
g4921
sg63
(lp4928
g56
(g77
g58
NtRp4929
(dp4930
g61
(dp4931
sg70
g4925
sg63
(lp4932
g56
(g57
g58
NtRp4933
(dp4934
g61
(dp4935
g69
I1
ssg70
g4929
sg63
(lp4936
g4145
(S't\t\x00\x00\x00Community'
tRp4937
asbasbasbag56
(g72
g58
NtRp4938
(dp4939
g61
(dp4940
sg70
g4921
sg63
(lp4941
g56
(g77
g58
NtRp4942
(dp4943
g61
(dp4944
sg70
g4938
sg63
(lp4945
g56
(g57
g58
NtRp4946
(dp4947
g61
(dp4948
g69
I1
ssg70
g4942
sg63
(lp4949
I00
asbasbasbag56
(g72
g58
NtRp4950
(dp4951
g61
(dp4952
sg70
g4921
sg63
(lp4953
g56
(g77
g58
NtRp4954
(dp4955
g61
(dp4956
sg70
g4950
sg63
(lp4957
g56
(g57
g58
NtRp4958
(dp4959
g61
(dp4960
g69
I1
ssg70
g4954
sg63
(lp4961
Nasbasbasbag56
(g72
g58
NtRp4962
(dp4963
g61
(dp4964
sg70
g4921
sg63
(lp4965
g56
(g77
g58
NtRp4966
(dp4967
g61
(dp4968
sg70
g4962
sg63
(lp4969
g56
(g57
g58
NtRp4970
(dp4971
g61
(dp4972
g69
I1
ssg70
g4966
sg63
(lp4973
(lp4974
(g4145
(S't\x06\x00\x00\x00Groups'
tRp4975
I00
S'http://www.web2py.com/examples/default/usergroups'
tp4976
a(g4145
(S't\x07\x00\x00\x00Twitter'
tRp4977
I00
S'http://twitter.com/web2py'
tp4978
a(g4145
(S's\t\x00\x00\x00Live chat'
tRp4979
I00
S'http://mibbit.com/?channel=%23web2py&server=irc.mibbit.net'
tp4980
a(g4145
(S's\n\x00\x00\x00User Voice'
tRp4981
I00
S'http://web2py.uservoice.com/'
tp4982
aasbasbasbasbasbasbasbag56
(g72
g58
NtRp4983
(dp4984
g61
(dp4985
sg70
g4810
sg63
(lp4986
g56
(g77
g58
NtRp4987
(dp4988
g61
(dp4989
sg70
g4983
sg63
(lp4990
g56
(g57
g58
NtRp4991
(dp4992
g61
(dp4993
g69
I2
ssg70
g4987
sg63
(lp4994
g56
(g65
g58
NtRp4995
(dp4996
g61
(dp4997
g69
I1
ssg70
Nsg63
(lp4998
g56
(g72
g58
NtRp4999
(dp5000
g61
(dp5001
sg70
g4995
sg63
(lp5002
g56
(g77
g58
NtRp5003
(dp5004
g61
(dp5005
sg70
g4999
sg63
(lp5006
g56
(g57
g58
NtRp5007
(dp5008
g61
(dp5009
g69
I1
ssg70
g5003
sg63
(lp5010
g4145
(S't\x06\x00\x00\x00Web2py'
tRp5011
asbasbasbag56
(g72
g58
NtRp5012
(dp5013
g61
(dp5014
sg70
g4995
sg63
(lp5015
g56
(g77
g58
NtRp5016
(dp5017
g61
(dp5018
sg70
g5012
sg63
(lp5019
g56
(g57
g58
NtRp5020
(dp5021
g61
(dp5022
g69
I1
ssg70
g5016
sg63
(lp5023
I00
asbasbasbag56
(g72
g58
NtRp5024
(dp5025
g61
(dp5026
sg70
g4995
sg63
(lp5027
g56
(g77
g58
NtRp5028
(dp5029
g61
(dp5030
sg70
g5024
sg63
(lp5031
g56
(g57
g58
NtRp5032
(dp5033
g61
(dp5034
g69
I1
ssg70
g5028
sg63
(lp5035
S'http://www.web2py.com'
p5036
asbasbasbag56
(g72
g58
NtRp5037
(dp5038
g61
(dp5039
sg70
g4995
sg63
(lp5040
g56
(g77
g58
NtRp5041
(dp5042
g61
(dp5043
sg70
g5037
sg63
(lp5044
g56
(g57
g58
NtRp5045
(dp5046
g61
(dp5047
g69
I1
ssg70
g5041
sg63
(lp5048
(lp5049
(g4145
(S't\x08\x00\x00\x00Download'
tRp5050
I00
S'http://www.web2py.com/examples/default/download'
tp5051
a(g4145
(S't\x07\x00\x00\x00Support'
tRp5052
I00
S'http://www.web2py.com/examples/default/support'
tp5053
a(g4145
(S's\x0e\x00\x00\x00Quick Examples'
tRp5054
I00
S'http://web2py.com/examples/default/examples'
tp5055
a(g4145
(S't\x03\x00\x00\x00FAQ'
tRp5056
I00
S'http://web2py.com/AlterEgo'
tp5057
a(g4145
(S's\x11\x00\x00\x00Free Applications'
tRp5058
I00
S'http://web2py.com/appliances'
tp5059
a(g4145
(S't\x07\x00\x00\x00Plugins'
tRp5060
I00
S'http://web2py.com/plugins'
tp5061
a(g4145
(S't\x07\x00\x00\x00Recipes'
tRp5062
I00
S'http://web2pyslices.com/'
tp5063
a(g4145
(S't\x04\x00\x00\x00Demo'
tRp5064
I00
S'http://web2py.com/demo_admin'
tp5065
a(g4145
(S't\x08\x00\x00\x00Semantic'
tRp5066
I00
S'http://web2py.com/semantic'
tp5067
a(g4145
(S't\x07\x00\x00\x00Layouts'
tRp5068
I00
S'http://web2py.com/layouts'
tp5069
a(g4145
(S't\x06\x00\x00\x00Videos'
tRp5070
I00
S'http://www.web2py.com/examples/default/videos/'
tp5071
aasbasbasbasbasbasbasbasbasbasbasbasbasbasbasbasbasbasbasbag56
(g72
g58
NtRp5072
(dp5073
g61
(dp5074
sg70
g3640
sg63
(lp5075
g56
(g77
g58
NtRp5076
(dp5077
g61
(dp5078
g81
g82
ssg70
g5072
sg63
(lp5079
S'meta'
p5080
asbag56
(g77
g58
NtRp5081
(dp5082
g61
(dp5083
g88
g89
ssg70
g5072
sg63
(lp5084
S':'
asbag56
(g77
g58
NtRp5085
(dp5086
g61
(dp5087
sg70
g5072
sg63
(lp5088
g56
(g57
g58
NtRp5089
(dp5090
g61
(dp5091
g69
I5
ssg70
g5085
sg63
(lp5092
g56
(g65
g58
NtRp5093
(dp5094
g61
(dp5095
g69
I4
ssg70
Nsg63
(lp5096
g56
(g72
g58
NtRp5097
(dp5098
g61
(dp5099
sg70
g5093
sg63
(lp5100
g56
(g77
g58
NtRp5101
(dp5102
g61
(dp5103
g81
g82
ssg70
g5097
sg63
(lp5104
S'author'
p5105
asbag56
(g77
g58
NtRp5106
(dp5107
g61
(dp5108
g88
g89
ssg70
g5097
sg63
(lp5109
S':'
asbag56
(g77
g58
NtRp5110
(dp5111
g61
(dp5112
sg70
g5097
sg63
(lp5113
g56
(g57
g58
NtRp5114
(dp5115
g61
(dp5116
g69
I4
ssg70
g5110
sg63
(lp5117
S'you'
p5118
asbasbasbag56
(g72
g58
NtRp5119
(dp5120
g61
(dp5121
sg70
g5093
sg63
(lp5122
g56
(g77
g58
NtRp5123
(dp5124
g61
(dp5125
g81
g82
ssg70
g5119
sg63
(lp5126
S'copyright'
p5127
asbag56
(g77
g58
NtRp5128
(dp5129
g61
(dp5130
g88
g89
ssg70
g5119
sg63
(lp5131
S':'
asbag56
(g77
g58
NtRp5132
(dp5133
g61
(dp5134
sg70
g5119
sg63
(lp5135
g56
(g57
g58
NtRp5136
(dp5137
g61
(dp5138
g69
I4
ssg70
g5132
sg63
(lp5139
S'Copyright 2007-2010'
p5140
asbasbasbag56
(g72
g58
NtRp5141
(dp5142
g61
(dp5143
sg70
g5093
sg63
(lp5144
g56
(g77
g58
NtRp5145
(dp5146
g61
(dp5147
g81
g82
ssg70
g5141
sg63
(lp5148
S'description'
p5149
asbag56
(g77
g58
NtRp5150
(dp5151
g61
(dp5152
g88
g89
ssg70
g5141
sg63
(lp5153
S':'
asbag56
(g77
g58
NtRp5154
(dp5155
g61
(dp5156
sg70
g5141
sg63
(lp5157
g56
(g57
g58
NtRp5158
(dp5159
g61
(dp5160
g69
I4
ssg70
g5154
sg63
(lp5161
S'Free and open source full-stack enterprise framework for agile development of fast, scalable, secure and portable database-driven web-based applications. Written and programmable in Python'
p5162
asbasbasbag56
(g72
g58
NtRp5163
(dp5164
g61
(dp5165
sg70
g5093
sg63
(lp5166
g56
(g77
g58
NtRp5167
(dp5168
g61
(dp5169
g81
g82
ssg70
g5163
sg63
(lp5170
S'generator'
p5171
asbag56
(g77
g58
NtRp5172
(dp5173
g61
(dp5174
g88
g89
ssg70
g5163
sg63
(lp5175
S':'
asbag56
(g77
g58
NtRp5176
(dp5177
g61
(dp5178
sg70
g5163
sg63
(lp5179
g56
(g57
g58
NtRp5180
(dp5181
g61
(dp5182
g69
I4
ssg70
g5176
sg63
(lp5183
S'Web2py Enterprise Framework'
p5184
asbasbasbag56
(g72
g58
NtRp5185
(dp5186
g61
(dp5187
sg70
g5093
sg63
(lp5188
g56
(g77
g58
NtRp5189
(dp5190
g61
(dp5191
g81
g82
ssg70
g5185
sg63
(lp5192
S'keywords'
p5193
asbag56
(g77
g58
NtRp5194
(dp5195
g61
(dp5196
g88
g89
ssg70
g5185
sg63
(lp5197
S':'
asbag56
(g77
g58
NtRp5198
(dp5199
g61
(dp5200
sg70
g5185
sg63
(lp5201
g56
(g57
g58
NtRp5202
(dp5203
g61
(dp5204
g69
I4
ssg70
g5198
sg63
(lp5205
S'web2py, python, framework'
p5206
asbasbasbasbasbasbasbag56
(g72
g58
NtRp5207
(dp5208
g61
(dp5209
sg70
g3640
sg63
(lp5210
g56
(g77
g58
NtRp5211
(dp5212
g61
(dp5213
g81
g82
ssg70
g5207
sg63
(lp5214
S'postprocessing'
p5215
asbag56
(g77
g58
NtRp5216
(dp5217
g61
(dp5218
g88
g89
ssg70
g5207
sg63
(lp5219
S':'
asbag56
(g77
g58
NtRp5220
(dp5221
g61
(dp5222
sg70
g5207
sg63
(lp5223
g56
(g57
g58
NtRp5224
(dp5225
g61
(dp5226
g69
I5
ssg70
g5220
sg63
(lp5227
g56
(g65
g58
NtRp5228
(dp5229
g61
(dp5230
g69
I4
ssg70
Nsg63
(lp5231
sbasbasbasbag56
(g72
g58
NtRp5232
(dp5233
g61
(dp5234
sg70
g3640
sg63
(lp5235
g56
(g77
g58
NtRp5236
(dp5237
g61
(dp5238
g81
g82
ssg70
g5232
sg63
(lp5239
S'session_file'
p5240
asbag56
(g77
g58
NtRp5241
(dp5242
g61
(dp5243
g88
g89
ssg70
g5232
sg63
(lp5244
S':'
asbag56
(g77
g58
NtRp5245
(dp5246
g61
(dp5247
sg70
g5232
sg63
(lp5248
g56
(g57
g58
NtRp5249
(dp5250
g61
(dp5251
g69
I5
ssg70
g5245
sg63
(lp5252
S"<open file '/home/ian/web2py/applications/topoi/sessions/127.0.0.1-26891f27-7a1a-4fa5-81a0-16ff25069026', mode 'rb+' at 0x2e42b70>"
p5253
asbasbasbag56
(g72
g58
NtRp5254
(dp5255
g61
(dp5256
sg70
g3640
sg63
(lp5257
g56
(g77
g58
NtRp5258
(dp5259
g61
(dp5260
g81
g82
ssg70
g5254
sg63
(lp5261
S'session_filename'
p5262
asbag56
(g77
g58
NtRp5263
(dp5264
g61
(dp5265
g88
g89
ssg70
g5254
sg63
(lp5266
S':'
asbag56
(g77
g58
NtRp5267
(dp5268
g61
(dp5269
sg70
g5254
sg63
(lp5270
g56
(g57
g58
NtRp5271
(dp5272
g61
(dp5273
g69
I5
ssg70
g5267
sg63
(lp5274
S'/home/ian/web2py/applications/topoi/sessions/127.0.0.1-26891f27-7a1a-4fa5-81a0-16ff25069026'
p5275
asbasbasbag56
(g72
g58
NtRp5276
(dp5277
g61
(dp5278
sg70
g3640
sg63
(lp5279
g56
(g77
g58
NtRp5280
(dp5281
g61
(dp5282
g81
g82
ssg70
g5276
sg63
(lp5283
S'session_id'
p5284
asbag56
(g77
g58
NtRp5285
(dp5286
g61
(dp5287
g88
g89
ssg70
g5276
sg63
(lp5288
S':'
asbag56
(g77
g58
NtRp5289
(dp5290
g61
(dp5291
sg70
g5276
sg63
(lp5292
g56
(g57
g58
NtRp5293
(dp5294
g61
(dp5295
g69
I5
ssg70
g5289
sg63
(lp5296
S'127.0.0.1-26891f27-7a1a-4fa5-81a0-16ff25069026'
p5297
asbasbasbag56
(g72
g58
NtRp5298
(dp5299
g61
(dp5300
sg70
g3640
sg63
(lp5301
g56
(g77
g58
NtRp5302
(dp5303
g61
(dp5304
g81
g82
ssg70
g5298
sg63
(lp5305
S'session_id_name'
p5306
asbag56
(g77
g58
NtRp5307
(dp5308
g61
(dp5309
g88
g89
ssg70
g5298
sg63
(lp5310
S':'
asbag56
(g77
g58
NtRp5311
(dp5312
g61
(dp5313
sg70
g5298
sg63
(lp5314
g56
(g57
g58
NtRp5315
(dp5316
g61
(dp5317
g69
I5
ssg70
g5311
sg63
(lp5318
g3697
asbasbasbag56
(g72
g58
NtRp5319
(dp5320
g61
(dp5321
sg70
g3640
sg63
(lp5322
g56
(g77
g58
NtRp5323
(dp5324
g61
(dp5325
g81
g82
ssg70
g5319
sg63
(lp5326
S'session_locked'
p5327
asbag56
(g77
g58
NtRp5328
(dp5329
g61
(dp5330
g88
g89
ssg70
g5319
sg63
(lp5331
S':'
asbag56
(g77
g58
NtRp5332
(dp5333
g61
(dp5334
sg70
g5319
sg63
(lp5335
g56
(g57
g58
NtRp5336
(dp5337
g61
(dp5338
g69
I5
ssg70
g5332
sg63
(lp5339
g99
asbasbasbag56
(g72
g58
NtRp5340
(dp5341
g61
(dp5342
sg70
g3640
sg63
(lp5343
g56
(g77
g58
NtRp5344
(dp5345
g61
(dp5346
g81
g82
ssg70
g5340
sg63
(lp5347
S'session_new'
p5348
asbag56
(g77
g58
NtRp5349
(dp5350
g61
(dp5351
g88
g89
ssg70
g5340
sg63
(lp5352
S':'
asbag56
(g77
g58
NtRp5353
(dp5354
g61
(dp5355
sg70
g5340
sg63
(lp5356
g56
(g57
g58
NtRp5357
(dp5358
g61
(dp5359
g69
I5
ssg70
g5353
sg63
(lp5360
g994
asbasbasbag56
(g72
g58
NtRp5361
(dp5362
g61
(dp5363
sg70
g3640
sg63
(lp5364
g56
(g77
g58
NtRp5365
(dp5366
g61
(dp5367
g81
g82
ssg70
g5361
sg63
(lp5368
S'status'
p5369
asbag56
(g77
g58
NtRp5370
(dp5371
g61
(dp5372
g88
g89
ssg70
g5361
sg63
(lp5373
S':'
asbag56
(g77
g58
NtRp5374
(dp5375
g61
(dp5376
sg70
g5361
sg63
(lp5377
g56
(g57
g58
NtRp5378
(dp5379
g61
(dp5380
g69
I5
ssg70
g5374
sg63
(lp5381
S'200'
p5382
asbasbasbag56
(g72
g58
NtRp5383
(dp5384
g61
(dp5385
sg70
g3640
sg63
(lp5386
g56
(g77
g58
NtRp5387
(dp5388
g61
(dp5389
g81
g82
ssg70
g5383
sg63
(lp5390
S'subtitle'
p5391
asbag56
(g77
g58
NtRp5392
(dp5393
g61
(dp5394
g88
g89
ssg70
g5383
sg63
(lp5395
S':'
asbag56
(g77
g58
NtRp5396
(dp5397
g61
(dp5398
sg70
g5383
sg63
(lp5399
g56
(g57
g58
NtRp5400
(dp5401
g61
(dp5402
g69
I5
ssg70
g5396
sg63
(lp5403
g4145
(S's\r\x00\x00\x00customize me!'
tRp5404
asbasbasbag56
(g72
g58
NtRp5405
(dp5406
g61
(dp5407
sg70
g3640
sg63
(lp5408
g56
(g77
g58
NtRp5409
(dp5410
g61
(dp5411
g81
g82
ssg70
g5405
sg63
(lp5412
S'title'
p5413
asbag56
(g77
g58
NtRp5414
(dp5415
g61
(dp5416
g88
g89
ssg70
g5405
sg63
(lp5417
S':'
asbag56
(g77
g58
NtRp5418
(dp5419
g61
(dp5420
sg70
g5405
sg63
(lp5421
g56
(g57
g58
NtRp5422
(dp5423
g61
(dp5424
g69
I5
ssg70
g5418
sg63
(lp5425
g121
asbasbasbag56
(g72
g58
NtRp5426
(dp5427
g61
(dp5428
sg70
g3640
sg63
(lp5429
g56
(g77
g58
NtRp5430
(dp5431
g61
(dp5432
g81
g82
ssg70
g5426
sg63
(lp5433
g2443
asbag56
(g77
g58
NtRp5434
(dp5435
g61
(dp5436
g88
g89
ssg70
g5426
sg63
(lp5437
S':'
asbag56
(g77
g58
NtRp5438
(dp5439
g61
(dp5440
sg70
g5426
sg63
(lp5441
g56
(g57
g58
NtRp5442
(dp5443
g61
(dp5444
g69
I5
ssg70
g5438
sg63
(lp5445
g2456
asbasbasbag56
(g72
g58
NtRp5446
(dp5447
g61
(dp5448
sg70
g3640
sg63
(lp5449
g56
(g77
g58
NtRp5450
(dp5451
g61
(dp5452
g81
g82
ssg70
g5446
sg63
(lp5453
S'view'
p5454
asbag56
(g77
g58
NtRp5455
(dp5456
g61
(dp5457
g88
g89
ssg70
g5446
sg63
(lp5458
S':'
asbag56
(g77
g58
NtRp5459
(dp5460
g61
(dp5461
sg70
g5446
sg63
(lp5462
g56
(g57
g58
NtRp5463
(dp5464
g61
(dp5465
g69
I5
ssg70
g5459
sg63
(lp5466
S'default/add.html'
p5467
asbasbasbasbasbsS'locals'
p5468
(dp5469
S'showid'
p5470
g99
sS'ofields'
p5471
S'None'
p5472
sS'delete_label'
p5473
S"'Check to delete:'"
p5474
sS'nbsp'
p5475
S'<gluon.html.XML object>'
p5476
sS'submit_button'
p5477
S"'Submit'"
p5478
sS'table'
p5479
S"'db.projects'"
p5480
sS'formstyle'
p5481
S"'table3cols'"
p5482
sS'self'
p5483
S'<gluon.sqlhtml.SQLFORM object>'
p5484
sS'comments'
p5485
g99
sS'buttons'
p5486
S"['submit']"
p5487
sS'ignore_rw'
p5488
g994
sS'readonly'
p5489
g994
sS'record_id'
p5490
S'None'
p5491
sS'labels'
p5492
S'None'
p5493
sS'col3'
p5494
g44
sS'deletable'
p5495
g994
sS'linkto'
p5496
S'None'
p5497
sS'f'
S"'d'"
p5498
sS'fields'
p5499
S'None'
p5500
sS'upload'
p5501
S'None'
p5502
sS'keyed'
p5503
g994
sS'record'
p5504
S'None'
p5505
sS'separator'
p5506
S"': '"
p5507
sS'keepopts'
p5508
S'[]'
p5509
sg61
g44
sssS'traceback'
p5510
S'Traceback (most recent call last):\n  File "/home/ian/web2py/gluon/restricted.py", line 194, in restricted\n    exec ccode in environment\n  File "/home/ian/web2py/applications/topoi/controllers/default.py", line 105, in <module>\n  File "/home/ian/web2py/gluon/globals.py", line 149, in <lambda>\n    self._caller = lambda f: f()\n  File "/home/ian/web2py/gluon/tools.py", line 2456, in f\n    return action(*a, **b)\n  File "/home/ian/web2py/applications/topoi/controllers/default.py", line 85, in add\n    form = SQLFORM(the_table)\n  File "/home/ian/web2py/gluon/sqlhtml.py", line 735, in __init__\n    fields = [f.name for f in table if (ignore_rw or f.writable or f.readable) and not f.compute]\nAttributeError: \'str\' object has no attribute \'writable\'\n'
p5511
s.