(dp1
S'output'
p2
S''
sS'layer'
p3
S'/home/ian/web2py/applications/topoi/views/plugin_listandedit/list.html'
p4
sS'code'
p5
S'response.write(\'<!DOCTYPE html>\\n<html lang="\', escape=False)\nresponse.write(T.accepted_language or \'en\')\nresponse.write(\'" class="no-js"><!-- no-js need it for modernzr -->\\n  <head>\\n    <!-- adapted by Ian W. Scott from the default layout.html file included in the web2py scaffolding app -->\\n    <meta charset="utf-8" />\\n    <!-- www.phpied.com/conditional-comments-block-downloads/ -->\\n    <!--[if IE]><![endif]-->\\n    <!-- Always force latest IE rendering engine & Chrome Frame; Remove if you use .htaccess -->\\n    <meta http-equiv="X-UA-Compatible" content="IE=edge,chrome=1">\\n    <title>\', escape=False)\nresponse.write(response.title or request.application)\nresponse.write(\'</title>\\n    <!-- http://dev.w3.org/html5/markup/meta.name.html -->\\n    <meta name="application-name" content="\', escape=False)\nresponse.write(request.application)\nresponse.write(\'" />\\n    <!-- http://google.com/webmasters -->\\n    <meta name="google-site-verification" content="" />\\n    <!--  Mobile Viewport Fix (j.mp/mobileviewport & davidbcalhoun.com/2010/viewport-metatag) -->\\n    <meta name="viewport" content="width=device-width, initial-scale=1.0, maximum-scale=1.0">\\n\\n    <link rel="stylesheet/less" type="text/css" href="\', escape=False)\nresponse.write(URL(\'static\', \'plugin_framework/framework.less\'))\nresponse.write(\'">\\n    <link rel="stylesheet/less" type="text/css" href="\', escape=False)\nresponse.write(URL(\'static\', \'plugin_framework/theme.less\'))\nresponse.write(\'">\\n\\n    <!-- Place favicon.ico and apple-touch-icon.png in the root of your domain and delete these references -->\\n    <link rel="shortcut icon" href="\', escape=False)\nresponse.write(URL(\'static\',\'favicon.ico\'))\nresponse.write(\'" type="image/x-icon">\\n    <link rel="apple-touch-icon" href="\', escape=False)\nresponse.write(URL(\'static\',\'favicon.png\'))\nresponse.write(\'">\\n    <!-- less-enabled mobile browsers like Opera Mini -->\\n    <link rel="stylesheet" media="handheld" href="\', escape=False)\nresponse.write(URL(\'static\',\'css/handheld.css\'))\nresponse.write(\'">\\n\\n    <!-- All JavaScript at the bottom, except for Modernizr which enables HTML5 elements & feature detects -->\\n    <script src="\', escape=False)\nresponse.write(URL(\'static\',\'js/modernizr-1.7.min.js\'))\nresponse.write(\'"></script>\\n\\n    <!--  require CSS and JS files for this page (read info in base.css) -->\\n    \', escape=False)\nresponse.files.append(URL(\'static\',\'plugin_framework/normalize.css\'))\nresponse.write(\'\\n    \', escape=False)\nresponse.files.append(URL(\'static\',\'plugin_framework/framework.css\'))\nresponse.write(\'\\n    \', escape=False)\nresponse.files.append(URL(\'static\',\'plugin_framework/theme.css\'))\nresponse.write(\'\\n    \', escape=False)\nresponse.files.append(URL(\'static\',\'css/superfish.css\'))\nresponse.write(\'\\n    \', escape=False)\nresponse.files.append(URL(\'static\',\'js/superfish.js\'))\nresponse.write(\'\\n    \', escape=False)\nresponse.files.append(URL(\'static\', \'plugin_framework/jquery-ui/ui/jquery-ui-1.8.16.custom.min.js\'))\nresponse.write(\'\\n    \', escape=False)\nresponse.files.append(URL\'static\', \'plugin_framework/jquery-ui/theme/jquery-ui-1.8.16.custom.css\'))\nresponse.write(\'\\n    <!-- include web2py specific js code (jquery, calendar, form stuff) -->\\n    \', escape=False)\nresponse.files.append(URL(\'static\',\'plugin_framework/less-1.1.5.min.js\'))\nresponse.write(\'\\n    \', escape=False)\nresponse.files.insert(0,URL(\'static\',\'js/jquery.js\'))\nresponse.files.insert(1,URL(\'static\',\'css/calendar.css\'))\nresponse.files.insert(2,URL(\'static\',\'js/calendar.js\'))\nfor _item in response.meta or []:\n    response.write(\'\\n     <meta name="\', escape=False)\n    response.write(_item)\n    response.write(\'" content="\', escape=False)\n    response.write(response.meta[_item])\n    response.write(\'" />\', escape=False)\n    pass\nfor _k,_file in enumerate(response.files or []):\n    if _file in response.files[:_k]:\n        continue\n    _file0=_file.lower().split(\'?\')[0]\n    if _file0.endswith(\'.css\'):\n        response.write(\'\\n     <link href="\', escape=False)\n        response.write(_file)\n        response.write(\'" rel="stylesheet" type="text/css" />\', escape=False)\n    elif _file0.endswith(\'.js\'):\n        response.write(\'\\n     <script src="\', escape=False)\n        response.write(_file)\n        response.write(\'" type="text/javascript"></script>\', escape=False)\n        pass\n    pass\nresponse.write(\'\\n    <script type="text/javascript"><!--\\n    // These variables are used by the web2py_ajax_init function in web2py_ajax.js (which is loaded below).\\n    var w2p_ajax_confirm_message = "\', escape=False)\nresponse.write(T(\'Are you sure you want to delete this object?\'))\nresponse.write(\'";\\n    var w2p_ajax_date_format = "\', escape=False)\nresponse.write(T(\'%Y-%m-%d\'))\nresponse.write(\'";\\n    var w2p_ajax_datetime_format = "\', escape=False)\nresponse.write(T(\'%Y-%m-%d %H:%M:%S\'))\nresponse.write(\'";\\n    //--></script>\\n    <script src="\', escape=False)\nresponse.write(URL(\'static\',\'js/web2py_ajax.js\'))\nresponse.write(\'" type="text/javascript"></script>\\n\', escape=False)\nresponse.write(\'\\n\\n    <!--sidebar settings-->\\n    \', escape=False)\nleft_sidebar_enabled = globals().get(\'left_sidebar_enabled\',False)\nresponse.write(\'\\n    \', escape=False)\nright_sidebar_enabled = globals().get(\'right_sidebar_enabled\',False)\nresponse.write(\'\\n\\n    \', escape=False)\nif left_sidebar_enabled and right_sidebar_enabled:\n    response.write(\'\\n        \', escape=False)\n    width_content=\'63%\'\n    response.write(\'\\n    \', escape=False)\nelif left_sidebar_enabled != right_sidebar_enabled:\n    response.write(\'\\n        \', escape=False)\n    width_content=\'740px\'\n    response.write(\'\\n    \', escape=False)\nelse:\n    response.write(\'\\n        \', escape=False)\n    width_content=\'100%\'\n    response.write(\'\\n    \', escape=False)\n    pass\nresponse.write(\'\\n\\n    \', escape=False)\nif left_sidebar_enabled:\n    response.write(\'\\n        \', escape=False)\n    left_sidebar_style = \'style="display: block;"\'\n    response.write(\'\\n    \', escape=False)\nelse:\n    response.write(\'\\n        \', escape=False)\n    left_sidebar_style = \'style="display: none;"\'\n    response.write(\'\\n    \', escape=False)\n    pass\nresponse.write(\'\\n\\n    \', escape=False)\nif right_sidebar_enabled:\n    response.write(\'\\n        \', escape=False)\n    right_sidebar_style = \'style="display: block;"\'\n    response.write(\'\\n    \', escape=False)\nelse:\n    response.write(\'\\n        \', escape=False)\n    right_sidebar_style = \'style="display: none;"\'\n    response.write(\'\\n    \', escape=False)\n    pass\nresponse.write(\'\\n    \', escape=False)\nstyle_content = \'style="width: %s"\' % width_content\nresponse.write(\'\\n\\n  </head>\\n\\n  <!-- paulirish.com/2008/conditional-stylesheets-vs-css-hacks-answer-neither/ -->\\n  <!--[if lt IE 7 ]> <body class="ie6"> <![endif]-->\\n  <!--[if IE 7 ]>    <body class="ie7"> <![endif]-->\\n  <!--[if IE 8 ]>    <body class="ie8"> <![endif]-->\\n  <!--[if IE 9 ]>    <body class="ie9"> <![endif]-->\\n  <!--[if (gt IE 9)|!(IE)]><!--> <body> <!--<![endif]-->\\n\\n    <div class="flash">\', escape=False)\nresponse.write(response.flash or \'\')\nresponse.write("</div> <!-- notification div -->\\n    <div id=\'modal_frame\'></div>\\n\\n    <header>\\n\\n        ", escape=False)\nresponse.write(\' <!-- this is default header -->\\n            \', escape=False)\ntry:\n    response.write(\'\\n                \', escape=False)\n    response.write(auth.navbar(action=URL(\'default\',\'user\')))\n    response.write(\'\\n            \', escape=False)\nexcept:\n    response.write(\'\\n                \', escape=False)\n    pass\nresponse.write(\'\\n            \', escape=False)\npass\nresponse.write(\'\\n            <h1 id="appname">\', escape=False)\nresponse.write(A(request.application.capitalize(), _href=URL(\'default\', \'index\')))\nresponse.write(\'</h1>\\n            \', escape=False)\n#FIXME--Shift this clearing div to css after\nresponse.write(\'\\n            <div class="clear"></div><!-- Clear the divs -->\\n        \', escape=False)\nresponse.write(\'\\n\\n    </header>\\n\\n    <nav><!-- statusbar is menu zone -->\\n      \', escape=False)\nresponse.write(\' <!-- this is default statusbar -->\\n      \', escape=False)\n#------ superfish menu ------\nresponse.write(\'\\n      \', escape=False)\nresponse.write(MENU(response.menu,_class=\'sf-menu\'))\nresponse.write(\'\\n      <script type="text/javascript">\\n        jQuery(document).ready(function(){\\n        jQuery(\\\'ul.sf-menu\\\').superfish();});\\n      </script>\\n      <div class="clear"></div><!-- Clear the divs -->\\n      \', escape=False)\nresponse.write(\'\\n    </nav><!-- statusbar -->\\n\\n    <div id="page" class="\', escape=False)\nresponse.write(request.controller)\nresponse.write(\' \', escape=False)\nresponse.write(request.function)\nresponse.write(\'">\\n\\n        <!-- left_sidebar -->\\n        \', escape=False)\nif left_sidebar_enabled:\n    response.write(\'\\n            <div id="left_sidebar" \', escape=False)\n    response.write(XML(left_sidebar_style))\n    response.write(\' >\\n                <div>\\n                    \', escape=False)\n    response.write(\'\\n                        Content Left Sidebar\\n                    \', escape=False)\n    response.write(\'\\n                </div>\\n            </div>\\n        \', escape=False)\n    pass\nresponse.write(\'\\n\\n        <!-- content of views-->\\n        \', escape=False)\nresponse.write(\'\\n<h1></h1>\\n\\n<section id="viewpane">\\nPlease select an item from the list.\\n</section>\\n\\n<section id="listpane">\\n   <ul>\\n   \', escape=False)\nfor l in listset:\n    response.write(\'\\n      <li>\', escape=False)\n    response.write(l)\n    response.write(\'</li>\\n   \', escape=False)\n    pass\nresponse.write(\'\\n   </ul>    \\n</section>\\n\', escape=False)\nresponse.write(\'\\n\\n        <!-- right_sidebar -->\\n        \', escape=False)\nif right_sidebar_enabled:\n    response.write(\'\\n            <div id="right_sidebar" \', escape=False)\n    response.write(XML(right_sidebar_style))\n    response.write(\' >\\n                <div style="padding: 4px;">\\n                    \', escape=False)\n    response.write(\'\\n                        Content Right Sidebar\\n                    \', escape=False)\n    response.write(\'\\n                </div>\\n            </div>\\n        \', escape=False)\n    pass\nresponse.write(\'\\n\\n        <div class="clear"></div><!-- Clear the divs -->\\n\\n    </div><!--page-->\\n\\n    <footer>\\n        \', escape=False)\nresponse.write(\' <!-- this is default footer -->\\n            <a href="http://www.web2py.com/" >\\n                <img src="\', escape=False)\nresponse.write(URL(\'static\',\'images/poweredby.png\'))\nresponse.write(\'"/>\\n            </a>\\n            \', escape=False)\nresponse.write(T(\'Copyright\'))\nresponse.write(\' &#169; Ian W. Scott 2011 (licensed under GPL 3.0)\\n            <div class="clear"></div><!-- Clear the divs -->\\n        \', escape=False)\nresponse.write(\'\\n    </footer>\\n\\n    \', escape=False)\nif session.debug:\n    response.write(\'\\n        \', escape=False)\n    response.write(DIV(session.debug, _class="debug"))\n    response.write(\'\\n    \', escape=False)\n    pass\nresponse.write(\'\\n\\n    <!--[if lt IE 7 ]>\\n    <script src="\', escape=False)\nresponse.write(URL(\'static\',\'js/dd_belatedpng.js\'))\nresponse.write(\'"></script>\\n    <script> DD_belatedPNG.fix(\\\'img, .png_bg\\\'); //fix any <img> or .png_bg background-images </script>\\n    <![endif]-->\\n\\n    <!-- asynchronous google analytics: mathiasbynens.be/notes/async-analytics-snippet\\n     change the UA-XXXXX-X to be your site\\\'s ID -->\\n    <!--\\n       <script>\\n         var _gaq = [[\\\'_setAccount\\\', \\\'UA-XXXXX-X\\\'], [\\\'_trackPageview\\\']];\\n         (function(d, t) {\\n         var g = d.createElement(t),\\n         s = d.getElementsByTagName(t)[0];\\n         g.async = true;\\n         g.src = \\\'//www.google-analytics.com/ga.js\\\';\\n         s.parentNode.insertBefore(g, s);\\n         })(document, \\\'script\\\');\\n       </script>\\n       -->\\n  </body>\\n</html>\\n\', escape=False)'
p6
sS'snapshot'
p7
(dp8
S'exception'
p9
(dp10
S'__getslice__'
p11
S"<method-wrapper '__getslice__' of exceptions.SyntaxError object>"
p12
sS'text'
p13
S'"response.files.append(URL\'static\', \'plugin_framework/jquery-ui/theme/jquery-ui-1.8.16.custom.css\'))\\n"'
p14
sS'__str__'
p15
S"<method-wrapper '__str__' of exceptions.SyntaxError object>"
p16
sS'__reduce__'
p17
S'<built-in method __reduce__ of exceptions.SyntaxError object>'
p18
sS'__dict__'
p19
S'{}'
p20
sS'__sizeof__'
p21
S'<built-in method __sizeof__ of exceptions.SyntaxError object>'
p22
sS'__init__'
p23
S"<method-wrapper '__init__' of exceptions.SyntaxError object>"
p24
sS'__setattr__'
p25
S"<method-wrapper '__setattr__' of exceptions.SyntaxError object>"
p26
sS'__reduce_ex__'
p27
S'<built-in method __reduce_ex__ of exceptions.SyntaxError object>'
p28
sS'__new__'
p29
S'<built-in method __new__ of type object>'
p30
sS'__format__'
p31
S'<built-in method __format__ of exceptions.SyntaxError object>'
p32
sS'__class__'
p33
S"<type 'exceptions.SyntaxError'>"
p34
sS'filename'
p35
S"'/home/ian/web2py/applications/topoi/views/plugin_listandedit/list.html'"
p36
sS'lineno'
p37
S'32'
p38
sS'msg'
p39
S"'invalid syntax'"
p40
sS'__doc__'
p41
S"'Invalid syntax.'"
p42
sS'__getitem__'
p43
S"<method-wrapper '__getitem__' of exceptions.SyntaxError object>"
p44
sS'__setstate__'
p45
S'<built-in method __setstate__ of exceptions.SyntaxError object>'
p46
sS'__getattribute__'
p47
S"<method-wrapper '__getattribute__' of exceptions.SyntaxError object>"
p48
sS'print_file_and_line'
p49
S'None'
p50
sS'args'
p51
S'(\'invalid syntax\', (\'/home/ian/web2py/applications/topoi/views/plugin_listandedit/list.html\', 32, 33, "response.files.append(URL\'static\', \'plugin_framework/jquery-ui/theme/jquery-ui-1.8.16.custom.css\'))\\n"))'
p52
sS'__subclasshook__'
p53
S'<built-in method __subclasshook__ of type object>'
p54
sS'offset'
p55
S'33'
p56
sS'__unicode__'
p57
S'<built-in method __unicode__ of exceptions.SyntaxError object>'
p58
sS'__delattr__'
p59
S"<method-wrapper '__delattr__' of exceptions.SyntaxError object>"
p60
sS'__repr__'
p61
S"<method-wrapper '__repr__' of exceptions.SyntaxError object>"
p62
sS'__hash__'
p63
S"<method-wrapper '__hash__' of exceptions.SyntaxError object>"
p64
ssS'evalue'
p65
S'invalid syntax (list.html, line 32)'
p66
sS'request'
p67
ccopy_reg
_reconstructor
p68
(cgluon.html
BEAUTIFY
p69
c__builtin__
object
p70
NtRp71
(dp72
S'attributes'
p73
(dp74
sS'components'
p75
(lp76
g68
(cgluon.html
TABLE
p77
g70
NtRp78
(dp79
g73
(dp80
S'level'
p81
I5
ssS'parent'
p82
Nsg75
(lp83
g68
(cgluon.html
TR
p84
g70
NtRp85
(dp86
g73
(dp87
sg82
g78
sg75
(lp88
g68
(cgluon.html
TD
p89
g70
NtRp90
(dp91
g73
(dp92
S'_style'
p93
S'font-weight:bold;'
p94
ssg82
g85
sg75
(lp95
S'ajax'
p96
asbag68
(g89
g70
NtRp97
(dp98
g73
(dp99
S'_valign'
p100
S'top'
p101
ssg82
g85
sg75
(lp102
S':'
asbag68
(g89
g70
NtRp103
(dp104
g73
(dp105
sg82
g85
sg75
(lp106
g68
(g69
g70
NtRp107
(dp108
g73
(dp109
g81
I5
ssg82
g103
sg75
(lp110
S'False'
p111
asbasbasbag68
(g84
g70
NtRp112
(dp113
g73
(dp114
sg82
g78
sg75
(lp115
g68
(g89
g70
NtRp116
(dp117
g73
(dp118
g93
g94
ssg82
g112
sg75
(lp119
S'application'
p120
asbag68
(g89
g70
NtRp121
(dp122
g73
(dp123
g100
g101
ssg82
g112
sg75
(lp124
S':'
asbag68
(g89
g70
NtRp125
(dp126
g73
(dp127
sg82
g112
sg75
(lp128
g68
(g69
g70
NtRp129
(dp130
g73
(dp131
g81
I5
ssg82
g125
sg75
(lp132
S'topoi'
p133
asbasbasbag68
(g84
g70
NtRp134
(dp135
g73
(dp136
sg82
g78
sg75
(lp137
g68
(g89
g70
NtRp138
(dp139
g73
(dp140
g93
g94
ssg82
g134
sg75
(lp141
g51
asbag68
(g89
g70
NtRp142
(dp143
g73
(dp144
g100
g101
ssg82
g134
sg75
(lp145
S':'
asbag68
(g89
g70
NtRp146
(dp147
g73
(dp148
sg82
g134
sg75
(lp149
g68
(g69
g70
NtRp150
(dp151
g73
(dp152
g81
I5
ssg82
g146
sg75
(lp153
g68
(g77
g70
NtRp154
(dp155
g73
(dp156
g81
I4
ssg82
Nsg75
(lp157
g68
(g84
g70
NtRp158
(dp159
g73
(dp160
sg82
g154
sg75
(lp161
g68
(g89
g70
NtRp162
(dp163
g73
(dp164
sg82
g158
sg75
(lp165
g68
(g69
g70
NtRp166
(dp167
g73
(dp168
g81
I4
ssg82
g162
sg75
(lp169
S'notes'
p170
asbasbasbag68
(g84
g70
NtRp171
(dp172
g73
(dp173
sg82
g154
sg75
(lp174
g68
(g89
g70
NtRp175
(dp176
g73
(dp177
sg82
g171
sg75
(lp178
g68
(g69
g70
NtRp179
(dp180
g73
(dp181
g81
I4
ssg82
g175
sg75
(lp182
S'1'
asbasbasbasbasbasbasbag68
(g84
g70
NtRp183
(dp184
g73
(dp185
sg82
g78
sg75
(lp186
g68
(g89
g70
NtRp187
(dp188
g73
(dp189
g93
g94
ssg82
g183
sg75
(lp190
S'body'
p191
asbag68
(g89
g70
NtRp192
(dp193
g73
(dp194
g100
g101
ssg82
g183
sg75
(lp195
S':'
asbag68
(g89
g70
NtRp196
(dp197
g73
(dp198
sg82
g183
sg75
(lp199
g68
(g69
g70
NtRp200
(dp201
g73
(dp202
g81
I5
ssg82
g196
sg75
(lp203
S'<cStringIO.StringO object at 0x3ba9378>'
p204
asbasbasbag68
(g84
g70
NtRp205
(dp206
g73
(dp207
sg82
g78
sg75
(lp208
g68
(g89
g70
NtRp209
(dp210
g73
(dp211
g93
g94
ssg82
g205
sg75
(lp212
S'client'
p213
asbag68
(g89
g70
NtRp214
(dp215
g73
(dp216
g100
g101
ssg82
g205
sg75
(lp217
S':'
asbag68
(g89
g70
NtRp218
(dp219
g73
(dp220
sg82
g205
sg75
(lp221
g68
(g69
g70
NtRp222
(dp223
g73
(dp224
g81
I5
ssg82
g218
sg75
(lp225
S'127.0.0.1'
p226
asbasbasbag68
(g84
g70
NtRp227
(dp228
g73
(dp229
sg82
g78
sg75
(lp230
g68
(g89
g70
NtRp231
(dp232
g73
(dp233
g93
g94
ssg82
g227
sg75
(lp234
S'controller'
p235
asbag68
(g89
g70
NtRp236
(dp237
g73
(dp238
g100
g101
ssg82
g227
sg75
(lp239
S':'
asbag68
(g89
g70
NtRp240
(dp241
g73
(dp242
sg82
g227
sg75
(lp243
g68
(g69
g70
NtRp244
(dp245
g73
(dp246
g81
I5
ssg82
g240
sg75
(lp247
S'plugin_listandedit'
p248
asbasbasbag68
(g84
g70
NtRp249
(dp250
g73
(dp251
sg82
g78
sg75
(lp252
g68
(g89
g70
NtRp253
(dp254
g73
(dp255
g93
g94
ssg82
g249
sg75
(lp256
S'cookies'
p257
asbag68
(g89
g70
NtRp258
(dp259
g73
(dp260
g100
g101
ssg82
g249
sg75
(lp261
S':'
asbag68
(g89
g70
NtRp262
(dp263
g73
(dp264
sg82
g249
sg75
(lp265
g68
(g69
g70
NtRp266
(dp267
g73
(dp268
g81
I5
ssg82
g262
sg75
(lp269
g68
(g77
g70
NtRp270
(dp271
g73
(dp272
g81
I4
ssg82
Nsg75
(lp273
g68
(g84
g70
NtRp274
(dp275
g73
(dp276
sg82
g270
sg75
(lp277
g68
(g89
g70
NtRp278
(dp279
g73
(dp280
g93
g94
ssg82
g274
sg75
(lp281
S'session_id_admin'
p282
asbag68
(g89
g70
NtRp283
(dp284
g73
(dp285
g100
g101
ssg82
g274
sg75
(lp286
S':'
asbag68
(g89
g70
NtRp287
(dp288
g73
(dp289
sg82
g274
sg75
(lp290
g68
(g69
g70
NtRp291
(dp292
g73
(dp293
g81
I4
ssg82
g287
sg75
(lp294
g68
(g77
g70
NtRp295
(dp296
g73
(dp297
g81
I3
ssg82
Nsg75
(lp298
g68
(g84
g70
NtRp299
(dp300
g73
(dp301
sg82
g295
sg75
(lp302
g68
(g89
g70
NtRp303
(dp304
g73
(dp305
g93
g94
ssg82
g299
sg75
(lp306
S'comment'
p307
asbag68
(g89
g70
NtRp308
(dp309
g73
(dp310
g100
g101
ssg82
g299
sg75
(lp311
S':'
asbag68
(g89
g70
NtRp312
(dp313
g73
(dp314
sg82
g299
sg75
(lp315
g68
(g69
g70
NtRp316
(dp317
g73
(dp318
g81
I3
ssg82
g312
sg75
(lp319
S''
asbasbasbag68
(g84
g70
NtRp320
(dp321
g73
(dp322
sg82
g295
sg75
(lp323
g68
(g89
g70
NtRp324
(dp325
g73
(dp326
g93
g94
ssg82
g320
sg75
(lp327
S'domain'
p328
asbag68
(g89
g70
NtRp329
(dp330
g73
(dp331
g100
g101
ssg82
g320
sg75
(lp332
S':'
asbag68
(g89
g70
NtRp333
(dp334
g73
(dp335
sg82
g320
sg75
(lp336
g68
(g69
g70
NtRp337
(dp338
g73
(dp339
g81
I3
ssg82
g333
sg75
(lp340
S''
asbasbasbag68
(g84
g70
NtRp341
(dp342
g73
(dp343
sg82
g295
sg75
(lp344
g68
(g89
g70
NtRp345
(dp346
g73
(dp347
g93
g94
ssg82
g341
sg75
(lp348
S'expires'
p349
asbag68
(g89
g70
NtRp350
(dp351
g73
(dp352
g100
g101
ssg82
g341
sg75
(lp353
S':'
asbag68
(g89
g70
NtRp354
(dp355
g73
(dp356
sg82
g341
sg75
(lp357
g68
(g69
g70
NtRp358
(dp359
g73
(dp360
g81
I3
ssg82
g354
sg75
(lp361
S''
asbasbasbag68
(g84
g70
NtRp362
(dp363
g73
(dp364
sg82
g295
sg75
(lp365
g68
(g89
g70
NtRp366
(dp367
g73
(dp368
g93
g94
ssg82
g362
sg75
(lp369
S'httponly'
p370
asbag68
(g89
g70
NtRp371
(dp372
g73
(dp373
g100
g101
ssg82
g362
sg75
(lp374
S':'
asbag68
(g89
g70
NtRp375
(dp376
g73
(dp377
sg82
g362
sg75
(lp378
g68
(g69
g70
NtRp379
(dp380
g73
(dp381
g81
I3
ssg82
g375
sg75
(lp382
S''
asbasbasbag68
(g84
g70
NtRp383
(dp384
g73
(dp385
sg82
g295
sg75
(lp386
g68
(g89
g70
NtRp387
(dp388
g73
(dp389
g93
g94
ssg82
g383
sg75
(lp390
S'max-age'
p391
asbag68
(g89
g70
NtRp392
(dp393
g73
(dp394
g100
g101
ssg82
g383
sg75
(lp395
S':'
asbag68
(g89
g70
NtRp396
(dp397
g73
(dp398
sg82
g383
sg75
(lp399
g68
(g69
g70
NtRp400
(dp401
g73
(dp402
g81
I3
ssg82
g396
sg75
(lp403
S''
asbasbasbag68
(g84
g70
NtRp404
(dp405
g73
(dp406
sg82
g295
sg75
(lp407
g68
(g89
g70
NtRp408
(dp409
g73
(dp410
g93
g94
ssg82
g404
sg75
(lp411
S'path'
p412
asbag68
(g89
g70
NtRp413
(dp414
g73
(dp415
g100
g101
ssg82
g404
sg75
(lp416
S':'
asbag68
(g89
g70
NtRp417
(dp418
g73
(dp419
sg82
g404
sg75
(lp420
g68
(g69
g70
NtRp421
(dp422
g73
(dp423
g81
I3
ssg82
g417
sg75
(lp424
S''
asbasbasbag68
(g84
g70
NtRp425
(dp426
g73
(dp427
sg82
g295
sg75
(lp428
g68
(g89
g70
NtRp429
(dp430
g73
(dp431
g93
g94
ssg82
g425
sg75
(lp432
S'secure'
p433
asbag68
(g89
g70
NtRp434
(dp435
g73
(dp436
g100
g101
ssg82
g425
sg75
(lp437
S':'
asbag68
(g89
g70
NtRp438
(dp439
g73
(dp440
sg82
g425
sg75
(lp441
g68
(g69
g70
NtRp442
(dp443
g73
(dp444
g81
I3
ssg82
g438
sg75
(lp445
S''
asbasbasbag68
(g84
g70
NtRp446
(dp447
g73
(dp448
sg82
g295
sg75
(lp449
g68
(g89
g70
NtRp450
(dp451
g73
(dp452
g93
g94
ssg82
g446
sg75
(lp453
S'version'
p454
asbag68
(g89
g70
NtRp455
(dp456
g73
(dp457
g100
g101
ssg82
g446
sg75
(lp458
S':'
asbag68
(g89
g70
NtRp459
(dp460
g73
(dp461
sg82
g446
sg75
(lp462
g68
(g69
g70
NtRp463
(dp464
g73
(dp465
g81
I3
ssg82
g459
sg75
(lp466
S''
asbasbasbasbasbasbasbag68
(g84
g70
NtRp467
(dp468
g73
(dp469
sg82
g270
sg75
(lp470
g68
(g89
g70
NtRp471
(dp472
g73
(dp473
g93
g94
ssg82
g467
sg75
(lp474
S'session_id_topoi'
p475
asbag68
(g89
g70
NtRp476
(dp477
g73
(dp478
g100
g101
ssg82
g467
sg75
(lp479
S':'
asbag68
(g89
g70
NtRp480
(dp481
g73
(dp482
sg82
g467
sg75
(lp483
g68
(g69
g70
NtRp484
(dp485
g73
(dp486
g81
I4
ssg82
g480
sg75
(lp487
g68
(g77
g70
NtRp488
(dp489
g73
(dp490
g81
I3
ssg82
Nsg75
(lp491
g68
(g84
g70
NtRp492
(dp493
g73
(dp494
sg82
g488
sg75
(lp495
g68
(g89
g70
NtRp496
(dp497
g73
(dp498
g93
g94
ssg82
g492
sg75
(lp499
g307
asbag68
(g89
g70
NtRp500
(dp501
g73
(dp502
g100
g101
ssg82
g492
sg75
(lp503
S':'
asbag68
(g89
g70
NtRp504
(dp505
g73
(dp506
sg82
g492
sg75
(lp507
g68
(g69
g70
NtRp508
(dp509
g73
(dp510
g81
I3
ssg82
g504
sg75
(lp511
S''
asbasbasbag68
(g84
g70
NtRp512
(dp513
g73
(dp514
sg82
g488
sg75
(lp515
g68
(g89
g70
NtRp516
(dp517
g73
(dp518
g93
g94
ssg82
g512
sg75
(lp519
g328
asbag68
(g89
g70
NtRp520
(dp521
g73
(dp522
g100
g101
ssg82
g512
sg75
(lp523
S':'
asbag68
(g89
g70
NtRp524
(dp525
g73
(dp526
sg82
g512
sg75
(lp527
g68
(g69
g70
NtRp528
(dp529
g73
(dp530
g81
I3
ssg82
g524
sg75
(lp531
S''
asbasbasbag68
(g84
g70
NtRp532
(dp533
g73
(dp534
sg82
g488
sg75
(lp535
g68
(g89
g70
NtRp536
(dp537
g73
(dp538
g93
g94
ssg82
g532
sg75
(lp539
g349
asbag68
(g89
g70
NtRp540
(dp541
g73
(dp542
g100
g101
ssg82
g532
sg75
(lp543
S':'
asbag68
(g89
g70
NtRp544
(dp545
g73
(dp546
sg82
g532
sg75
(lp547
g68
(g69
g70
NtRp548
(dp549
g73
(dp550
g81
I3
ssg82
g544
sg75
(lp551
S''
asbasbasbag68
(g84
g70
NtRp552
(dp553
g73
(dp554
sg82
g488
sg75
(lp555
g68
(g89
g70
NtRp556
(dp557
g73
(dp558
g93
g94
ssg82
g552
sg75
(lp559
g370
asbag68
(g89
g70
NtRp560
(dp561
g73
(dp562
g100
g101
ssg82
g552
sg75
(lp563
S':'
asbag68
(g89
g70
NtRp564
(dp565
g73
(dp566
sg82
g552
sg75
(lp567
g68
(g69
g70
NtRp568
(dp569
g73
(dp570
g81
I3
ssg82
g564
sg75
(lp571
S''
asbasbasbag68
(g84
g70
NtRp572
(dp573
g73
(dp574
sg82
g488
sg75
(lp575
g68
(g89
g70
NtRp576
(dp577
g73
(dp578
g93
g94
ssg82
g572
sg75
(lp579
g391
asbag68
(g89
g70
NtRp580
(dp581
g73
(dp582
g100
g101
ssg82
g572
sg75
(lp583
S':'
asbag68
(g89
g70
NtRp584
(dp585
g73
(dp586
sg82
g572
sg75
(lp587
g68
(g69
g70
NtRp588
(dp589
g73
(dp590
g81
I3
ssg82
g584
sg75
(lp591
S''
asbasbasbag68
(g84
g70
NtRp592
(dp593
g73
(dp594
sg82
g488
sg75
(lp595
g68
(g89
g70
NtRp596
(dp597
g73
(dp598
g93
g94
ssg82
g592
sg75
(lp599
g412
asbag68
(g89
g70
NtRp600
(dp601
g73
(dp602
g100
g101
ssg82
g592
sg75
(lp603
S':'
asbag68
(g89
g70
NtRp604
(dp605
g73
(dp606
sg82
g592
sg75
(lp607
g68
(g69
g70
NtRp608
(dp609
g73
(dp610
g81
I3
ssg82
g604
sg75
(lp611
S''
asbasbasbag68
(g84
g70
NtRp612
(dp613
g73
(dp614
sg82
g488
sg75
(lp615
g68
(g89
g70
NtRp616
(dp617
g73
(dp618
g93
g94
ssg82
g612
sg75
(lp619
g433
asbag68
(g89
g70
NtRp620
(dp621
g73
(dp622
g100
g101
ssg82
g612
sg75
(lp623
S':'
asbag68
(g89
g70
NtRp624
(dp625
g73
(dp626
sg82
g612
sg75
(lp627
g68
(g69
g70
NtRp628
(dp629
g73
(dp630
g81
I3
ssg82
g624
sg75
(lp631
S''
asbasbasbag68
(g84
g70
NtRp632
(dp633
g73
(dp634
sg82
g488
sg75
(lp635
g68
(g89
g70
NtRp636
(dp637
g73
(dp638
g93
g94
ssg82
g632
sg75
(lp639
g454
asbag68
(g89
g70
NtRp640
(dp641
g73
(dp642
g100
g101
ssg82
g632
sg75
(lp643
S':'
asbag68
(g89
g70
NtRp644
(dp645
g73
(dp646
sg82
g632
sg75
(lp647
g68
(g69
g70
NtRp648
(dp649
g73
(dp650
g81
I3
ssg82
g644
sg75
(lp651
S''
asbasbasbasbasbasbasbag68
(g84
g70
NtRp652
(dp653
g73
(dp654
sg82
g270
sg75
(lp655
g68
(g89
g70
NtRp656
(dp657
g73
(dp658
g93
g94
ssg82
g652
sg75
(lp659
S'session_id_welcome'
p660
asbag68
(g89
g70
NtRp661
(dp662
g73
(dp663
g100
g101
ssg82
g652
sg75
(lp664
S':'
asbag68
(g89
g70
NtRp665
(dp666
g73
(dp667
sg82
g652
sg75
(lp668
g68
(g69
g70
NtRp669
(dp670
g73
(dp671
g81
I4
ssg82
g665
sg75
(lp672
g68
(g77
g70
NtRp673
(dp674
g73
(dp675
g81
I3
ssg82
Nsg75
(lp676
g68
(g84
g70
NtRp677
(dp678
g73
(dp679
sg82
g673
sg75
(lp680
g68
(g89
g70
NtRp681
(dp682
g73
(dp683
g93
g94
ssg82
g677
sg75
(lp684
g307
asbag68
(g89
g70
NtRp685
(dp686
g73
(dp687
g100
g101
ssg82
g677
sg75
(lp688
S':'
asbag68
(g89
g70
NtRp689
(dp690
g73
(dp691
sg82
g677
sg75
(lp692
g68
(g69
g70
NtRp693
(dp694
g73
(dp695
g81
I3
ssg82
g689
sg75
(lp696
S''
asbasbasbag68
(g84
g70
NtRp697
(dp698
g73
(dp699
sg82
g673
sg75
(lp700
g68
(g89
g70
NtRp701
(dp702
g73
(dp703
g93
g94
ssg82
g697
sg75
(lp704
g328
asbag68
(g89
g70
NtRp705
(dp706
g73
(dp707
g100
g101
ssg82
g697
sg75
(lp708
S':'
asbag68
(g89
g70
NtRp709
(dp710
g73
(dp711
sg82
g697
sg75
(lp712
g68
(g69
g70
NtRp713
(dp714
g73
(dp715
g81
I3
ssg82
g709
sg75
(lp716
S''
asbasbasbag68
(g84
g70
NtRp717
(dp718
g73
(dp719
sg82
g673
sg75
(lp720
g68
(g89
g70
NtRp721
(dp722
g73
(dp723
g93
g94
ssg82
g717
sg75
(lp724
g349
asbag68
(g89
g70
NtRp725
(dp726
g73
(dp727
g100
g101
ssg82
g717
sg75
(lp728
S':'
asbag68
(g89
g70
NtRp729
(dp730
g73
(dp731
sg82
g717
sg75
(lp732
g68
(g69
g70
NtRp733
(dp734
g73
(dp735
g81
I3
ssg82
g729
sg75
(lp736
S''
asbasbasbag68
(g84
g70
NtRp737
(dp738
g73
(dp739
sg82
g673
sg75
(lp740
g68
(g89
g70
NtRp741
(dp742
g73
(dp743
g93
g94
ssg82
g737
sg75
(lp744
g370
asbag68
(g89
g70
NtRp745
(dp746
g73
(dp747
g100
g101
ssg82
g737
sg75
(lp748
S':'
asbag68
(g89
g70
NtRp749
(dp750
g73
(dp751
sg82
g737
sg75
(lp752
g68
(g69
g70
NtRp753
(dp754
g73
(dp755
g81
I3
ssg82
g749
sg75
(lp756
S''
asbasbasbag68
(g84
g70
NtRp757
(dp758
g73
(dp759
sg82
g673
sg75
(lp760
g68
(g89
g70
NtRp761
(dp762
g73
(dp763
g93
g94
ssg82
g757
sg75
(lp764
g391
asbag68
(g89
g70
NtRp765
(dp766
g73
(dp767
g100
g101
ssg82
g757
sg75
(lp768
S':'
asbag68
(g89
g70
NtRp769
(dp770
g73
(dp771
sg82
g757
sg75
(lp772
g68
(g69
g70
NtRp773
(dp774
g73
(dp775
g81
I3
ssg82
g769
sg75
(lp776
S''
asbasbasbag68
(g84
g70
NtRp777
(dp778
g73
(dp779
sg82
g673
sg75
(lp780
g68
(g89
g70
NtRp781
(dp782
g73
(dp783
g93
g94
ssg82
g777
sg75
(lp784
g412
asbag68
(g89
g70
NtRp785
(dp786
g73
(dp787
g100
g101
ssg82
g777
sg75
(lp788
S':'
asbag68
(g89
g70
NtRp789
(dp790
g73
(dp791
sg82
g777
sg75
(lp792
g68
(g69
g70
NtRp793
(dp794
g73
(dp795
g81
I3
ssg82
g789
sg75
(lp796
S''
asbasbasbag68
(g84
g70
NtRp797
(dp798
g73
(dp799
sg82
g673
sg75
(lp800
g68
(g89
g70
NtRp801
(dp802
g73
(dp803
g93
g94
ssg82
g797
sg75
(lp804
g433
asbag68
(g89
g70
NtRp805
(dp806
g73
(dp807
g100
g101
ssg82
g797
sg75
(lp808
S':'
asbag68
(g89
g70
NtRp809
(dp810
g73
(dp811
sg82
g797
sg75
(lp812
g68
(g69
g70
NtRp813
(dp814
g73
(dp815
g81
I3
ssg82
g809
sg75
(lp816
S''
asbasbasbag68
(g84
g70
NtRp817
(dp818
g73
(dp819
sg82
g673
sg75
(lp820
g68
(g89
g70
NtRp821
(dp822
g73
(dp823
g93
g94
ssg82
g817
sg75
(lp824
g454
asbag68
(g89
g70
NtRp825
(dp826
g73
(dp827
g100
g101
ssg82
g817
sg75
(lp828
S':'
asbag68
(g89
g70
NtRp829
(dp830
g73
(dp831
sg82
g817
sg75
(lp832
g68
(g69
g70
NtRp833
(dp834
g73
(dp835
g81
I3
ssg82
g829
sg75
(lp836
S''
asbasbasbasbasbasbasbasbasbasbasbag68
(g84
g70
NtRp837
(dp838
g73
(dp839
sg82
g78
sg75
(lp840
g68
(g89
g70
NtRp841
(dp842
g73
(dp843
g93
g94
ssg82
g837
sg75
(lp844
S'env'
p845
asbag68
(g89
g70
NtRp846
(dp847
g73
(dp848
g100
g101
ssg82
g837
sg75
(lp849
S':'
asbag68
(g89
g70
NtRp850
(dp851
g73
(dp852
sg82
g837
sg75
(lp853
g68
(g69
g70
NtRp854
(dp855
g73
(dp856
g81
I5
ssg82
g850
sg75
(lp857
g68
(g77
g70
NtRp858
(dp859
g73
(dp860
g81
I4
ssg82
Nsg75
(lp861
g68
(g84
g70
NtRp862
(dp863
g73
(dp864
sg82
g858
sg75
(lp865
g68
(g89
g70
NtRp866
(dp867
g73
(dp868
g93
g94
ssg82
g862
sg75
(lp869
S'app_folders'
p870
asbag68
(g89
g70
NtRp871
(dp872
g73
(dp873
g100
g101
ssg82
g862
sg75
(lp874
S':'
asbag68
(g89
g70
NtRp875
(dp876
g73
(dp877
sg82
g862
sg75
(lp878
g68
(g69
g70
NtRp879
(dp880
g73
(dp881
g81
I4
ssg82
g875
sg75
(lp882
S"set(['/home/ian/web2py/applications/topoi/', '/home/ian/web2py/applications/welcome/', '/home/ian/web2py/applications/admin/'])"
p883
asbasbasbag68
(g84
g70
NtRp884
(dp885
g73
(dp886
sg82
g858
sg75
(lp887
g68
(g89
g70
NtRp888
(dp889
g73
(dp890
g93
g94
ssg82
g884
sg75
(lp891
S'applications_parent'
p892
asbag68
(g89
g70
NtRp893
(dp894
g73
(dp895
g100
g101
ssg82
g884
sg75
(lp896
S':'
asbag68
(g89
g70
NtRp897
(dp898
g73
(dp899
sg82
g884
sg75
(lp900
g68
(g69
g70
NtRp901
(dp902
g73
(dp903
g81
I4
ssg82
g897
sg75
(lp904
S'/home/ian/web2py'
p905
asbasbasbag68
(g84
g70
NtRp906
(dp907
g73
(dp908
sg82
g858
sg75
(lp909
g68
(g89
g70
NtRp910
(dp911
g73
(dp912
g93
g94
ssg82
g906
sg75
(lp913
S'cmd_args'
p914
asbag68
(g89
g70
NtRp915
(dp916
g73
(dp917
g100
g101
ssg82
g906
sg75
(lp918
S':'
asbag68
(g89
g70
NtRp919
(dp920
g73
(dp921
sg82
g906
sg75
(lp922
g68
(g69
g70
NtRp923
(dp924
g73
(dp925
g81
I4
ssg82
g919
sg75
(lp926
g68
(g77
g70
NtRp927
(dp928
g73
(dp929
g81
I3
ssg82
Nsg75
(lp930
sbasbasbasbag68
(g84
g70
NtRp931
(dp932
g73
(dp933
sg82
g858
sg75
(lp934
g68
(g89
g70
NtRp935
(dp936
g73
(dp937
g93
g94
ssg82
g931
sg75
(lp938
S'cmd_options'
p939
asbag68
(g89
g70
NtRp940
(dp941
g73
(dp942
g100
g101
ssg82
g931
sg75
(lp943
S':'
asbag68
(g89
g70
NtRp944
(dp945
g73
(dp946
sg82
g931
sg75
(lp947
g68
(g69
g70
NtRp948
(dp949
g73
(dp950
g81
I4
ssg82
g944
sg75
(lp951
S"<Values at 0x28e97e8: {'verbose': False, 'ip': '127.0.0.1', 'shutdown_timeout': 5, 'taskbar': False, 'nocron': False, 'pid_filename': 'httpserver.pid', 'maxthreads': None, 'softcron': False, 'server_name': 'Ariel-ubuntu', 'bpython': False, 'nogui': False, 'port': 8000, 'extcron': False, 'debuglevel': 30, 'test': None, 'folder': '/home/ian/web2py', 'config': '', 'import_models': False, 'winservice': '', 'shell': None, 'run': '', 'log_filename': 'httpserver.log', 'args': [''], 'ssl_ca_certificate': None, 'scheduler': None, 'profiler_filename': None, 'ssl_private_key': '', 'password': '<ask>', 'request_queue_size': 5, 'ssl_certificate': '', 'cronjob': False, 'plain': False, 'quiet': False, 'interfaces': None, 'minthreads': None, 'timeout': 10, 'numthreads': None, 'nobanner': False}>"
p952
asbasbasbag68
(g84
g70
NtRp953
(dp954
g73
(dp955
sg82
g858
sg75
(lp956
g68
(g89
g70
NtRp957
(dp958
g73
(dp959
g93
g94
ssg82
g953
sg75
(lp960
S'db_sessions'
p961
asbag68
(g89
g70
NtRp962
(dp963
g73
(dp964
g100
g101
ssg82
g953
sg75
(lp965
S':'
asbag68
(g89
g70
NtRp966
(dp967
g73
(dp968
sg82
g953
sg75
(lp969
g68
(g69
g70
NtRp970
(dp971
g73
(dp972
g81
I4
ssg82
g966
sg75
(lp973
S'set([])'
p974
asbasbasbag68
(g84
g70
NtRp975
(dp976
g73
(dp977
sg82
g858
sg75
(lp978
g68
(g89
g70
NtRp979
(dp980
g73
(dp981
g93
g94
ssg82
g975
sg75
(lp982
S'debugging'
p983
asbag68
(g89
g70
NtRp984
(dp985
g73
(dp986
g100
g101
ssg82
g975
sg75
(lp987
S':'
asbag68
(g89
g70
NtRp988
(dp989
g73
(dp990
sg82
g975
sg75
(lp991
g68
(g69
g70
NtRp992
(dp993
g73
(dp994
g81
I4
ssg82
g988
sg75
(lp995
g111
asbasbasbag68
(g84
g70
NtRp996
(dp997
g73
(dp998
sg82
g858
sg75
(lp999
g68
(g89
g70
NtRp1000
(dp1001
g73
(dp1002
g93
g94
ssg82
g996
sg75
(lp1003
S'gluon_parent'
p1004
asbag68
(g89
g70
NtRp1005
(dp1006
g73
(dp1007
g100
g101
ssg82
g996
sg75
(lp1008
S':'
asbag68
(g89
g70
NtRp1009
(dp1010
g73
(dp1011
sg82
g996
sg75
(lp1012
g68
(g69
g70
NtRp1013
(dp1014
g73
(dp1015
g81
I4
ssg82
g1009
sg75
(lp1016
S'/home/ian/web2py'
p1017
asbasbasbag68
(g84
g70
NtRp1018
(dp1019
g73
(dp1020
sg82
g858
sg75
(lp1021
g68
(g89
g70
NtRp1022
(dp1023
g73
(dp1024
g93
g94
ssg82
g1018
sg75
(lp1025
S'http_accept'
p1026
asbag68
(g89
g70
NtRp1027
(dp1028
g73
(dp1029
g100
g101
ssg82
g1018
sg75
(lp1030
S':'
asbag68
(g89
g70
NtRp1031
(dp1032
g73
(dp1033
sg82
g1018
sg75
(lp1034
g68
(g69
g70
NtRp1035
(dp1036
g73
(dp1037
g81
I4
ssg82
g1031
sg75
(lp1038
S'text/html,application/xhtml+xml,application/xml;q=0.9,*/*;q=0.8'
p1039
asbasbasbag68
(g84
g70
NtRp1040
(dp1041
g73
(dp1042
sg82
g858
sg75
(lp1043
g68
(g89
g70
NtRp1044
(dp1045
g73
(dp1046
g93
g94
ssg82
g1040
sg75
(lp1047
S'http_accept_charset'
p1048
asbag68
(g89
g70
NtRp1049
(dp1050
g73
(dp1051
g100
g101
ssg82
g1040
sg75
(lp1052
S':'
asbag68
(g89
g70
NtRp1053
(dp1054
g73
(dp1055
sg82
g1040
sg75
(lp1056
g68
(g69
g70
NtRp1057
(dp1058
g73
(dp1059
g81
I4
ssg82
g1053
sg75
(lp1060
S'ISO-8859-1,utf-8;q=0.7,*;q=0.7'
p1061
asbasbasbag68
(g84
g70
NtRp1062
(dp1063
g73
(dp1064
sg82
g858
sg75
(lp1065
g68
(g89
g70
NtRp1066
(dp1067
g73
(dp1068
g93
g94
ssg82
g1062
sg75
(lp1069
S'http_accept_encoding'
p1070
asbag68
(g89
g70
NtRp1071
(dp1072
g73
(dp1073
g100
g101
ssg82
g1062
sg75
(lp1074
S':'
asbag68
(g89
g70
NtRp1075
(dp1076
g73
(dp1077
sg82
g1062
sg75
(lp1078
g68
(g69
g70
NtRp1079
(dp1080
g73
(dp1081
g81
I4
ssg82
g1075
sg75
(lp1082
S'gzip, deflate'
p1083
asbasbasbag68
(g84
g70
NtRp1084
(dp1085
g73
(dp1086
sg82
g858
sg75
(lp1087
g68
(g89
g70
NtRp1088
(dp1089
g73
(dp1090
g93
g94
ssg82
g1084
sg75
(lp1091
S'http_accept_language'
p1092
asbag68
(g89
g70
NtRp1093
(dp1094
g73
(dp1095
g100
g101
ssg82
g1084
sg75
(lp1096
S':'
asbag68
(g89
g70
NtRp1097
(dp1098
g73
(dp1099
sg82
g1084
sg75
(lp1100
g68
(g69
g70
NtRp1101
(dp1102
g73
(dp1103
g81
I4
ssg82
g1097
sg75
(lp1104
S'en-us,en;q=0.5'
p1105
asbasbasbag68
(g84
g70
NtRp1106
(dp1107
g73
(dp1108
sg82
g858
sg75
(lp1109
g68
(g89
g70
NtRp1110
(dp1111
g73
(dp1112
g93
g94
ssg82
g1106
sg75
(lp1113
S'http_cache_control'
p1114
asbag68
(g89
g70
NtRp1115
(dp1116
g73
(dp1117
g100
g101
ssg82
g1106
sg75
(lp1118
S':'
asbag68
(g89
g70
NtRp1119
(dp1120
g73
(dp1121
sg82
g1106
sg75
(lp1122
g68
(g69
g70
NtRp1123
(dp1124
g73
(dp1125
g81
I4
ssg82
g1119
sg75
(lp1126
S'max-age=0'
p1127
asbasbasbag68
(g84
g70
NtRp1128
(dp1129
g73
(dp1130
sg82
g858
sg75
(lp1131
g68
(g89
g70
NtRp1132
(dp1133
g73
(dp1134
g93
g94
ssg82
g1128
sg75
(lp1135
S'http_connection'
p1136
asbag68
(g89
g70
NtRp1137
(dp1138
g73
(dp1139
g100
g101
ssg82
g1128
sg75
(lp1140
S':'
asbag68
(g89
g70
NtRp1141
(dp1142
g73
(dp1143
sg82
g1128
sg75
(lp1144
g68
(g69
g70
NtRp1145
(dp1146
g73
(dp1147
g81
I4
ssg82
g1141
sg75
(lp1148
S'keep-alive'
p1149
asbasbasbag68
(g84
g70
NtRp1150
(dp1151
g73
(dp1152
sg82
g858
sg75
(lp1153
g68
(g89
g70
NtRp1154
(dp1155
g73
(dp1156
g93
g94
ssg82
g1150
sg75
(lp1157
S'http_cookie'
p1158
asbag68
(g89
g70
NtRp1159
(dp1160
g73
(dp1161
g100
g101
ssg82
g1150
sg75
(lp1162
S':'
asbag68
(g89
g70
NtRp1163
(dp1164
g73
(dp1165
sg82
g1150
sg75
(lp1166
g68
(g69
g70
NtRp1167
(dp1168
g73
(dp1169
g81
I4
ssg82
g1163
sg75
(lp1170
S'__utma_a2a=9789918665.1351576430.1320019504.1320019504.1320019504.1; session_id_topoi=127.0.0.1-af13e654-cdbc-4583-8d75-e46cda6f6e34; session_id_welcome=127.0.0.1-f28aa29a-3c83-46af-b1b6-7db0462dc2a3; session_id_admin=127.0.0.1-e69000a8-d3f0-48ca-b1d1-ec544631476d'
p1171
asbasbasbag68
(g84
g70
NtRp1172
(dp1173
g73
(dp1174
sg82
g858
sg75
(lp1175
g68
(g89
g70
NtRp1176
(dp1177
g73
(dp1178
g93
g94
ssg82
g1172
sg75
(lp1179
S'http_host'
p1180
asbag68
(g89
g70
NtRp1181
(dp1182
g73
(dp1183
g100
g101
ssg82
g1172
sg75
(lp1184
S':'
asbag68
(g89
g70
NtRp1185
(dp1186
g73
(dp1187
sg82
g1172
sg75
(lp1188
g68
(g69
g70
NtRp1189
(dp1190
g73
(dp1191
g81
I4
ssg82
g1185
sg75
(lp1192
S'127.0.0.1:8000'
p1193
asbasbasbag68
(g84
g70
NtRp1194
(dp1195
g73
(dp1196
sg82
g858
sg75
(lp1197
g68
(g89
g70
NtRp1198
(dp1199
g73
(dp1200
g93
g94
ssg82
g1194
sg75
(lp1201
S'http_referer'
p1202
asbag68
(g89
g70
NtRp1203
(dp1204
g73
(dp1205
g100
g101
ssg82
g1194
sg75
(lp1206
S':'
asbag68
(g89
g70
NtRp1207
(dp1208
g73
(dp1209
sg82
g1194
sg75
(lp1210
g68
(g69
g70
NtRp1211
(dp1212
g73
(dp1213
g81
I4
ssg82
g1207
sg75
(lp1214
S'http://127.0.0.1:8000/topoi/'
p1215
asbasbasbag68
(g84
g70
NtRp1216
(dp1217
g73
(dp1218
sg82
g858
sg75
(lp1219
g68
(g89
g70
NtRp1220
(dp1221
g73
(dp1222
g93
g94
ssg82
g1216
sg75
(lp1223
S'http_user_agent'
p1224
asbag68
(g89
g70
NtRp1225
(dp1226
g73
(dp1227
g100
g101
ssg82
g1216
sg75
(lp1228
S':'
asbag68
(g89
g70
NtRp1229
(dp1230
g73
(dp1231
sg82
g1216
sg75
(lp1232
g68
(g69
g70
NtRp1233
(dp1234
g73
(dp1235
g81
I4
ssg82
g1229
sg75
(lp1236
S'Mozilla/5.0 (Ubuntu; X11; Linux x86_64; rv:8.0) Gecko/20100101 Firefox/8.0 FirePHP/0.6'
p1237
asbasbasbag68
(g84
g70
NtRp1238
(dp1239
g73
(dp1240
sg82
g858
sg75
(lp1241
g68
(g89
g70
NtRp1242
(dp1243
g73
(dp1244
g93
g94
ssg82
g1238
sg75
(lp1245
S'http_x_insight'
p1246
asbag68
(g89
g70
NtRp1247
(dp1248
g73
(dp1249
g100
g101
ssg82
g1238
sg75
(lp1250
S':'
asbag68
(g89
g70
NtRp1251
(dp1252
g73
(dp1253
sg82
g1238
sg75
(lp1254
g68
(g69
g70
NtRp1255
(dp1256
g73
(dp1257
g81
I4
ssg82
g1251
sg75
(lp1258
S'activate'
p1259
asbasbasbag68
(g84
g70
NtRp1260
(dp1261
g73
(dp1262
sg82
g858
sg75
(lp1263
g68
(g89
g70
NtRp1264
(dp1265
g73
(dp1266
g93
g94
ssg82
g1260
sg75
(lp1267
S'is_jython'
p1268
asbag68
(g89
g70
NtRp1269
(dp1270
g73
(dp1271
g100
g101
ssg82
g1260
sg75
(lp1272
S':'
asbag68
(g89
g70
NtRp1273
(dp1274
g73
(dp1275
sg82
g1260
sg75
(lp1276
g68
(g69
g70
NtRp1277
(dp1278
g73
(dp1279
g81
I4
ssg82
g1273
sg75
(lp1280
g111
asbasbasbag68
(g84
g70
NtRp1281
(dp1282
g73
(dp1283
sg82
g858
sg75
(lp1284
g68
(g89
g70
NtRp1285
(dp1286
g73
(dp1287
g93
g94
ssg82
g1281
sg75
(lp1288
S'path_info'
p1289
asbag68
(g89
g70
NtRp1290
(dp1291
g73
(dp1292
g100
g101
ssg82
g1281
sg75
(lp1293
S':'
asbag68
(g89
g70
NtRp1294
(dp1295
g73
(dp1296
sg82
g1281
sg75
(lp1297
g68
(g69
g70
NtRp1298
(dp1299
g73
(dp1300
g81
I4
ssg82
g1294
sg75
(lp1301
S'/topoi/plugin_listandedit/list/notes/1'
p1302
asbasbasbag68
(g84
g70
NtRp1303
(dp1304
g73
(dp1305
sg82
g858
sg75
(lp1306
g68
(g89
g70
NtRp1307
(dp1308
g73
(dp1309
g93
g94
ssg82
g1303
sg75
(lp1310
S'query_string'
p1311
asbag68
(g89
g70
NtRp1312
(dp1313
g73
(dp1314
g100
g101
ssg82
g1303
sg75
(lp1315
S':'
asbag68
(g89
g70
NtRp1316
(dp1317
g73
(dp1318
sg82
g1303
sg75
(lp1319
g68
(g69
g70
NtRp1320
(dp1321
g73
(dp1322
g81
I4
ssg82
g1316
sg75
(lp1323
S'fields=reference'
p1324
asbasbasbag68
(g84
g70
NtRp1325
(dp1326
g73
(dp1327
sg82
g858
sg75
(lp1328
g68
(g89
g70
NtRp1329
(dp1330
g73
(dp1331
g93
g94
ssg82
g1325
sg75
(lp1332
S'remote_addr'
p1333
asbag68
(g89
g70
NtRp1334
(dp1335
g73
(dp1336
g100
g101
ssg82
g1325
sg75
(lp1337
S':'
asbag68
(g89
g70
NtRp1338
(dp1339
g73
(dp1340
sg82
g1325
sg75
(lp1341
g68
(g69
g70
NtRp1342
(dp1343
g73
(dp1344
g81
I4
ssg82
g1338
sg75
(lp1345
g226
asbasbasbag68
(g84
g70
NtRp1346
(dp1347
g73
(dp1348
sg82
g858
sg75
(lp1349
g68
(g89
g70
NtRp1350
(dp1351
g73
(dp1352
g93
g94
ssg82
g1346
sg75
(lp1353
S'remote_port'
p1354
asbag68
(g89
g70
NtRp1355
(dp1356
g73
(dp1357
g100
g101
ssg82
g1346
sg75
(lp1358
S':'
asbag68
(g89
g70
NtRp1359
(dp1360
g73
(dp1361
sg82
g1346
sg75
(lp1362
g68
(g69
g70
NtRp1363
(dp1364
g73
(dp1365
g81
I4
ssg82
g1359
sg75
(lp1366
S'50824'
p1367
asbasbasbag68
(g84
g70
NtRp1368
(dp1369
g73
(dp1370
sg82
g858
sg75
(lp1371
g68
(g89
g70
NtRp1372
(dp1373
g73
(dp1374
g93
g94
ssg82
g1368
sg75
(lp1375
S'request_method'
p1376
asbag68
(g89
g70
NtRp1377
(dp1378
g73
(dp1379
g100
g101
ssg82
g1368
sg75
(lp1380
S':'
asbag68
(g89
g70
NtRp1381
(dp1382
g73
(dp1383
sg82
g1368
sg75
(lp1384
g68
(g69
g70
NtRp1385
(dp1386
g73
(dp1387
g81
I4
ssg82
g1381
sg75
(lp1388
S'GET'
p1389
asbasbasbag68
(g84
g70
NtRp1390
(dp1391
g73
(dp1392
sg82
g858
sg75
(lp1393
g68
(g89
g70
NtRp1394
(dp1395
g73
(dp1396
g93
g94
ssg82
g1390
sg75
(lp1397
S'script_name'
p1398
asbag68
(g89
g70
NtRp1399
(dp1400
g73
(dp1401
g100
g101
ssg82
g1390
sg75
(lp1402
S':'
asbag68
(g89
g70
NtRp1403
(dp1404
g73
(dp1405
sg82
g1390
sg75
(lp1406
g68
(g69
g70
NtRp1407
(dp1408
g73
(dp1409
g81
I4
ssg82
g1403
sg75
(lp1410
S''
asbasbasbag68
(g84
g70
NtRp1411
(dp1412
g73
(dp1413
sg82
g858
sg75
(lp1414
g68
(g89
g70
NtRp1415
(dp1416
g73
(dp1417
g93
g94
ssg82
g1411
sg75
(lp1418
S'server_name'
p1419
asbag68
(g89
g70
NtRp1420
(dp1421
g73
(dp1422
g100
g101
ssg82
g1411
sg75
(lp1423
S':'
asbag68
(g89
g70
NtRp1424
(dp1425
g73
(dp1426
sg82
g1411
sg75
(lp1427
g68
(g69
g70
NtRp1428
(dp1429
g73
(dp1430
g81
I4
ssg82
g1424
sg75
(lp1431
S'Ariel-ubuntu'
p1432
asbasbasbag68
(g84
g70
NtRp1433
(dp1434
g73
(dp1435
sg82
g858
sg75
(lp1436
g68
(g89
g70
NtRp1437
(dp1438
g73
(dp1439
g93
g94
ssg82
g1433
sg75
(lp1440
S'server_port'
p1441
asbag68
(g89
g70
NtRp1442
(dp1443
g73
(dp1444
g100
g101
ssg82
g1433
sg75
(lp1445
S':'
asbag68
(g89
g70
NtRp1446
(dp1447
g73
(dp1448
sg82
g1433
sg75
(lp1449
g68
(g69
g70
NtRp1450
(dp1451
g73
(dp1452
g81
I4
ssg82
g1446
sg75
(lp1453
S'8000'
p1454
asbasbasbag68
(g84
g70
NtRp1455
(dp1456
g73
(dp1457
sg82
g858
sg75
(lp1458
g68
(g89
g70
NtRp1459
(dp1460
g73
(dp1461
g93
g94
ssg82
g1455
sg75
(lp1462
S'server_protocol'
p1463
asbag68
(g89
g70
NtRp1464
(dp1465
g73
(dp1466
g100
g101
ssg82
g1455
sg75
(lp1467
S':'
asbag68
(g89
g70
NtRp1468
(dp1469
g73
(dp1470
sg82
g1455
sg75
(lp1471
g68
(g69
g70
NtRp1472
(dp1473
g73
(dp1474
g81
I4
ssg82
g1468
sg75
(lp1475
S'HTTP/1.1'
p1476
asbasbasbag68
(g84
g70
NtRp1477
(dp1478
g73
(dp1479
sg82
g858
sg75
(lp1480
g68
(g89
g70
NtRp1481
(dp1482
g73
(dp1483
g93
g94
ssg82
g1477
sg75
(lp1484
S'server_software'
p1485
asbag68
(g89
g70
NtRp1486
(dp1487
g73
(dp1488
g100
g101
ssg82
g1477
sg75
(lp1489
S':'
asbag68
(g89
g70
NtRp1490
(dp1491
g73
(dp1492
sg82
g1477
sg75
(lp1493
g68
(g69
g70
NtRp1494
(dp1495
g73
(dp1496
g81
I4
ssg82
g1490
sg75
(lp1497
S'Rocket 1.2.4'
p1498
asbasbasbag68
(g84
g70
NtRp1499
(dp1500
g73
(dp1501
sg82
g858
sg75
(lp1502
g68
(g89
g70
NtRp1503
(dp1504
g73
(dp1505
g93
g94
ssg82
g1499
sg75
(lp1506
S'web2py_crontype'
p1507
asbag68
(g89
g70
NtRp1508
(dp1509
g73
(dp1510
g100
g101
ssg82
g1499
sg75
(lp1511
S':'
asbag68
(g89
g70
NtRp1512
(dp1513
g73
(dp1514
sg82
g1499
sg75
(lp1515
g68
(g69
g70
NtRp1516
(dp1517
g73
(dp1518
g81
I4
ssg82
g1512
sg75
(lp1519
S'hard'
p1520
asbasbasbag68
(g84
g70
NtRp1521
(dp1522
g73
(dp1523
sg82
g858
sg75
(lp1524
g68
(g89
g70
NtRp1525
(dp1526
g73
(dp1527
g93
g94
ssg82
g1521
sg75
(lp1528
S'web2py_path'
p1529
asbag68
(g89
g70
NtRp1530
(dp1531
g73
(dp1532
g100
g101
ssg82
g1521
sg75
(lp1533
S':'
asbag68
(g89
g70
NtRp1534
(dp1535
g73
(dp1536
sg82
g1521
sg75
(lp1537
g68
(g69
g70
NtRp1538
(dp1539
g73
(dp1540
g81
I4
ssg82
g1534
sg75
(lp1541
g905
asbasbasbag68
(g84
g70
NtRp1542
(dp1543
g73
(dp1544
sg82
g858
sg75
(lp1545
g68
(g89
g70
NtRp1546
(dp1547
g73
(dp1548
g93
g94
ssg82
g1542
sg75
(lp1549
S'web2py_version'
p1550
asbag68
(g89
g70
NtRp1551
(dp1552
g73
(dp1553
g100
g101
ssg82
g1542
sg75
(lp1554
S':'
asbag68
(g89
g70
NtRp1555
(dp1556
g73
(dp1557
sg82
g1542
sg75
(lp1558
g68
(g69
g70
NtRp1559
(dp1560
g73
(dp1561
g81
I4
ssg82
g1555
sg75
(lp1562
g68
(g77
g70
NtRp1563
(dp1564
g73
(dp1565
g81
I3
ssg82
Nsg75
(lp1566
g68
(g84
g70
NtRp1567
(dp1568
g73
(dp1569
sg82
g1563
sg75
(lp1570
g68
(g89
g70
NtRp1571
(dp1572
g73
(dp1573
sg82
g1567
sg75
(lp1574
g68
(g69
g70
NtRp1575
(dp1576
g73
(dp1577
g81
I3
ssg82
g1571
sg75
(lp1578
S'1'
asbasbasbag68
(g84
g70
NtRp1579
(dp1580
g73
(dp1581
sg82
g1563
sg75
(lp1582
g68
(g89
g70
NtRp1583
(dp1584
g73
(dp1585
sg82
g1579
sg75
(lp1586
g68
(g69
g70
NtRp1587
(dp1588
g73
(dp1589
g81
I3
ssg82
g1583
sg75
(lp1590
S'99'
p1591
asbasbasbag68
(g84
g70
NtRp1592
(dp1593
g73
(dp1594
sg82
g1563
sg75
(lp1595
g68
(g89
g70
NtRp1596
(dp1597
g73
(dp1598
sg82
g1592
sg75
(lp1599
g68
(g69
g70
NtRp1600
(dp1601
g73
(dp1602
g81
I3
ssg82
g1596
sg75
(lp1603
S'2'
asbasbasbag68
(g84
g70
NtRp1604
(dp1605
g73
(dp1606
sg82
g1563
sg75
(lp1607
g68
(g89
g70
NtRp1608
(dp1609
g73
(dp1610
sg82
g1604
sg75
(lp1611
g68
(g69
g70
NtRp1612
(dp1613
g73
(dp1614
g81
I3
ssg82
g1608
sg75
(lp1615
S'datetime.datetime(2011, 9, 26, 6, 55, 33)'
p1616
asbasbasbag68
(g84
g70
NtRp1617
(dp1618
g73
(dp1619
sg82
g1563
sg75
(lp1620
g68
(g89
g70
NtRp1621
(dp1622
g73
(dp1623
sg82
g1617
sg75
(lp1624
g68
(g69
g70
NtRp1625
(dp1626
g73
(dp1627
g81
I3
ssg82
g1621
sg75
(lp1628
S'stable'
p1629
asbasbasbasbasbasbasbag68
(g84
g70
NtRp1630
(dp1631
g73
(dp1632
sg82
g858
sg75
(lp1633
g68
(g89
g70
NtRp1634
(dp1635
g73
(dp1636
g93
g94
ssg82
g1630
sg75
(lp1637
S'wsgi_errors'
p1638
asbag68
(g89
g70
NtRp1639
(dp1640
g73
(dp1641
g100
g101
ssg82
g1630
sg75
(lp1642
S':'
asbag68
(g89
g70
NtRp1643
(dp1644
g73
(dp1645
sg82
g1630
sg75
(lp1646
g68
(g69
g70
NtRp1647
(dp1648
g73
(dp1649
g81
I4
ssg82
g1643
sg75
(lp1650
S"<open file '<stderr>', mode 'w' at 0x7ff925b48270>"
p1651
asbasbasbag68
(g84
g70
NtRp1652
(dp1653
g73
(dp1654
sg82
g858
sg75
(lp1655
g68
(g89
g70
NtRp1656
(dp1657
g73
(dp1658
g93
g94
ssg82
g1652
sg75
(lp1659
S'wsgi_file_wrapper'
p1660
asbag68
(g89
g70
NtRp1661
(dp1662
g73
(dp1663
g100
g101
ssg82
g1652
sg75
(lp1664
S':'
asbag68
(g89
g70
NtRp1665
(dp1666
g73
(dp1667
sg82
g1652
sg75
(lp1668
g68
(g69
g70
NtRp1669
(dp1670
g73
(dp1671
g81
I4
ssg82
g1665
sg75
(lp1672
S'<class wsgiref.util.FileWrapper at 0x27b2808>'
p1673
asbasbasbag68
(g84
g70
NtRp1674
(dp1675
g73
(dp1676
sg82
g858
sg75
(lp1677
g68
(g89
g70
NtRp1678
(dp1679
g73
(dp1680
g93
g94
ssg82
g1674
sg75
(lp1681
S'wsgi_input'
p1682
asbag68
(g89
g70
NtRp1683
(dp1684
g73
(dp1685
g100
g101
ssg82
g1674
sg75
(lp1686
S':'
asbag68
(g89
g70
NtRp1687
(dp1688
g73
(dp1689
sg82
g1674
sg75
(lp1690
g68
(g69
g70
NtRp1691
(dp1692
g73
(dp1693
g81
I4
ssg82
g1687
sg75
(lp1694
S'<socket._fileobject object at 0x3bae0d0>'
p1695
asbasbasbag68
(g84
g70
NtRp1696
(dp1697
g73
(dp1698
sg82
g858
sg75
(lp1699
g68
(g89
g70
NtRp1700
(dp1701
g73
(dp1702
g93
g94
ssg82
g1696
sg75
(lp1703
S'wsgi_multiprocess'
p1704
asbag68
(g89
g70
NtRp1705
(dp1706
g73
(dp1707
g100
g101
ssg82
g1696
sg75
(lp1708
S':'
asbag68
(g89
g70
NtRp1709
(dp1710
g73
(dp1711
sg82
g1696
sg75
(lp1712
g68
(g69
g70
NtRp1713
(dp1714
g73
(dp1715
g81
I4
ssg82
g1709
sg75
(lp1716
g111
asbasbasbag68
(g84
g70
NtRp1717
(dp1718
g73
(dp1719
sg82
g858
sg75
(lp1720
g68
(g89
g70
NtRp1721
(dp1722
g73
(dp1723
g93
g94
ssg82
g1717
sg75
(lp1724
S'wsgi_multithread'
p1725
asbag68
(g89
g70
NtRp1726
(dp1727
g73
(dp1728
g100
g101
ssg82
g1717
sg75
(lp1729
S':'
asbag68
(g89
g70
NtRp1730
(dp1731
g73
(dp1732
sg82
g1717
sg75
(lp1733
g68
(g69
g70
NtRp1734
(dp1735
g73
(dp1736
g81
I4
ssg82
g1730
sg75
(lp1737
S'True'
p1738
asbasbasbag68
(g84
g70
NtRp1739
(dp1740
g73
(dp1741
sg82
g858
sg75
(lp1742
g68
(g89
g70
NtRp1743
(dp1744
g73
(dp1745
g93
g94
ssg82
g1739
sg75
(lp1746
S'wsgi_run_once'
p1747
asbag68
(g89
g70
NtRp1748
(dp1749
g73
(dp1750
g100
g101
ssg82
g1739
sg75
(lp1751
S':'
asbag68
(g89
g70
NtRp1752
(dp1753
g73
(dp1754
sg82
g1739
sg75
(lp1755
g68
(g69
g70
NtRp1756
(dp1757
g73
(dp1758
g81
I4
ssg82
g1752
sg75
(lp1759
g111
asbasbasbag68
(g84
g70
NtRp1760
(dp1761
g73
(dp1762
sg82
g858
sg75
(lp1763
g68
(g89
g70
NtRp1764
(dp1765
g73
(dp1766
g93
g94
ssg82
g1760
sg75
(lp1767
S'wsgi_url_scheme'
p1768
asbag68
(g89
g70
NtRp1769
(dp1770
g73
(dp1771
g100
g101
ssg82
g1760
sg75
(lp1772
S':'
asbag68
(g89
g70
NtRp1773
(dp1774
g73
(dp1775
sg82
g1760
sg75
(lp1776
g68
(g69
g70
NtRp1777
(dp1778
g73
(dp1779
g81
I4
ssg82
g1773
sg75
(lp1780
S'http'
p1781
asbasbasbag68
(g84
g70
NtRp1782
(dp1783
g73
(dp1784
sg82
g858
sg75
(lp1785
g68
(g89
g70
NtRp1786
(dp1787
g73
(dp1788
g93
g94
ssg82
g1782
sg75
(lp1789
S'wsgi_version'
p1790
asbag68
(g89
g70
NtRp1791
(dp1792
g73
(dp1793
g100
g101
ssg82
g1782
sg75
(lp1794
S':'
asbag68
(g89
g70
NtRp1795
(dp1796
g73
(dp1797
sg82
g1782
sg75
(lp1798
g68
(g69
g70
NtRp1799
(dp1800
g73
(dp1801
g81
I4
ssg82
g1795
sg75
(lp1802
g68
(g77
g70
NtRp1803
(dp1804
g73
(dp1805
g81
I3
ssg82
Nsg75
(lp1806
g68
(g84
g70
NtRp1807
(dp1808
g73
(dp1809
sg82
g1803
sg75
(lp1810
g68
(g89
g70
NtRp1811
(dp1812
g73
(dp1813
sg82
g1807
sg75
(lp1814
g68
(g69
g70
NtRp1815
(dp1816
g73
(dp1817
g81
I3
ssg82
g1811
sg75
(lp1818
S'1'
asbasbasbag68
(g84
g70
NtRp1819
(dp1820
g73
(dp1821
sg82
g1803
sg75
(lp1822
g68
(g89
g70
NtRp1823
(dp1824
g73
(dp1825
sg82
g1819
sg75
(lp1826
g68
(g69
g70
NtRp1827
(dp1828
g73
(dp1829
g81
I3
ssg82
g1823
sg75
(lp1830
S'0'
asbasbasbasbasbasbasbasbasbasbasbag68
(g84
g70
NtRp1831
(dp1832
g73
(dp1833
sg82
g78
sg75
(lp1834
g68
(g89
g70
NtRp1835
(dp1836
g73
(dp1837
g93
g94
ssg82
g1831
sg75
(lp1838
S'extension'
p1839
asbag68
(g89
g70
NtRp1840
(dp1841
g73
(dp1842
g100
g101
ssg82
g1831
sg75
(lp1843
S':'
asbag68
(g89
g70
NtRp1844
(dp1845
g73
(dp1846
sg82
g1831
sg75
(lp1847
g68
(g69
g70
NtRp1848
(dp1849
g73
(dp1850
g81
I5
ssg82
g1844
sg75
(lp1851
S'html'
p1852
asbasbasbag68
(g84
g70
NtRp1853
(dp1854
g73
(dp1855
sg82
g78
sg75
(lp1856
g68
(g89
g70
NtRp1857
(dp1858
g73
(dp1859
g93
g94
ssg82
g1853
sg75
(lp1860
S'folder'
p1861
asbag68
(g89
g70
NtRp1862
(dp1863
g73
(dp1864
g100
g101
ssg82
g1853
sg75
(lp1865
S':'
asbag68
(g89
g70
NtRp1866
(dp1867
g73
(dp1868
sg82
g1853
sg75
(lp1869
g68
(g69
g70
NtRp1870
(dp1871
g73
(dp1872
g81
I5
ssg82
g1866
sg75
(lp1873
S'/home/ian/web2py/applications/topoi/'
p1874
asbasbasbag68
(g84
g70
NtRp1875
(dp1876
g73
(dp1877
sg82
g78
sg75
(lp1878
g68
(g89
g70
NtRp1879
(dp1880
g73
(dp1881
g93
g94
ssg82
g1875
sg75
(lp1882
S'function'
p1883
asbag68
(g89
g70
NtRp1884
(dp1885
g73
(dp1886
g100
g101
ssg82
g1875
sg75
(lp1887
S':'
asbag68
(g89
g70
NtRp1888
(dp1889
g73
(dp1890
sg82
g1875
sg75
(lp1891
g68
(g69
g70
NtRp1892
(dp1893
g73
(dp1894
g81
I5
ssg82
g1888
sg75
(lp1895
S'list'
p1896
asbasbasbag68
(g84
g70
NtRp1897
(dp1898
g73
(dp1899
sg82
g78
sg75
(lp1900
g68
(g89
g70
NtRp1901
(dp1902
g73
(dp1903
g93
g94
ssg82
g1897
sg75
(lp1904
S'get_vars'
p1905
asbag68
(g89
g70
NtRp1906
(dp1907
g73
(dp1908
g100
g101
ssg82
g1897
sg75
(lp1909
S':'
asbag68
(g89
g70
NtRp1910
(dp1911
g73
(dp1912
sg82
g1897
sg75
(lp1913
g68
(g69
g70
NtRp1914
(dp1915
g73
(dp1916
g81
I5
ssg82
g1910
sg75
(lp1917
g68
(g77
g70
NtRp1918
(dp1919
g73
(dp1920
g81
I4
ssg82
Nsg75
(lp1921
g68
(g84
g70
NtRp1922
(dp1923
g73
(dp1924
sg82
g1918
sg75
(lp1925
g68
(g89
g70
NtRp1926
(dp1927
g73
(dp1928
g93
g94
ssg82
g1922
sg75
(lp1929
S'fields'
p1930
asbag68
(g89
g70
NtRp1931
(dp1932
g73
(dp1933
g100
g101
ssg82
g1922
sg75
(lp1934
S':'
asbag68
(g89
g70
NtRp1935
(dp1936
g73
(dp1937
sg82
g1922
sg75
(lp1938
g68
(g69
g70
NtRp1939
(dp1940
g73
(dp1941
g81
I4
ssg82
g1935
sg75
(lp1942
S'reference'
p1943
asbasbasbasbasbasbasbag68
(g84
g70
NtRp1944
(dp1945
g73
(dp1946
sg82
g78
sg75
(lp1947
g68
(g89
g70
NtRp1948
(dp1949
g73
(dp1950
g93
g94
ssg82
g1944
sg75
(lp1951
S'global_settings'
p1952
asbag68
(g89
g70
NtRp1953
(dp1954
g73
(dp1955
g100
g101
ssg82
g1944
sg75
(lp1956
S':'
asbag68
(g89
g70
NtRp1957
(dp1958
g73
(dp1959
sg82
g1944
sg75
(lp1960
g68
(g69
g70
NtRp1961
(dp1962
g73
(dp1963
g81
I5
ssg82
g1957
sg75
(lp1964
g68
(g77
g70
NtRp1965
(dp1966
g73
(dp1967
g81
I4
ssg82
Nsg75
(lp1968
g68
(g84
g70
NtRp1969
(dp1970
g73
(dp1971
sg82
g1965
sg75
(lp1972
g68
(g89
g70
NtRp1973
(dp1974
g73
(dp1975
g93
g94
ssg82
g1969
sg75
(lp1976
g870
asbag68
(g89
g70
NtRp1977
(dp1978
g73
(dp1979
g100
g101
ssg82
g1969
sg75
(lp1980
S':'
asbag68
(g89
g70
NtRp1981
(dp1982
g73
(dp1983
sg82
g1969
sg75
(lp1984
g68
(g69
g70
NtRp1985
(dp1986
g73
(dp1987
g81
I4
ssg82
g1981
sg75
(lp1988
S"set(['/home/ian/web2py/applications/topoi/', '/home/ian/web2py/applications/welcome/', '/home/ian/web2py/applications/admin/'])"
p1989
asbasbasbag68
(g84
g70
NtRp1990
(dp1991
g73
(dp1992
sg82
g1965
sg75
(lp1993
g68
(g89
g70
NtRp1994
(dp1995
g73
(dp1996
g93
g94
ssg82
g1990
sg75
(lp1997
g892
asbag68
(g89
g70
NtRp1998
(dp1999
g73
(dp2000
g100
g101
ssg82
g1990
sg75
(lp2001
S':'
asbag68
(g89
g70
NtRp2002
(dp2003
g73
(dp2004
sg82
g1990
sg75
(lp2005
g68
(g69
g70
NtRp2006
(dp2007
g73
(dp2008
g81
I4
ssg82
g2002
sg75
(lp2009
g905
asbasbasbag68
(g84
g70
NtRp2010
(dp2011
g73
(dp2012
sg82
g1965
sg75
(lp2013
g68
(g89
g70
NtRp2014
(dp2015
g73
(dp2016
g93
g94
ssg82
g2010
sg75
(lp2017
g914
asbag68
(g89
g70
NtRp2018
(dp2019
g73
(dp2020
g100
g101
ssg82
g2010
sg75
(lp2021
S':'
asbag68
(g89
g70
NtRp2022
(dp2023
g73
(dp2024
sg82
g2010
sg75
(lp2025
g68
(g69
g70
NtRp2026
(dp2027
g73
(dp2028
g81
I4
ssg82
g2022
sg75
(lp2029
g68
(g77
g70
NtRp2030
(dp2031
g73
(dp2032
g81
I3
ssg82
Nsg75
(lp2033
sbasbasbasbag68
(g84
g70
NtRp2034
(dp2035
g73
(dp2036
sg82
g1965
sg75
(lp2037
g68
(g89
g70
NtRp2038
(dp2039
g73
(dp2040
g93
g94
ssg82
g2034
sg75
(lp2041
g939
asbag68
(g89
g70
NtRp2042
(dp2043
g73
(dp2044
g100
g101
ssg82
g2034
sg75
(lp2045
S':'
asbag68
(g89
g70
NtRp2046
(dp2047
g73
(dp2048
sg82
g2034
sg75
(lp2049
g68
(g69
g70
NtRp2050
(dp2051
g73
(dp2052
g81
I4
ssg82
g2046
sg75
(lp2053
S"<Values at 0x28e97e8: {'verbose': False, 'ip': '127.0.0.1', 'shutdown_timeout': 5, 'taskbar': False, 'nocron': False, 'pid_filename': 'httpserver.pid', 'maxthreads': None, 'softcron': False, 'server_name': 'Ariel-ubuntu', 'bpython': False, 'nogui': False, 'port': 8000, 'extcron': False, 'debuglevel': 30, 'test': None, 'folder': '/home/ian/web2py', 'config': '', 'import_models': False, 'winservice': '', 'shell': None, 'run': '', 'log_filename': 'httpserver.log', 'args': [''], 'ssl_ca_certificate': None, 'scheduler': None, 'profiler_filename': None, 'ssl_private_key': '', 'password': '<ask>', 'request_queue_size': 5, 'ssl_certificate': '', 'cronjob': False, 'plain': False, 'quiet': False, 'interfaces': None, 'minthreads': None, 'timeout': 10, 'numthreads': None, 'nobanner': False}>"
p2054
asbasbasbag68
(g84
g70
NtRp2055
(dp2056
g73
(dp2057
sg82
g1965
sg75
(lp2058
g68
(g89
g70
NtRp2059
(dp2060
g73
(dp2061
g93
g94
ssg82
g2055
sg75
(lp2062
g961
asbag68
(g89
g70
NtRp2063
(dp2064
g73
(dp2065
g100
g101
ssg82
g2055
sg75
(lp2066
S':'
asbag68
(g89
g70
NtRp2067
(dp2068
g73
(dp2069
sg82
g2055
sg75
(lp2070
g68
(g69
g70
NtRp2071
(dp2072
g73
(dp2073
g81
I4
ssg82
g2067
sg75
(lp2074
S'set([])'
p2075
asbasbasbag68
(g84
g70
NtRp2076
(dp2077
g73
(dp2078
sg82
g1965
sg75
(lp2079
g68
(g89
g70
NtRp2080
(dp2081
g73
(dp2082
g93
g94
ssg82
g2076
sg75
(lp2083
g983
asbag68
(g89
g70
NtRp2084
(dp2085
g73
(dp2086
g100
g101
ssg82
g2076
sg75
(lp2087
S':'
asbag68
(g89
g70
NtRp2088
(dp2089
g73
(dp2090
sg82
g2076
sg75
(lp2091
g68
(g69
g70
NtRp2092
(dp2093
g73
(dp2094
g81
I4
ssg82
g2088
sg75
(lp2095
g111
asbasbasbag68
(g84
g70
NtRp2096
(dp2097
g73
(dp2098
sg82
g1965
sg75
(lp2099
g68
(g89
g70
NtRp2100
(dp2101
g73
(dp2102
g93
g94
ssg82
g2096
sg75
(lp2103
g1004
asbag68
(g89
g70
NtRp2104
(dp2105
g73
(dp2106
g100
g101
ssg82
g2096
sg75
(lp2107
S':'
asbag68
(g89
g70
NtRp2108
(dp2109
g73
(dp2110
sg82
g2096
sg75
(lp2111
g68
(g69
g70
NtRp2112
(dp2113
g73
(dp2114
g81
I4
ssg82
g2108
sg75
(lp2115
g1017
asbasbasbag68
(g84
g70
NtRp2116
(dp2117
g73
(dp2118
sg82
g1965
sg75
(lp2119
g68
(g89
g70
NtRp2120
(dp2121
g73
(dp2122
g93
g94
ssg82
g2116
sg75
(lp2123
g1268
asbag68
(g89
g70
NtRp2124
(dp2125
g73
(dp2126
g100
g101
ssg82
g2116
sg75
(lp2127
S':'
asbag68
(g89
g70
NtRp2128
(dp2129
g73
(dp2130
sg82
g2116
sg75
(lp2131
g68
(g69
g70
NtRp2132
(dp2133
g73
(dp2134
g81
I4
ssg82
g2128
sg75
(lp2135
g111
asbasbasbag68
(g84
g70
NtRp2136
(dp2137
g73
(dp2138
sg82
g1965
sg75
(lp2139
g68
(g89
g70
NtRp2140
(dp2141
g73
(dp2142
g93
g94
ssg82
g2136
sg75
(lp2143
g1507
asbag68
(g89
g70
NtRp2144
(dp2145
g73
(dp2146
g100
g101
ssg82
g2136
sg75
(lp2147
S':'
asbag68
(g89
g70
NtRp2148
(dp2149
g73
(dp2150
sg82
g2136
sg75
(lp2151
g68
(g69
g70
NtRp2152
(dp2153
g73
(dp2154
g81
I4
ssg82
g2148
sg75
(lp2155
g1520
asbasbasbag68
(g84
g70
NtRp2156
(dp2157
g73
(dp2158
sg82
g1965
sg75
(lp2159
g68
(g89
g70
NtRp2160
(dp2161
g73
(dp2162
g93
g94
ssg82
g2156
sg75
(lp2163
g1550
asbag68
(g89
g70
NtRp2164
(dp2165
g73
(dp2166
g100
g101
ssg82
g2156
sg75
(lp2167
S':'
asbag68
(g89
g70
NtRp2168
(dp2169
g73
(dp2170
sg82
g2156
sg75
(lp2171
g68
(g69
g70
NtRp2172
(dp2173
g73
(dp2174
g81
I4
ssg82
g2168
sg75
(lp2175
g68
(g77
g70
NtRp2176
(dp2177
g73
(dp2178
g81
I3
ssg82
Nsg75
(lp2179
g68
(g84
g70
NtRp2180
(dp2181
g73
(dp2182
sg82
g2176
sg75
(lp2183
g68
(g89
g70
NtRp2184
(dp2185
g73
(dp2186
sg82
g2180
sg75
(lp2187
g68
(g69
g70
NtRp2188
(dp2189
g73
(dp2190
g81
I3
ssg82
g2184
sg75
(lp2191
S'1'
asbasbasbag68
(g84
g70
NtRp2192
(dp2193
g73
(dp2194
sg82
g2176
sg75
(lp2195
g68
(g89
g70
NtRp2196
(dp2197
g73
(dp2198
sg82
g2192
sg75
(lp2199
g68
(g69
g70
NtRp2200
(dp2201
g73
(dp2202
g81
I3
ssg82
g2196
sg75
(lp2203
S'99'
p2204
asbasbasbag68
(g84
g70
NtRp2205
(dp2206
g73
(dp2207
sg82
g2176
sg75
(lp2208
g68
(g89
g70
NtRp2209
(dp2210
g73
(dp2211
sg82
g2205
sg75
(lp2212
g68
(g69
g70
NtRp2213
(dp2214
g73
(dp2215
g81
I3
ssg82
g2209
sg75
(lp2216
S'2'
asbasbasbag68
(g84
g70
NtRp2217
(dp2218
g73
(dp2219
sg82
g2176
sg75
(lp2220
g68
(g89
g70
NtRp2221
(dp2222
g73
(dp2223
sg82
g2217
sg75
(lp2224
g68
(g69
g70
NtRp2225
(dp2226
g73
(dp2227
g81
I3
ssg82
g2221
sg75
(lp2228
S'datetime.datetime(2011, 9, 26, 6, 55, 33)'
p2229
asbasbasbag68
(g84
g70
NtRp2230
(dp2231
g73
(dp2232
sg82
g2176
sg75
(lp2233
g68
(g89
g70
NtRp2234
(dp2235
g73
(dp2236
sg82
g2230
sg75
(lp2237
g68
(g69
g70
NtRp2238
(dp2239
g73
(dp2240
g81
I3
ssg82
g2234
sg75
(lp2241
g1629
asbasbasbasbasbasbasbasbasbasbasbag68
(g84
g70
NtRp2242
(dp2243
g73
(dp2244
sg82
g78
sg75
(lp2245
g68
(g89
g70
NtRp2246
(dp2247
g73
(dp2248
g93
g94
ssg82
g2242
sg75
(lp2249
S'is_https'
p2250
asbag68
(g89
g70
NtRp2251
(dp2252
g73
(dp2253
g100
g101
ssg82
g2242
sg75
(lp2254
S':'
asbag68
(g89
g70
NtRp2255
(dp2256
g73
(dp2257
sg82
g2242
sg75
(lp2258
g68
(g69
g70
NtRp2259
(dp2260
g73
(dp2261
g81
I5
ssg82
g2255
sg75
(lp2262
g111
asbasbasbag68
(g84
g70
NtRp2263
(dp2264
g73
(dp2265
sg82
g78
sg75
(lp2266
g68
(g89
g70
NtRp2267
(dp2268
g73
(dp2269
g93
g94
ssg82
g2263
sg75
(lp2270
S'is_local'
p2271
asbag68
(g89
g70
NtRp2272
(dp2273
g73
(dp2274
g100
g101
ssg82
g2263
sg75
(lp2275
S':'
asbag68
(g89
g70
NtRp2276
(dp2277
g73
(dp2278
sg82
g2263
sg75
(lp2279
g68
(g69
g70
NtRp2280
(dp2281
g73
(dp2282
g81
I5
ssg82
g2276
sg75
(lp2283
g1738
asbasbasbag68
(g84
g70
NtRp2284
(dp2285
g73
(dp2286
sg82
g78
sg75
(lp2287
g68
(g89
g70
NtRp2288
(dp2289
g73
(dp2290
g93
g94
ssg82
g2284
sg75
(lp2291
S'is_restful'
p2292
asbag68
(g89
g70
NtRp2293
(dp2294
g73
(dp2295
g100
g101
ssg82
g2284
sg75
(lp2296
S':'
asbag68
(g89
g70
NtRp2297
(dp2298
g73
(dp2299
sg82
g2284
sg75
(lp2300
g68
(g69
g70
NtRp2301
(dp2302
g73
(dp2303
g81
I5
ssg82
g2297
sg75
(lp2304
g111
asbasbasbag68
(g84
g70
NtRp2305
(dp2306
g73
(dp2307
sg82
g78
sg75
(lp2308
g68
(g89
g70
NtRp2309
(dp2310
g73
(dp2311
g93
g94
ssg82
g2305
sg75
(lp2312
S'now'
p2313
asbag68
(g89
g70
NtRp2314
(dp2315
g73
(dp2316
g100
g101
ssg82
g2305
sg75
(lp2317
S':'
asbag68
(g89
g70
NtRp2318
(dp2319
g73
(dp2320
sg82
g2305
sg75
(lp2321
g68
(g69
g70
NtRp2322
(dp2323
g73
(dp2324
g81
I5
ssg82
g2318
sg75
(lp2325
S'datetime.datetime(2011, 12, 1, 14, 8, 49, 628359)'
p2326
asbasbasbag68
(g84
g70
NtRp2327
(dp2328
g73
(dp2329
sg82
g78
sg75
(lp2330
g68
(g89
g70
NtRp2331
(dp2332
g73
(dp2333
g93
g94
ssg82
g2327
sg75
(lp2334
S'post_vars'
p2335
asbag68
(g89
g70
NtRp2336
(dp2337
g73
(dp2338
g100
g101
ssg82
g2327
sg75
(lp2339
S':'
asbag68
(g89
g70
NtRp2340
(dp2341
g73
(dp2342
sg82
g2327
sg75
(lp2343
g68
(g69
g70
NtRp2344
(dp2345
g73
(dp2346
g81
I5
ssg82
g2340
sg75
(lp2347
g68
(g77
g70
NtRp2348
(dp2349
g73
(dp2350
g81
I4
ssg82
Nsg75
(lp2351
sbasbasbasbag68
(g84
g70
NtRp2352
(dp2353
g73
(dp2354
sg82
g78
sg75
(lp2355
g68
(g89
g70
NtRp2356
(dp2357
g73
(dp2358
g93
g94
ssg82
g2352
sg75
(lp2359
S'raw_args'
p2360
asbag68
(g89
g70
NtRp2361
(dp2362
g73
(dp2363
g100
g101
ssg82
g2352
sg75
(lp2364
S':'
asbag68
(g89
g70
NtRp2365
(dp2366
g73
(dp2367
sg82
g2352
sg75
(lp2368
g68
(g69
g70
NtRp2369
(dp2370
g73
(dp2371
g81
I5
ssg82
g2365
sg75
(lp2372
S'notes/1'
p2373
asbasbasbag68
(g84
g70
NtRp2374
(dp2375
g73
(dp2376
sg82
g78
sg75
(lp2377
g68
(g89
g70
NtRp2378
(dp2379
g73
(dp2380
g93
g94
ssg82
g2374
sg75
(lp2381
S'url'
p2382
asbag68
(g89
g70
NtRp2383
(dp2384
g73
(dp2385
g100
g101
ssg82
g2374
sg75
(lp2386
S':'
asbag68
(g89
g70
NtRp2387
(dp2388
g73
(dp2389
sg82
g2374
sg75
(lp2390
g68
(g69
g70
NtRp2391
(dp2392
g73
(dp2393
g81
I5
ssg82
g2387
sg75
(lp2394
S'/topoi/plugin_listandedit/list/notes/1'
p2395
asbasbasbag68
(g84
g70
NtRp2396
(dp2397
g73
(dp2398
sg82
g78
sg75
(lp2399
g68
(g89
g70
NtRp2400
(dp2401
g73
(dp2402
g93
g94
ssg82
g2396
sg75
(lp2403
S'utcnow'
p2404
asbag68
(g89
g70
NtRp2405
(dp2406
g73
(dp2407
g100
g101
ssg82
g2396
sg75
(lp2408
S':'
asbag68
(g89
g70
NtRp2409
(dp2410
g73
(dp2411
sg82
g2396
sg75
(lp2412
g68
(g69
g70
NtRp2413
(dp2414
g73
(dp2415
g81
I5
ssg82
g2409
sg75
(lp2416
S'datetime.datetime(2011, 12, 1, 19, 8, 49, 628407)'
p2417
asbasbasbag68
(g84
g70
NtRp2418
(dp2419
g73
(dp2420
sg82
g78
sg75
(lp2421
g68
(g89
g70
NtRp2422
(dp2423
g73
(dp2424
g93
g94
ssg82
g2418
sg75
(lp2425
S'uuid'
p2426
asbag68
(g89
g70
NtRp2427
(dp2428
g73
(dp2429
g100
g101
ssg82
g2418
sg75
(lp2430
S':'
asbag68
(g89
g70
NtRp2431
(dp2432
g73
(dp2433
sg82
g2418
sg75
(lp2434
g68
(g69
g70
NtRp2435
(dp2436
g73
(dp2437
g81
I5
ssg82
g2431
sg75
(lp2438
S'topoi/127.0.0.1.2011-12-01.14-08-49.ea17dac8-189b-4af1-afbd-be7622b9ae92'
p2439
asbasbasbag68
(g84
g70
NtRp2440
(dp2441
g73
(dp2442
sg82
g78
sg75
(lp2443
g68
(g89
g70
NtRp2444
(dp2445
g73
(dp2446
g93
g94
ssg82
g2440
sg75
(lp2447
S'vars'
p2448
asbag68
(g89
g70
NtRp2449
(dp2450
g73
(dp2451
g100
g101
ssg82
g2440
sg75
(lp2452
S':'
asbag68
(g89
g70
NtRp2453
(dp2454
g73
(dp2455
sg82
g2440
sg75
(lp2456
g68
(g69
g70
NtRp2457
(dp2458
g73
(dp2459
g81
I5
ssg82
g2453
sg75
(lp2460
g68
(g77
g70
NtRp2461
(dp2462
g73
(dp2463
g81
I4
ssg82
Nsg75
(lp2464
g68
(g84
g70
NtRp2465
(dp2466
g73
(dp2467
sg82
g2461
sg75
(lp2468
g68
(g89
g70
NtRp2469
(dp2470
g73
(dp2471
g93
g94
ssg82
g2465
sg75
(lp2472
g1930
asbag68
(g89
g70
NtRp2473
(dp2474
g73
(dp2475
g100
g101
ssg82
g2465
sg75
(lp2476
S':'
asbag68
(g89
g70
NtRp2477
(dp2478
g73
(dp2479
sg82
g2465
sg75
(lp2480
g68
(g69
g70
NtRp2481
(dp2482
g73
(dp2483
g81
I4
ssg82
g2477
sg75
(lp2484
g1943
asbasbasbasbasbasbasbag68
(g84
g70
NtRp2485
(dp2486
g73
(dp2487
sg82
g78
sg75
(lp2488
g68
(g89
g70
NtRp2489
(dp2490
g73
(dp2491
g93
g94
ssg82
g2485
sg75
(lp2492
S'wsgi'
p2493
asbag68
(g89
g70
NtRp2494
(dp2495
g73
(dp2496
g100
g101
ssg82
g2485
sg75
(lp2497
S':'
asbag68
(g89
g70
NtRp2498
(dp2499
g73
(dp2500
sg82
g2485
sg75
(lp2501
g68
(g69
g70
NtRp2502
(dp2503
g73
(dp2504
g81
I5
ssg82
g2498
sg75
(lp2505
g68
(g77
g70
NtRp2506
(dp2507
g73
(dp2508
g81
I4
ssg82
Nsg75
(lp2509
g68
(g84
g70
NtRp2510
(dp2511
g73
(dp2512
sg82
g2506
sg75
(lp2513
g68
(g89
g70
NtRp2514
(dp2515
g73
(dp2516
g93
g94
ssg82
g2510
sg75
(lp2517
S'environ'
p2518
asbag68
(g89
g70
NtRp2519
(dp2520
g73
(dp2521
g100
g101
ssg82
g2510
sg75
(lp2522
S':'
asbag68
(g89
g70
NtRp2523
(dp2524
g73
(dp2525
sg82
g2510
sg75
(lp2526
g68
(g69
g70
NtRp2527
(dp2528
g73
(dp2529
g81
I4
ssg82
g2523
sg75
(lp2530
g68
(g77
g70
NtRp2531
(dp2532
g73
(dp2533
g81
I3
ssg82
Nsg75
(lp2534
g68
(g84
g70
NtRp2535
(dp2536
g73
(dp2537
sg82
g2531
sg75
(lp2538
g68
(g89
g70
NtRp2539
(dp2540
g73
(dp2541
g93
g94
ssg82
g2535
sg75
(lp2542
S'HTTP_ACCEPT'
p2543
asbag68
(g89
g70
NtRp2544
(dp2545
g73
(dp2546
g100
g101
ssg82
g2535
sg75
(lp2547
S':'
asbag68
(g89
g70
NtRp2548
(dp2549
g73
(dp2550
sg82
g2535
sg75
(lp2551
g68
(g69
g70
NtRp2552
(dp2553
g73
(dp2554
g81
I3
ssg82
g2548
sg75
(lp2555
g1039
asbasbasbag68
(g84
g70
NtRp2556
(dp2557
g73
(dp2558
sg82
g2531
sg75
(lp2559
g68
(g89
g70
NtRp2560
(dp2561
g73
(dp2562
g93
g94
ssg82
g2556
sg75
(lp2563
S'HTTP_ACCEPT_CHARSET'
p2564
asbag68
(g89
g70
NtRp2565
(dp2566
g73
(dp2567
g100
g101
ssg82
g2556
sg75
(lp2568
S':'
asbag68
(g89
g70
NtRp2569
(dp2570
g73
(dp2571
sg82
g2556
sg75
(lp2572
g68
(g69
g70
NtRp2573
(dp2574
g73
(dp2575
g81
I3
ssg82
g2569
sg75
(lp2576
g1061
asbasbasbag68
(g84
g70
NtRp2577
(dp2578
g73
(dp2579
sg82
g2531
sg75
(lp2580
g68
(g89
g70
NtRp2581
(dp2582
g73
(dp2583
g93
g94
ssg82
g2577
sg75
(lp2584
S'HTTP_ACCEPT_ENCODING'
p2585
asbag68
(g89
g70
NtRp2586
(dp2587
g73
(dp2588
g100
g101
ssg82
g2577
sg75
(lp2589
S':'
asbag68
(g89
g70
NtRp2590
(dp2591
g73
(dp2592
sg82
g2577
sg75
(lp2593
g68
(g69
g70
NtRp2594
(dp2595
g73
(dp2596
g81
I3
ssg82
g2590
sg75
(lp2597
g1083
asbasbasbag68
(g84
g70
NtRp2598
(dp2599
g73
(dp2600
sg82
g2531
sg75
(lp2601
g68
(g89
g70
NtRp2602
(dp2603
g73
(dp2604
g93
g94
ssg82
g2598
sg75
(lp2605
S'HTTP_ACCEPT_LANGUAGE'
p2606
asbag68
(g89
g70
NtRp2607
(dp2608
g73
(dp2609
g100
g101
ssg82
g2598
sg75
(lp2610
S':'
asbag68
(g89
g70
NtRp2611
(dp2612
g73
(dp2613
sg82
g2598
sg75
(lp2614
g68
(g69
g70
NtRp2615
(dp2616
g73
(dp2617
g81
I3
ssg82
g2611
sg75
(lp2618
g1105
asbasbasbag68
(g84
g70
NtRp2619
(dp2620
g73
(dp2621
sg82
g2531
sg75
(lp2622
g68
(g89
g70
NtRp2623
(dp2624
g73
(dp2625
g93
g94
ssg82
g2619
sg75
(lp2626
S'HTTP_CACHE_CONTROL'
p2627
asbag68
(g89
g70
NtRp2628
(dp2629
g73
(dp2630
g100
g101
ssg82
g2619
sg75
(lp2631
S':'
asbag68
(g89
g70
NtRp2632
(dp2633
g73
(dp2634
sg82
g2619
sg75
(lp2635
g68
(g69
g70
NtRp2636
(dp2637
g73
(dp2638
g81
I3
ssg82
g2632
sg75
(lp2639
g1127
asbasbasbag68
(g84
g70
NtRp2640
(dp2641
g73
(dp2642
sg82
g2531
sg75
(lp2643
g68
(g89
g70
NtRp2644
(dp2645
g73
(dp2646
g93
g94
ssg82
g2640
sg75
(lp2647
S'HTTP_CONNECTION'
p2648
asbag68
(g89
g70
NtRp2649
(dp2650
g73
(dp2651
g100
g101
ssg82
g2640
sg75
(lp2652
S':'
asbag68
(g89
g70
NtRp2653
(dp2654
g73
(dp2655
sg82
g2640
sg75
(lp2656
g68
(g69
g70
NtRp2657
(dp2658
g73
(dp2659
g81
I3
ssg82
g2653
sg75
(lp2660
g1149
asbasbasbag68
(g84
g70
NtRp2661
(dp2662
g73
(dp2663
sg82
g2531
sg75
(lp2664
g68
(g89
g70
NtRp2665
(dp2666
g73
(dp2667
g93
g94
ssg82
g2661
sg75
(lp2668
S'HTTP_COOKIE'
p2669
asbag68
(g89
g70
NtRp2670
(dp2671
g73
(dp2672
g100
g101
ssg82
g2661
sg75
(lp2673
S':'
asbag68
(g89
g70
NtRp2674
(dp2675
g73
(dp2676
sg82
g2661
sg75
(lp2677
g68
(g69
g70
NtRp2678
(dp2679
g73
(dp2680
g81
I3
ssg82
g2674
sg75
(lp2681
g1171
asbasbasbag68
(g84
g70
NtRp2682
(dp2683
g73
(dp2684
sg82
g2531
sg75
(lp2685
g68
(g89
g70
NtRp2686
(dp2687
g73
(dp2688
g93
g94
ssg82
g2682
sg75
(lp2689
S'HTTP_HOST'
p2690
asbag68
(g89
g70
NtRp2691
(dp2692
g73
(dp2693
g100
g101
ssg82
g2682
sg75
(lp2694
S':'
asbag68
(g89
g70
NtRp2695
(dp2696
g73
(dp2697
sg82
g2682
sg75
(lp2698
g68
(g69
g70
NtRp2699
(dp2700
g73
(dp2701
g81
I3
ssg82
g2695
sg75
(lp2702
g1193
asbasbasbag68
(g84
g70
NtRp2703
(dp2704
g73
(dp2705
sg82
g2531
sg75
(lp2706
g68
(g89
g70
NtRp2707
(dp2708
g73
(dp2709
g93
g94
ssg82
g2703
sg75
(lp2710
S'HTTP_REFERER'
p2711
asbag68
(g89
g70
NtRp2712
(dp2713
g73
(dp2714
g100
g101
ssg82
g2703
sg75
(lp2715
S':'
asbag68
(g89
g70
NtRp2716
(dp2717
g73
(dp2718
sg82
g2703
sg75
(lp2719
g68
(g69
g70
NtRp2720
(dp2721
g73
(dp2722
g81
I3
ssg82
g2716
sg75
(lp2723
g1215
asbasbasbag68
(g84
g70
NtRp2724
(dp2725
g73
(dp2726
sg82
g2531
sg75
(lp2727
g68
(g89
g70
NtRp2728
(dp2729
g73
(dp2730
g93
g94
ssg82
g2724
sg75
(lp2731
S'HTTP_USER_AGENT'
p2732
asbag68
(g89
g70
NtRp2733
(dp2734
g73
(dp2735
g100
g101
ssg82
g2724
sg75
(lp2736
S':'
asbag68
(g89
g70
NtRp2737
(dp2738
g73
(dp2739
sg82
g2724
sg75
(lp2740
g68
(g69
g70
NtRp2741
(dp2742
g73
(dp2743
g81
I3
ssg82
g2737
sg75
(lp2744
g1237
asbasbasbag68
(g84
g70
NtRp2745
(dp2746
g73
(dp2747
sg82
g2531
sg75
(lp2748
g68
(g89
g70
NtRp2749
(dp2750
g73
(dp2751
g93
g94
ssg82
g2745
sg75
(lp2752
S'HTTP_X_INSIGHT'
p2753
asbag68
(g89
g70
NtRp2754
(dp2755
g73
(dp2756
g100
g101
ssg82
g2745
sg75
(lp2757
S':'
asbag68
(g89
g70
NtRp2758
(dp2759
g73
(dp2760
sg82
g2745
sg75
(lp2761
g68
(g69
g70
NtRp2762
(dp2763
g73
(dp2764
g81
I3
ssg82
g2758
sg75
(lp2765
g1259
asbasbasbag68
(g84
g70
NtRp2766
(dp2767
g73
(dp2768
sg82
g2531
sg75
(lp2769
g68
(g89
g70
NtRp2770
(dp2771
g73
(dp2772
g93
g94
ssg82
g2766
sg75
(lp2773
S'PATH_INFO'
p2774
asbag68
(g89
g70
NtRp2775
(dp2776
g73
(dp2777
g100
g101
ssg82
g2766
sg75
(lp2778
S':'
asbag68
(g89
g70
NtRp2779
(dp2780
g73
(dp2781
sg82
g2766
sg75
(lp2782
g68
(g69
g70
NtRp2783
(dp2784
g73
(dp2785
g81
I3
ssg82
g2779
sg75
(lp2786
g1302
asbasbasbag68
(g84
g70
NtRp2787
(dp2788
g73
(dp2789
sg82
g2531
sg75
(lp2790
g68
(g89
g70
NtRp2791
(dp2792
g73
(dp2793
g93
g94
ssg82
g2787
sg75
(lp2794
S'QUERY_STRING'
p2795
asbag68
(g89
g70
NtRp2796
(dp2797
g73
(dp2798
g100
g101
ssg82
g2787
sg75
(lp2799
S':'
asbag68
(g89
g70
NtRp2800
(dp2801
g73
(dp2802
sg82
g2787
sg75
(lp2803
g68
(g69
g70
NtRp2804
(dp2805
g73
(dp2806
g81
I3
ssg82
g2800
sg75
(lp2807
g1324
asbasbasbag68
(g84
g70
NtRp2808
(dp2809
g73
(dp2810
sg82
g2531
sg75
(lp2811
g68
(g89
g70
NtRp2812
(dp2813
g73
(dp2814
g93
g94
ssg82
g2808
sg75
(lp2815
S'REMOTE_ADDR'
p2816
asbag68
(g89
g70
NtRp2817
(dp2818
g73
(dp2819
g100
g101
ssg82
g2808
sg75
(lp2820
S':'
asbag68
(g89
g70
NtRp2821
(dp2822
g73
(dp2823
sg82
g2808
sg75
(lp2824
g68
(g69
g70
NtRp2825
(dp2826
g73
(dp2827
g81
I3
ssg82
g2821
sg75
(lp2828
g226
asbasbasbag68
(g84
g70
NtRp2829
(dp2830
g73
(dp2831
sg82
g2531
sg75
(lp2832
g68
(g89
g70
NtRp2833
(dp2834
g73
(dp2835
g93
g94
ssg82
g2829
sg75
(lp2836
S'REMOTE_PORT'
p2837
asbag68
(g89
g70
NtRp2838
(dp2839
g73
(dp2840
g100
g101
ssg82
g2829
sg75
(lp2841
S':'
asbag68
(g89
g70
NtRp2842
(dp2843
g73
(dp2844
sg82
g2829
sg75
(lp2845
g68
(g69
g70
NtRp2846
(dp2847
g73
(dp2848
g81
I3
ssg82
g2842
sg75
(lp2849
g1367
asbasbasbag68
(g84
g70
NtRp2850
(dp2851
g73
(dp2852
sg82
g2531
sg75
(lp2853
g68
(g89
g70
NtRp2854
(dp2855
g73
(dp2856
g93
g94
ssg82
g2850
sg75
(lp2857
S'REQUEST_METHOD'
p2858
asbag68
(g89
g70
NtRp2859
(dp2860
g73
(dp2861
g100
g101
ssg82
g2850
sg75
(lp2862
S':'
asbag68
(g89
g70
NtRp2863
(dp2864
g73
(dp2865
sg82
g2850
sg75
(lp2866
g68
(g69
g70
NtRp2867
(dp2868
g73
(dp2869
g81
I3
ssg82
g2863
sg75
(lp2870
g1389
asbasbasbag68
(g84
g70
NtRp2871
(dp2872
g73
(dp2873
sg82
g2531
sg75
(lp2874
g68
(g89
g70
NtRp2875
(dp2876
g73
(dp2877
g93
g94
ssg82
g2871
sg75
(lp2878
S'SCRIPT_NAME'
p2879
asbag68
(g89
g70
NtRp2880
(dp2881
g73
(dp2882
g100
g101
ssg82
g2871
sg75
(lp2883
S':'
asbag68
(g89
g70
NtRp2884
(dp2885
g73
(dp2886
sg82
g2871
sg75
(lp2887
g68
(g69
g70
NtRp2888
(dp2889
g73
(dp2890
g81
I3
ssg82
g2884
sg75
(lp2891
S''
asbasbasbag68
(g84
g70
NtRp2892
(dp2893
g73
(dp2894
sg82
g2531
sg75
(lp2895
g68
(g89
g70
NtRp2896
(dp2897
g73
(dp2898
g93
g94
ssg82
g2892
sg75
(lp2899
S'SERVER_NAME'
p2900
asbag68
(g89
g70
NtRp2901
(dp2902
g73
(dp2903
g100
g101
ssg82
g2892
sg75
(lp2904
S':'
asbag68
(g89
g70
NtRp2905
(dp2906
g73
(dp2907
sg82
g2892
sg75
(lp2908
g68
(g69
g70
NtRp2909
(dp2910
g73
(dp2911
g81
I3
ssg82
g2905
sg75
(lp2912
g1432
asbasbasbag68
(g84
g70
NtRp2913
(dp2914
g73
(dp2915
sg82
g2531
sg75
(lp2916
g68
(g89
g70
NtRp2917
(dp2918
g73
(dp2919
g93
g94
ssg82
g2913
sg75
(lp2920
S'SERVER_PORT'
p2921
asbag68
(g89
g70
NtRp2922
(dp2923
g73
(dp2924
g100
g101
ssg82
g2913
sg75
(lp2925
S':'
asbag68
(g89
g70
NtRp2926
(dp2927
g73
(dp2928
sg82
g2913
sg75
(lp2929
g68
(g69
g70
NtRp2930
(dp2931
g73
(dp2932
g81
I3
ssg82
g2926
sg75
(lp2933
g1454
asbasbasbag68
(g84
g70
NtRp2934
(dp2935
g73
(dp2936
sg82
g2531
sg75
(lp2937
g68
(g89
g70
NtRp2938
(dp2939
g73
(dp2940
g93
g94
ssg82
g2934
sg75
(lp2941
S'SERVER_PROTOCOL'
p2942
asbag68
(g89
g70
NtRp2943
(dp2944
g73
(dp2945
g100
g101
ssg82
g2934
sg75
(lp2946
S':'
asbag68
(g89
g70
NtRp2947
(dp2948
g73
(dp2949
sg82
g2934
sg75
(lp2950
g68
(g69
g70
NtRp2951
(dp2952
g73
(dp2953
g81
I3
ssg82
g2947
sg75
(lp2954
g1476
asbasbasbag68
(g84
g70
NtRp2955
(dp2956
g73
(dp2957
sg82
g2531
sg75
(lp2958
g68
(g89
g70
NtRp2959
(dp2960
g73
(dp2961
g93
g94
ssg82
g2955
sg75
(lp2962
S'SERVER_SOFTWARE'
p2963
asbag68
(g89
g70
NtRp2964
(dp2965
g73
(dp2966
g100
g101
ssg82
g2955
sg75
(lp2967
S':'
asbag68
(g89
g70
NtRp2968
(dp2969
g73
(dp2970
sg82
g2955
sg75
(lp2971
g68
(g69
g70
NtRp2972
(dp2973
g73
(dp2974
g81
I3
ssg82
g2968
sg75
(lp2975
g1498
asbasbasbag68
(g84
g70
NtRp2976
(dp2977
g73
(dp2978
sg82
g2531
sg75
(lp2979
g68
(g89
g70
NtRp2980
(dp2981
g73
(dp2982
g93
g94
ssg82
g2976
sg75
(lp2983
S'wsgi.errors'
p2984
asbag68
(g89
g70
NtRp2985
(dp2986
g73
(dp2987
g100
g101
ssg82
g2976
sg75
(lp2988
S':'
asbag68
(g89
g70
NtRp2989
(dp2990
g73
(dp2991
sg82
g2976
sg75
(lp2992
g68
(g69
g70
NtRp2993
(dp2994
g73
(dp2995
g81
I3
ssg82
g2989
sg75
(lp2996
S"<open file '<stderr>', mode 'w' at 0x7ff925b48270>"
p2997
asbasbasbag68
(g84
g70
NtRp2998
(dp2999
g73
(dp3000
sg82
g2531
sg75
(lp3001
g68
(g89
g70
NtRp3002
(dp3003
g73
(dp3004
g93
g94
ssg82
g2998
sg75
(lp3005
S'wsgi.file_wrapper'
p3006
asbag68
(g89
g70
NtRp3007
(dp3008
g73
(dp3009
g100
g101
ssg82
g2998
sg75
(lp3010
S':'
asbag68
(g89
g70
NtRp3011
(dp3012
g73
(dp3013
sg82
g2998
sg75
(lp3014
g68
(g69
g70
NtRp3015
(dp3016
g73
(dp3017
g81
I3
ssg82
g3011
sg75
(lp3018
S'<class wsgiref.util.FileWrapper at 0x27b2808>'
p3019
asbasbasbag68
(g84
g70
NtRp3020
(dp3021
g73
(dp3022
sg82
g2531
sg75
(lp3023
g68
(g89
g70
NtRp3024
(dp3025
g73
(dp3026
g93
g94
ssg82
g3020
sg75
(lp3027
S'wsgi.input'
p3028
asbag68
(g89
g70
NtRp3029
(dp3030
g73
(dp3031
g100
g101
ssg82
g3020
sg75
(lp3032
S':'
asbag68
(g89
g70
NtRp3033
(dp3034
g73
(dp3035
sg82
g3020
sg75
(lp3036
g68
(g69
g70
NtRp3037
(dp3038
g73
(dp3039
g81
I3
ssg82
g3033
sg75
(lp3040
S'<cStringIO.StringO object at 0x3ba9378>'
p3041
asbasbasbag68
(g84
g70
NtRp3042
(dp3043
g73
(dp3044
sg82
g2531
sg75
(lp3045
g68
(g89
g70
NtRp3046
(dp3047
g73
(dp3048
g93
g94
ssg82
g3042
sg75
(lp3049
S'wsgi.multiprocess'
p3050
asbag68
(g89
g70
NtRp3051
(dp3052
g73
(dp3053
g100
g101
ssg82
g3042
sg75
(lp3054
S':'
asbag68
(g89
g70
NtRp3055
(dp3056
g73
(dp3057
sg82
g3042
sg75
(lp3058
g68
(g69
g70
NtRp3059
(dp3060
g73
(dp3061
g81
I3
ssg82
g3055
sg75
(lp3062
g111
asbasbasbag68
(g84
g70
NtRp3063
(dp3064
g73
(dp3065
sg82
g2531
sg75
(lp3066
g68
(g89
g70
NtRp3067
(dp3068
g73
(dp3069
g93
g94
ssg82
g3063
sg75
(lp3070
S'wsgi.multithread'
p3071
asbag68
(g89
g70
NtRp3072
(dp3073
g73
(dp3074
g100
g101
ssg82
g3063
sg75
(lp3075
S':'
asbag68
(g89
g70
NtRp3076
(dp3077
g73
(dp3078
sg82
g3063
sg75
(lp3079
g68
(g69
g70
NtRp3080
(dp3081
g73
(dp3082
g81
I3
ssg82
g3076
sg75
(lp3083
g1738
asbasbasbag68
(g84
g70
NtRp3084
(dp3085
g73
(dp3086
sg82
g2531
sg75
(lp3087
g68
(g89
g70
NtRp3088
(dp3089
g73
(dp3090
g93
g94
ssg82
g3084
sg75
(lp3091
S'wsgi.run_once'
p3092
asbag68
(g89
g70
NtRp3093
(dp3094
g73
(dp3095
g100
g101
ssg82
g3084
sg75
(lp3096
S':'
asbag68
(g89
g70
NtRp3097
(dp3098
g73
(dp3099
sg82
g3084
sg75
(lp3100
g68
(g69
g70
NtRp3101
(dp3102
g73
(dp3103
g81
I3
ssg82
g3097
sg75
(lp3104
g111
asbasbasbag68
(g84
g70
NtRp3105
(dp3106
g73
(dp3107
sg82
g2531
sg75
(lp3108
g68
(g89
g70
NtRp3109
(dp3110
g73
(dp3111
g93
g94
ssg82
g3105
sg75
(lp3112
S'wsgi.url_scheme'
p3113
asbag68
(g89
g70
NtRp3114
(dp3115
g73
(dp3116
g100
g101
ssg82
g3105
sg75
(lp3117
S':'
asbag68
(g89
g70
NtRp3118
(dp3119
g73
(dp3120
sg82
g3105
sg75
(lp3121
g68
(g69
g70
NtRp3122
(dp3123
g73
(dp3124
g81
I3
ssg82
g3118
sg75
(lp3125
g1781
asbasbasbag68
(g84
g70
NtRp3126
(dp3127
g73
(dp3128
sg82
g2531
sg75
(lp3129
g68
(g89
g70
NtRp3130
(dp3131
g73
(dp3132
g93
g94
ssg82
g3126
sg75
(lp3133
S'wsgi.version'
p3134
asbag68
(g89
g70
NtRp3135
(dp3136
g73
(dp3137
g100
g101
ssg82
g3126
sg75
(lp3138
S':'
asbag68
(g89
g70
NtRp3139
(dp3140
g73
(dp3141
sg82
g3126
sg75
(lp3142
g68
(g69
g70
NtRp3143
(dp3144
g73
(dp3145
g81
I3
ssg82
g3139
sg75
(lp3146
S'1'
asbasbasbasbasbasbasbasbasbasbasbasbasbsS'frames'
p3147
(lp3148
(dp3149
S'file'
p3150
S'/home/ian/web2py/gluon/restricted.py'
p3151
sS'dump'
p3152
(dp3153
S'code'
p3154
S'\'response.write(\\\'<!DOCTYPE html>\\\\n<html lang="\\\', ...n       -->\\\\n  </body>\\\\n</html>\\\\n\\\', escape=False)\''
p3155
sS'layer'
p3156
S"'/home/ian/web2py/applications/topoi/views/plugin_listandedit/list.html'"
p3157
sS'global compile2'
p3158
S'<function compile2>'
p3159
sS'ccode'
p3160
S'undefined'
p3161
ssS'lnum'
p3162
I193
sS'lines'
p3163
(dp3164
I192
S'        else:'
p3165
sI193
S'            ccode = compile2(code,layer)'
p3166
sI194
S'        exec ccode in environment'
p3167
sI195
S'    except HTTP:'
p3168
sI196
S'        raise'
p3169
sI197
S'    except Exception, error:'
p3170
sI188
S"    environment['__file__'] = layer"
p3171
sI189
S'    try:'
p3172
sI190
S'        if type(code) == types.CodeType:'
p3173
sI191
S'            ccode = code'
p3174
ssS'call'
p3175
S'(code=\'response.write(\\\'<!DOCTYPE html>\\\\n<html lang="\\\', ...n       -->\\\\n  </body>\\\\n</html>\\\\n\\\', escape=False)\', environment={\'A\': <class \'gluon.html.A\'>, \'Auth\': <class \'gluon.tools.Auth\'>, \'B\': <class \'gluon.html.B\'>, \'BEAUTIFY\': <class \'gluon.html.BEAUTIFY\'>, \'BODY\': <class \'gluon.html.BODY\'>, \'BR\': <class \'gluon.html.BR\'>, \'BUTTON\': <class \'gluon.html.BUTTON\'>, \'CAT\': <class \'gluon.html.CAT\'>, \'CENTER\': <class \'gluon.html.CENTER\'>, \'CLEANUP\': <class \'gluon.validators.CLEANUP\'>, ...}, layer=\'/home/ian/web2py/applications/topoi/views/plugin_listandedit/list.html\')'
p3176
sS'func'
p3177
S'restricted'
p3178
sa(dp3179
g3150
S'/home/ian/web2py/gluon/restricted.py'
p3180
sg3152
(dp3181
S'builtincompile'
p3182
S'<built-in function compile>'
p3183
sS'code'
p3184
S'\'response.write(\\\'<!DOCTYPE html>\\\\n<html lang="\\\', ...n       -->\\\\n  </body>\\\\n</html>\\\\n\\\', escape=False)\''
p3185
sS'code.rstrip'
p3186
S'<built-in method rstrip of str object>'
p3187
sS').replace'
p3188
g3161
sS'layer'
p3189
S"'/home/ian/web2py/applications/topoi/views/plugin_listandedit/list.html'"
p3190
ssg3162
I179
sg3163
(dp3191
I174
S''
sI175
S'def compile2(code,layer):'
p3192
sI176
S'    """'
p3193
sI177
S"    The +'\\n' is necessary else compile fails when code ends in a comment."
p3194
sI178
S'    """'
p3195
sI179
S"    return compile(code.rstrip().replace('\\r\\n','\\n')+'\\n', layer, 'exec')"
p3196
sI180
S''
sI181
S"def restricted(code, environment=None, layer='Unknown'):"
p3197
sI182
S'    """'
p3198
sI183
S'    runs code in environment and returns the output. if an exception occurs'
p3199
ssg3175
S'(code=\'response.write(\\\'<!DOCTYPE html>\\\\n<html lang="\\\', ...n       -->\\\\n  </body>\\\\n</html>\\\\n\\\', escape=False)\', layer=\'/home/ian/web2py/applications/topoi/views/plugin_listandedit/list.html\')'
p3200
sg3177
S'compile2'
p3201
sasS'pyver'
p3202
S'Python 2.7.2+: /usr/bin/python2.7'
p3203
sS'session'
p3204
g68
(g69
g70
NtRp3205
(dp3206
g73
(dp3207
sg75
(lp3208
g68
(g77
g70
NtRp3209
(dp3210
g73
(dp3211
g81
I5
ssg82
Nsg75
(lp3212
g68
(g84
g70
NtRp3213
(dp3214
g73
(dp3215
sg82
g3209
sg75
(lp3216
g68
(g89
g70
NtRp3217
(dp3218
g73
(dp3219
g93
g94
ssg82
g3213
sg75
(lp3220
S'auth'
p3221
asbag68
(g89
g70
NtRp3222
(dp3223
g73
(dp3224
g100
g101
ssg82
g3213
sg75
(lp3225
S':'
asbag68
(g89
g70
NtRp3226
(dp3227
g73
(dp3228
sg82
g3213
sg75
(lp3229
g68
(g69
g70
NtRp3230
(dp3231
g73
(dp3232
g81
I5
ssg82
g3226
sg75
(lp3233
g68
(g77
g70
NtRp3234
(dp3235
g73
(dp3236
g81
I4
ssg82
Nsg75
(lp3237
g68
(g84
g70
NtRp3238
(dp3239
g73
(dp3240
sg82
g3234
sg75
(lp3241
g68
(g89
g70
NtRp3242
(dp3243
g73
(dp3244
g93
g94
ssg82
g3238
sg75
(lp3245
S'expiration'
p3246
asbag68
(g89
g70
NtRp3247
(dp3248
g73
(dp3249
g100
g101
ssg82
g3238
sg75
(lp3250
S':'
asbag68
(g89
g70
NtRp3251
(dp3252
g73
(dp3253
sg82
g3238
sg75
(lp3254
g68
(g69
g70
NtRp3255
(dp3256
g73
(dp3257
g81
I4
ssg82
g3251
sg75
(lp3258
S'2592000'
p3259
asbasbasbag68
(g84
g70
NtRp3260
(dp3261
g73
(dp3262
sg82
g3234
sg75
(lp3263
g68
(g89
g70
NtRp3264
(dp3265
g73
(dp3266
g93
g94
ssg82
g3260
sg75
(lp3267
S'hmac_key'
p3268
asbag68
(g89
g70
NtRp3269
(dp3270
g73
(dp3271
g100
g101
ssg82
g3260
sg75
(lp3272
S':'
asbag68
(g89
g70
NtRp3273
(dp3274
g73
(dp3275
sg82
g3260
sg75
(lp3276
g68
(g69
g70
NtRp3277
(dp3278
g73
(dp3279
g81
I4
ssg82
g3273
sg75
(lp3280
S'eceeeca4-e0d7-49bc-a679-949298c4984a'
p3281
asbasbasbag68
(g84
g70
NtRp3282
(dp3283
g73
(dp3284
sg82
g3234
sg75
(lp3285
g68
(g89
g70
NtRp3286
(dp3287
g73
(dp3288
g93
g94
ssg82
g3282
sg75
(lp3289
S'last_visit'
p3290
asbag68
(g89
g70
NtRp3291
(dp3292
g73
(dp3293
g100
g101
ssg82
g3282
sg75
(lp3294
S':'
asbag68
(g89
g70
NtRp3295
(dp3296
g73
(dp3297
sg82
g3282
sg75
(lp3298
g68
(g69
g70
NtRp3299
(dp3300
g73
(dp3301
g81
I4
ssg82
g3295
sg75
(lp3302
S'datetime.datetime(2011, 11, 28, 8, 41, 19, 979285)'
p3303
asbasbasbag68
(g84
g70
NtRp3304
(dp3305
g73
(dp3306
sg82
g3234
sg75
(lp3307
g68
(g89
g70
NtRp3308
(dp3309
g73
(dp3310
g93
g94
ssg82
g3304
sg75
(lp3311
S'remember'
p3312
asbag68
(g89
g70
NtRp3313
(dp3314
g73
(dp3315
g100
g101
ssg82
g3304
sg75
(lp3316
S':'
asbag68
(g89
g70
NtRp3317
(dp3318
g73
(dp3319
sg82
g3304
sg75
(lp3320
g68
(g69
g70
NtRp3321
(dp3322
g73
(dp3323
g81
I4
ssg82
g3317
sg75
(lp3324
g1738
asbasbasbag68
(g84
g70
NtRp3325
(dp3326
g73
(dp3327
sg82
g3234
sg75
(lp3328
g68
(g89
g70
NtRp3329
(dp3330
g73
(dp3331
g93
g94
ssg82
g3325
sg75
(lp3332
S'user'
p3333
asbag68
(g89
g70
NtRp3334
(dp3335
g73
(dp3336
g100
g101
ssg82
g3325
sg75
(lp3337
S':'
asbag68
(g89
g70
NtRp3338
(dp3339
g73
(dp3340
sg82
g3325
sg75
(lp3341
g68
(g69
g70
NtRp3342
(dp3343
g73
(dp3344
g81
I4
ssg82
g3338
sg75
(lp3345
g68
(g77
g70
NtRp3346
(dp3347
g73
(dp3348
g81
I3
ssg82
Nsg75
(lp3349
g68
(g84
g70
NtRp3350
(dp3351
g73
(dp3352
sg82
g3346
sg75
(lp3353
g68
(g89
g70
NtRp3354
(dp3355
g73
(dp3356
g93
g94
ssg82
g3350
sg75
(lp3357
S'email'
p3358
asbag68
(g89
g70
NtRp3359
(dp3360
g73
(dp3361
g100
g101
ssg82
g3350
sg75
(lp3362
S':'
asbag68
(g89
g70
NtRp3363
(dp3364
g73
(dp3365
sg82
g3350
sg75
(lp3366
g68
(g69
g70
NtRp3367
(dp3368
g73
(dp3369
g81
I3
ssg82
g3363
sg75
(lp3370
S'scottianw@gmail.com'
p3371
asbasbasbag68
(g84
g70
NtRp3372
(dp3373
g73
(dp3374
sg82
g3346
sg75
(lp3375
g68
(g89
g70
NtRp3376
(dp3377
g73
(dp3378
g93
g94
ssg82
g3372
sg75
(lp3379
S'first_name'
p3380
asbag68
(g89
g70
NtRp3381
(dp3382
g73
(dp3383
g100
g101
ssg82
g3372
sg75
(lp3384
S':'
asbag68
(g89
g70
NtRp3385
(dp3386
g73
(dp3387
sg82
g3372
sg75
(lp3388
g68
(g69
g70
NtRp3389
(dp3390
g73
(dp3391
g81
I3
ssg82
g3385
sg75
(lp3392
S'Ian'
p3393
asbasbasbag68
(g84
g70
NtRp3394
(dp3395
g73
(dp3396
sg82
g3346
sg75
(lp3397
g68
(g89
g70
NtRp3398
(dp3399
g73
(dp3400
g93
g94
ssg82
g3394
sg75
(lp3401
S'id'
p3402
asbag68
(g89
g70
NtRp3403
(dp3404
g73
(dp3405
g100
g101
ssg82
g3394
sg75
(lp3406
S':'
asbag68
(g89
g70
NtRp3407
(dp3408
g73
(dp3409
sg82
g3394
sg75
(lp3410
g68
(g69
g70
NtRp3411
(dp3412
g73
(dp3413
g81
I3
ssg82
g3407
sg75
(lp3414
S'1'
asbasbasbag68
(g84
g70
NtRp3415
(dp3416
g73
(dp3417
sg82
g3346
sg75
(lp3418
g68
(g89
g70
NtRp3419
(dp3420
g73
(dp3421
g93
g94
ssg82
g3415
sg75
(lp3422
S'last_name'
p3423
asbag68
(g89
g70
NtRp3424
(dp3425
g73
(dp3426
g100
g101
ssg82
g3415
sg75
(lp3427
S':'
asbag68
(g89
g70
NtRp3428
(dp3429
g73
(dp3430
sg82
g3415
sg75
(lp3431
g68
(g69
g70
NtRp3432
(dp3433
g73
(dp3434
g81
I3
ssg82
g3428
sg75
(lp3435
S'Scott'
p3436
asbasbasbag68
(g84
g70
NtRp3437
(dp3438
g73
(dp3439
sg82
g3346
sg75
(lp3440
g68
(g89
g70
NtRp3441
(dp3442
g73
(dp3443
g93
g94
ssg82
g3437
sg75
(lp3444
S'password'
p3445
asbag68
(g89
g70
NtRp3446
(dp3447
g73
(dp3448
g100
g101
ssg82
g3437
sg75
(lp3449
S':'
asbag68
(g89
g70
NtRp3450
(dp3451
g73
(dp3452
sg82
g3437
sg75
(lp3453
g68
(g69
g70
NtRp3454
(dp3455
g73
(dp3456
g81
I3
ssg82
g3450
sg75
(lp3457
S'6fb48d01a3959846ba0fe062b1789f17d9cf3d34d3ec5aa948f598bbf4387cb10eb60c797988f41dfea97ee691b338dd77413d430229e401cf7c84e6cd9c4458'
p3458
asbasbasbag68
(g84
g70
NtRp3459
(dp3460
g73
(dp3461
sg82
g3346
sg75
(lp3462
g68
(g89
g70
NtRp3463
(dp3464
g73
(dp3465
g93
g94
ssg82
g3459
sg75
(lp3466
S'registration_key'
p3467
asbag68
(g89
g70
NtRp3468
(dp3469
g73
(dp3470
g100
g101
ssg82
g3459
sg75
(lp3471
S':'
asbag68
(g89
g70
NtRp3472
(dp3473
g73
(dp3474
sg82
g3459
sg75
(lp3475
g68
(g69
g70
NtRp3476
(dp3477
g73
(dp3478
g81
I3
ssg82
g3472
sg75
(lp3479
S''
asbasbasbag68
(g84
g70
NtRp3480
(dp3481
g73
(dp3482
sg82
g3346
sg75
(lp3483
g68
(g89
g70
NtRp3484
(dp3485
g73
(dp3486
g93
g94
ssg82
g3480
sg75
(lp3487
S'reset_password_key'
p3488
asbag68
(g89
g70
NtRp3489
(dp3490
g73
(dp3491
g100
g101
ssg82
g3480
sg75
(lp3492
S':'
asbag68
(g89
g70
NtRp3493
(dp3494
g73
(dp3495
sg82
g3480
sg75
(lp3496
g68
(g69
g70
NtRp3497
(dp3498
g73
(dp3499
g81
I3
ssg82
g3493
sg75
(lp3500
S''
asbasbasbasbasbasbasbasbasbasbasbasbasbsS'etype'
p3501
S"<type 'exceptions.SyntaxError'>"
p3502
sS'date'
p3503
S'Thu Dec  1 14:08:49 2011'
p3504
sS'response'
p3505
g68
(g69
g70
NtRp3506
(dp3507
g73
(dp3508
sg75
(lp3509
g68
(g77
g70
NtRp3510
(dp3511
g73
(dp3512
g81
I5
ssg82
Nsg75
(lp3513
g68
(g84
g70
NtRp3514
(dp3515
g73
(dp3516
sg82
g3510
sg75
(lp3517
g68
(g89
g70
NtRp3518
(dp3519
g73
(dp3520
g93
g94
ssg82
g3514
sg75
(lp3521
g191
asbag68
(g89
g70
NtRp3522
(dp3523
g73
(dp3524
g100
g101
ssg82
g3514
sg75
(lp3525
S':'
asbag68
(g89
g70
NtRp3526
(dp3527
g73
(dp3528
sg82
g3514
sg75
(lp3529
g68
(g69
g70
NtRp3530
(dp3531
g73
(dp3532
g81
I5
ssg82
g3526
sg75
(lp3533
S'<cStringIO.StringO object at 0x3b9f0d8>'
p3534
asbasbasbag68
(g84
g70
NtRp3535
(dp3536
g73
(dp3537
sg82
g3510
sg75
(lp3538
g68
(g89
g70
NtRp3539
(dp3540
g73
(dp3541
g93
g94
ssg82
g3535
sg75
(lp3542
g257
asbag68
(g89
g70
NtRp3543
(dp3544
g73
(dp3545
g100
g101
ssg82
g3535
sg75
(lp3546
S':'
asbag68
(g89
g70
NtRp3547
(dp3548
g73
(dp3549
sg82
g3535
sg75
(lp3550
g68
(g69
g70
NtRp3551
(dp3552
g73
(dp3553
g81
I5
ssg82
g3547
sg75
(lp3554
g68
(g77
g70
NtRp3555
(dp3556
g73
(dp3557
g81
I4
ssg82
Nsg75
(lp3558
g68
(g84
g70
NtRp3559
(dp3560
g73
(dp3561
sg82
g3555
sg75
(lp3562
g68
(g89
g70
NtRp3563
(dp3564
g73
(dp3565
g93
g94
ssg82
g3559
sg75
(lp3566
S'session_id_topoi'
p3567
asbag68
(g89
g70
NtRp3568
(dp3569
g73
(dp3570
g100
g101
ssg82
g3559
sg75
(lp3571
S':'
asbag68
(g89
g70
NtRp3572
(dp3573
g73
(dp3574
sg82
g3559
sg75
(lp3575
g68
(g69
g70
NtRp3576
(dp3577
g73
(dp3578
g81
I4
ssg82
g3572
sg75
(lp3579
g68
(g77
g70
NtRp3580
(dp3581
g73
(dp3582
g81
I3
ssg82
Nsg75
(lp3583
g68
(g84
g70
NtRp3584
(dp3585
g73
(dp3586
sg82
g3580
sg75
(lp3587
g68
(g89
g70
NtRp3588
(dp3589
g73
(dp3590
g93
g94
ssg82
g3584
sg75
(lp3591
g307
asbag68
(g89
g70
NtRp3592
(dp3593
g73
(dp3594
g100
g101
ssg82
g3584
sg75
(lp3595
S':'
asbag68
(g89
g70
NtRp3596
(dp3597
g73
(dp3598
sg82
g3584
sg75
(lp3599
g68
(g69
g70
NtRp3600
(dp3601
g73
(dp3602
g81
I3
ssg82
g3596
sg75
(lp3603
S''
asbasbasbag68
(g84
g70
NtRp3604
(dp3605
g73
(dp3606
sg82
g3580
sg75
(lp3607
g68
(g89
g70
NtRp3608
(dp3609
g73
(dp3610
g93
g94
ssg82
g3604
sg75
(lp3611
g328
asbag68
(g89
g70
NtRp3612
(dp3613
g73
(dp3614
g100
g101
ssg82
g3604
sg75
(lp3615
S':'
asbag68
(g89
g70
NtRp3616
(dp3617
g73
(dp3618
sg82
g3604
sg75
(lp3619
g68
(g69
g70
NtRp3620
(dp3621
g73
(dp3622
g81
I3
ssg82
g3616
sg75
(lp3623
S''
asbasbasbag68
(g84
g70
NtRp3624
(dp3625
g73
(dp3626
sg82
g3580
sg75
(lp3627
g68
(g89
g70
NtRp3628
(dp3629
g73
(dp3630
g93
g94
ssg82
g3624
sg75
(lp3631
g349
asbag68
(g89
g70
NtRp3632
(dp3633
g73
(dp3634
g100
g101
ssg82
g3624
sg75
(lp3635
S':'
asbag68
(g89
g70
NtRp3636
(dp3637
g73
(dp3638
sg82
g3624
sg75
(lp3639
g68
(g69
g70
NtRp3640
(dp3641
g73
(dp3642
g81
I3
ssg82
g3636
sg75
(lp3643
S'2592000'
p3644
asbasbasbag68
(g84
g70
NtRp3645
(dp3646
g73
(dp3647
sg82
g3580
sg75
(lp3648
g68
(g89
g70
NtRp3649
(dp3650
g73
(dp3651
g93
g94
ssg82
g3645
sg75
(lp3652
g370
asbag68
(g89
g70
NtRp3653
(dp3654
g73
(dp3655
g100
g101
ssg82
g3645
sg75
(lp3656
S':'
asbag68
(g89
g70
NtRp3657
(dp3658
g73
(dp3659
sg82
g3645
sg75
(lp3660
g68
(g69
g70
NtRp3661
(dp3662
g73
(dp3663
g81
I3
ssg82
g3657
sg75
(lp3664
S''
asbasbasbag68
(g84
g70
NtRp3665
(dp3666
g73
(dp3667
sg82
g3580
sg75
(lp3668
g68
(g89
g70
NtRp3669
(dp3670
g73
(dp3671
g93
g94
ssg82
g3665
sg75
(lp3672
g391
asbag68
(g89
g70
NtRp3673
(dp3674
g73
(dp3675
g100
g101
ssg82
g3665
sg75
(lp3676
S':'
asbag68
(g89
g70
NtRp3677
(dp3678
g73
(dp3679
sg82
g3665
sg75
(lp3680
g68
(g69
g70
NtRp3681
(dp3682
g73
(dp3683
g81
I3
ssg82
g3677
sg75
(lp3684
S''
asbasbasbag68
(g84
g70
NtRp3685
(dp3686
g73
(dp3687
sg82
g3580
sg75
(lp3688
g68
(g89
g70
NtRp3689
(dp3690
g73
(dp3691
g93
g94
ssg82
g3685
sg75
(lp3692
g412
asbag68
(g89
g70
NtRp3693
(dp3694
g73
(dp3695
g100
g101
ssg82
g3685
sg75
(lp3696
S':'
asbag68
(g89
g70
NtRp3697
(dp3698
g73
(dp3699
sg82
g3685
sg75
(lp3700
g68
(g69
g70
NtRp3701
(dp3702
g73
(dp3703
g81
I3
ssg82
g3697
sg75
(lp3704
S'/'
asbasbasbag68
(g84
g70
NtRp3705
(dp3706
g73
(dp3707
sg82
g3580
sg75
(lp3708
g68
(g89
g70
NtRp3709
(dp3710
g73
(dp3711
g93
g94
ssg82
g3705
sg75
(lp3712
g433
asbag68
(g89
g70
NtRp3713
(dp3714
g73
(dp3715
g100
g101
ssg82
g3705
sg75
(lp3716
S':'
asbag68
(g89
g70
NtRp3717
(dp3718
g73
(dp3719
sg82
g3705
sg75
(lp3720
g68
(g69
g70
NtRp3721
(dp3722
g73
(dp3723
g81
I3
ssg82
g3717
sg75
(lp3724
S''
asbasbasbag68
(g84
g70
NtRp3725
(dp3726
g73
(dp3727
sg82
g3580
sg75
(lp3728
g68
(g89
g70
NtRp3729
(dp3730
g73
(dp3731
g93
g94
ssg82
g3725
sg75
(lp3732
g454
asbag68
(g89
g70
NtRp3733
(dp3734
g73
(dp3735
g100
g101
ssg82
g3725
sg75
(lp3736
S':'
asbag68
(g89
g70
NtRp3737
(dp3738
g73
(dp3739
sg82
g3725
sg75
(lp3740
g68
(g69
g70
NtRp3741
(dp3742
g73
(dp3743
g81
I3
ssg82
g3737
sg75
(lp3744
S''
asbasbasbasbasbasbasbasbasbasbasbag68
(g84
g70
NtRp3745
(dp3746
g73
(dp3747
sg82
g3510
sg75
(lp3748
g68
(g89
g70
NtRp3749
(dp3750
g73
(dp3751
g93
g94
ssg82
g3745
sg75
(lp3752
S'files'
p3753
asbag68
(g89
g70
NtRp3754
(dp3755
g73
(dp3756
g100
g101
ssg82
g3745
sg75
(lp3757
S':'
asbag68
(g89
g70
NtRp3758
(dp3759
g73
(dp3760
sg82
g3745
sg75
(lp3761
g68
(g69
g70
NtRp3762
(dp3763
g73
(dp3764
g81
I5
ssg82
g3758
sg75
(lp3765
g68
(g77
g70
NtRp3766
(dp3767
g73
(dp3768
g81
I4
ssg82
Nsg75
(lp3769
g68
(g84
g70
NtRp3770
(dp3771
g73
(dp3772
sg82
g3766
sg75
(lp3773
g68
(g89
g70
NtRp3774
(dp3775
g73
(dp3776
sg82
g3770
sg75
(lp3777
g68
(g69
g70
NtRp3778
(dp3779
g73
(dp3780
g81
I4
ssg82
g3774
sg75
(lp3781
S'/topoi/static/plugin_listandedit/plugin_listandedit.css'
p3782
asbasbasbag68
(g84
g70
NtRp3783
(dp3784
g73
(dp3785
sg82
g3766
sg75
(lp3786
g68
(g89
g70
NtRp3787
(dp3788
g73
(dp3789
sg82
g3783
sg75
(lp3790
g68
(g69
g70
NtRp3791
(dp3792
g73
(dp3793
g81
I4
ssg82
g3787
sg75
(lp3794
S'/topoi/static/plugin_listandedit/plugin_listandedit.js'
p3795
asbasbasbasbasbasbasbag68
(g84
g70
NtRp3796
(dp3797
g73
(dp3798
sg82
g3510
sg75
(lp3799
g68
(g89
g70
NtRp3800
(dp3801
g73
(dp3802
g93
g94
ssg82
g3796
sg75
(lp3803
S'flash'
p3804
asbag68
(g89
g70
NtRp3805
(dp3806
g73
(dp3807
g100
g101
ssg82
g3796
sg75
(lp3808
S':'
asbag68
(g89
g70
NtRp3809
(dp3810
g73
(dp3811
sg82
g3796
sg75
(lp3812
g68
(g69
g70
NtRp3813
(dp3814
g73
(dp3815
g81
I5
ssg82
g3809
sg75
(lp3816
S''
asbasbasbag68
(g84
g70
NtRp3817
(dp3818
g73
(dp3819
sg82
g3510
sg75
(lp3820
g68
(g89
g70
NtRp3821
(dp3822
g73
(dp3823
g93
g94
ssg82
g3817
sg75
(lp3824
S'generic_patterns'
p3825
asbag68
(g89
g70
NtRp3826
(dp3827
g73
(dp3828
g100
g101
ssg82
g3817
sg75
(lp3829
S':'
asbag68
(g89
g70
NtRp3830
(dp3831
g73
(dp3832
sg82
g3817
sg75
(lp3833
g68
(g69
g70
NtRp3834
(dp3835
g73
(dp3836
g81
I5
ssg82
g3830
sg75
(lp3837
g68
(g77
g70
NtRp3838
(dp3839
g73
(dp3840
g81
I4
ssg82
Nsg75
(lp3841
g68
(g84
g70
NtRp3842
(dp3843
g73
(dp3844
sg82
g3838
sg75
(lp3845
g68
(g89
g70
NtRp3846
(dp3847
g73
(dp3848
sg82
g3842
sg75
(lp3849
g68
(g69
g70
NtRp3850
(dp3851
g73
(dp3852
g81
I4
ssg82
g3846
sg75
(lp3853
S'*'
asbasbasbasbasbasbasbag68
(g84
g70
NtRp3854
(dp3855
g73
(dp3856
sg82
g3510
sg75
(lp3857
g68
(g89
g70
NtRp3858
(dp3859
g73
(dp3860
g93
g94
ssg82
g3854
sg75
(lp3861
S'headers'
p3862
asbag68
(g89
g70
NtRp3863
(dp3864
g73
(dp3865
g100
g101
ssg82
g3854
sg75
(lp3866
S':'
asbag68
(g89
g70
NtRp3867
(dp3868
g73
(dp3869
sg82
g3854
sg75
(lp3870
g68
(g69
g70
NtRp3871
(dp3872
g73
(dp3873
g81
I5
ssg82
g3867
sg75
(lp3874
g68
(g77
g70
NtRp3875
(dp3876
g73
(dp3877
g81
I4
ssg82
Nsg75
(lp3878
g68
(g84
g70
NtRp3879
(dp3880
g73
(dp3881
sg82
g3875
sg75
(lp3882
g68
(g89
g70
NtRp3883
(dp3884
g73
(dp3885
g93
g94
ssg82
g3879
sg75
(lp3886
S'Cache-Control'
p3887
asbag68
(g89
g70
NtRp3888
(dp3889
g73
(dp3890
g100
g101
ssg82
g3879
sg75
(lp3891
S':'
asbag68
(g89
g70
NtRp3892
(dp3893
g73
(dp3894
sg82
g3879
sg75
(lp3895
g68
(g69
g70
NtRp3896
(dp3897
g73
(dp3898
g81
I4
ssg82
g3892
sg75
(lp3899
S'no-store, no-cache, must-revalidate, post-check=0, pre-check=0'
p3900
asbasbasbag68
(g84
g70
NtRp3901
(dp3902
g73
(dp3903
sg82
g3875
sg75
(lp3904
g68
(g89
g70
NtRp3905
(dp3906
g73
(dp3907
g93
g94
ssg82
g3901
sg75
(lp3908
S'Content-Type'
p3909
asbag68
(g89
g70
NtRp3910
(dp3911
g73
(dp3912
g100
g101
ssg82
g3901
sg75
(lp3913
S':'
asbag68
(g89
g70
NtRp3914
(dp3915
g73
(dp3916
sg82
g3901
sg75
(lp3917
g68
(g69
g70
NtRp3918
(dp3919
g73
(dp3920
g81
I4
ssg82
g3914
sg75
(lp3921
S'text/html; charset=utf-8'
p3922
asbasbasbag68
(g84
g70
NtRp3923
(dp3924
g73
(dp3925
sg82
g3875
sg75
(lp3926
g68
(g89
g70
NtRp3927
(dp3928
g73
(dp3929
g93
g94
ssg82
g3923
sg75
(lp3930
S'Expires'
p3931
asbag68
(g89
g70
NtRp3932
(dp3933
g73
(dp3934
g100
g101
ssg82
g3923
sg75
(lp3935
S':'
asbag68
(g89
g70
NtRp3936
(dp3937
g73
(dp3938
sg82
g3923
sg75
(lp3939
g68
(g69
g70
NtRp3940
(dp3941
g73
(dp3942
g81
I4
ssg82
g3936
sg75
(lp3943
S'Thu, 01 Dec 2011 19:08:49 GMT'
p3944
asbasbasbag68
(g84
g70
NtRp3945
(dp3946
g73
(dp3947
sg82
g3875
sg75
(lp3948
g68
(g89
g70
NtRp3949
(dp3950
g73
(dp3951
g93
g94
ssg82
g3945
sg75
(lp3952
S'Pragma'
p3953
asbag68
(g89
g70
NtRp3954
(dp3955
g73
(dp3956
g100
g101
ssg82
g3945
sg75
(lp3957
S':'
asbag68
(g89
g70
NtRp3958
(dp3959
g73
(dp3960
sg82
g3945
sg75
(lp3961
g68
(g69
g70
NtRp3962
(dp3963
g73
(dp3964
g81
I4
ssg82
g3958
sg75
(lp3965
S'no-cache'
p3966
asbasbasbag68
(g84
g70
NtRp3967
(dp3968
g73
(dp3969
sg82
g3875
sg75
(lp3970
g68
(g89
g70
NtRp3971
(dp3972
g73
(dp3973
g93
g94
ssg82
g3967
sg75
(lp3974
S'X-Powered-By'
p3975
asbag68
(g89
g70
NtRp3976
(dp3977
g73
(dp3978
g100
g101
ssg82
g3967
sg75
(lp3979
S':'
asbag68
(g89
g70
NtRp3980
(dp3981
g73
(dp3982
sg82
g3967
sg75
(lp3983
g68
(g69
g70
NtRp3984
(dp3985
g73
(dp3986
g81
I4
ssg82
g3980
sg75
(lp3987
S'web2py'
p3988
asbasbasbasbasbasbasbag68
(g84
g70
NtRp3989
(dp3990
g73
(dp3991
sg82
g3510
sg75
(lp3992
g68
(g89
g70
NtRp3993
(dp3994
g73
(dp3995
g93
g94
ssg82
g3989
sg75
(lp3996
S'menu'
p3997
asbag68
(g89
g70
NtRp3998
(dp3999
g73
(dp4000
g100
g101
ssg82
g3989
sg75
(lp4001
S':'
asbag68
(g89
g70
NtRp4002
(dp4003
g73
(dp4004
sg82
g3989
sg75
(lp4005
g68
(g69
g70
NtRp4006
(dp4007
g73
(dp4008
g81
I5
ssg82
g4002
sg75
(lp4009
g68
(g77
g70
NtRp4010
(dp4011
g73
(dp4012
g81
I4
ssg82
Nsg75
(lp4013
g68
(g84
g70
NtRp4014
(dp4015
g73
(dp4016
sg82
g4010
sg75
(lp4017
g68
(g89
g70
NtRp4018
(dp4019
g73
(dp4020
sg82
g4014
sg75
(lp4021
g68
(g69
g70
NtRp4022
(dp4023
g73
(dp4024
g81
I4
ssg82
g4018
sg75
(lp4025
g68
(g77
g70
NtRp4026
(dp4027
g73
(dp4028
g81
I3
ssg82
Nsg75
(lp4029
g68
(g84
g70
NtRp4030
(dp4031
g73
(dp4032
sg82
g4026
sg75
(lp4033
g68
(g89
g70
NtRp4034
(dp4035
g73
(dp4036
sg82
g4030
sg75
(lp4037
g68
(g69
g70
NtRp4038
(dp4039
g73
(dp4040
g81
I3
ssg82
g4034
sg75
(lp4041
cgluon.languages
lazyT_unpickle
p4042
(S't\x04\x00\x00\x00Home'
tRp4043
asbasbasbag68
(g84
g70
NtRp4044
(dp4045
g73
(dp4046
sg82
g4026
sg75
(lp4047
g68
(g89
g70
NtRp4048
(dp4049
g73
(dp4050
sg82
g4044
sg75
(lp4051
g68
(g69
g70
NtRp4052
(dp4053
g73
(dp4054
g81
I3
ssg82
g4048
sg75
(lp4055
g111
asbasbasbag68
(g84
g70
NtRp4056
(dp4057
g73
(dp4058
sg82
g4026
sg75
(lp4059
g68
(g89
g70
NtRp4060
(dp4061
g73
(dp4062
sg82
g4056
sg75
(lp4063
g68
(g69
g70
NtRp4064
(dp4065
g73
(dp4066
g81
I3
ssg82
g4060
sg75
(lp4067
S'/topoi/default/index'
p4068
asbasbasbag68
(g84
g70
NtRp4069
(dp4070
g73
(dp4071
sg82
g4026
sg75
(lp4072
g68
(g89
g70
NtRp4073
(dp4074
g73
(dp4075
sg82
g4069
sg75
(lp4076
g68
(g69
g70
NtRp4077
(dp4078
g73
(dp4079
g81
I3
ssg82
g4073
sg75
(lp4080
g68
(g77
g70
NtRp4081
(dp4082
g73
(dp4083
g81
I2
ssg82
Nsg75
(lp4084
sbasbasbasbasbasbasbasbag68
(g84
g70
NtRp4085
(dp4086
g73
(dp4087
sg82
g4010
sg75
(lp4088
g68
(g89
g70
NtRp4089
(dp4090
g73
(dp4091
sg82
g4085
sg75
(lp4092
g68
(g69
g70
NtRp4093
(dp4094
g73
(dp4095
g81
I4
ssg82
g4089
sg75
(lp4096
g68
(g77
g70
NtRp4097
(dp4098
g73
(dp4099
g81
I3
ssg82
Nsg75
(lp4100
g68
(g84
g70
NtRp4101
(dp4102
g73
(dp4103
sg82
g4097
sg75
(lp4104
g68
(g89
g70
NtRp4105
(dp4106
g73
(dp4107
sg82
g4101
sg75
(lp4108
g68
(g69
g70
NtRp4109
(dp4110
g73
(dp4111
g81
I3
ssg82
g4105
sg75
(lp4112
g4042
(S's\x08\x00\x00\x00This App'
tRp4113
asbasbasbag68
(g84
g70
NtRp4114
(dp4115
g73
(dp4116
sg82
g4097
sg75
(lp4117
g68
(g89
g70
NtRp4118
(dp4119
g73
(dp4120
sg82
g4114
sg75
(lp4121
g68
(g69
g70
NtRp4122
(dp4123
g73
(dp4124
g81
I3
ssg82
g4118
sg75
(lp4125
g111
asbasbasbag68
(g84
g70
NtRp4126
(dp4127
g73
(dp4128
sg82
g4097
sg75
(lp4129
g68
(g89
g70
NtRp4130
(dp4131
g73
(dp4132
sg82
g4126
sg75
(lp4133
g68
(g69
g70
NtRp4134
(dp4135
g73
(dp4136
g81
I3
ssg82
g4130
sg75
(lp4137
S'/admin/default/design/topoi'
p4138
asbasbasbag68
(g84
g70
NtRp4139
(dp4140
g73
(dp4141
sg82
g4097
sg75
(lp4142
g68
(g89
g70
NtRp4143
(dp4144
g73
(dp4145
sg82
g4139
sg75
(lp4146
g68
(g69
g70
NtRp4147
(dp4148
g73
(dp4149
g81
I3
ssg82
g4143
sg75
(lp4150
g68
(g77
g70
NtRp4151
(dp4152
g73
(dp4153
g81
I2
ssg82
Nsg75
(lp4154
g68
(g84
g70
NtRp4155
(dp4156
g73
(dp4157
sg82
g4151
sg75
(lp4158
g68
(g89
g70
NtRp4159
(dp4160
g73
(dp4161
sg82
g4155
sg75
(lp4162
g68
(g69
g70
NtRp4163
(dp4164
g73
(dp4165
g81
I2
ssg82
g4159
sg75
(lp4166
g68
(g77
g70
NtRp4167
(dp4168
g73
(dp4169
g81
I1
ssg82
Nsg75
(lp4170
g68
(g84
g70
NtRp4171
(dp4172
g73
(dp4173
sg82
g4167
sg75
(lp4174
g68
(g89
g70
NtRp4175
(dp4176
g73
(dp4177
sg82
g4171
sg75
(lp4178
g68
(g69
g70
NtRp4179
(dp4180
g73
(dp4181
g81
I1
ssg82
g4175
sg75
(lp4182
g4042
(S't\n\x00\x00\x00Controller'
tRp4183
asbasbasbag68
(g84
g70
NtRp4184
(dp4185
g73
(dp4186
sg82
g4167
sg75
(lp4187
g68
(g89
g70
NtRp4188
(dp4189
g73
(dp4190
sg82
g4184
sg75
(lp4191
g68
(g69
g70
NtRp4192
(dp4193
g73
(dp4194
g81
I1
ssg82
g4188
sg75
(lp4195
I00
asbasbasbag68
(g84
g70
NtRp4196
(dp4197
g73
(dp4198
sg82
g4167
sg75
(lp4199
g68
(g89
g70
NtRp4200
(dp4201
g73
(dp4202
sg82
g4196
sg75
(lp4203
g68
(g69
g70
NtRp4204
(dp4205
g73
(dp4206
g81
I1
ssg82
g4200
sg75
(lp4207
S'/admin/default/edit/topoi/controllers/plugin_listandedit.py'
p4208
asbasbasbasbasbasbasbag68
(g84
g70
NtRp4209
(dp4210
g73
(dp4211
sg82
g4151
sg75
(lp4212
g68
(g89
g70
NtRp4213
(dp4214
g73
(dp4215
sg82
g4209
sg75
(lp4216
g68
(g69
g70
NtRp4217
(dp4218
g73
(dp4219
g81
I2
ssg82
g4213
sg75
(lp4220
g68
(g77
g70
NtRp4221
(dp4222
g73
(dp4223
g81
I1
ssg82
Nsg75
(lp4224
g68
(g84
g70
NtRp4225
(dp4226
g73
(dp4227
sg82
g4221
sg75
(lp4228
g68
(g89
g70
NtRp4229
(dp4230
g73
(dp4231
sg82
g4225
sg75
(lp4232
g68
(g69
g70
NtRp4233
(dp4234
g73
(dp4235
g81
I1
ssg82
g4229
sg75
(lp4236
g4042
(S't\x04\x00\x00\x00View'
tRp4237
asbasbasbag68
(g84
g70
NtRp4238
(dp4239
g73
(dp4240
sg82
g4221
sg75
(lp4241
g68
(g89
g70
NtRp4242
(dp4243
g73
(dp4244
sg82
g4238
sg75
(lp4245
g68
(g69
g70
NtRp4246
(dp4247
g73
(dp4248
g81
I1
ssg82
g4242
sg75
(lp4249
I00
asbasbasbag68
(g84
g70
NtRp4250
(dp4251
g73
(dp4252
sg82
g4221
sg75
(lp4253
g68
(g89
g70
NtRp4254
(dp4255
g73
(dp4256
sg82
g4250
sg75
(lp4257
g68
(g69
g70
NtRp4258
(dp4259
g73
(dp4260
g81
I1
ssg82
g4254
sg75
(lp4261
S'/admin/default/edit/topoi/views/plugin_listandedit/list.html'
p4262
asbasbasbasbasbasbasbag68
(g84
g70
NtRp4263
(dp4264
g73
(dp4265
sg82
g4151
sg75
(lp4266
g68
(g89
g70
NtRp4267
(dp4268
g73
(dp4269
sg82
g4263
sg75
(lp4270
g68
(g69
g70
NtRp4271
(dp4272
g73
(dp4273
g81
I2
ssg82
g4267
sg75
(lp4274
g68
(g77
g70
NtRp4275
(dp4276
g73
(dp4277
g81
I1
ssg82
Nsg75
(lp4278
g68
(g84
g70
NtRp4279
(dp4280
g73
(dp4281
sg82
g4275
sg75
(lp4282
g68
(g89
g70
NtRp4283
(dp4284
g73
(dp4285
sg82
g4279
sg75
(lp4286
g68
(g69
g70
NtRp4287
(dp4288
g73
(dp4289
g81
I1
ssg82
g4283
sg75
(lp4290
g4042
(S't\x06\x00\x00\x00Layout'
tRp4291
asbasbasbag68
(g84
g70
NtRp4292
(dp4293
g73
(dp4294
sg82
g4275
sg75
(lp4295
g68
(g89
g70
NtRp4296
(dp4297
g73
(dp4298
sg82
g4292
sg75
(lp4299
g68
(g69
g70
NtRp4300
(dp4301
g73
(dp4302
g81
I1
ssg82
g4296
sg75
(lp4303
I00
asbasbasbag68
(g84
g70
NtRp4304
(dp4305
g73
(dp4306
sg82
g4275
sg75
(lp4307
g68
(g89
g70
NtRp4308
(dp4309
g73
(dp4310
sg82
g4304
sg75
(lp4311
g68
(g69
g70
NtRp4312
(dp4313
g73
(dp4314
g81
I1
ssg82
g4308
sg75
(lp4315
S'/admin/default/edit/topoi/views/layout.html'
p4316
asbasbasbasbasbasbasbag68
(g84
g70
NtRp4317
(dp4318
g73
(dp4319
sg82
g4151
sg75
(lp4320
g68
(g89
g70
NtRp4321
(dp4322
g73
(dp4323
sg82
g4317
sg75
(lp4324
g68
(g69
g70
NtRp4325
(dp4326
g73
(dp4327
g81
I2
ssg82
g4321
sg75
(lp4328
g68
(g77
g70
NtRp4329
(dp4330
g73
(dp4331
g81
I1
ssg82
Nsg75
(lp4332
g68
(g84
g70
NtRp4333
(dp4334
g73
(dp4335
sg82
g4329
sg75
(lp4336
g68
(g89
g70
NtRp4337
(dp4338
g73
(dp4339
sg82
g4333
sg75
(lp4340
g68
(g69
g70
NtRp4341
(dp4342
g73
(dp4343
g81
I1
ssg82
g4337
sg75
(lp4344
g4042
(S't\n\x00\x00\x00Stylesheet'
tRp4345
asbasbasbag68
(g84
g70
NtRp4346
(dp4347
g73
(dp4348
sg82
g4329
sg75
(lp4349
g68
(g89
g70
NtRp4350
(dp4351
g73
(dp4352
sg82
g4346
sg75
(lp4353
g68
(g69
g70
NtRp4354
(dp4355
g73
(dp4356
g81
I1
ssg82
g4350
sg75
(lp4357
I00
asbasbasbag68
(g84
g70
NtRp4358
(dp4359
g73
(dp4360
sg82
g4329
sg75
(lp4361
g68
(g89
g70
NtRp4362
(dp4363
g73
(dp4364
sg82
g4358
sg75
(lp4365
g68
(g69
g70
NtRp4366
(dp4367
g73
(dp4368
g81
I1
ssg82
g4362
sg75
(lp4369
S'/admin/default/edit/topoi/static/base.css'
p4370
asbasbasbasbasbasbasbag68
(g84
g70
NtRp4371
(dp4372
g73
(dp4373
sg82
g4151
sg75
(lp4374
g68
(g89
g70
NtRp4375
(dp4376
g73
(dp4377
sg82
g4371
sg75
(lp4378
g68
(g69
g70
NtRp4379
(dp4380
g73
(dp4381
g81
I2
ssg82
g4375
sg75
(lp4382
g68
(g77
g70
NtRp4383
(dp4384
g73
(dp4385
g81
I1
ssg82
Nsg75
(lp4386
g68
(g84
g70
NtRp4387
(dp4388
g73
(dp4389
sg82
g4383
sg75
(lp4390
g68
(g89
g70
NtRp4391
(dp4392
g73
(dp4393
sg82
g4387
sg75
(lp4394
g68
(g69
g70
NtRp4395
(dp4396
g73
(dp4397
g81
I1
ssg82
g4391
sg75
(lp4398
g4042
(S's\x08\x00\x00\x00DB Model'
tRp4399
asbasbasbag68
(g84
g70
NtRp4400
(dp4401
g73
(dp4402
sg82
g4383
sg75
(lp4403
g68
(g89
g70
NtRp4404
(dp4405
g73
(dp4406
sg82
g4400
sg75
(lp4407
g68
(g69
g70
NtRp4408
(dp4409
g73
(dp4410
g81
I1
ssg82
g4404
sg75
(lp4411
I00
asbasbasbag68
(g84
g70
NtRp4412
(dp4413
g73
(dp4414
sg82
g4383
sg75
(lp4415
g68
(g89
g70
NtRp4416
(dp4417
g73
(dp4418
sg82
g4412
sg75
(lp4419
g68
(g69
g70
NtRp4420
(dp4421
g73
(dp4422
g81
I1
ssg82
g4416
sg75
(lp4423
S'/admin/default/edit/topoi/models/db.py'
p4424
asbasbasbasbasbasbasbag68
(g84
g70
NtRp4425
(dp4426
g73
(dp4427
sg82
g4151
sg75
(lp4428
g68
(g89
g70
NtRp4429
(dp4430
g73
(dp4431
sg82
g4425
sg75
(lp4432
g68
(g69
g70
NtRp4433
(dp4434
g73
(dp4435
g81
I2
ssg82
g4429
sg75
(lp4436
g68
(g77
g70
NtRp4437
(dp4438
g73
(dp4439
g81
I1
ssg82
Nsg75
(lp4440
g68
(g84
g70
NtRp4441
(dp4442
g73
(dp4443
sg82
g4437
sg75
(lp4444
g68
(g89
g70
NtRp4445
(dp4446
g73
(dp4447
sg82
g4441
sg75
(lp4448
g68
(g69
g70
NtRp4449
(dp4450
g73
(dp4451
g81
I1
ssg82
g4445
sg75
(lp4452
g4042
(S's\n\x00\x00\x00Menu Model'
tRp4453
asbasbasbag68
(g84
g70
NtRp4454
(dp4455
g73
(dp4456
sg82
g4437
sg75
(lp4457
g68
(g89
g70
NtRp4458
(dp4459
g73
(dp4460
sg82
g4454
sg75
(lp4461
g68
(g69
g70
NtRp4462
(dp4463
g73
(dp4464
g81
I1
ssg82
g4458
sg75
(lp4465
I00
asbasbasbag68
(g84
g70
NtRp4466
(dp4467
g73
(dp4468
sg82
g4437
sg75
(lp4469
g68
(g89
g70
NtRp4470
(dp4471
g73
(dp4472
sg82
g4466
sg75
(lp4473
g68
(g69
g70
NtRp4474
(dp4475
g73
(dp4476
g81
I1
ssg82
g4470
sg75
(lp4477
S'/admin/default/edit/topoi/models/menu.py'
p4478
asbasbasbasbasbasbasbag68
(g84
g70
NtRp4479
(dp4480
g73
(dp4481
sg82
g4151
sg75
(lp4482
g68
(g89
g70
NtRp4483
(dp4484
g73
(dp4485
sg82
g4479
sg75
(lp4486
g68
(g69
g70
NtRp4487
(dp4488
g73
(dp4489
g81
I2
ssg82
g4483
sg75
(lp4490
g68
(g77
g70
NtRp4491
(dp4492
g73
(dp4493
g81
I1
ssg82
Nsg75
(lp4494
g68
(g84
g70
NtRp4495
(dp4496
g73
(dp4497
sg82
g4491
sg75
(lp4498
g68
(g89
g70
NtRp4499
(dp4500
g73
(dp4501
sg82
g4495
sg75
(lp4502
g68
(g69
g70
NtRp4503
(dp4504
g73
(dp4505
g81
I1
ssg82
g4499
sg75
(lp4506
g4042
(S't\x08\x00\x00\x00Database'
tRp4507
asbasbasbag68
(g84
g70
NtRp4508
(dp4509
g73
(dp4510
sg82
g4491
sg75
(lp4511
g68
(g89
g70
NtRp4512
(dp4513
g73
(dp4514
sg82
g4508
sg75
(lp4515
g68
(g69
g70
NtRp4516
(dp4517
g73
(dp4518
g81
I1
ssg82
g4512
sg75
(lp4519
I00
asbasbasbag68
(g84
g70
NtRp4520
(dp4521
g73
(dp4522
sg82
g4491
sg75
(lp4523
g68
(g89
g70
NtRp4524
(dp4525
g73
(dp4526
sg82
g4520
sg75
(lp4527
g68
(g69
g70
NtRp4528
(dp4529
g73
(dp4530
g81
I1
ssg82
g4524
sg75
(lp4531
S'/topoi/appadmin/index'
p4532
asbasbasbasbasbasbasbag68
(g84
g70
NtRp4533
(dp4534
g73
(dp4535
sg82
g4151
sg75
(lp4536
g68
(g89
g70
NtRp4537
(dp4538
g73
(dp4539
sg82
g4533
sg75
(lp4540
g68
(g69
g70
NtRp4541
(dp4542
g73
(dp4543
g81
I2
ssg82
g4537
sg75
(lp4544
g68
(g77
g70
NtRp4545
(dp4546
g73
(dp4547
g81
I1
ssg82
Nsg75
(lp4548
g68
(g84
g70
NtRp4549
(dp4550
g73
(dp4551
sg82
g4545
sg75
(lp4552
g68
(g89
g70
NtRp4553
(dp4554
g73
(dp4555
sg82
g4549
sg75
(lp4556
g68
(g69
g70
NtRp4557
(dp4558
g73
(dp4559
g81
I1
ssg82
g4553
sg75
(lp4560
g4042
(S't\x06\x00\x00\x00Errors'
tRp4561
asbasbasbag68
(g84
g70
NtRp4562
(dp4563
g73
(dp4564
sg82
g4545
sg75
(lp4565
g68
(g89
g70
NtRp4566
(dp4567
g73
(dp4568
sg82
g4562
sg75
(lp4569
g68
(g69
g70
NtRp4570
(dp4571
g73
(dp4572
g81
I1
ssg82
g4566
sg75
(lp4573
I00
asbasbasbag68
(g84
g70
NtRp4574
(dp4575
g73
(dp4576
sg82
g4545
sg75
(lp4577
g68
(g89
g70
NtRp4578
(dp4579
g73
(dp4580
sg82
g4574
sg75
(lp4581
g68
(g69
g70
NtRp4582
(dp4583
g73
(dp4584
g81
I1
ssg82
g4578
sg75
(lp4585
S'/admin/default/errors/topoi'
p4586
asbasbasbasbasbasbasbag68
(g84
g70
NtRp4587
(dp4588
g73
(dp4589
sg82
g4151
sg75
(lp4590
g68
(g89
g70
NtRp4591
(dp4592
g73
(dp4593
sg82
g4587
sg75
(lp4594
g68
(g69
g70
NtRp4595
(dp4596
g73
(dp4597
g81
I2
ssg82
g4591
sg75
(lp4598
g68
(g77
g70
NtRp4599
(dp4600
g73
(dp4601
g81
I1
ssg82
Nsg75
(lp4602
g68
(g84
g70
NtRp4603
(dp4604
g73
(dp4605
sg82
g4599
sg75
(lp4606
g68
(g89
g70
NtRp4607
(dp4608
g73
(dp4609
sg82
g4603
sg75
(lp4610
g68
(g69
g70
NtRp4611
(dp4612
g73
(dp4613
g81
I1
ssg82
g4607
sg75
(lp4614
g4042
(S't\x05\x00\x00\x00About'
tRp4615
asbasbasbag68
(g84
g70
NtRp4616
(dp4617
g73
(dp4618
sg82
g4599
sg75
(lp4619
g68
(g89
g70
NtRp4620
(dp4621
g73
(dp4622
sg82
g4616
sg75
(lp4623
g68
(g69
g70
NtRp4624
(dp4625
g73
(dp4626
g81
I1
ssg82
g4620
sg75
(lp4627
I00
asbasbasbag68
(g84
g70
NtRp4628
(dp4629
g73
(dp4630
sg82
g4599
sg75
(lp4631
g68
(g89
g70
NtRp4632
(dp4633
g73
(dp4634
sg82
g4628
sg75
(lp4635
g68
(g69
g70
NtRp4636
(dp4637
g73
(dp4638
g81
I1
ssg82
g4632
sg75
(lp4639
S'/admin/default/about/topoi'
p4640
asbasbasbasbasbasbasbasbasbasbasbasbasbasbasbasbasbasbasbag68
(g84
g70
NtRp4641
(dp4642
g73
(dp4643
sg82
g3510
sg75
(lp4644
g68
(g89
g70
NtRp4645
(dp4646
g73
(dp4647
g93
g94
ssg82
g4641
sg75
(lp4648
S'meta'
p4649
asbag68
(g89
g70
NtRp4650
(dp4651
g73
(dp4652
g100
g101
ssg82
g4641
sg75
(lp4653
S':'
asbag68
(g89
g70
NtRp4654
(dp4655
g73
(dp4656
sg82
g4641
sg75
(lp4657
g68
(g69
g70
NtRp4658
(dp4659
g73
(dp4660
g81
I5
ssg82
g4654
sg75
(lp4661
g68
(g77
g70
NtRp4662
(dp4663
g73
(dp4664
g81
I4
ssg82
Nsg75
(lp4665
g68
(g84
g70
NtRp4666
(dp4667
g73
(dp4668
sg82
g4662
sg75
(lp4669
g68
(g89
g70
NtRp4670
(dp4671
g73
(dp4672
g93
g94
ssg82
g4666
sg75
(lp4673
S'author'
p4674
asbag68
(g89
g70
NtRp4675
(dp4676
g73
(dp4677
g100
g101
ssg82
g4666
sg75
(lp4678
S':'
asbag68
(g89
g70
NtRp4679
(dp4680
g73
(dp4681
sg82
g4666
sg75
(lp4682
g68
(g69
g70
NtRp4683
(dp4684
g73
(dp4685
g81
I4
ssg82
g4679
sg75
(lp4686
S'Ian W. Scott'
p4687
asbasbasbag68
(g84
g70
NtRp4688
(dp4689
g73
(dp4690
sg82
g4662
sg75
(lp4691
g68
(g89
g70
NtRp4692
(dp4693
g73
(dp4694
g93
g94
ssg82
g4688
sg75
(lp4695
S'copyright'
p4696
asbag68
(g89
g70
NtRp4697
(dp4698
g73
(dp4699
g100
g101
ssg82
g4688
sg75
(lp4700
S':'
asbag68
(g89
g70
NtRp4701
(dp4702
g73
(dp4703
sg82
g4688
sg75
(lp4704
g68
(g69
g70
NtRp4705
(dp4706
g73
(dp4707
g81
I4
ssg82
g4701
sg75
(lp4708
S'Copyright 2011'
p4709
asbasbasbag68
(g84
g70
NtRp4710
(dp4711
g73
(dp4712
sg82
g4662
sg75
(lp4713
g68
(g89
g70
NtRp4714
(dp4715
g73
(dp4716
g93
g94
ssg82
g4710
sg75
(lp4717
S'description'
p4718
asbag68
(g89
g70
NtRp4719
(dp4720
g73
(dp4721
g100
g101
ssg82
g4710
sg75
(lp4722
S':'
asbag68
(g89
g70
NtRp4723
(dp4724
g73
(dp4725
sg82
g4710
sg75
(lp4726
g68
(g69
g70
NtRp4727
(dp4728
g73
(dp4729
g81
I4
ssg82
g4723
sg75
(lp4730
S'A web-app for managing primary-text research in the humanities.'
p4731
asbasbasbag68
(g84
g70
NtRp4732
(dp4733
g73
(dp4734
sg82
g4662
sg75
(lp4735
g68
(g89
g70
NtRp4736
(dp4737
g73
(dp4738
g93
g94
ssg82
g4732
sg75
(lp4739
S'generator'
p4740
asbag68
(g89
g70
NtRp4741
(dp4742
g73
(dp4743
g100
g101
ssg82
g4732
sg75
(lp4744
S':'
asbag68
(g89
g70
NtRp4745
(dp4746
g73
(dp4747
sg82
g4732
sg75
(lp4748
g68
(g69
g70
NtRp4749
(dp4750
g73
(dp4751
g81
I4
ssg82
g4745
sg75
(lp4752
S'Web2py Enterprise Framework'
p4753
asbasbasbag68
(g84
g70
NtRp4754
(dp4755
g73
(dp4756
sg82
g4662
sg75
(lp4757
g68
(g89
g70
NtRp4758
(dp4759
g73
(dp4760
g93
g94
ssg82
g4754
sg75
(lp4761
S'keywords'
p4762
asbag68
(g89
g70
NtRp4763
(dp4764
g73
(dp4765
g100
g101
ssg82
g4754
sg75
(lp4766
S':'
asbag68
(g89
g70
NtRp4767
(dp4768
g73
(dp4769
sg82
g4754
sg75
(lp4770
g68
(g69
g70
NtRp4771
(dp4772
g73
(dp4773
g81
I4
ssg82
g4767
sg75
(lp4774
S'research, humanities, biblical'
p4775
asbasbasbasbasbasbasbag68
(g84
g70
NtRp4776
(dp4777
g73
(dp4778
sg82
g3510
sg75
(lp4779
g68
(g89
g70
NtRp4780
(dp4781
g73
(dp4782
g93
g94
ssg82
g4776
sg75
(lp4783
S'postprocessing'
p4784
asbag68
(g89
g70
NtRp4785
(dp4786
g73
(dp4787
g100
g101
ssg82
g4776
sg75
(lp4788
S':'
asbag68
(g89
g70
NtRp4789
(dp4790
g73
(dp4791
sg82
g4776
sg75
(lp4792
g68
(g69
g70
NtRp4793
(dp4794
g73
(dp4795
g81
I5
ssg82
g4789
sg75
(lp4796
g68
(g77
g70
NtRp4797
(dp4798
g73
(dp4799
g81
I4
ssg82
Nsg75
(lp4800
sbasbasbasbag68
(g84
g70
NtRp4801
(dp4802
g73
(dp4803
sg82
g3510
sg75
(lp4804
g68
(g89
g70
NtRp4805
(dp4806
g73
(dp4807
g93
g94
ssg82
g4801
sg75
(lp4808
S'session_file'
p4809
asbag68
(g89
g70
NtRp4810
(dp4811
g73
(dp4812
g100
g101
ssg82
g4801
sg75
(lp4813
S':'
asbag68
(g89
g70
NtRp4814
(dp4815
g73
(dp4816
sg82
g4801
sg75
(lp4817
g68
(g69
g70
NtRp4818
(dp4819
g73
(dp4820
g81
I5
ssg82
g4814
sg75
(lp4821
S"<open file '/home/ian/web2py/applications/topoi/sessions/127.0.0.1-af13e654-cdbc-4583-8d75-e46cda6f6e34', mode 'rb+' at 0x31a1a50>"
p4822
asbasbasbag68
(g84
g70
NtRp4823
(dp4824
g73
(dp4825
sg82
g3510
sg75
(lp4826
g68
(g89
g70
NtRp4827
(dp4828
g73
(dp4829
g93
g94
ssg82
g4823
sg75
(lp4830
S'session_filename'
p4831
asbag68
(g89
g70
NtRp4832
(dp4833
g73
(dp4834
g100
g101
ssg82
g4823
sg75
(lp4835
S':'
asbag68
(g89
g70
NtRp4836
(dp4837
g73
(dp4838
sg82
g4823
sg75
(lp4839
g68
(g69
g70
NtRp4840
(dp4841
g73
(dp4842
g81
I5
ssg82
g4836
sg75
(lp4843
S'/home/ian/web2py/applications/topoi/sessions/127.0.0.1-af13e654-cdbc-4583-8d75-e46cda6f6e34'
p4844
asbasbasbag68
(g84
g70
NtRp4845
(dp4846
g73
(dp4847
sg82
g3510
sg75
(lp4848
g68
(g89
g70
NtRp4849
(dp4850
g73
(dp4851
g93
g94
ssg82
g4845
sg75
(lp4852
S'session_id'
p4853
asbag68
(g89
g70
NtRp4854
(dp4855
g73
(dp4856
g100
g101
ssg82
g4845
sg75
(lp4857
S':'
asbag68
(g89
g70
NtRp4858
(dp4859
g73
(dp4860
sg82
g4845
sg75
(lp4861
g68
(g69
g70
NtRp4862
(dp4863
g73
(dp4864
g81
I5
ssg82
g4858
sg75
(lp4865
S'127.0.0.1-af13e654-cdbc-4583-8d75-e46cda6f6e34'
p4866
asbasbasbag68
(g84
g70
NtRp4867
(dp4868
g73
(dp4869
sg82
g3510
sg75
(lp4870
g68
(g89
g70
NtRp4871
(dp4872
g73
(dp4873
g93
g94
ssg82
g4867
sg75
(lp4874
S'session_id_name'
p4875
asbag68
(g89
g70
NtRp4876
(dp4877
g73
(dp4878
g100
g101
ssg82
g4867
sg75
(lp4879
S':'
asbag68
(g89
g70
NtRp4880
(dp4881
g73
(dp4882
sg82
g4867
sg75
(lp4883
g68
(g69
g70
NtRp4884
(dp4885
g73
(dp4886
g81
I5
ssg82
g4880
sg75
(lp4887
g3567
asbasbasbag68
(g84
g70
NtRp4888
(dp4889
g73
(dp4890
sg82
g3510
sg75
(lp4891
g68
(g89
g70
NtRp4892
(dp4893
g73
(dp4894
g93
g94
ssg82
g4888
sg75
(lp4895
S'session_locked'
p4896
asbag68
(g89
g70
NtRp4897
(dp4898
g73
(dp4899
g100
g101
ssg82
g4888
sg75
(lp4900
S':'
asbag68
(g89
g70
NtRp4901
(dp4902
g73
(dp4903
sg82
g4888
sg75
(lp4904
g68
(g69
g70
NtRp4905
(dp4906
g73
(dp4907
g81
I5
ssg82
g4901
sg75
(lp4908
g1738
asbasbasbag68
(g84
g70
NtRp4909
(dp4910
g73
(dp4911
sg82
g3510
sg75
(lp4912
g68
(g89
g70
NtRp4913
(dp4914
g73
(dp4915
g93
g94
ssg82
g4909
sg75
(lp4916
S'session_new'
p4917
asbag68
(g89
g70
NtRp4918
(dp4919
g73
(dp4920
g100
g101
ssg82
g4909
sg75
(lp4921
S':'
asbag68
(g89
g70
NtRp4922
(dp4923
g73
(dp4924
sg82
g4909
sg75
(lp4925
g68
(g69
g70
NtRp4926
(dp4927
g73
(dp4928
g81
I5
ssg82
g4922
sg75
(lp4929
g111
asbasbasbag68
(g84
g70
NtRp4930
(dp4931
g73
(dp4932
sg82
g3510
sg75
(lp4933
g68
(g89
g70
NtRp4934
(dp4935
g73
(dp4936
g93
g94
ssg82
g4930
sg75
(lp4937
S'status'
p4938
asbag68
(g89
g70
NtRp4939
(dp4940
g73
(dp4941
g100
g101
ssg82
g4930
sg75
(lp4942
S':'
asbag68
(g89
g70
NtRp4943
(dp4944
g73
(dp4945
sg82
g4930
sg75
(lp4946
g68
(g69
g70
NtRp4947
(dp4948
g73
(dp4949
g81
I5
ssg82
g4943
sg75
(lp4950
S'200'
p4951
asbasbasbag68
(g84
g70
NtRp4952
(dp4953
g73
(dp4954
sg82
g3510
sg75
(lp4955
g68
(g89
g70
NtRp4956
(dp4957
g73
(dp4958
g93
g94
ssg82
g4952
sg75
(lp4959
S'subtitle'
p4960
asbag68
(g89
g70
NtRp4961
(dp4962
g73
(dp4963
g100
g101
ssg82
g4952
sg75
(lp4964
S':'
asbag68
(g89
g70
NtRp4965
(dp4966
g73
(dp4967
sg82
g4952
sg75
(lp4968
g68
(g69
g70
NtRp4969
(dp4970
g73
(dp4971
g81
I5
ssg82
g4965
sg75
(lp4972
g4042
(S's;\x00\x00\x00A tool for managing primary-text research in the humanities'
tRp4973
asbasbasbag68
(g84
g70
NtRp4974
(dp4975
g73
(dp4976
sg82
g3510
sg75
(lp4977
g68
(g89
g70
NtRp4978
(dp4979
g73
(dp4980
g93
g94
ssg82
g4974
sg75
(lp4981
S'title'
p4982
asbag68
(g89
g70
NtRp4983
(dp4984
g73
(dp4985
g100
g101
ssg82
g4974
sg75
(lp4986
S':'
asbag68
(g89
g70
NtRp4987
(dp4988
g73
(dp4989
sg82
g4974
sg75
(lp4990
g68
(g69
g70
NtRp4991
(dp4992
g73
(dp4993
g81
I5
ssg82
g4987
sg75
(lp4994
g133
asbasbasbag68
(g84
g70
NtRp4995
(dp4996
g73
(dp4997
sg82
g3510
sg75
(lp4998
g68
(g89
g70
NtRp4999
(dp5000
g73
(dp5001
g93
g94
ssg82
g4995
sg75
(lp5002
g2426
asbag68
(g89
g70
NtRp5003
(dp5004
g73
(dp5005
g100
g101
ssg82
g4995
sg75
(lp5006
S':'
asbag68
(g89
g70
NtRp5007
(dp5008
g73
(dp5009
sg82
g4995
sg75
(lp5010
g68
(g69
g70
NtRp5011
(dp5012
g73
(dp5013
g81
I5
ssg82
g5007
sg75
(lp5014
g2439
asbasbasbag68
(g84
g70
NtRp5015
(dp5016
g73
(dp5017
sg82
g3510
sg75
(lp5018
g68
(g89
g70
NtRp5019
(dp5020
g73
(dp5021
g93
g94
ssg82
g5015
sg75
(lp5022
S'view'
p5023
asbag68
(g89
g70
NtRp5024
(dp5025
g73
(dp5026
g100
g101
ssg82
g5015
sg75
(lp5027
S':'
asbag68
(g89
g70
NtRp5028
(dp5029
g73
(dp5030
sg82
g5015
sg75
(lp5031
g68
(g69
g70
NtRp5032
(dp5033
g73
(dp5034
g81
I5
ssg82
g5028
sg75
(lp5035
S'plugin_listandedit/list.html'
p5036
asbasbasbasbasbsS'locals'
p5037
(dp5038
g3
S"'/home/ian/web2py/applications/topoi/views/plugin_listandedit/list.html'"
p5039
sg5
S'\'response.write(\\\'<!DOCTYPE html>\\\\n<html lang="\\\', ...n       -->\\\\n  </body>\\\\n</html>\\\\n\\\', escape=False)\''
p5040
sssS'traceback'
p5041
S'Traceback (most recent call last):\n  File "/home/ian/web2py/gluon/restricted.py", line 193, in restricted\n    ccode = compile2(code,layer)\n  File "/home/ian/web2py/gluon/restricted.py", line 179, in compile2\n    return compile(code.rstrip().replace(\'\\r\\n\',\'\\n\')+\'\\n\', layer, \'exec\')\n  File "/home/ian/web2py/applications/topoi/views/plugin_listandedit/list.html", line 32\n    response.files.append(URL\'static\', \'plugin_framework/jquery-ui/theme/jquery-ui-1.8.16.custom.css\'))\n                                    ^\nSyntaxError: invalid syntax\n'
p5042
s.