(dp1
S'output'
p2
S''
sS'layer'
p3
S'/home/ian/web2py/applications/topoi/controllers/plugin_ajaxselect.py'
p4
sS'code'
p5
S'from gluon.sqlhtml import OptionsWidget\n\n\ndef set_widget():\n    """\n    creates an instance of the OptionsWidget class defined in gluon.sqlhtml and returns the result to populate the ajax LOAD field\n    """\n\n    #get variables to build widget for the proper field, with proper current value\n    table = request.args[0]\n    field = request.args[1]\n    value = request.args[2]\n    linktable = request.args[3]\n    loadname = request.args[4]\n\n    the_table = db[table]\n    the_field = the_table[field]\n    the_linktable = db[linktable]\n\n    """\n    formname = \'%s/create\' % (linktable)\n\n    form = SQLFORM(the_linktable)\n    if form.accepts(request, session, formname = formname):\n        response.flash = \'form accepted\'\n        #response.js = "web2py_component(\'%\', \'%\');" % (comp_url, loadname)\n    else:\n        response.error = \'form was not processed\'\n    """\n\n    w = OptionsWidget.widget(self.field, self.value)\n\n    return dict(widget = w, loadname = loadname) # form = form,\n\nresponse._vars=response._caller(set_widget)\n'
p6
sS'snapshot'
p7
(dp8
S'exception'
p9
(dp10
S'__hash__'
p11
S"<method-wrapper '__hash__' of exceptions.NameError object>"
p12
sS'__setattr__'
p13
S"<method-wrapper '__setattr__' of exceptions.NameError object>"
p14
sS'__reduce_ex__'
p15
S'<built-in method __reduce_ex__ of exceptions.NameError object>'
p16
sS'__getslice__'
p17
S"<method-wrapper '__getslice__' of exceptions.NameError object>"
p18
sS'__getitem__'
p19
S"<method-wrapper '__getitem__' of exceptions.NameError object>"
p20
sS'__setstate__'
p21
S'<built-in method __setstate__ of exceptions.NameError object>'
p22
sS'args'
p23
S'("global name \'self\' is not defined",)'
p24
sS'__reduce__'
p25
S'<built-in method __reduce__ of exceptions.NameError object>'
p26
sS'__str__'
p27
S"<method-wrapper '__str__' of exceptions.NameError object>"
p28
sS'__format__'
p29
S'<built-in method __format__ of exceptions.NameError object>'
p30
sS'__getattribute__'
p31
S"<method-wrapper '__getattribute__' of exceptions.NameError object>"
p32
sS'__class__'
p33
S"<type 'exceptions.NameError'>"
p34
sS'__unicode__'
p35
S'<built-in method __unicode__ of exceptions.NameError object>'
p36
sS'__delattr__'
p37
S"<method-wrapper '__delattr__' of exceptions.NameError object>"
p38
sS'__subclasshook__'
p39
S'<built-in method __subclasshook__ of type object>'
p40
sS'__repr__'
p41
S"<method-wrapper '__repr__' of exceptions.NameError object>"
p42
sS'__dict__'
p43
S'{}'
p44
sS'__sizeof__'
p45
S'<built-in method __sizeof__ of exceptions.NameError object>'
p46
sS'__doc__'
p47
S"'Name not found globally.'"
p48
sS'__init__'
p49
S"<method-wrapper '__init__' of exceptions.NameError object>"
p50
sS'__new__'
p51
S'<built-in method __new__ of type object>'
p52
ssS'evalue'
p53
S"global name 'self' is not defined"
p54
sS'request'
p55
ccopy_reg
_reconstructor
p56
(cgluon.html
BEAUTIFY
p57
c__builtin__
object
p58
NtRp59
(dp60
S'attributes'
p61
(dp62
sS'components'
p63
(lp64
g56
(cgluon.html
TABLE
p65
g58
NtRp66
(dp67
g61
(dp68
S'level'
p69
I5
ssS'parent'
p70
Nsg63
(lp71
g56
(cgluon.html
TR
p72
g58
NtRp73
(dp74
g61
(dp75
sg70
g66
sg63
(lp76
g56
(cgluon.html
TD
p77
g58
NtRp78
(dp79
g61
(dp80
S'_style'
p81
S'font-weight:bold;'
p82
ssg70
g73
sg63
(lp83
S'ajax'
p84
asbag56
(g77
g58
NtRp85
(dp86
g61
(dp87
S'_valign'
p88
S'top'
p89
ssg70
g73
sg63
(lp90
S':'
asbag56
(g77
g58
NtRp91
(dp92
g61
(dp93
sg70
g73
sg63
(lp94
g56
(g57
g58
NtRp95
(dp96
g61
(dp97
g69
I5
ssg70
g91
sg63
(lp98
S'True'
p99
asbasbasbag56
(g72
g58
NtRp100
(dp101
g61
(dp102
sg70
g66
sg63
(lp103
g56
(g77
g58
NtRp104
(dp105
g61
(dp106
g81
g82
ssg70
g100
sg63
(lp107
S'application'
p108
asbag56
(g77
g58
NtRp109
(dp110
g61
(dp111
g88
g89
ssg70
g100
sg63
(lp112
S':'
asbag56
(g77
g58
NtRp113
(dp114
g61
(dp115
sg70
g100
sg63
(lp116
g56
(g57
g58
NtRp117
(dp118
g61
(dp119
g69
I5
ssg70
g113
sg63
(lp120
S'topoi'
p121
asbasbasbag56
(g72
g58
NtRp122
(dp123
g61
(dp124
sg70
g66
sg63
(lp125
g56
(g77
g58
NtRp126
(dp127
g61
(dp128
g81
g82
ssg70
g122
sg63
(lp129
g23
asbag56
(g77
g58
NtRp130
(dp131
g61
(dp132
g88
g89
ssg70
g122
sg63
(lp133
S':'
asbag56
(g77
g58
NtRp134
(dp135
g61
(dp136
sg70
g122
sg63
(lp137
g56
(g57
g58
NtRp138
(dp139
g61
(dp140
g69
I5
ssg70
g134
sg63
(lp141
g56
(g65
g58
NtRp142
(dp143
g61
(dp144
g69
I4
ssg70
Nsg63
(lp145
g56
(g72
g58
NtRp146
(dp147
g61
(dp148
sg70
g142
sg63
(lp149
g56
(g77
g58
NtRp150
(dp151
g61
(dp152
sg70
g146
sg63
(lp153
g56
(g57
g58
NtRp154
(dp155
g61
(dp156
g69
I4
ssg70
g150
sg63
(lp157
S'notes'
p158
asbasbasbag56
(g72
g58
NtRp159
(dp160
g61
(dp161
sg70
g142
sg63
(lp162
g56
(g77
g58
NtRp163
(dp164
g61
(dp165
sg70
g159
sg63
(lp166
g56
(g57
g58
NtRp167
(dp168
g61
(dp169
g69
I4
ssg70
g163
sg63
(lp170
S'author'
p171
asbasbasbag56
(g72
g58
NtRp172
(dp173
g61
(dp174
sg70
g142
sg63
(lp175
g56
(g77
g58
NtRp176
(dp177
g61
(dp178
sg70
g172
sg63
(lp179
g56
(g57
g58
NtRp180
(dp181
g61
(dp182
g69
I4
ssg70
g176
sg63
(lp183
S'10'
p184
asbasbasbag56
(g72
g58
NtRp185
(dp186
g61
(dp187
sg70
g142
sg63
(lp188
g56
(g77
g58
NtRp189
(dp190
g61
(dp191
sg70
g185
sg63
(lp192
g56
(g57
g58
NtRp193
(dp194
g61
(dp195
g69
I4
ssg70
g189
sg63
(lp196
S'authors'
p197
asbasbasbag56
(g72
g58
NtRp198
(dp199
g61
(dp200
sg70
g142
sg63
(lp201
g56
(g77
g58
NtRp202
(dp203
g61
(dp204
sg70
g198
sg63
(lp205
g56
(g57
g58
NtRp206
(dp207
g61
(dp208
g69
I4
ssg70
g202
sg63
(lp209
S'notes_author_loader'
p210
asbasbasbasbasbasbasbag56
(g72
g58
NtRp211
(dp212
g61
(dp213
sg70
g66
sg63
(lp214
g56
(g77
g58
NtRp215
(dp216
g61
(dp217
g81
g82
ssg70
g211
sg63
(lp218
S'body'
p219
asbag56
(g77
g58
NtRp220
(dp221
g61
(dp222
g88
g89
ssg70
g211
sg63
(lp223
S':'
asbag56
(g77
g58
NtRp224
(dp225
g61
(dp226
sg70
g211
sg63
(lp227
g56
(g57
g58
NtRp228
(dp229
g61
(dp230
g69
I5
ssg70
g224
sg63
(lp231
S'<cStringIO.StringO object at 0x3df3928>'
p232
asbasbasbag56
(g72
g58
NtRp233
(dp234
g61
(dp235
sg70
g66
sg63
(lp236
g56
(g77
g58
NtRp237
(dp238
g61
(dp239
g81
g82
ssg70
g233
sg63
(lp240
S'cid'
p241
asbag56
(g77
g58
NtRp242
(dp243
g61
(dp244
g88
g89
ssg70
g233
sg63
(lp245
S':'
asbag56
(g77
g58
NtRp246
(dp247
g61
(dp248
sg70
g233
sg63
(lp249
g56
(g57
g58
NtRp250
(dp251
g61
(dp252
g69
I5
ssg70
g246
sg63
(lp253
S'notes_author_loader'
p254
asbasbasbag56
(g72
g58
NtRp255
(dp256
g61
(dp257
sg70
g66
sg63
(lp258
g56
(g77
g58
NtRp259
(dp260
g61
(dp261
g81
g82
ssg70
g255
sg63
(lp262
S'client'
p263
asbag56
(g77
g58
NtRp264
(dp265
g61
(dp266
g88
g89
ssg70
g255
sg63
(lp267
S':'
asbag56
(g77
g58
NtRp268
(dp269
g61
(dp270
sg70
g255
sg63
(lp271
g56
(g57
g58
NtRp272
(dp273
g61
(dp274
g69
I5
ssg70
g268
sg63
(lp275
S'127.0.0.1'
p276
asbasbasbag56
(g72
g58
NtRp277
(dp278
g61
(dp279
sg70
g66
sg63
(lp280
g56
(g77
g58
NtRp281
(dp282
g61
(dp283
g81
g82
ssg70
g277
sg63
(lp284
S'controller'
p285
asbag56
(g77
g58
NtRp286
(dp287
g61
(dp288
g88
g89
ssg70
g277
sg63
(lp289
S':'
asbag56
(g77
g58
NtRp290
(dp291
g61
(dp292
sg70
g277
sg63
(lp293
g56
(g57
g58
NtRp294
(dp295
g61
(dp296
g69
I5
ssg70
g290
sg63
(lp297
S'plugin_ajaxselect'
p298
asbasbasbag56
(g72
g58
NtRp299
(dp300
g61
(dp301
sg70
g66
sg63
(lp302
g56
(g77
g58
NtRp303
(dp304
g61
(dp305
g81
g82
ssg70
g299
sg63
(lp306
S'cookies'
p307
asbag56
(g77
g58
NtRp308
(dp309
g61
(dp310
g88
g89
ssg70
g299
sg63
(lp311
S':'
asbag56
(g77
g58
NtRp312
(dp313
g61
(dp314
sg70
g299
sg63
(lp315
g56
(g57
g58
NtRp316
(dp317
g61
(dp318
g69
I5
ssg70
g312
sg63
(lp319
g56
(g65
g58
NtRp320
(dp321
g61
(dp322
g69
I4
ssg70
Nsg63
(lp323
g56
(g72
g58
NtRp324
(dp325
g61
(dp326
sg70
g320
sg63
(lp327
g56
(g77
g58
NtRp328
(dp329
g61
(dp330
g81
g82
ssg70
g324
sg63
(lp331
S'session_id_admin'
p332
asbag56
(g77
g58
NtRp333
(dp334
g61
(dp335
g88
g89
ssg70
g324
sg63
(lp336
S':'
asbag56
(g77
g58
NtRp337
(dp338
g61
(dp339
sg70
g324
sg63
(lp340
g56
(g57
g58
NtRp341
(dp342
g61
(dp343
g69
I4
ssg70
g337
sg63
(lp344
g56
(g65
g58
NtRp345
(dp346
g61
(dp347
g69
I3
ssg70
Nsg63
(lp348
g56
(g72
g58
NtRp349
(dp350
g61
(dp351
sg70
g345
sg63
(lp352
g56
(g77
g58
NtRp353
(dp354
g61
(dp355
g81
g82
ssg70
g349
sg63
(lp356
S'comment'
p357
asbag56
(g77
g58
NtRp358
(dp359
g61
(dp360
g88
g89
ssg70
g349
sg63
(lp361
S':'
asbag56
(g77
g58
NtRp362
(dp363
g61
(dp364
sg70
g349
sg63
(lp365
g56
(g57
g58
NtRp366
(dp367
g61
(dp368
g69
I3
ssg70
g362
sg63
(lp369
S''
asbasbasbag56
(g72
g58
NtRp370
(dp371
g61
(dp372
sg70
g345
sg63
(lp373
g56
(g77
g58
NtRp374
(dp375
g61
(dp376
g81
g82
ssg70
g370
sg63
(lp377
S'domain'
p378
asbag56
(g77
g58
NtRp379
(dp380
g61
(dp381
g88
g89
ssg70
g370
sg63
(lp382
S':'
asbag56
(g77
g58
NtRp383
(dp384
g61
(dp385
sg70
g370
sg63
(lp386
g56
(g57
g58
NtRp387
(dp388
g61
(dp389
g69
I3
ssg70
g383
sg63
(lp390
S''
asbasbasbag56
(g72
g58
NtRp391
(dp392
g61
(dp393
sg70
g345
sg63
(lp394
g56
(g77
g58
NtRp395
(dp396
g61
(dp397
g81
g82
ssg70
g391
sg63
(lp398
S'expires'
p399
asbag56
(g77
g58
NtRp400
(dp401
g61
(dp402
g88
g89
ssg70
g391
sg63
(lp403
S':'
asbag56
(g77
g58
NtRp404
(dp405
g61
(dp406
sg70
g391
sg63
(lp407
g56
(g57
g58
NtRp408
(dp409
g61
(dp410
g69
I3
ssg70
g404
sg63
(lp411
S''
asbasbasbag56
(g72
g58
NtRp412
(dp413
g61
(dp414
sg70
g345
sg63
(lp415
g56
(g77
g58
NtRp416
(dp417
g61
(dp418
g81
g82
ssg70
g412
sg63
(lp419
S'httponly'
p420
asbag56
(g77
g58
NtRp421
(dp422
g61
(dp423
g88
g89
ssg70
g412
sg63
(lp424
S':'
asbag56
(g77
g58
NtRp425
(dp426
g61
(dp427
sg70
g412
sg63
(lp428
g56
(g57
g58
NtRp429
(dp430
g61
(dp431
g69
I3
ssg70
g425
sg63
(lp432
S''
asbasbasbag56
(g72
g58
NtRp433
(dp434
g61
(dp435
sg70
g345
sg63
(lp436
g56
(g77
g58
NtRp437
(dp438
g61
(dp439
g81
g82
ssg70
g433
sg63
(lp440
S'max-age'
p441
asbag56
(g77
g58
NtRp442
(dp443
g61
(dp444
g88
g89
ssg70
g433
sg63
(lp445
S':'
asbag56
(g77
g58
NtRp446
(dp447
g61
(dp448
sg70
g433
sg63
(lp449
g56
(g57
g58
NtRp450
(dp451
g61
(dp452
g69
I3
ssg70
g446
sg63
(lp453
S''
asbasbasbag56
(g72
g58
NtRp454
(dp455
g61
(dp456
sg70
g345
sg63
(lp457
g56
(g77
g58
NtRp458
(dp459
g61
(dp460
g81
g82
ssg70
g454
sg63
(lp461
S'path'
p462
asbag56
(g77
g58
NtRp463
(dp464
g61
(dp465
g88
g89
ssg70
g454
sg63
(lp466
S':'
asbag56
(g77
g58
NtRp467
(dp468
g61
(dp469
sg70
g454
sg63
(lp470
g56
(g57
g58
NtRp471
(dp472
g61
(dp473
g69
I3
ssg70
g467
sg63
(lp474
S''
asbasbasbag56
(g72
g58
NtRp475
(dp476
g61
(dp477
sg70
g345
sg63
(lp478
g56
(g77
g58
NtRp479
(dp480
g61
(dp481
g81
g82
ssg70
g475
sg63
(lp482
S'secure'
p483
asbag56
(g77
g58
NtRp484
(dp485
g61
(dp486
g88
g89
ssg70
g475
sg63
(lp487
S':'
asbag56
(g77
g58
NtRp488
(dp489
g61
(dp490
sg70
g475
sg63
(lp491
g56
(g57
g58
NtRp492
(dp493
g61
(dp494
g69
I3
ssg70
g488
sg63
(lp495
S''
asbasbasbag56
(g72
g58
NtRp496
(dp497
g61
(dp498
sg70
g345
sg63
(lp499
g56
(g77
g58
NtRp500
(dp501
g61
(dp502
g81
g82
ssg70
g496
sg63
(lp503
S'version'
p504
asbag56
(g77
g58
NtRp505
(dp506
g61
(dp507
g88
g89
ssg70
g496
sg63
(lp508
S':'
asbag56
(g77
g58
NtRp509
(dp510
g61
(dp511
sg70
g496
sg63
(lp512
g56
(g57
g58
NtRp513
(dp514
g61
(dp515
g69
I3
ssg70
g509
sg63
(lp516
S''
asbasbasbasbasbasbasbag56
(g72
g58
NtRp517
(dp518
g61
(dp519
sg70
g320
sg63
(lp520
g56
(g77
g58
NtRp521
(dp522
g61
(dp523
g81
g82
ssg70
g517
sg63
(lp524
S'session_id_topoi'
p525
asbag56
(g77
g58
NtRp526
(dp527
g61
(dp528
g88
g89
ssg70
g517
sg63
(lp529
S':'
asbag56
(g77
g58
NtRp530
(dp531
g61
(dp532
sg70
g517
sg63
(lp533
g56
(g57
g58
NtRp534
(dp535
g61
(dp536
g69
I4
ssg70
g530
sg63
(lp537
g56
(g65
g58
NtRp538
(dp539
g61
(dp540
g69
I3
ssg70
Nsg63
(lp541
g56
(g72
g58
NtRp542
(dp543
g61
(dp544
sg70
g538
sg63
(lp545
g56
(g77
g58
NtRp546
(dp547
g61
(dp548
g81
g82
ssg70
g542
sg63
(lp549
g357
asbag56
(g77
g58
NtRp550
(dp551
g61
(dp552
g88
g89
ssg70
g542
sg63
(lp553
S':'
asbag56
(g77
g58
NtRp554
(dp555
g61
(dp556
sg70
g542
sg63
(lp557
g56
(g57
g58
NtRp558
(dp559
g61
(dp560
g69
I3
ssg70
g554
sg63
(lp561
S''
asbasbasbag56
(g72
g58
NtRp562
(dp563
g61
(dp564
sg70
g538
sg63
(lp565
g56
(g77
g58
NtRp566
(dp567
g61
(dp568
g81
g82
ssg70
g562
sg63
(lp569
g378
asbag56
(g77
g58
NtRp570
(dp571
g61
(dp572
g88
g89
ssg70
g562
sg63
(lp573
S':'
asbag56
(g77
g58
NtRp574
(dp575
g61
(dp576
sg70
g562
sg63
(lp577
g56
(g57
g58
NtRp578
(dp579
g61
(dp580
g69
I3
ssg70
g574
sg63
(lp581
S''
asbasbasbag56
(g72
g58
NtRp582
(dp583
g61
(dp584
sg70
g538
sg63
(lp585
g56
(g77
g58
NtRp586
(dp587
g61
(dp588
g81
g82
ssg70
g582
sg63
(lp589
g399
asbag56
(g77
g58
NtRp590
(dp591
g61
(dp592
g88
g89
ssg70
g582
sg63
(lp593
S':'
asbag56
(g77
g58
NtRp594
(dp595
g61
(dp596
sg70
g582
sg63
(lp597
g56
(g57
g58
NtRp598
(dp599
g61
(dp600
g69
I3
ssg70
g594
sg63
(lp601
S''
asbasbasbag56
(g72
g58
NtRp602
(dp603
g61
(dp604
sg70
g538
sg63
(lp605
g56
(g77
g58
NtRp606
(dp607
g61
(dp608
g81
g82
ssg70
g602
sg63
(lp609
g420
asbag56
(g77
g58
NtRp610
(dp611
g61
(dp612
g88
g89
ssg70
g602
sg63
(lp613
S':'
asbag56
(g77
g58
NtRp614
(dp615
g61
(dp616
sg70
g602
sg63
(lp617
g56
(g57
g58
NtRp618
(dp619
g61
(dp620
g69
I3
ssg70
g614
sg63
(lp621
S''
asbasbasbag56
(g72
g58
NtRp622
(dp623
g61
(dp624
sg70
g538
sg63
(lp625
g56
(g77
g58
NtRp626
(dp627
g61
(dp628
g81
g82
ssg70
g622
sg63
(lp629
g441
asbag56
(g77
g58
NtRp630
(dp631
g61
(dp632
g88
g89
ssg70
g622
sg63
(lp633
S':'
asbag56
(g77
g58
NtRp634
(dp635
g61
(dp636
sg70
g622
sg63
(lp637
g56
(g57
g58
NtRp638
(dp639
g61
(dp640
g69
I3
ssg70
g634
sg63
(lp641
S''
asbasbasbag56
(g72
g58
NtRp642
(dp643
g61
(dp644
sg70
g538
sg63
(lp645
g56
(g77
g58
NtRp646
(dp647
g61
(dp648
g81
g82
ssg70
g642
sg63
(lp649
g462
asbag56
(g77
g58
NtRp650
(dp651
g61
(dp652
g88
g89
ssg70
g642
sg63
(lp653
S':'
asbag56
(g77
g58
NtRp654
(dp655
g61
(dp656
sg70
g642
sg63
(lp657
g56
(g57
g58
NtRp658
(dp659
g61
(dp660
g69
I3
ssg70
g654
sg63
(lp661
S''
asbasbasbag56
(g72
g58
NtRp662
(dp663
g61
(dp664
sg70
g538
sg63
(lp665
g56
(g77
g58
NtRp666
(dp667
g61
(dp668
g81
g82
ssg70
g662
sg63
(lp669
g483
asbag56
(g77
g58
NtRp670
(dp671
g61
(dp672
g88
g89
ssg70
g662
sg63
(lp673
S':'
asbag56
(g77
g58
NtRp674
(dp675
g61
(dp676
sg70
g662
sg63
(lp677
g56
(g57
g58
NtRp678
(dp679
g61
(dp680
g69
I3
ssg70
g674
sg63
(lp681
S''
asbasbasbag56
(g72
g58
NtRp682
(dp683
g61
(dp684
sg70
g538
sg63
(lp685
g56
(g77
g58
NtRp686
(dp687
g61
(dp688
g81
g82
ssg70
g682
sg63
(lp689
g504
asbag56
(g77
g58
NtRp690
(dp691
g61
(dp692
g88
g89
ssg70
g682
sg63
(lp693
S':'
asbag56
(g77
g58
NtRp694
(dp695
g61
(dp696
sg70
g682
sg63
(lp697
g56
(g57
g58
NtRp698
(dp699
g61
(dp700
g69
I3
ssg70
g694
sg63
(lp701
S''
asbasbasbasbasbasbasbag56
(g72
g58
NtRp702
(dp703
g61
(dp704
sg70
g320
sg63
(lp705
g56
(g77
g58
NtRp706
(dp707
g61
(dp708
g81
g82
ssg70
g702
sg63
(lp709
S'session_id_welcome'
p710
asbag56
(g77
g58
NtRp711
(dp712
g61
(dp713
g88
g89
ssg70
g702
sg63
(lp714
S':'
asbag56
(g77
g58
NtRp715
(dp716
g61
(dp717
sg70
g702
sg63
(lp718
g56
(g57
g58
NtRp719
(dp720
g61
(dp721
g69
I4
ssg70
g715
sg63
(lp722
g56
(g65
g58
NtRp723
(dp724
g61
(dp725
g69
I3
ssg70
Nsg63
(lp726
g56
(g72
g58
NtRp727
(dp728
g61
(dp729
sg70
g723
sg63
(lp730
g56
(g77
g58
NtRp731
(dp732
g61
(dp733
g81
g82
ssg70
g727
sg63
(lp734
g357
asbag56
(g77
g58
NtRp735
(dp736
g61
(dp737
g88
g89
ssg70
g727
sg63
(lp738
S':'
asbag56
(g77
g58
NtRp739
(dp740
g61
(dp741
sg70
g727
sg63
(lp742
g56
(g57
g58
NtRp743
(dp744
g61
(dp745
g69
I3
ssg70
g739
sg63
(lp746
S''
asbasbasbag56
(g72
g58
NtRp747
(dp748
g61
(dp749
sg70
g723
sg63
(lp750
g56
(g77
g58
NtRp751
(dp752
g61
(dp753
g81
g82
ssg70
g747
sg63
(lp754
g378
asbag56
(g77
g58
NtRp755
(dp756
g61
(dp757
g88
g89
ssg70
g747
sg63
(lp758
S':'
asbag56
(g77
g58
NtRp759
(dp760
g61
(dp761
sg70
g747
sg63
(lp762
g56
(g57
g58
NtRp763
(dp764
g61
(dp765
g69
I3
ssg70
g759
sg63
(lp766
S''
asbasbasbag56
(g72
g58
NtRp767
(dp768
g61
(dp769
sg70
g723
sg63
(lp770
g56
(g77
g58
NtRp771
(dp772
g61
(dp773
g81
g82
ssg70
g767
sg63
(lp774
g399
asbag56
(g77
g58
NtRp775
(dp776
g61
(dp777
g88
g89
ssg70
g767
sg63
(lp778
S':'
asbag56
(g77
g58
NtRp779
(dp780
g61
(dp781
sg70
g767
sg63
(lp782
g56
(g57
g58
NtRp783
(dp784
g61
(dp785
g69
I3
ssg70
g779
sg63
(lp786
S''
asbasbasbag56
(g72
g58
NtRp787
(dp788
g61
(dp789
sg70
g723
sg63
(lp790
g56
(g77
g58
NtRp791
(dp792
g61
(dp793
g81
g82
ssg70
g787
sg63
(lp794
g420
asbag56
(g77
g58
NtRp795
(dp796
g61
(dp797
g88
g89
ssg70
g787
sg63
(lp798
S':'
asbag56
(g77
g58
NtRp799
(dp800
g61
(dp801
sg70
g787
sg63
(lp802
g56
(g57
g58
NtRp803
(dp804
g61
(dp805
g69
I3
ssg70
g799
sg63
(lp806
S''
asbasbasbag56
(g72
g58
NtRp807
(dp808
g61
(dp809
sg70
g723
sg63
(lp810
g56
(g77
g58
NtRp811
(dp812
g61
(dp813
g81
g82
ssg70
g807
sg63
(lp814
g441
asbag56
(g77
g58
NtRp815
(dp816
g61
(dp817
g88
g89
ssg70
g807
sg63
(lp818
S':'
asbag56
(g77
g58
NtRp819
(dp820
g61
(dp821
sg70
g807
sg63
(lp822
g56
(g57
g58
NtRp823
(dp824
g61
(dp825
g69
I3
ssg70
g819
sg63
(lp826
S''
asbasbasbag56
(g72
g58
NtRp827
(dp828
g61
(dp829
sg70
g723
sg63
(lp830
g56
(g77
g58
NtRp831
(dp832
g61
(dp833
g81
g82
ssg70
g827
sg63
(lp834
g462
asbag56
(g77
g58
NtRp835
(dp836
g61
(dp837
g88
g89
ssg70
g827
sg63
(lp838
S':'
asbag56
(g77
g58
NtRp839
(dp840
g61
(dp841
sg70
g827
sg63
(lp842
g56
(g57
g58
NtRp843
(dp844
g61
(dp845
g69
I3
ssg70
g839
sg63
(lp846
S''
asbasbasbag56
(g72
g58
NtRp847
(dp848
g61
(dp849
sg70
g723
sg63
(lp850
g56
(g77
g58
NtRp851
(dp852
g61
(dp853
g81
g82
ssg70
g847
sg63
(lp854
g483
asbag56
(g77
g58
NtRp855
(dp856
g61
(dp857
g88
g89
ssg70
g847
sg63
(lp858
S':'
asbag56
(g77
g58
NtRp859
(dp860
g61
(dp861
sg70
g847
sg63
(lp862
g56
(g57
g58
NtRp863
(dp864
g61
(dp865
g69
I3
ssg70
g859
sg63
(lp866
S''
asbasbasbag56
(g72
g58
NtRp867
(dp868
g61
(dp869
sg70
g723
sg63
(lp870
g56
(g77
g58
NtRp871
(dp872
g61
(dp873
g81
g82
ssg70
g867
sg63
(lp874
g504
asbag56
(g77
g58
NtRp875
(dp876
g61
(dp877
g88
g89
ssg70
g867
sg63
(lp878
S':'
asbag56
(g77
g58
NtRp879
(dp880
g61
(dp881
sg70
g867
sg63
(lp882
g56
(g57
g58
NtRp883
(dp884
g61
(dp885
g69
I3
ssg70
g879
sg63
(lp886
S''
asbasbasbasbasbasbasbasbasbasbasbag56
(g72
g58
NtRp887
(dp888
g61
(dp889
sg70
g66
sg63
(lp890
g56
(g77
g58
NtRp891
(dp892
g61
(dp893
g81
g82
ssg70
g887
sg63
(lp894
S'env'
p895
asbag56
(g77
g58
NtRp896
(dp897
g61
(dp898
g88
g89
ssg70
g887
sg63
(lp899
S':'
asbag56
(g77
g58
NtRp900
(dp901
g61
(dp902
sg70
g887
sg63
(lp903
g56
(g57
g58
NtRp904
(dp905
g61
(dp906
g69
I5
ssg70
g900
sg63
(lp907
g56
(g65
g58
NtRp908
(dp909
g61
(dp910
g69
I4
ssg70
Nsg63
(lp911
g56
(g72
g58
NtRp912
(dp913
g61
(dp914
sg70
g908
sg63
(lp915
g56
(g77
g58
NtRp916
(dp917
g61
(dp918
g81
g82
ssg70
g912
sg63
(lp919
S'app_folders'
p920
asbag56
(g77
g58
NtRp921
(dp922
g61
(dp923
g88
g89
ssg70
g912
sg63
(lp924
S':'
asbag56
(g77
g58
NtRp925
(dp926
g61
(dp927
sg70
g912
sg63
(lp928
g56
(g57
g58
NtRp929
(dp930
g61
(dp931
g69
I4
ssg70
g925
sg63
(lp932
S"set(['/home/ian/web2py/applications/topoi/', '/home/ian/web2py/applications/welcome/', '/home/ian/web2py/applications/admin/'])"
p933
asbasbasbag56
(g72
g58
NtRp934
(dp935
g61
(dp936
sg70
g908
sg63
(lp937
g56
(g77
g58
NtRp938
(dp939
g61
(dp940
g81
g82
ssg70
g934
sg63
(lp941
S'applications_parent'
p942
asbag56
(g77
g58
NtRp943
(dp944
g61
(dp945
g88
g89
ssg70
g934
sg63
(lp946
S':'
asbag56
(g77
g58
NtRp947
(dp948
g61
(dp949
sg70
g934
sg63
(lp950
g56
(g57
g58
NtRp951
(dp952
g61
(dp953
g69
I4
ssg70
g947
sg63
(lp954
S'/home/ian/web2py'
p955
asbasbasbag56
(g72
g58
NtRp956
(dp957
g61
(dp958
sg70
g908
sg63
(lp959
g56
(g77
g58
NtRp960
(dp961
g61
(dp962
g81
g82
ssg70
g956
sg63
(lp963
S'cmd_args'
p964
asbag56
(g77
g58
NtRp965
(dp966
g61
(dp967
g88
g89
ssg70
g956
sg63
(lp968
S':'
asbag56
(g77
g58
NtRp969
(dp970
g61
(dp971
sg70
g956
sg63
(lp972
g56
(g57
g58
NtRp973
(dp974
g61
(dp975
g69
I4
ssg70
g969
sg63
(lp976
g56
(g65
g58
NtRp977
(dp978
g61
(dp979
g69
I3
ssg70
Nsg63
(lp980
sbasbasbasbag56
(g72
g58
NtRp981
(dp982
g61
(dp983
sg70
g908
sg63
(lp984
g56
(g77
g58
NtRp985
(dp986
g61
(dp987
g81
g82
ssg70
g981
sg63
(lp988
S'cmd_options'
p989
asbag56
(g77
g58
NtRp990
(dp991
g61
(dp992
g88
g89
ssg70
g981
sg63
(lp993
S':'
asbag56
(g77
g58
NtRp994
(dp995
g61
(dp996
sg70
g981
sg63
(lp997
g56
(g57
g58
NtRp998
(dp999
g61
(dp1000
g69
I4
ssg70
g994
sg63
(lp1001
S"<Values at 0x2bbf758: {'verbose': False, 'ip': '127.0.0.1', 'shutdown_timeout': 5, 'taskbar': False, 'nocron': False, 'pid_filename': 'httpserver.pid', 'maxthreads': None, 'softcron': False, 'server_name': 'uriel', 'bpython': False, 'nogui': False, 'port': 8000, 'extcron': False, 'debuglevel': 30, 'test': None, 'folder': '/home/ian/web2py', 'config': '', 'import_models': False, 'winservice': '', 'shell': None, 'run': '', 'log_filename': 'httpserver.log', 'args': [''], 'ssl_ca_certificate': None, 'scheduler': None, 'profiler_filename': None, 'ssl_private_key': '', 'password': '<ask>', 'request_queue_size': 5, 'ssl_certificate': '', 'cronjob': False, 'plain': False, 'quiet': False, 'interfaces': None, 'minthreads': None, 'timeout': 10, 'numthreads': None, 'nobanner': False}>"
p1002
asbasbasbag56
(g72
g58
NtRp1003
(dp1004
g61
(dp1005
sg70
g908
sg63
(lp1006
g56
(g77
g58
NtRp1007
(dp1008
g61
(dp1009
g81
g82
ssg70
g1003
sg63
(lp1010
S'db_sessions'
p1011
asbag56
(g77
g58
NtRp1012
(dp1013
g61
(dp1014
g88
g89
ssg70
g1003
sg63
(lp1015
S':'
asbag56
(g77
g58
NtRp1016
(dp1017
g61
(dp1018
sg70
g1003
sg63
(lp1019
g56
(g57
g58
NtRp1020
(dp1021
g61
(dp1022
g69
I4
ssg70
g1016
sg63
(lp1023
S'set([])'
p1024
asbasbasbag56
(g72
g58
NtRp1025
(dp1026
g61
(dp1027
sg70
g908
sg63
(lp1028
g56
(g77
g58
NtRp1029
(dp1030
g61
(dp1031
g81
g82
ssg70
g1025
sg63
(lp1032
S'debugging'
p1033
asbag56
(g77
g58
NtRp1034
(dp1035
g61
(dp1036
g88
g89
ssg70
g1025
sg63
(lp1037
S':'
asbag56
(g77
g58
NtRp1038
(dp1039
g61
(dp1040
sg70
g1025
sg63
(lp1041
g56
(g57
g58
NtRp1042
(dp1043
g61
(dp1044
g69
I4
ssg70
g1038
sg63
(lp1045
S'False'
p1046
asbasbasbag56
(g72
g58
NtRp1047
(dp1048
g61
(dp1049
sg70
g908
sg63
(lp1050
g56
(g77
g58
NtRp1051
(dp1052
g61
(dp1053
g81
g82
ssg70
g1047
sg63
(lp1054
S'gluon_parent'
p1055
asbag56
(g77
g58
NtRp1056
(dp1057
g61
(dp1058
g88
g89
ssg70
g1047
sg63
(lp1059
S':'
asbag56
(g77
g58
NtRp1060
(dp1061
g61
(dp1062
sg70
g1047
sg63
(lp1063
g56
(g57
g58
NtRp1064
(dp1065
g61
(dp1066
g69
I4
ssg70
g1060
sg63
(lp1067
S'/home/ian/web2py'
p1068
asbasbasbag56
(g72
g58
NtRp1069
(dp1070
g61
(dp1071
sg70
g908
sg63
(lp1072
g56
(g77
g58
NtRp1073
(dp1074
g61
(dp1075
g81
g82
ssg70
g1069
sg63
(lp1076
S'http_accept'
p1077
asbag56
(g77
g58
NtRp1078
(dp1079
g61
(dp1080
g88
g89
ssg70
g1069
sg63
(lp1081
S':'
asbag56
(g77
g58
NtRp1082
(dp1083
g61
(dp1084
sg70
g1069
sg63
(lp1085
g56
(g57
g58
NtRp1086
(dp1087
g61
(dp1088
g69
I4
ssg70
g1082
sg63
(lp1089
S'*/*'
p1090
asbasbasbag56
(g72
g58
NtRp1091
(dp1092
g61
(dp1093
sg70
g908
sg63
(lp1094
g56
(g77
g58
NtRp1095
(dp1096
g61
(dp1097
g81
g82
ssg70
g1091
sg63
(lp1098
S'http_accept_charset'
p1099
asbag56
(g77
g58
NtRp1100
(dp1101
g61
(dp1102
g88
g89
ssg70
g1091
sg63
(lp1103
S':'
asbag56
(g77
g58
NtRp1104
(dp1105
g61
(dp1106
sg70
g1091
sg63
(lp1107
g56
(g57
g58
NtRp1108
(dp1109
g61
(dp1110
g69
I4
ssg70
g1104
sg63
(lp1111
S'UTF-8,*'
p1112
asbasbasbag56
(g72
g58
NtRp1113
(dp1114
g61
(dp1115
sg70
g908
sg63
(lp1116
g56
(g77
g58
NtRp1117
(dp1118
g61
(dp1119
g81
g82
ssg70
g1113
sg63
(lp1120
S'http_accept_encoding'
p1121
asbag56
(g77
g58
NtRp1122
(dp1123
g61
(dp1124
g88
g89
ssg70
g1113
sg63
(lp1125
S':'
asbag56
(g77
g58
NtRp1126
(dp1127
g61
(dp1128
sg70
g1113
sg63
(lp1129
g56
(g57
g58
NtRp1130
(dp1131
g61
(dp1132
g69
I4
ssg70
g1126
sg63
(lp1133
S'gzip, deflate'
p1134
asbasbasbag56
(g72
g58
NtRp1135
(dp1136
g61
(dp1137
sg70
g908
sg63
(lp1138
g56
(g77
g58
NtRp1139
(dp1140
g61
(dp1141
g81
g82
ssg70
g1135
sg63
(lp1142
S'http_accept_language'
p1143
asbag56
(g77
g58
NtRp1144
(dp1145
g61
(dp1146
g88
g89
ssg70
g1135
sg63
(lp1147
S':'
asbag56
(g77
g58
NtRp1148
(dp1149
g61
(dp1150
sg70
g1135
sg63
(lp1151
g56
(g57
g58
NtRp1152
(dp1153
g61
(dp1154
g69
I4
ssg70
g1148
sg63
(lp1155
S'en-us,en;q=0.5'
p1156
asbasbasbag56
(g72
g58
NtRp1157
(dp1158
g61
(dp1159
sg70
g908
sg63
(lp1160
g56
(g77
g58
NtRp1161
(dp1162
g61
(dp1163
g81
g82
ssg70
g1157
sg63
(lp1164
S'http_connection'
p1165
asbag56
(g77
g58
NtRp1166
(dp1167
g61
(dp1168
g88
g89
ssg70
g1157
sg63
(lp1169
S':'
asbag56
(g77
g58
NtRp1170
(dp1171
g61
(dp1172
sg70
g1157
sg63
(lp1173
g56
(g57
g58
NtRp1174
(dp1175
g61
(dp1176
g69
I4
ssg70
g1170
sg63
(lp1177
S'keep-alive'
p1178
asbasbasbag56
(g72
g58
NtRp1179
(dp1180
g61
(dp1181
sg70
g908
sg63
(lp1182
g56
(g77
g58
NtRp1183
(dp1184
g61
(dp1185
g81
g82
ssg70
g1179
sg63
(lp1186
S'http_cookie'
p1187
asbag56
(g77
g58
NtRp1188
(dp1189
g61
(dp1190
g88
g89
ssg70
g1179
sg63
(lp1191
S':'
asbag56
(g77
g58
NtRp1192
(dp1193
g61
(dp1194
sg70
g1179
sg63
(lp1195
g56
(g57
g58
NtRp1196
(dp1197
g61
(dp1198
g69
I4
ssg70
g1192
sg63
(lp1199
S'session_id_topoi=127.0.0.1-fbfd7fa3-57f5-4d42-8f08-594178070e93; session_id_admin=127.0.0.1-ff4950da-4dbe-41f9-a5ad-137fd658c4a2; session_id_welcome=127.0.0.1-90b0a4b8-a263-4e03-8dbf-8f65a376c941'
p1200
asbasbasbag56
(g72
g58
NtRp1201
(dp1202
g61
(dp1203
sg70
g908
sg63
(lp1204
g56
(g77
g58
NtRp1205
(dp1206
g61
(dp1207
g81
g82
ssg70
g1201
sg63
(lp1208
S'http_host'
p1209
asbag56
(g77
g58
NtRp1210
(dp1211
g61
(dp1212
g88
g89
ssg70
g1201
sg63
(lp1213
S':'
asbag56
(g77
g58
NtRp1214
(dp1215
g61
(dp1216
sg70
g1201
sg63
(lp1217
g56
(g57
g58
NtRp1218
(dp1219
g61
(dp1220
g69
I4
ssg70
g1214
sg63
(lp1221
S'127.0.0.1:8000'
p1222
asbasbasbag56
(g72
g58
NtRp1223
(dp1224
g61
(dp1225
sg70
g908
sg63
(lp1226
g56
(g77
g58
NtRp1227
(dp1228
g61
(dp1229
g81
g82
ssg70
g1223
sg63
(lp1230
S'http_referer'
p1231
asbag56
(g77
g58
NtRp1232
(dp1233
g61
(dp1234
g88
g89
ssg70
g1223
sg63
(lp1235
S':'
asbag56
(g77
g58
NtRp1236
(dp1237
g61
(dp1238
sg70
g1223
sg63
(lp1239
g56
(g57
g58
NtRp1240
(dp1241
g61
(dp1242
g69
I4
ssg70
g1236
sg63
(lp1243
S'http://127.0.0.1:8000/topoi/plugin_listandedit/list/notes/1?fields=author&fields=work&fields=reference'
p1244
asbasbasbag56
(g72
g58
NtRp1245
(dp1246
g61
(dp1247
sg70
g908
sg63
(lp1248
g56
(g77
g58
NtRp1249
(dp1250
g61
(dp1251
g81
g82
ssg70
g1245
sg63
(lp1252
S'http_user_agent'
p1253
asbag56
(g77
g58
NtRp1254
(dp1255
g61
(dp1256
g88
g89
ssg70
g1245
sg63
(lp1257
S':'
asbag56
(g77
g58
NtRp1258
(dp1259
g61
(dp1260
sg70
g1245
sg63
(lp1261
g56
(g57
g58
NtRp1262
(dp1263
g61
(dp1264
g69
I4
ssg70
g1258
sg63
(lp1265
S'Mozilla/5.0 (Ubuntu; X11; Linux x86_64; rv:8.0) Gecko/20100101 Firefox/8.0'
p1266
asbasbasbag56
(g72
g58
NtRp1267
(dp1268
g61
(dp1269
sg70
g908
sg63
(lp1270
g56
(g77
g58
NtRp1271
(dp1272
g61
(dp1273
g81
g82
ssg70
g1267
sg63
(lp1274
S'http_web2py_component_element'
p1275
asbag56
(g77
g58
NtRp1276
(dp1277
g61
(dp1278
g88
g89
ssg70
g1267
sg63
(lp1279
S':'
asbag56
(g77
g58
NtRp1280
(dp1281
g61
(dp1282
sg70
g1267
sg63
(lp1283
g56
(g57
g58
NtRp1284
(dp1285
g61
(dp1286
g69
I4
ssg70
g1280
sg63
(lp1287
g254
asbasbasbag56
(g72
g58
NtRp1288
(dp1289
g61
(dp1290
sg70
g908
sg63
(lp1291
g56
(g77
g58
NtRp1292
(dp1293
g61
(dp1294
g81
g82
ssg70
g1288
sg63
(lp1295
S'http_web2py_component_location'
p1296
asbag56
(g77
g58
NtRp1297
(dp1298
g61
(dp1299
g88
g89
ssg70
g1288
sg63
(lp1300
S':'
asbag56
(g77
g58
NtRp1301
(dp1302
g61
(dp1303
sg70
g1288
sg63
(lp1304
g56
(g57
g58
NtRp1305
(dp1306
g61
(dp1307
g69
I4
ssg70
g1301
sg63
(lp1308
S'http://127.0.0.1:8000/topoi/plugin_listandedit/list/notes/1?fields=author&fields=work&fields=reference'
p1309
asbasbasbag56
(g72
g58
NtRp1310
(dp1311
g61
(dp1312
sg70
g908
sg63
(lp1313
g56
(g77
g58
NtRp1314
(dp1315
g61
(dp1316
g81
g82
ssg70
g1310
sg63
(lp1317
S'http_x_requested_with'
p1318
asbag56
(g77
g58
NtRp1319
(dp1320
g61
(dp1321
g88
g89
ssg70
g1310
sg63
(lp1322
S':'
asbag56
(g77
g58
NtRp1323
(dp1324
g61
(dp1325
sg70
g1310
sg63
(lp1326
g56
(g57
g58
NtRp1327
(dp1328
g61
(dp1329
g69
I4
ssg70
g1323
sg63
(lp1330
S'XMLHttpRequest'
p1331
asbasbasbag56
(g72
g58
NtRp1332
(dp1333
g61
(dp1334
sg70
g908
sg63
(lp1335
g56
(g77
g58
NtRp1336
(dp1337
g61
(dp1338
g81
g82
ssg70
g1332
sg63
(lp1339
S'is_jython'
p1340
asbag56
(g77
g58
NtRp1341
(dp1342
g61
(dp1343
g88
g89
ssg70
g1332
sg63
(lp1344
S':'
asbag56
(g77
g58
NtRp1345
(dp1346
g61
(dp1347
sg70
g1332
sg63
(lp1348
g56
(g57
g58
NtRp1349
(dp1350
g61
(dp1351
g69
I4
ssg70
g1345
sg63
(lp1352
g1046
asbasbasbag56
(g72
g58
NtRp1353
(dp1354
g61
(dp1355
sg70
g908
sg63
(lp1356
g56
(g77
g58
NtRp1357
(dp1358
g61
(dp1359
g81
g82
ssg70
g1353
sg63
(lp1360
S'path_info'
p1361
asbag56
(g77
g58
NtRp1362
(dp1363
g61
(dp1364
g88
g89
ssg70
g1353
sg63
(lp1365
S':'
asbag56
(g77
g58
NtRp1366
(dp1367
g61
(dp1368
sg70
g1353
sg63
(lp1369
g56
(g57
g58
NtRp1370
(dp1371
g61
(dp1372
g69
I4
ssg70
g1366
sg63
(lp1373
S'/topoi/plugin_ajaxselect/set_widget.load/notes/author/10/authors/notes_author_loader'
p1374
asbasbasbag56
(g72
g58
NtRp1375
(dp1376
g61
(dp1377
sg70
g908
sg63
(lp1378
g56
(g77
g58
NtRp1379
(dp1380
g61
(dp1381
g81
g82
ssg70
g1375
sg63
(lp1382
S'query_string'
p1383
asbag56
(g77
g58
NtRp1384
(dp1385
g61
(dp1386
g88
g89
ssg70
g1375
sg63
(lp1387
S':'
asbag56
(g77
g58
NtRp1388
(dp1389
g61
(dp1390
sg70
g1375
sg63
(lp1391
g56
(g57
g58
NtRp1392
(dp1393
g61
(dp1394
g69
I4
ssg70
g1388
sg63
(lp1395
S''
asbasbasbag56
(g72
g58
NtRp1396
(dp1397
g61
(dp1398
sg70
g908
sg63
(lp1399
g56
(g77
g58
NtRp1400
(dp1401
g61
(dp1402
g81
g82
ssg70
g1396
sg63
(lp1403
S'remote_addr'
p1404
asbag56
(g77
g58
NtRp1405
(dp1406
g61
(dp1407
g88
g89
ssg70
g1396
sg63
(lp1408
S':'
asbag56
(g77
g58
NtRp1409
(dp1410
g61
(dp1411
sg70
g1396
sg63
(lp1412
g56
(g57
g58
NtRp1413
(dp1414
g61
(dp1415
g69
I4
ssg70
g1409
sg63
(lp1416
g276
asbasbasbag56
(g72
g58
NtRp1417
(dp1418
g61
(dp1419
sg70
g908
sg63
(lp1420
g56
(g77
g58
NtRp1421
(dp1422
g61
(dp1423
g81
g82
ssg70
g1417
sg63
(lp1424
S'remote_port'
p1425
asbag56
(g77
g58
NtRp1426
(dp1427
g61
(dp1428
g88
g89
ssg70
g1417
sg63
(lp1429
S':'
asbag56
(g77
g58
NtRp1430
(dp1431
g61
(dp1432
sg70
g1417
sg63
(lp1433
g56
(g57
g58
NtRp1434
(dp1435
g61
(dp1436
g69
I4
ssg70
g1430
sg63
(lp1437
S'60509'
p1438
asbasbasbag56
(g72
g58
NtRp1439
(dp1440
g61
(dp1441
sg70
g908
sg63
(lp1442
g56
(g77
g58
NtRp1443
(dp1444
g61
(dp1445
g81
g82
ssg70
g1439
sg63
(lp1446
S'request_method'
p1447
asbag56
(g77
g58
NtRp1448
(dp1449
g61
(dp1450
g88
g89
ssg70
g1439
sg63
(lp1451
S':'
asbag56
(g77
g58
NtRp1452
(dp1453
g61
(dp1454
sg70
g1439
sg63
(lp1455
g56
(g57
g58
NtRp1456
(dp1457
g61
(dp1458
g69
I4
ssg70
g1452
sg63
(lp1459
S'GET'
p1460
asbasbasbag56
(g72
g58
NtRp1461
(dp1462
g61
(dp1463
sg70
g908
sg63
(lp1464
g56
(g77
g58
NtRp1465
(dp1466
g61
(dp1467
g81
g82
ssg70
g1461
sg63
(lp1468
S'script_name'
p1469
asbag56
(g77
g58
NtRp1470
(dp1471
g61
(dp1472
g88
g89
ssg70
g1461
sg63
(lp1473
S':'
asbag56
(g77
g58
NtRp1474
(dp1475
g61
(dp1476
sg70
g1461
sg63
(lp1477
g56
(g57
g58
NtRp1478
(dp1479
g61
(dp1480
g69
I4
ssg70
g1474
sg63
(lp1481
S''
asbasbasbag56
(g72
g58
NtRp1482
(dp1483
g61
(dp1484
sg70
g908
sg63
(lp1485
g56
(g77
g58
NtRp1486
(dp1487
g61
(dp1488
g81
g82
ssg70
g1482
sg63
(lp1489
S'server_name'
p1490
asbag56
(g77
g58
NtRp1491
(dp1492
g61
(dp1493
g88
g89
ssg70
g1482
sg63
(lp1494
S':'
asbag56
(g77
g58
NtRp1495
(dp1496
g61
(dp1497
sg70
g1482
sg63
(lp1498
g56
(g57
g58
NtRp1499
(dp1500
g61
(dp1501
g69
I4
ssg70
g1495
sg63
(lp1502
S'uriel'
p1503
asbasbasbag56
(g72
g58
NtRp1504
(dp1505
g61
(dp1506
sg70
g908
sg63
(lp1507
g56
(g77
g58
NtRp1508
(dp1509
g61
(dp1510
g81
g82
ssg70
g1504
sg63
(lp1511
S'server_port'
p1512
asbag56
(g77
g58
NtRp1513
(dp1514
g61
(dp1515
g88
g89
ssg70
g1504
sg63
(lp1516
S':'
asbag56
(g77
g58
NtRp1517
(dp1518
g61
(dp1519
sg70
g1504
sg63
(lp1520
g56
(g57
g58
NtRp1521
(dp1522
g61
(dp1523
g69
I4
ssg70
g1517
sg63
(lp1524
S'8000'
p1525
asbasbasbag56
(g72
g58
NtRp1526
(dp1527
g61
(dp1528
sg70
g908
sg63
(lp1529
g56
(g77
g58
NtRp1530
(dp1531
g61
(dp1532
g81
g82
ssg70
g1526
sg63
(lp1533
S'server_protocol'
p1534
asbag56
(g77
g58
NtRp1535
(dp1536
g61
(dp1537
g88
g89
ssg70
g1526
sg63
(lp1538
S':'
asbag56
(g77
g58
NtRp1539
(dp1540
g61
(dp1541
sg70
g1526
sg63
(lp1542
g56
(g57
g58
NtRp1543
(dp1544
g61
(dp1545
g69
I4
ssg70
g1539
sg63
(lp1546
S'HTTP/1.1'
p1547
asbasbasbag56
(g72
g58
NtRp1548
(dp1549
g61
(dp1550
sg70
g908
sg63
(lp1551
g56
(g77
g58
NtRp1552
(dp1553
g61
(dp1554
g81
g82
ssg70
g1548
sg63
(lp1555
S'server_software'
p1556
asbag56
(g77
g58
NtRp1557
(dp1558
g61
(dp1559
g88
g89
ssg70
g1548
sg63
(lp1560
S':'
asbag56
(g77
g58
NtRp1561
(dp1562
g61
(dp1563
sg70
g1548
sg63
(lp1564
g56
(g57
g58
NtRp1565
(dp1566
g61
(dp1567
g69
I4
ssg70
g1561
sg63
(lp1568
S'Rocket 1.2.4'
p1569
asbasbasbag56
(g72
g58
NtRp1570
(dp1571
g61
(dp1572
sg70
g908
sg63
(lp1573
g56
(g77
g58
NtRp1574
(dp1575
g61
(dp1576
g81
g82
ssg70
g1570
sg63
(lp1577
S'web2py_crontype'
p1578
asbag56
(g77
g58
NtRp1579
(dp1580
g61
(dp1581
g88
g89
ssg70
g1570
sg63
(lp1582
S':'
asbag56
(g77
g58
NtRp1583
(dp1584
g61
(dp1585
sg70
g1570
sg63
(lp1586
g56
(g57
g58
NtRp1587
(dp1588
g61
(dp1589
g69
I4
ssg70
g1583
sg63
(lp1590
S'hard'
p1591
asbasbasbag56
(g72
g58
NtRp1592
(dp1593
g61
(dp1594
sg70
g908
sg63
(lp1595
g56
(g77
g58
NtRp1596
(dp1597
g61
(dp1598
g81
g82
ssg70
g1592
sg63
(lp1599
S'web2py_path'
p1600
asbag56
(g77
g58
NtRp1601
(dp1602
g61
(dp1603
g88
g89
ssg70
g1592
sg63
(lp1604
S':'
asbag56
(g77
g58
NtRp1605
(dp1606
g61
(dp1607
sg70
g1592
sg63
(lp1608
g56
(g57
g58
NtRp1609
(dp1610
g61
(dp1611
g69
I4
ssg70
g1605
sg63
(lp1612
g955
asbasbasbag56
(g72
g58
NtRp1613
(dp1614
g61
(dp1615
sg70
g908
sg63
(lp1616
g56
(g77
g58
NtRp1617
(dp1618
g61
(dp1619
g81
g82
ssg70
g1613
sg63
(lp1620
S'web2py_version'
p1621
asbag56
(g77
g58
NtRp1622
(dp1623
g61
(dp1624
g88
g89
ssg70
g1613
sg63
(lp1625
S':'
asbag56
(g77
g58
NtRp1626
(dp1627
g61
(dp1628
sg70
g1613
sg63
(lp1629
g56
(g57
g58
NtRp1630
(dp1631
g61
(dp1632
g69
I4
ssg70
g1626
sg63
(lp1633
g56
(g65
g58
NtRp1634
(dp1635
g61
(dp1636
g69
I3
ssg70
Nsg63
(lp1637
g56
(g72
g58
NtRp1638
(dp1639
g61
(dp1640
sg70
g1634
sg63
(lp1641
g56
(g77
g58
NtRp1642
(dp1643
g61
(dp1644
sg70
g1638
sg63
(lp1645
g56
(g57
g58
NtRp1646
(dp1647
g61
(dp1648
g69
I3
ssg70
g1642
sg63
(lp1649
S'1'
asbasbasbag56
(g72
g58
NtRp1650
(dp1651
g61
(dp1652
sg70
g1634
sg63
(lp1653
g56
(g77
g58
NtRp1654
(dp1655
g61
(dp1656
sg70
g1650
sg63
(lp1657
g56
(g57
g58
NtRp1658
(dp1659
g61
(dp1660
g69
I3
ssg70
g1654
sg63
(lp1661
S'99'
p1662
asbasbasbag56
(g72
g58
NtRp1663
(dp1664
g61
(dp1665
sg70
g1634
sg63
(lp1666
g56
(g77
g58
NtRp1667
(dp1668
g61
(dp1669
sg70
g1663
sg63
(lp1670
g56
(g57
g58
NtRp1671
(dp1672
g61
(dp1673
g69
I3
ssg70
g1667
sg63
(lp1674
S'2'
asbasbasbag56
(g72
g58
NtRp1675
(dp1676
g61
(dp1677
sg70
g1634
sg63
(lp1678
g56
(g77
g58
NtRp1679
(dp1680
g61
(dp1681
sg70
g1675
sg63
(lp1682
g56
(g57
g58
NtRp1683
(dp1684
g61
(dp1685
g69
I3
ssg70
g1679
sg63
(lp1686
S'datetime.datetime(2011, 9, 26, 6, 55, 33)'
p1687
asbasbasbag56
(g72
g58
NtRp1688
(dp1689
g61
(dp1690
sg70
g1634
sg63
(lp1691
g56
(g77
g58
NtRp1692
(dp1693
g61
(dp1694
sg70
g1688
sg63
(lp1695
g56
(g57
g58
NtRp1696
(dp1697
g61
(dp1698
g69
I3
ssg70
g1692
sg63
(lp1699
S'stable'
p1700
asbasbasbasbasbasbasbag56
(g72
g58
NtRp1701
(dp1702
g61
(dp1703
sg70
g908
sg63
(lp1704
g56
(g77
g58
NtRp1705
(dp1706
g61
(dp1707
g81
g82
ssg70
g1701
sg63
(lp1708
S'wsgi_errors'
p1709
asbag56
(g77
g58
NtRp1710
(dp1711
g61
(dp1712
g88
g89
ssg70
g1701
sg63
(lp1713
S':'
asbag56
(g77
g58
NtRp1714
(dp1715
g61
(dp1716
sg70
g1701
sg63
(lp1717
g56
(g57
g58
NtRp1718
(dp1719
g61
(dp1720
g69
I4
ssg70
g1714
sg63
(lp1721
S"<open file '<stderr>', mode 'w' at 0x7fe34af65270>"
p1722
asbasbasbag56
(g72
g58
NtRp1723
(dp1724
g61
(dp1725
sg70
g908
sg63
(lp1726
g56
(g77
g58
NtRp1727
(dp1728
g61
(dp1729
g81
g82
ssg70
g1723
sg63
(lp1730
S'wsgi_file_wrapper'
p1731
asbag56
(g77
g58
NtRp1732
(dp1733
g61
(dp1734
g88
g89
ssg70
g1723
sg63
(lp1735
S':'
asbag56
(g77
g58
NtRp1736
(dp1737
g61
(dp1738
sg70
g1723
sg63
(lp1739
g56
(g57
g58
NtRp1740
(dp1741
g61
(dp1742
g69
I4
ssg70
g1736
sg63
(lp1743
S'<class wsgiref.util.FileWrapper at 0x2a8a870>'
p1744
asbasbasbag56
(g72
g58
NtRp1745
(dp1746
g61
(dp1747
sg70
g908
sg63
(lp1748
g56
(g77
g58
NtRp1749
(dp1750
g61
(dp1751
g81
g82
ssg70
g1745
sg63
(lp1752
S'wsgi_input'
p1753
asbag56
(g77
g58
NtRp1754
(dp1755
g61
(dp1756
g88
g89
ssg70
g1745
sg63
(lp1757
S':'
asbag56
(g77
g58
NtRp1758
(dp1759
g61
(dp1760
sg70
g1745
sg63
(lp1761
g56
(g57
g58
NtRp1762
(dp1763
g61
(dp1764
g69
I4
ssg70
g1758
sg63
(lp1765
S'<socket._fileobject object at 0x3f38950>'
p1766
asbasbasbag56
(g72
g58
NtRp1767
(dp1768
g61
(dp1769
sg70
g908
sg63
(lp1770
g56
(g77
g58
NtRp1771
(dp1772
g61
(dp1773
g81
g82
ssg70
g1767
sg63
(lp1774
S'wsgi_multiprocess'
p1775
asbag56
(g77
g58
NtRp1776
(dp1777
g61
(dp1778
g88
g89
ssg70
g1767
sg63
(lp1779
S':'
asbag56
(g77
g58
NtRp1780
(dp1781
g61
(dp1782
sg70
g1767
sg63
(lp1783
g56
(g57
g58
NtRp1784
(dp1785
g61
(dp1786
g69
I4
ssg70
g1780
sg63
(lp1787
g1046
asbasbasbag56
(g72
g58
NtRp1788
(dp1789
g61
(dp1790
sg70
g908
sg63
(lp1791
g56
(g77
g58
NtRp1792
(dp1793
g61
(dp1794
g81
g82
ssg70
g1788
sg63
(lp1795
S'wsgi_multithread'
p1796
asbag56
(g77
g58
NtRp1797
(dp1798
g61
(dp1799
g88
g89
ssg70
g1788
sg63
(lp1800
S':'
asbag56
(g77
g58
NtRp1801
(dp1802
g61
(dp1803
sg70
g1788
sg63
(lp1804
g56
(g57
g58
NtRp1805
(dp1806
g61
(dp1807
g69
I4
ssg70
g1801
sg63
(lp1808
g99
asbasbasbag56
(g72
g58
NtRp1809
(dp1810
g61
(dp1811
sg70
g908
sg63
(lp1812
g56
(g77
g58
NtRp1813
(dp1814
g61
(dp1815
g81
g82
ssg70
g1809
sg63
(lp1816
S'wsgi_run_once'
p1817
asbag56
(g77
g58
NtRp1818
(dp1819
g61
(dp1820
g88
g89
ssg70
g1809
sg63
(lp1821
S':'
asbag56
(g77
g58
NtRp1822
(dp1823
g61
(dp1824
sg70
g1809
sg63
(lp1825
g56
(g57
g58
NtRp1826
(dp1827
g61
(dp1828
g69
I4
ssg70
g1822
sg63
(lp1829
g1046
asbasbasbag56
(g72
g58
NtRp1830
(dp1831
g61
(dp1832
sg70
g908
sg63
(lp1833
g56
(g77
g58
NtRp1834
(dp1835
g61
(dp1836
g81
g82
ssg70
g1830
sg63
(lp1837
S'wsgi_url_scheme'
p1838
asbag56
(g77
g58
NtRp1839
(dp1840
g61
(dp1841
g88
g89
ssg70
g1830
sg63
(lp1842
S':'
asbag56
(g77
g58
NtRp1843
(dp1844
g61
(dp1845
sg70
g1830
sg63
(lp1846
g56
(g57
g58
NtRp1847
(dp1848
g61
(dp1849
g69
I4
ssg70
g1843
sg63
(lp1850
S'http'
p1851
asbasbasbag56
(g72
g58
NtRp1852
(dp1853
g61
(dp1854
sg70
g908
sg63
(lp1855
g56
(g77
g58
NtRp1856
(dp1857
g61
(dp1858
g81
g82
ssg70
g1852
sg63
(lp1859
S'wsgi_version'
p1860
asbag56
(g77
g58
NtRp1861
(dp1862
g61
(dp1863
g88
g89
ssg70
g1852
sg63
(lp1864
S':'
asbag56
(g77
g58
NtRp1865
(dp1866
g61
(dp1867
sg70
g1852
sg63
(lp1868
g56
(g57
g58
NtRp1869
(dp1870
g61
(dp1871
g69
I4
ssg70
g1865
sg63
(lp1872
g56
(g65
g58
NtRp1873
(dp1874
g61
(dp1875
g69
I3
ssg70
Nsg63
(lp1876
g56
(g72
g58
NtRp1877
(dp1878
g61
(dp1879
sg70
g1873
sg63
(lp1880
g56
(g77
g58
NtRp1881
(dp1882
g61
(dp1883
sg70
g1877
sg63
(lp1884
g56
(g57
g58
NtRp1885
(dp1886
g61
(dp1887
g69
I3
ssg70
g1881
sg63
(lp1888
S'1'
asbasbasbag56
(g72
g58
NtRp1889
(dp1890
g61
(dp1891
sg70
g1873
sg63
(lp1892
g56
(g77
g58
NtRp1893
(dp1894
g61
(dp1895
sg70
g1889
sg63
(lp1896
g56
(g57
g58
NtRp1897
(dp1898
g61
(dp1899
g69
I3
ssg70
g1893
sg63
(lp1900
S'0'
asbasbasbasbasbasbasbasbasbasbasbag56
(g72
g58
NtRp1901
(dp1902
g61
(dp1903
sg70
g66
sg63
(lp1904
g56
(g77
g58
NtRp1905
(dp1906
g61
(dp1907
g81
g82
ssg70
g1901
sg63
(lp1908
S'extension'
p1909
asbag56
(g77
g58
NtRp1910
(dp1911
g61
(dp1912
g88
g89
ssg70
g1901
sg63
(lp1913
S':'
asbag56
(g77
g58
NtRp1914
(dp1915
g61
(dp1916
sg70
g1901
sg63
(lp1917
g56
(g57
g58
NtRp1918
(dp1919
g61
(dp1920
g69
I5
ssg70
g1914
sg63
(lp1921
S'load'
p1922
asbasbasbag56
(g72
g58
NtRp1923
(dp1924
g61
(dp1925
sg70
g66
sg63
(lp1926
g56
(g77
g58
NtRp1927
(dp1928
g61
(dp1929
g81
g82
ssg70
g1923
sg63
(lp1930
S'folder'
p1931
asbag56
(g77
g58
NtRp1932
(dp1933
g61
(dp1934
g88
g89
ssg70
g1923
sg63
(lp1935
S':'
asbag56
(g77
g58
NtRp1936
(dp1937
g61
(dp1938
sg70
g1923
sg63
(lp1939
g56
(g57
g58
NtRp1940
(dp1941
g61
(dp1942
g69
I5
ssg70
g1936
sg63
(lp1943
S'/home/ian/web2py/applications/topoi/'
p1944
asbasbasbag56
(g72
g58
NtRp1945
(dp1946
g61
(dp1947
sg70
g66
sg63
(lp1948
g56
(g77
g58
NtRp1949
(dp1950
g61
(dp1951
g81
g82
ssg70
g1945
sg63
(lp1952
S'function'
p1953
asbag56
(g77
g58
NtRp1954
(dp1955
g61
(dp1956
g88
g89
ssg70
g1945
sg63
(lp1957
S':'
asbag56
(g77
g58
NtRp1958
(dp1959
g61
(dp1960
sg70
g1945
sg63
(lp1961
g56
(g57
g58
NtRp1962
(dp1963
g61
(dp1964
g69
I5
ssg70
g1958
sg63
(lp1965
S'set_widget'
p1966
asbasbasbag56
(g72
g58
NtRp1967
(dp1968
g61
(dp1969
sg70
g66
sg63
(lp1970
g56
(g77
g58
NtRp1971
(dp1972
g61
(dp1973
g81
g82
ssg70
g1967
sg63
(lp1974
S'get_vars'
p1975
asbag56
(g77
g58
NtRp1976
(dp1977
g61
(dp1978
g88
g89
ssg70
g1967
sg63
(lp1979
S':'
asbag56
(g77
g58
NtRp1980
(dp1981
g61
(dp1982
sg70
g1967
sg63
(lp1983
g56
(g57
g58
NtRp1984
(dp1985
g61
(dp1986
g69
I5
ssg70
g1980
sg63
(lp1987
g56
(g65
g58
NtRp1988
(dp1989
g61
(dp1990
g69
I4
ssg70
Nsg63
(lp1991
sbasbasbasbag56
(g72
g58
NtRp1992
(dp1993
g61
(dp1994
sg70
g66
sg63
(lp1995
g56
(g77
g58
NtRp1996
(dp1997
g61
(dp1998
g81
g82
ssg70
g1992
sg63
(lp1999
S'global_settings'
p2000
asbag56
(g77
g58
NtRp2001
(dp2002
g61
(dp2003
g88
g89
ssg70
g1992
sg63
(lp2004
S':'
asbag56
(g77
g58
NtRp2005
(dp2006
g61
(dp2007
sg70
g1992
sg63
(lp2008
g56
(g57
g58
NtRp2009
(dp2010
g61
(dp2011
g69
I5
ssg70
g2005
sg63
(lp2012
g56
(g65
g58
NtRp2013
(dp2014
g61
(dp2015
g69
I4
ssg70
Nsg63
(lp2016
g56
(g72
g58
NtRp2017
(dp2018
g61
(dp2019
sg70
g2013
sg63
(lp2020
g56
(g77
g58
NtRp2021
(dp2022
g61
(dp2023
g81
g82
ssg70
g2017
sg63
(lp2024
g920
asbag56
(g77
g58
NtRp2025
(dp2026
g61
(dp2027
g88
g89
ssg70
g2017
sg63
(lp2028
S':'
asbag56
(g77
g58
NtRp2029
(dp2030
g61
(dp2031
sg70
g2017
sg63
(lp2032
g56
(g57
g58
NtRp2033
(dp2034
g61
(dp2035
g69
I4
ssg70
g2029
sg63
(lp2036
S"set(['/home/ian/web2py/applications/topoi/', '/home/ian/web2py/applications/welcome/', '/home/ian/web2py/applications/admin/'])"
p2037
asbasbasbag56
(g72
g58
NtRp2038
(dp2039
g61
(dp2040
sg70
g2013
sg63
(lp2041
g56
(g77
g58
NtRp2042
(dp2043
g61
(dp2044
g81
g82
ssg70
g2038
sg63
(lp2045
g942
asbag56
(g77
g58
NtRp2046
(dp2047
g61
(dp2048
g88
g89
ssg70
g2038
sg63
(lp2049
S':'
asbag56
(g77
g58
NtRp2050
(dp2051
g61
(dp2052
sg70
g2038
sg63
(lp2053
g56
(g57
g58
NtRp2054
(dp2055
g61
(dp2056
g69
I4
ssg70
g2050
sg63
(lp2057
g955
asbasbasbag56
(g72
g58
NtRp2058
(dp2059
g61
(dp2060
sg70
g2013
sg63
(lp2061
g56
(g77
g58
NtRp2062
(dp2063
g61
(dp2064
g81
g82
ssg70
g2058
sg63
(lp2065
g964
asbag56
(g77
g58
NtRp2066
(dp2067
g61
(dp2068
g88
g89
ssg70
g2058
sg63
(lp2069
S':'
asbag56
(g77
g58
NtRp2070
(dp2071
g61
(dp2072
sg70
g2058
sg63
(lp2073
g56
(g57
g58
NtRp2074
(dp2075
g61
(dp2076
g69
I4
ssg70
g2070
sg63
(lp2077
g56
(g65
g58
NtRp2078
(dp2079
g61
(dp2080
g69
I3
ssg70
Nsg63
(lp2081
sbasbasbasbag56
(g72
g58
NtRp2082
(dp2083
g61
(dp2084
sg70
g2013
sg63
(lp2085
g56
(g77
g58
NtRp2086
(dp2087
g61
(dp2088
g81
g82
ssg70
g2082
sg63
(lp2089
g989
asbag56
(g77
g58
NtRp2090
(dp2091
g61
(dp2092
g88
g89
ssg70
g2082
sg63
(lp2093
S':'
asbag56
(g77
g58
NtRp2094
(dp2095
g61
(dp2096
sg70
g2082
sg63
(lp2097
g56
(g57
g58
NtRp2098
(dp2099
g61
(dp2100
g69
I4
ssg70
g2094
sg63
(lp2101
S"<Values at 0x2bbf758: {'verbose': False, 'ip': '127.0.0.1', 'shutdown_timeout': 5, 'taskbar': False, 'nocron': False, 'pid_filename': 'httpserver.pid', 'maxthreads': None, 'softcron': False, 'server_name': 'uriel', 'bpython': False, 'nogui': False, 'port': 8000, 'extcron': False, 'debuglevel': 30, 'test': None, 'folder': '/home/ian/web2py', 'config': '', 'import_models': False, 'winservice': '', 'shell': None, 'run': '', 'log_filename': 'httpserver.log', 'args': [''], 'ssl_ca_certificate': None, 'scheduler': None, 'profiler_filename': None, 'ssl_private_key': '', 'password': '<ask>', 'request_queue_size': 5, 'ssl_certificate': '', 'cronjob': False, 'plain': False, 'quiet': False, 'interfaces': None, 'minthreads': None, 'timeout': 10, 'numthreads': None, 'nobanner': False}>"
p2102
asbasbasbag56
(g72
g58
NtRp2103
(dp2104
g61
(dp2105
sg70
g2013
sg63
(lp2106
g56
(g77
g58
NtRp2107
(dp2108
g61
(dp2109
g81
g82
ssg70
g2103
sg63
(lp2110
g1011
asbag56
(g77
g58
NtRp2111
(dp2112
g61
(dp2113
g88
g89
ssg70
g2103
sg63
(lp2114
S':'
asbag56
(g77
g58
NtRp2115
(dp2116
g61
(dp2117
sg70
g2103
sg63
(lp2118
g56
(g57
g58
NtRp2119
(dp2120
g61
(dp2121
g69
I4
ssg70
g2115
sg63
(lp2122
S'set([])'
p2123
asbasbasbag56
(g72
g58
NtRp2124
(dp2125
g61
(dp2126
sg70
g2013
sg63
(lp2127
g56
(g77
g58
NtRp2128
(dp2129
g61
(dp2130
g81
g82
ssg70
g2124
sg63
(lp2131
g1033
asbag56
(g77
g58
NtRp2132
(dp2133
g61
(dp2134
g88
g89
ssg70
g2124
sg63
(lp2135
S':'
asbag56
(g77
g58
NtRp2136
(dp2137
g61
(dp2138
sg70
g2124
sg63
(lp2139
g56
(g57
g58
NtRp2140
(dp2141
g61
(dp2142
g69
I4
ssg70
g2136
sg63
(lp2143
g1046
asbasbasbag56
(g72
g58
NtRp2144
(dp2145
g61
(dp2146
sg70
g2013
sg63
(lp2147
g56
(g77
g58
NtRp2148
(dp2149
g61
(dp2150
g81
g82
ssg70
g2144
sg63
(lp2151
g1055
asbag56
(g77
g58
NtRp2152
(dp2153
g61
(dp2154
g88
g89
ssg70
g2144
sg63
(lp2155
S':'
asbag56
(g77
g58
NtRp2156
(dp2157
g61
(dp2158
sg70
g2144
sg63
(lp2159
g56
(g57
g58
NtRp2160
(dp2161
g61
(dp2162
g69
I4
ssg70
g2156
sg63
(lp2163
g1068
asbasbasbag56
(g72
g58
NtRp2164
(dp2165
g61
(dp2166
sg70
g2013
sg63
(lp2167
g56
(g77
g58
NtRp2168
(dp2169
g61
(dp2170
g81
g82
ssg70
g2164
sg63
(lp2171
g1340
asbag56
(g77
g58
NtRp2172
(dp2173
g61
(dp2174
g88
g89
ssg70
g2164
sg63
(lp2175
S':'
asbag56
(g77
g58
NtRp2176
(dp2177
g61
(dp2178
sg70
g2164
sg63
(lp2179
g56
(g57
g58
NtRp2180
(dp2181
g61
(dp2182
g69
I4
ssg70
g2176
sg63
(lp2183
g1046
asbasbasbag56
(g72
g58
NtRp2184
(dp2185
g61
(dp2186
sg70
g2013
sg63
(lp2187
g56
(g77
g58
NtRp2188
(dp2189
g61
(dp2190
g81
g82
ssg70
g2184
sg63
(lp2191
g1578
asbag56
(g77
g58
NtRp2192
(dp2193
g61
(dp2194
g88
g89
ssg70
g2184
sg63
(lp2195
S':'
asbag56
(g77
g58
NtRp2196
(dp2197
g61
(dp2198
sg70
g2184
sg63
(lp2199
g56
(g57
g58
NtRp2200
(dp2201
g61
(dp2202
g69
I4
ssg70
g2196
sg63
(lp2203
g1591
asbasbasbag56
(g72
g58
NtRp2204
(dp2205
g61
(dp2206
sg70
g2013
sg63
(lp2207
g56
(g77
g58
NtRp2208
(dp2209
g61
(dp2210
g81
g82
ssg70
g2204
sg63
(lp2211
g1621
asbag56
(g77
g58
NtRp2212
(dp2213
g61
(dp2214
g88
g89
ssg70
g2204
sg63
(lp2215
S':'
asbag56
(g77
g58
NtRp2216
(dp2217
g61
(dp2218
sg70
g2204
sg63
(lp2219
g56
(g57
g58
NtRp2220
(dp2221
g61
(dp2222
g69
I4
ssg70
g2216
sg63
(lp2223
g56
(g65
g58
NtRp2224
(dp2225
g61
(dp2226
g69
I3
ssg70
Nsg63
(lp2227
g56
(g72
g58
NtRp2228
(dp2229
g61
(dp2230
sg70
g2224
sg63
(lp2231
g56
(g77
g58
NtRp2232
(dp2233
g61
(dp2234
sg70
g2228
sg63
(lp2235
g56
(g57
g58
NtRp2236
(dp2237
g61
(dp2238
g69
I3
ssg70
g2232
sg63
(lp2239
S'1'
asbasbasbag56
(g72
g58
NtRp2240
(dp2241
g61
(dp2242
sg70
g2224
sg63
(lp2243
g56
(g77
g58
NtRp2244
(dp2245
g61
(dp2246
sg70
g2240
sg63
(lp2247
g56
(g57
g58
NtRp2248
(dp2249
g61
(dp2250
g69
I3
ssg70
g2244
sg63
(lp2251
S'99'
p2252
asbasbasbag56
(g72
g58
NtRp2253
(dp2254
g61
(dp2255
sg70
g2224
sg63
(lp2256
g56
(g77
g58
NtRp2257
(dp2258
g61
(dp2259
sg70
g2253
sg63
(lp2260
g56
(g57
g58
NtRp2261
(dp2262
g61
(dp2263
g69
I3
ssg70
g2257
sg63
(lp2264
S'2'
asbasbasbag56
(g72
g58
NtRp2265
(dp2266
g61
(dp2267
sg70
g2224
sg63
(lp2268
g56
(g77
g58
NtRp2269
(dp2270
g61
(dp2271
sg70
g2265
sg63
(lp2272
g56
(g57
g58
NtRp2273
(dp2274
g61
(dp2275
g69
I3
ssg70
g2269
sg63
(lp2276
S'datetime.datetime(2011, 9, 26, 6, 55, 33)'
p2277
asbasbasbag56
(g72
g58
NtRp2278
(dp2279
g61
(dp2280
sg70
g2224
sg63
(lp2281
g56
(g77
g58
NtRp2282
(dp2283
g61
(dp2284
sg70
g2278
sg63
(lp2285
g56
(g57
g58
NtRp2286
(dp2287
g61
(dp2288
g69
I3
ssg70
g2282
sg63
(lp2289
g1700
asbasbasbasbasbasbasbasbasbasbasbag56
(g72
g58
NtRp2290
(dp2291
g61
(dp2292
sg70
g66
sg63
(lp2293
g56
(g77
g58
NtRp2294
(dp2295
g61
(dp2296
g81
g82
ssg70
g2290
sg63
(lp2297
S'is_https'
p2298
asbag56
(g77
g58
NtRp2299
(dp2300
g61
(dp2301
g88
g89
ssg70
g2290
sg63
(lp2302
S':'
asbag56
(g77
g58
NtRp2303
(dp2304
g61
(dp2305
sg70
g2290
sg63
(lp2306
g56
(g57
g58
NtRp2307
(dp2308
g61
(dp2309
g69
I5
ssg70
g2303
sg63
(lp2310
g1046
asbasbasbag56
(g72
g58
NtRp2311
(dp2312
g61
(dp2313
sg70
g66
sg63
(lp2314
g56
(g77
g58
NtRp2315
(dp2316
g61
(dp2317
g81
g82
ssg70
g2311
sg63
(lp2318
S'is_local'
p2319
asbag56
(g77
g58
NtRp2320
(dp2321
g61
(dp2322
g88
g89
ssg70
g2311
sg63
(lp2323
S':'
asbag56
(g77
g58
NtRp2324
(dp2325
g61
(dp2326
sg70
g2311
sg63
(lp2327
g56
(g57
g58
NtRp2328
(dp2329
g61
(dp2330
g69
I5
ssg70
g2324
sg63
(lp2331
g99
asbasbasbag56
(g72
g58
NtRp2332
(dp2333
g61
(dp2334
sg70
g66
sg63
(lp2335
g56
(g77
g58
NtRp2336
(dp2337
g61
(dp2338
g81
g82
ssg70
g2332
sg63
(lp2339
S'is_restful'
p2340
asbag56
(g77
g58
NtRp2341
(dp2342
g61
(dp2343
g88
g89
ssg70
g2332
sg63
(lp2344
S':'
asbag56
(g77
g58
NtRp2345
(dp2346
g61
(dp2347
sg70
g2332
sg63
(lp2348
g56
(g57
g58
NtRp2349
(dp2350
g61
(dp2351
g69
I5
ssg70
g2345
sg63
(lp2352
g1046
asbasbasbag56
(g72
g58
NtRp2353
(dp2354
g61
(dp2355
sg70
g66
sg63
(lp2356
g56
(g77
g58
NtRp2357
(dp2358
g61
(dp2359
g81
g82
ssg70
g2353
sg63
(lp2360
S'now'
p2361
asbag56
(g77
g58
NtRp2362
(dp2363
g61
(dp2364
g88
g89
ssg70
g2353
sg63
(lp2365
S':'
asbag56
(g77
g58
NtRp2366
(dp2367
g61
(dp2368
sg70
g2353
sg63
(lp2369
g56
(g57
g58
NtRp2370
(dp2371
g61
(dp2372
g69
I5
ssg70
g2366
sg63
(lp2373
S'datetime.datetime(2011, 12, 18, 22, 48, 38, 866888)'
p2374
asbasbasbag56
(g72
g58
NtRp2375
(dp2376
g61
(dp2377
sg70
g66
sg63
(lp2378
g56
(g77
g58
NtRp2379
(dp2380
g61
(dp2381
g81
g82
ssg70
g2375
sg63
(lp2382
S'post_vars'
p2383
asbag56
(g77
g58
NtRp2384
(dp2385
g61
(dp2386
g88
g89
ssg70
g2375
sg63
(lp2387
S':'
asbag56
(g77
g58
NtRp2388
(dp2389
g61
(dp2390
sg70
g2375
sg63
(lp2391
g56
(g57
g58
NtRp2392
(dp2393
g61
(dp2394
g69
I5
ssg70
g2388
sg63
(lp2395
g56
(g65
g58
NtRp2396
(dp2397
g61
(dp2398
g69
I4
ssg70
Nsg63
(lp2399
sbasbasbasbag56
(g72
g58
NtRp2400
(dp2401
g61
(dp2402
sg70
g66
sg63
(lp2403
g56
(g77
g58
NtRp2404
(dp2405
g61
(dp2406
g81
g82
ssg70
g2400
sg63
(lp2407
S'raw_args'
p2408
asbag56
(g77
g58
NtRp2409
(dp2410
g61
(dp2411
g88
g89
ssg70
g2400
sg63
(lp2412
S':'
asbag56
(g77
g58
NtRp2413
(dp2414
g61
(dp2415
sg70
g2400
sg63
(lp2416
g56
(g57
g58
NtRp2417
(dp2418
g61
(dp2419
g69
I5
ssg70
g2413
sg63
(lp2420
S'notes/author/10/authors/notes_author_loader'
p2421
asbasbasbag56
(g72
g58
NtRp2422
(dp2423
g61
(dp2424
sg70
g66
sg63
(lp2425
g56
(g77
g58
NtRp2426
(dp2427
g61
(dp2428
g81
g82
ssg70
g2422
sg63
(lp2429
S'raw_extension'
p2430
asbag56
(g77
g58
NtRp2431
(dp2432
g61
(dp2433
g88
g89
ssg70
g2422
sg63
(lp2434
S':'
asbag56
(g77
g58
NtRp2435
(dp2436
g61
(dp2437
sg70
g2422
sg63
(lp2438
g56
(g57
g58
NtRp2439
(dp2440
g61
(dp2441
g69
I5
ssg70
g2435
sg63
(lp2442
g1922
asbasbasbag56
(g72
g58
NtRp2443
(dp2444
g61
(dp2445
sg70
g66
sg63
(lp2446
g56
(g77
g58
NtRp2447
(dp2448
g61
(dp2449
g81
g82
ssg70
g2443
sg63
(lp2450
S'url'
p2451
asbag56
(g77
g58
NtRp2452
(dp2453
g61
(dp2454
g88
g89
ssg70
g2443
sg63
(lp2455
S':'
asbag56
(g77
g58
NtRp2456
(dp2457
g61
(dp2458
sg70
g2443
sg63
(lp2459
g56
(g57
g58
NtRp2460
(dp2461
g61
(dp2462
g69
I5
ssg70
g2456
sg63
(lp2463
S'/topoi/plugin_ajaxselect/set_widget.load/notes/author/10/authors/notes_author_loader'
p2464
asbasbasbag56
(g72
g58
NtRp2465
(dp2466
g61
(dp2467
sg70
g66
sg63
(lp2468
g56
(g77
g58
NtRp2469
(dp2470
g61
(dp2471
g81
g82
ssg70
g2465
sg63
(lp2472
S'utcnow'
p2473
asbag56
(g77
g58
NtRp2474
(dp2475
g61
(dp2476
g88
g89
ssg70
g2465
sg63
(lp2477
S':'
asbag56
(g77
g58
NtRp2478
(dp2479
g61
(dp2480
sg70
g2465
sg63
(lp2481
g56
(g57
g58
NtRp2482
(dp2483
g61
(dp2484
g69
I5
ssg70
g2478
sg63
(lp2485
S'datetime.datetime(2011, 12, 19, 3, 48, 38, 866941)'
p2486
asbasbasbag56
(g72
g58
NtRp2487
(dp2488
g61
(dp2489
sg70
g66
sg63
(lp2490
g56
(g77
g58
NtRp2491
(dp2492
g61
(dp2493
g81
g82
ssg70
g2487
sg63
(lp2494
S'uuid'
p2495
asbag56
(g77
g58
NtRp2496
(dp2497
g61
(dp2498
g88
g89
ssg70
g2487
sg63
(lp2499
S':'
asbag56
(g77
g58
NtRp2500
(dp2501
g61
(dp2502
sg70
g2487
sg63
(lp2503
g56
(g57
g58
NtRp2504
(dp2505
g61
(dp2506
g69
I5
ssg70
g2500
sg63
(lp2507
S'topoi/127.0.0.1.2011-12-18.22-48-38.ea6d9837-e0f4-44b1-8556-71bf92ded60a'
p2508
asbasbasbag56
(g72
g58
NtRp2509
(dp2510
g61
(dp2511
sg70
g66
sg63
(lp2512
g56
(g77
g58
NtRp2513
(dp2514
g61
(dp2515
g81
g82
ssg70
g2509
sg63
(lp2516
S'vars'
p2517
asbag56
(g77
g58
NtRp2518
(dp2519
g61
(dp2520
g88
g89
ssg70
g2509
sg63
(lp2521
S':'
asbag56
(g77
g58
NtRp2522
(dp2523
g61
(dp2524
sg70
g2509
sg63
(lp2525
g56
(g57
g58
NtRp2526
(dp2527
g61
(dp2528
g69
I5
ssg70
g2522
sg63
(lp2529
g56
(g65
g58
NtRp2530
(dp2531
g61
(dp2532
g69
I4
ssg70
Nsg63
(lp2533
sbasbasbasbag56
(g72
g58
NtRp2534
(dp2535
g61
(dp2536
sg70
g66
sg63
(lp2537
g56
(g77
g58
NtRp2538
(dp2539
g61
(dp2540
g81
g82
ssg70
g2534
sg63
(lp2541
S'wsgi'
p2542
asbag56
(g77
g58
NtRp2543
(dp2544
g61
(dp2545
g88
g89
ssg70
g2534
sg63
(lp2546
S':'
asbag56
(g77
g58
NtRp2547
(dp2548
g61
(dp2549
sg70
g2534
sg63
(lp2550
g56
(g57
g58
NtRp2551
(dp2552
g61
(dp2553
g69
I5
ssg70
g2547
sg63
(lp2554
g56
(g65
g58
NtRp2555
(dp2556
g61
(dp2557
g69
I4
ssg70
Nsg63
(lp2558
g56
(g72
g58
NtRp2559
(dp2560
g61
(dp2561
sg70
g2555
sg63
(lp2562
g56
(g77
g58
NtRp2563
(dp2564
g61
(dp2565
g81
g82
ssg70
g2559
sg63
(lp2566
S'environ'
p2567
asbag56
(g77
g58
NtRp2568
(dp2569
g61
(dp2570
g88
g89
ssg70
g2559
sg63
(lp2571
S':'
asbag56
(g77
g58
NtRp2572
(dp2573
g61
(dp2574
sg70
g2559
sg63
(lp2575
g56
(g57
g58
NtRp2576
(dp2577
g61
(dp2578
g69
I4
ssg70
g2572
sg63
(lp2579
g56
(g65
g58
NtRp2580
(dp2581
g61
(dp2582
g69
I3
ssg70
Nsg63
(lp2583
g56
(g72
g58
NtRp2584
(dp2585
g61
(dp2586
sg70
g2580
sg63
(lp2587
g56
(g77
g58
NtRp2588
(dp2589
g61
(dp2590
g81
g82
ssg70
g2584
sg63
(lp2591
S'HTTP_ACCEPT'
p2592
asbag56
(g77
g58
NtRp2593
(dp2594
g61
(dp2595
g88
g89
ssg70
g2584
sg63
(lp2596
S':'
asbag56
(g77
g58
NtRp2597
(dp2598
g61
(dp2599
sg70
g2584
sg63
(lp2600
g56
(g57
g58
NtRp2601
(dp2602
g61
(dp2603
g69
I3
ssg70
g2597
sg63
(lp2604
g1090
asbasbasbag56
(g72
g58
NtRp2605
(dp2606
g61
(dp2607
sg70
g2580
sg63
(lp2608
g56
(g77
g58
NtRp2609
(dp2610
g61
(dp2611
g81
g82
ssg70
g2605
sg63
(lp2612
S'HTTP_ACCEPT_CHARSET'
p2613
asbag56
(g77
g58
NtRp2614
(dp2615
g61
(dp2616
g88
g89
ssg70
g2605
sg63
(lp2617
S':'
asbag56
(g77
g58
NtRp2618
(dp2619
g61
(dp2620
sg70
g2605
sg63
(lp2621
g56
(g57
g58
NtRp2622
(dp2623
g61
(dp2624
g69
I3
ssg70
g2618
sg63
(lp2625
g1112
asbasbasbag56
(g72
g58
NtRp2626
(dp2627
g61
(dp2628
sg70
g2580
sg63
(lp2629
g56
(g77
g58
NtRp2630
(dp2631
g61
(dp2632
g81
g82
ssg70
g2626
sg63
(lp2633
S'HTTP_ACCEPT_ENCODING'
p2634
asbag56
(g77
g58
NtRp2635
(dp2636
g61
(dp2637
g88
g89
ssg70
g2626
sg63
(lp2638
S':'
asbag56
(g77
g58
NtRp2639
(dp2640
g61
(dp2641
sg70
g2626
sg63
(lp2642
g56
(g57
g58
NtRp2643
(dp2644
g61
(dp2645
g69
I3
ssg70
g2639
sg63
(lp2646
g1134
asbasbasbag56
(g72
g58
NtRp2647
(dp2648
g61
(dp2649
sg70
g2580
sg63
(lp2650
g56
(g77
g58
NtRp2651
(dp2652
g61
(dp2653
g81
g82
ssg70
g2647
sg63
(lp2654
S'HTTP_ACCEPT_LANGUAGE'
p2655
asbag56
(g77
g58
NtRp2656
(dp2657
g61
(dp2658
g88
g89
ssg70
g2647
sg63
(lp2659
S':'
asbag56
(g77
g58
NtRp2660
(dp2661
g61
(dp2662
sg70
g2647
sg63
(lp2663
g56
(g57
g58
NtRp2664
(dp2665
g61
(dp2666
g69
I3
ssg70
g2660
sg63
(lp2667
g1156
asbasbasbag56
(g72
g58
NtRp2668
(dp2669
g61
(dp2670
sg70
g2580
sg63
(lp2671
g56
(g77
g58
NtRp2672
(dp2673
g61
(dp2674
g81
g82
ssg70
g2668
sg63
(lp2675
S'HTTP_CONNECTION'
p2676
asbag56
(g77
g58
NtRp2677
(dp2678
g61
(dp2679
g88
g89
ssg70
g2668
sg63
(lp2680
S':'
asbag56
(g77
g58
NtRp2681
(dp2682
g61
(dp2683
sg70
g2668
sg63
(lp2684
g56
(g57
g58
NtRp2685
(dp2686
g61
(dp2687
g69
I3
ssg70
g2681
sg63
(lp2688
g1178
asbasbasbag56
(g72
g58
NtRp2689
(dp2690
g61
(dp2691
sg70
g2580
sg63
(lp2692
g56
(g77
g58
NtRp2693
(dp2694
g61
(dp2695
g81
g82
ssg70
g2689
sg63
(lp2696
S'HTTP_COOKIE'
p2697
asbag56
(g77
g58
NtRp2698
(dp2699
g61
(dp2700
g88
g89
ssg70
g2689
sg63
(lp2701
S':'
asbag56
(g77
g58
NtRp2702
(dp2703
g61
(dp2704
sg70
g2689
sg63
(lp2705
g56
(g57
g58
NtRp2706
(dp2707
g61
(dp2708
g69
I3
ssg70
g2702
sg63
(lp2709
g1200
asbasbasbag56
(g72
g58
NtRp2710
(dp2711
g61
(dp2712
sg70
g2580
sg63
(lp2713
g56
(g77
g58
NtRp2714
(dp2715
g61
(dp2716
g81
g82
ssg70
g2710
sg63
(lp2717
S'HTTP_HOST'
p2718
asbag56
(g77
g58
NtRp2719
(dp2720
g61
(dp2721
g88
g89
ssg70
g2710
sg63
(lp2722
S':'
asbag56
(g77
g58
NtRp2723
(dp2724
g61
(dp2725
sg70
g2710
sg63
(lp2726
g56
(g57
g58
NtRp2727
(dp2728
g61
(dp2729
g69
I3
ssg70
g2723
sg63
(lp2730
g1222
asbasbasbag56
(g72
g58
NtRp2731
(dp2732
g61
(dp2733
sg70
g2580
sg63
(lp2734
g56
(g77
g58
NtRp2735
(dp2736
g61
(dp2737
g81
g82
ssg70
g2731
sg63
(lp2738
S'HTTP_REFERER'
p2739
asbag56
(g77
g58
NtRp2740
(dp2741
g61
(dp2742
g88
g89
ssg70
g2731
sg63
(lp2743
S':'
asbag56
(g77
g58
NtRp2744
(dp2745
g61
(dp2746
sg70
g2731
sg63
(lp2747
g56
(g57
g58
NtRp2748
(dp2749
g61
(dp2750
g69
I3
ssg70
g2744
sg63
(lp2751
g1244
asbasbasbag56
(g72
g58
NtRp2752
(dp2753
g61
(dp2754
sg70
g2580
sg63
(lp2755
g56
(g77
g58
NtRp2756
(dp2757
g61
(dp2758
g81
g82
ssg70
g2752
sg63
(lp2759
S'HTTP_USER_AGENT'
p2760
asbag56
(g77
g58
NtRp2761
(dp2762
g61
(dp2763
g88
g89
ssg70
g2752
sg63
(lp2764
S':'
asbag56
(g77
g58
NtRp2765
(dp2766
g61
(dp2767
sg70
g2752
sg63
(lp2768
g56
(g57
g58
NtRp2769
(dp2770
g61
(dp2771
g69
I3
ssg70
g2765
sg63
(lp2772
g1266
asbasbasbag56
(g72
g58
NtRp2773
(dp2774
g61
(dp2775
sg70
g2580
sg63
(lp2776
g56
(g77
g58
NtRp2777
(dp2778
g61
(dp2779
g81
g82
ssg70
g2773
sg63
(lp2780
S'HTTP_WEB2PY_COMPONENT_ELEMENT'
p2781
asbag56
(g77
g58
NtRp2782
(dp2783
g61
(dp2784
g88
g89
ssg70
g2773
sg63
(lp2785
S':'
asbag56
(g77
g58
NtRp2786
(dp2787
g61
(dp2788
sg70
g2773
sg63
(lp2789
g56
(g57
g58
NtRp2790
(dp2791
g61
(dp2792
g69
I3
ssg70
g2786
sg63
(lp2793
g254
asbasbasbag56
(g72
g58
NtRp2794
(dp2795
g61
(dp2796
sg70
g2580
sg63
(lp2797
g56
(g77
g58
NtRp2798
(dp2799
g61
(dp2800
g81
g82
ssg70
g2794
sg63
(lp2801
S'HTTP_WEB2PY_COMPONENT_LOCATION'
p2802
asbag56
(g77
g58
NtRp2803
(dp2804
g61
(dp2805
g88
g89
ssg70
g2794
sg63
(lp2806
S':'
asbag56
(g77
g58
NtRp2807
(dp2808
g61
(dp2809
sg70
g2794
sg63
(lp2810
g56
(g57
g58
NtRp2811
(dp2812
g61
(dp2813
g69
I3
ssg70
g2807
sg63
(lp2814
g1309
asbasbasbag56
(g72
g58
NtRp2815
(dp2816
g61
(dp2817
sg70
g2580
sg63
(lp2818
g56
(g77
g58
NtRp2819
(dp2820
g61
(dp2821
g81
g82
ssg70
g2815
sg63
(lp2822
S'HTTP_X_REQUESTED_WITH'
p2823
asbag56
(g77
g58
NtRp2824
(dp2825
g61
(dp2826
g88
g89
ssg70
g2815
sg63
(lp2827
S':'
asbag56
(g77
g58
NtRp2828
(dp2829
g61
(dp2830
sg70
g2815
sg63
(lp2831
g56
(g57
g58
NtRp2832
(dp2833
g61
(dp2834
g69
I3
ssg70
g2828
sg63
(lp2835
g1331
asbasbasbag56
(g72
g58
NtRp2836
(dp2837
g61
(dp2838
sg70
g2580
sg63
(lp2839
g56
(g77
g58
NtRp2840
(dp2841
g61
(dp2842
g81
g82
ssg70
g2836
sg63
(lp2843
S'PATH_INFO'
p2844
asbag56
(g77
g58
NtRp2845
(dp2846
g61
(dp2847
g88
g89
ssg70
g2836
sg63
(lp2848
S':'
asbag56
(g77
g58
NtRp2849
(dp2850
g61
(dp2851
sg70
g2836
sg63
(lp2852
g56
(g57
g58
NtRp2853
(dp2854
g61
(dp2855
g69
I3
ssg70
g2849
sg63
(lp2856
g1374
asbasbasbag56
(g72
g58
NtRp2857
(dp2858
g61
(dp2859
sg70
g2580
sg63
(lp2860
g56
(g77
g58
NtRp2861
(dp2862
g61
(dp2863
g81
g82
ssg70
g2857
sg63
(lp2864
S'QUERY_STRING'
p2865
asbag56
(g77
g58
NtRp2866
(dp2867
g61
(dp2868
g88
g89
ssg70
g2857
sg63
(lp2869
S':'
asbag56
(g77
g58
NtRp2870
(dp2871
g61
(dp2872
sg70
g2857
sg63
(lp2873
g56
(g57
g58
NtRp2874
(dp2875
g61
(dp2876
g69
I3
ssg70
g2870
sg63
(lp2877
S''
asbasbasbag56
(g72
g58
NtRp2878
(dp2879
g61
(dp2880
sg70
g2580
sg63
(lp2881
g56
(g77
g58
NtRp2882
(dp2883
g61
(dp2884
g81
g82
ssg70
g2878
sg63
(lp2885
S'REMOTE_ADDR'
p2886
asbag56
(g77
g58
NtRp2887
(dp2888
g61
(dp2889
g88
g89
ssg70
g2878
sg63
(lp2890
S':'
asbag56
(g77
g58
NtRp2891
(dp2892
g61
(dp2893
sg70
g2878
sg63
(lp2894
g56
(g57
g58
NtRp2895
(dp2896
g61
(dp2897
g69
I3
ssg70
g2891
sg63
(lp2898
g276
asbasbasbag56
(g72
g58
NtRp2899
(dp2900
g61
(dp2901
sg70
g2580
sg63
(lp2902
g56
(g77
g58
NtRp2903
(dp2904
g61
(dp2905
g81
g82
ssg70
g2899
sg63
(lp2906
S'REMOTE_PORT'
p2907
asbag56
(g77
g58
NtRp2908
(dp2909
g61
(dp2910
g88
g89
ssg70
g2899
sg63
(lp2911
S':'
asbag56
(g77
g58
NtRp2912
(dp2913
g61
(dp2914
sg70
g2899
sg63
(lp2915
g56
(g57
g58
NtRp2916
(dp2917
g61
(dp2918
g69
I3
ssg70
g2912
sg63
(lp2919
g1438
asbasbasbag56
(g72
g58
NtRp2920
(dp2921
g61
(dp2922
sg70
g2580
sg63
(lp2923
g56
(g77
g58
NtRp2924
(dp2925
g61
(dp2926
g81
g82
ssg70
g2920
sg63
(lp2927
S'REQUEST_METHOD'
p2928
asbag56
(g77
g58
NtRp2929
(dp2930
g61
(dp2931
g88
g89
ssg70
g2920
sg63
(lp2932
S':'
asbag56
(g77
g58
NtRp2933
(dp2934
g61
(dp2935
sg70
g2920
sg63
(lp2936
g56
(g57
g58
NtRp2937
(dp2938
g61
(dp2939
g69
I3
ssg70
g2933
sg63
(lp2940
g1460
asbasbasbag56
(g72
g58
NtRp2941
(dp2942
g61
(dp2943
sg70
g2580
sg63
(lp2944
g56
(g77
g58
NtRp2945
(dp2946
g61
(dp2947
g81
g82
ssg70
g2941
sg63
(lp2948
S'SCRIPT_NAME'
p2949
asbag56
(g77
g58
NtRp2950
(dp2951
g61
(dp2952
g88
g89
ssg70
g2941
sg63
(lp2953
S':'
asbag56
(g77
g58
NtRp2954
(dp2955
g61
(dp2956
sg70
g2941
sg63
(lp2957
g56
(g57
g58
NtRp2958
(dp2959
g61
(dp2960
g69
I3
ssg70
g2954
sg63
(lp2961
S''
asbasbasbag56
(g72
g58
NtRp2962
(dp2963
g61
(dp2964
sg70
g2580
sg63
(lp2965
g56
(g77
g58
NtRp2966
(dp2967
g61
(dp2968
g81
g82
ssg70
g2962
sg63
(lp2969
S'SERVER_NAME'
p2970
asbag56
(g77
g58
NtRp2971
(dp2972
g61
(dp2973
g88
g89
ssg70
g2962
sg63
(lp2974
S':'
asbag56
(g77
g58
NtRp2975
(dp2976
g61
(dp2977
sg70
g2962
sg63
(lp2978
g56
(g57
g58
NtRp2979
(dp2980
g61
(dp2981
g69
I3
ssg70
g2975
sg63
(lp2982
g1503
asbasbasbag56
(g72
g58
NtRp2983
(dp2984
g61
(dp2985
sg70
g2580
sg63
(lp2986
g56
(g77
g58
NtRp2987
(dp2988
g61
(dp2989
g81
g82
ssg70
g2983
sg63
(lp2990
S'SERVER_PORT'
p2991
asbag56
(g77
g58
NtRp2992
(dp2993
g61
(dp2994
g88
g89
ssg70
g2983
sg63
(lp2995
S':'
asbag56
(g77
g58
NtRp2996
(dp2997
g61
(dp2998
sg70
g2983
sg63
(lp2999
g56
(g57
g58
NtRp3000
(dp3001
g61
(dp3002
g69
I3
ssg70
g2996
sg63
(lp3003
g1525
asbasbasbag56
(g72
g58
NtRp3004
(dp3005
g61
(dp3006
sg70
g2580
sg63
(lp3007
g56
(g77
g58
NtRp3008
(dp3009
g61
(dp3010
g81
g82
ssg70
g3004
sg63
(lp3011
S'SERVER_PROTOCOL'
p3012
asbag56
(g77
g58
NtRp3013
(dp3014
g61
(dp3015
g88
g89
ssg70
g3004
sg63
(lp3016
S':'
asbag56
(g77
g58
NtRp3017
(dp3018
g61
(dp3019
sg70
g3004
sg63
(lp3020
g56
(g57
g58
NtRp3021
(dp3022
g61
(dp3023
g69
I3
ssg70
g3017
sg63
(lp3024
g1547
asbasbasbag56
(g72
g58
NtRp3025
(dp3026
g61
(dp3027
sg70
g2580
sg63
(lp3028
g56
(g77
g58
NtRp3029
(dp3030
g61
(dp3031
g81
g82
ssg70
g3025
sg63
(lp3032
S'SERVER_SOFTWARE'
p3033
asbag56
(g77
g58
NtRp3034
(dp3035
g61
(dp3036
g88
g89
ssg70
g3025
sg63
(lp3037
S':'
asbag56
(g77
g58
NtRp3038
(dp3039
g61
(dp3040
sg70
g3025
sg63
(lp3041
g56
(g57
g58
NtRp3042
(dp3043
g61
(dp3044
g69
I3
ssg70
g3038
sg63
(lp3045
g1569
asbasbasbag56
(g72
g58
NtRp3046
(dp3047
g61
(dp3048
sg70
g2580
sg63
(lp3049
g56
(g77
g58
NtRp3050
(dp3051
g61
(dp3052
g81
g82
ssg70
g3046
sg63
(lp3053
S'wsgi.errors'
p3054
asbag56
(g77
g58
NtRp3055
(dp3056
g61
(dp3057
g88
g89
ssg70
g3046
sg63
(lp3058
S':'
asbag56
(g77
g58
NtRp3059
(dp3060
g61
(dp3061
sg70
g3046
sg63
(lp3062
g56
(g57
g58
NtRp3063
(dp3064
g61
(dp3065
g69
I3
ssg70
g3059
sg63
(lp3066
S"<open file '<stderr>', mode 'w' at 0x7fe34af65270>"
p3067
asbasbasbag56
(g72
g58
NtRp3068
(dp3069
g61
(dp3070
sg70
g2580
sg63
(lp3071
g56
(g77
g58
NtRp3072
(dp3073
g61
(dp3074
g81
g82
ssg70
g3068
sg63
(lp3075
S'wsgi.file_wrapper'
p3076
asbag56
(g77
g58
NtRp3077
(dp3078
g61
(dp3079
g88
g89
ssg70
g3068
sg63
(lp3080
S':'
asbag56
(g77
g58
NtRp3081
(dp3082
g61
(dp3083
sg70
g3068
sg63
(lp3084
g56
(g57
g58
NtRp3085
(dp3086
g61
(dp3087
g69
I3
ssg70
g3081
sg63
(lp3088
S'<class wsgiref.util.FileWrapper at 0x2a8a870>'
p3089
asbasbasbag56
(g72
g58
NtRp3090
(dp3091
g61
(dp3092
sg70
g2580
sg63
(lp3093
g56
(g77
g58
NtRp3094
(dp3095
g61
(dp3096
g81
g82
ssg70
g3090
sg63
(lp3097
S'wsgi.input'
p3098
asbag56
(g77
g58
NtRp3099
(dp3100
g61
(dp3101
g88
g89
ssg70
g3090
sg63
(lp3102
S':'
asbag56
(g77
g58
NtRp3103
(dp3104
g61
(dp3105
sg70
g3090
sg63
(lp3106
g56
(g57
g58
NtRp3107
(dp3108
g61
(dp3109
g69
I3
ssg70
g3103
sg63
(lp3110
S'<cStringIO.StringO object at 0x3df3928>'
p3111
asbasbasbag56
(g72
g58
NtRp3112
(dp3113
g61
(dp3114
sg70
g2580
sg63
(lp3115
g56
(g77
g58
NtRp3116
(dp3117
g61
(dp3118
g81
g82
ssg70
g3112
sg63
(lp3119
S'wsgi.multiprocess'
p3120
asbag56
(g77
g58
NtRp3121
(dp3122
g61
(dp3123
g88
g89
ssg70
g3112
sg63
(lp3124
S':'
asbag56
(g77
g58
NtRp3125
(dp3126
g61
(dp3127
sg70
g3112
sg63
(lp3128
g56
(g57
g58
NtRp3129
(dp3130
g61
(dp3131
g69
I3
ssg70
g3125
sg63
(lp3132
g1046
asbasbasbag56
(g72
g58
NtRp3133
(dp3134
g61
(dp3135
sg70
g2580
sg63
(lp3136
g56
(g77
g58
NtRp3137
(dp3138
g61
(dp3139
g81
g82
ssg70
g3133
sg63
(lp3140
S'wsgi.multithread'
p3141
asbag56
(g77
g58
NtRp3142
(dp3143
g61
(dp3144
g88
g89
ssg70
g3133
sg63
(lp3145
S':'
asbag56
(g77
g58
NtRp3146
(dp3147
g61
(dp3148
sg70
g3133
sg63
(lp3149
g56
(g57
g58
NtRp3150
(dp3151
g61
(dp3152
g69
I3
ssg70
g3146
sg63
(lp3153
g99
asbasbasbag56
(g72
g58
NtRp3154
(dp3155
g61
(dp3156
sg70
g2580
sg63
(lp3157
g56
(g77
g58
NtRp3158
(dp3159
g61
(dp3160
g81
g82
ssg70
g3154
sg63
(lp3161
S'wsgi.run_once'
p3162
asbag56
(g77
g58
NtRp3163
(dp3164
g61
(dp3165
g88
g89
ssg70
g3154
sg63
(lp3166
S':'
asbag56
(g77
g58
NtRp3167
(dp3168
g61
(dp3169
sg70
g3154
sg63
(lp3170
g56
(g57
g58
NtRp3171
(dp3172
g61
(dp3173
g69
I3
ssg70
g3167
sg63
(lp3174
g1046
asbasbasbag56
(g72
g58
NtRp3175
(dp3176
g61
(dp3177
sg70
g2580
sg63
(lp3178
g56
(g77
g58
NtRp3179
(dp3180
g61
(dp3181
g81
g82
ssg70
g3175
sg63
(lp3182
S'wsgi.url_scheme'
p3183
asbag56
(g77
g58
NtRp3184
(dp3185
g61
(dp3186
g88
g89
ssg70
g3175
sg63
(lp3187
S':'
asbag56
(g77
g58
NtRp3188
(dp3189
g61
(dp3190
sg70
g3175
sg63
(lp3191
g56
(g57
g58
NtRp3192
(dp3193
g61
(dp3194
g69
I3
ssg70
g3188
sg63
(lp3195
g1851
asbasbasbag56
(g72
g58
NtRp3196
(dp3197
g61
(dp3198
sg70
g2580
sg63
(lp3199
g56
(g77
g58
NtRp3200
(dp3201
g61
(dp3202
g81
g82
ssg70
g3196
sg63
(lp3203
S'wsgi.version'
p3204
asbag56
(g77
g58
NtRp3205
(dp3206
g61
(dp3207
g88
g89
ssg70
g3196
sg63
(lp3208
S':'
asbag56
(g77
g58
NtRp3209
(dp3210
g61
(dp3211
sg70
g3196
sg63
(lp3212
g56
(g57
g58
NtRp3213
(dp3214
g61
(dp3215
g69
I3
ssg70
g3209
sg63
(lp3216
S'1'
asbasbasbasbasbasbasbasbasbasbasbasbasbsS'frames'
p3217
(lp3218
(dp3219
S'file'
p3220
S'/home/ian/web2py/gluon/restricted.py'
p3221
sS'dump'
p3222
(dp3223
S'environment'
p3224
S"{'A': <class 'gluon.html.A'>, 'AjaxSelect': <class applications.topoi.modules.plugin_ajaxselect.AjaxSelect>, 'Auth': <class 'gluon.tools.Auth'>, 'B': <class 'gluon.html.B'>, 'BEAUTIFY': <class 'gluon.html.BEAUTIFY'>, 'BODY': <class 'gluon.html.BODY'>, 'BR': <class 'gluon.html.BR'>, 'BUTTON': <class 'gluon.html.BUTTON'>, 'CAT': <class 'gluon.html.CAT'>, 'CENTER': <class 'gluon.html.CENTER'>, ...}"
p3225
sS'ccode'
p3226
S'<code object <module> at 0x3e05eb0, file "/home/.../topoi/controllers/plugin_ajaxselect.py", line 1>'
p3227
ssS'lnum'
p3228
I194
sS'lines'
p3229
(dp3230
I192
S'        else:'
p3231
sI193
S'            ccode = compile2(code,layer)'
p3232
sI194
S'        exec ccode in environment'
p3233
sI195
S'    except HTTP:'
p3234
sI196
S'        raise'
p3235
sI197
S'    except Exception, error:'
p3236
sI198
S'        # XXX Show exception in Wing IDE if running in debugger'
p3237
sI189
S'    try:'
p3238
sI190
S'        if type(code) == types.CodeType:'
p3239
sI191
S'            ccode = code'
p3240
ssS'call'
p3241
S"(code='from gluon.sqlhtml import OptionsWidget\\n\\n\\ndef se...rm,\\n\\nresponse._vars=response._caller(set_widget)\\n', environment={'A': <class 'gluon.html.A'>, 'AjaxSelect': <class applications.topoi.modules.plugin_ajaxselect.AjaxSelect>, 'Auth': <class 'gluon.tools.Auth'>, 'B': <class 'gluon.html.B'>, 'BEAUTIFY': <class 'gluon.html.BEAUTIFY'>, 'BODY': <class 'gluon.html.BODY'>, 'BR': <class 'gluon.html.BR'>, 'BUTTON': <class 'gluon.html.BUTTON'>, 'CAT': <class 'gluon.html.CAT'>, 'CENTER': <class 'gluon.html.CENTER'>, ...}, layer='/home/ian/web2py/applications/topoi/controllers/plugin_ajaxselect.py')"
p3242
sS'func'
p3243
S'restricted'
p3244
sa(dp3245
g3220
S'/home/ian/web2py/applications/topoi/controllers/plugin_ajaxselect.py'
p3246
sg3222
(dp3247
sg3228
I35
sg3229
(dp3248
I32
S''
sI33
S'    return dict(widget = w, loadname = loadname) # form = form,'
p3249
sI24
S'    if form.accepts(request, session, formname = formname):'
p3250
sI25
S"        response.flash = 'form accepted'"
p3251
sI26
S'        #response.js = "web2py_component(\'%\', \'%\');" % (comp_url, loadname)'
p3252
sI27
S'    else:'
p3253
sI28
S"        response.error = 'form was not processed'"
p3254
sI29
S'    """'
p3255
sI30
S''
sI31
S'    w = OptionsWidget.widget(self.field, self.value)'
p3256
ssg3241
S'()'
p3257
sg3243
S'<module>'
p3258
sa(dp3259
g3220
S'/home/ian/web2py/gluon/globals.py'
p3260
sg3222
(dp3261
S'self'
p3262
S'undefined'
p3263
sS'f'
S'<function set_widget>'
p3264
ssg3228
I149
sg3229
(dp3265
I144
S'        self.meta = Storage()      # used by web2py_ajax.html'
p3266
sI145
S'        self.menu = []             # used by the default view layout'
p3267
sI146
S'        self.files = []            # used by web2py_ajax.html'
p3268
sI147
S'        self.generic_patterns = [] # patterns to allow generic views'
p3269
sI148
S'        self._vars = None'
p3270
sI149
S'        self._caller = lambda f: f()'
p3271
sI150
S'        self._view_environment = None'
p3272
sI151
S'        self._custom_commit = None'
p3273
sI152
S'        self._custom_rollback = None'
p3274
sI153
S''
ssg3241
S'(f=<function set_widget>)'
p3275
sg3243
S'<lambda>'
p3276
sa(dp3277
g3220
S'/home/ian/web2py/applications/topoi/controllers/plugin_ajaxselect.py'
p3278
sg3222
(dp3279
S'self'
p3280
g3263
sS'global OptionsWidget'
p3281
S"<class 'gluon.sqlhtml.OptionsWidget'>"
p3282
sS'OptionsWidget.widget'
p3283
S'<function widget>'
p3284
sS'w'
g3263
ssg3228
I31
sg3229
(dp3285
I32
S''
sI33
S'    return dict(widget = w, loadname = loadname) # form = form,'
p3286
sI24
S'    if form.accepts(request, session, formname = formname):'
p3287
sI25
S"        response.flash = 'form accepted'"
p3288
sI26
S'        #response.js = "web2py_component(\'%\', \'%\');" % (comp_url, loadname)'
p3289
sI27
S'    else:'
p3290
sI28
S"        response.error = 'form was not processed'"
p3291
sI29
S'    """'
p3292
sI30
S''
sI31
S'    w = OptionsWidget.widget(self.field, self.value)'
p3293
ssg3241
S'()'
p3294
sg3243
S'set_widget'
p3295
sasS'pyver'
p3296
S'Python 2.7.2+: /usr/bin/python2.7'
p3297
sS'session'
p3298
g56
(g57
g58
NtRp3299
(dp3300
g61
(dp3301
sg63
(lp3302
g56
(g65
g58
NtRp3303
(dp3304
g61
(dp3305
g69
I5
ssg70
Nsg63
(lp3306
g56
(g72
g58
NtRp3307
(dp3308
g61
(dp3309
sg70
g3303
sg63
(lp3310
g56
(g77
g58
NtRp3311
(dp3312
g61
(dp3313
g81
g82
ssg70
g3307
sg63
(lp3314
S'auth'
p3315
asbag56
(g77
g58
NtRp3316
(dp3317
g61
(dp3318
g88
g89
ssg70
g3307
sg63
(lp3319
S':'
asbag56
(g77
g58
NtRp3320
(dp3321
g61
(dp3322
sg70
g3307
sg63
(lp3323
g56
(g57
g58
NtRp3324
(dp3325
g61
(dp3326
g69
I5
ssg70
g3320
sg63
(lp3327
g56
(g65
g58
NtRp3328
(dp3329
g61
(dp3330
g69
I4
ssg70
Nsg63
(lp3331
g56
(g72
g58
NtRp3332
(dp3333
g61
(dp3334
sg70
g3328
sg63
(lp3335
g56
(g77
g58
NtRp3336
(dp3337
g61
(dp3338
g81
g82
ssg70
g3332
sg63
(lp3339
S'expiration'
p3340
asbag56
(g77
g58
NtRp3341
(dp3342
g61
(dp3343
g88
g89
ssg70
g3332
sg63
(lp3344
S':'
asbag56
(g77
g58
NtRp3345
(dp3346
g61
(dp3347
sg70
g3332
sg63
(lp3348
g56
(g57
g58
NtRp3349
(dp3350
g61
(dp3351
g69
I4
ssg70
g3345
sg63
(lp3352
S'2592000'
p3353
asbasbasbag56
(g72
g58
NtRp3354
(dp3355
g61
(dp3356
sg70
g3328
sg63
(lp3357
g56
(g77
g58
NtRp3358
(dp3359
g61
(dp3360
g81
g82
ssg70
g3354
sg63
(lp3361
S'hmac_key'
p3362
asbag56
(g77
g58
NtRp3363
(dp3364
g61
(dp3365
g88
g89
ssg70
g3354
sg63
(lp3366
S':'
asbag56
(g77
g58
NtRp3367
(dp3368
g61
(dp3369
sg70
g3354
sg63
(lp3370
g56
(g57
g58
NtRp3371
(dp3372
g61
(dp3373
g69
I4
ssg70
g3367
sg63
(lp3374
S'20c8192d-156c-406c-9f7b-eade4cd34288'
p3375
asbasbasbag56
(g72
g58
NtRp3376
(dp3377
g61
(dp3378
sg70
g3328
sg63
(lp3379
g56
(g77
g58
NtRp3380
(dp3381
g61
(dp3382
g81
g82
ssg70
g3376
sg63
(lp3383
S'last_visit'
p3384
asbag56
(g77
g58
NtRp3385
(dp3386
g61
(dp3387
g88
g89
ssg70
g3376
sg63
(lp3388
S':'
asbag56
(g77
g58
NtRp3389
(dp3390
g61
(dp3391
sg70
g3376
sg63
(lp3392
g56
(g57
g58
NtRp3393
(dp3394
g61
(dp3395
g69
I4
ssg70
g3389
sg63
(lp3396
S'datetime.datetime(2011, 12, 15, 14, 27, 18, 112795)'
p3397
asbasbasbag56
(g72
g58
NtRp3398
(dp3399
g61
(dp3400
sg70
g3328
sg63
(lp3401
g56
(g77
g58
NtRp3402
(dp3403
g61
(dp3404
g81
g82
ssg70
g3398
sg63
(lp3405
S'remember'
p3406
asbag56
(g77
g58
NtRp3407
(dp3408
g61
(dp3409
g88
g89
ssg70
g3398
sg63
(lp3410
S':'
asbag56
(g77
g58
NtRp3411
(dp3412
g61
(dp3413
sg70
g3398
sg63
(lp3414
g56
(g57
g58
NtRp3415
(dp3416
g61
(dp3417
g69
I4
ssg70
g3411
sg63
(lp3418
g99
asbasbasbag56
(g72
g58
NtRp3419
(dp3420
g61
(dp3421
sg70
g3328
sg63
(lp3422
g56
(g77
g58
NtRp3423
(dp3424
g61
(dp3425
g81
g82
ssg70
g3419
sg63
(lp3426
S'user'
p3427
asbag56
(g77
g58
NtRp3428
(dp3429
g61
(dp3430
g88
g89
ssg70
g3419
sg63
(lp3431
S':'
asbag56
(g77
g58
NtRp3432
(dp3433
g61
(dp3434
sg70
g3419
sg63
(lp3435
g56
(g57
g58
NtRp3436
(dp3437
g61
(dp3438
g69
I4
ssg70
g3432
sg63
(lp3439
g56
(g65
g58
NtRp3440
(dp3441
g61
(dp3442
g69
I3
ssg70
Nsg63
(lp3443
g56
(g72
g58
NtRp3444
(dp3445
g61
(dp3446
sg70
g3440
sg63
(lp3447
g56
(g77
g58
NtRp3448
(dp3449
g61
(dp3450
g81
g82
ssg70
g3444
sg63
(lp3451
S'email'
p3452
asbag56
(g77
g58
NtRp3453
(dp3454
g61
(dp3455
g88
g89
ssg70
g3444
sg63
(lp3456
S':'
asbag56
(g77
g58
NtRp3457
(dp3458
g61
(dp3459
sg70
g3444
sg63
(lp3460
g56
(g57
g58
NtRp3461
(dp3462
g61
(dp3463
g69
I3
ssg70
g3457
sg63
(lp3464
S'scottianw@gmail.com'
p3465
asbasbasbag56
(g72
g58
NtRp3466
(dp3467
g61
(dp3468
sg70
g3440
sg63
(lp3469
g56
(g77
g58
NtRp3470
(dp3471
g61
(dp3472
g81
g82
ssg70
g3466
sg63
(lp3473
S'first_name'
p3474
asbag56
(g77
g58
NtRp3475
(dp3476
g61
(dp3477
g88
g89
ssg70
g3466
sg63
(lp3478
S':'
asbag56
(g77
g58
NtRp3479
(dp3480
g61
(dp3481
sg70
g3466
sg63
(lp3482
g56
(g57
g58
NtRp3483
(dp3484
g61
(dp3485
g69
I3
ssg70
g3479
sg63
(lp3486
S'Ian'
p3487
asbasbasbag56
(g72
g58
NtRp3488
(dp3489
g61
(dp3490
sg70
g3440
sg63
(lp3491
g56
(g77
g58
NtRp3492
(dp3493
g61
(dp3494
g81
g82
ssg70
g3488
sg63
(lp3495
S'id'
p3496
asbag56
(g77
g58
NtRp3497
(dp3498
g61
(dp3499
g88
g89
ssg70
g3488
sg63
(lp3500
S':'
asbag56
(g77
g58
NtRp3501
(dp3502
g61
(dp3503
sg70
g3488
sg63
(lp3504
g56
(g57
g58
NtRp3505
(dp3506
g61
(dp3507
g69
I3
ssg70
g3501
sg63
(lp3508
S'1'
asbasbasbag56
(g72
g58
NtRp3509
(dp3510
g61
(dp3511
sg70
g3440
sg63
(lp3512
g56
(g77
g58
NtRp3513
(dp3514
g61
(dp3515
g81
g82
ssg70
g3509
sg63
(lp3516
S'last_name'
p3517
asbag56
(g77
g58
NtRp3518
(dp3519
g61
(dp3520
g88
g89
ssg70
g3509
sg63
(lp3521
S':'
asbag56
(g77
g58
NtRp3522
(dp3523
g61
(dp3524
sg70
g3509
sg63
(lp3525
g56
(g57
g58
NtRp3526
(dp3527
g61
(dp3528
g69
I3
ssg70
g3522
sg63
(lp3529
S'Scott'
p3530
asbasbasbag56
(g72
g58
NtRp3531
(dp3532
g61
(dp3533
sg70
g3440
sg63
(lp3534
g56
(g77
g58
NtRp3535
(dp3536
g61
(dp3537
g81
g82
ssg70
g3531
sg63
(lp3538
S'password'
p3539
asbag56
(g77
g58
NtRp3540
(dp3541
g61
(dp3542
g88
g89
ssg70
g3531
sg63
(lp3543
S':'
asbag56
(g77
g58
NtRp3544
(dp3545
g61
(dp3546
sg70
g3531
sg63
(lp3547
g56
(g57
g58
NtRp3548
(dp3549
g61
(dp3550
g69
I3
ssg70
g3544
sg63
(lp3551
S'6fb48d01a3959846ba0fe062b1789f17d9cf3d34d3ec5aa948f598bbf4387cb10eb60c797988f41dfea97ee691b338dd77413d430229e401cf7c84e6cd9c4458'
p3552
asbasbasbag56
(g72
g58
NtRp3553
(dp3554
g61
(dp3555
sg70
g3440
sg63
(lp3556
g56
(g77
g58
NtRp3557
(dp3558
g61
(dp3559
g81
g82
ssg70
g3553
sg63
(lp3560
S'registration_key'
p3561
asbag56
(g77
g58
NtRp3562
(dp3563
g61
(dp3564
g88
g89
ssg70
g3553
sg63
(lp3565
S':'
asbag56
(g77
g58
NtRp3566
(dp3567
g61
(dp3568
sg70
g3553
sg63
(lp3569
g56
(g57
g58
NtRp3570
(dp3571
g61
(dp3572
g69
I3
ssg70
g3566
sg63
(lp3573
S''
asbasbasbag56
(g72
g58
NtRp3574
(dp3575
g61
(dp3576
sg70
g3440
sg63
(lp3577
g56
(g77
g58
NtRp3578
(dp3579
g61
(dp3580
g81
g82
ssg70
g3574
sg63
(lp3581
S'reset_password_key'
p3582
asbag56
(g77
g58
NtRp3583
(dp3584
g61
(dp3585
g88
g89
ssg70
g3574
sg63
(lp3586
S':'
asbag56
(g77
g58
NtRp3587
(dp3588
g61
(dp3589
sg70
g3574
sg63
(lp3590
g56
(g57
g58
NtRp3591
(dp3592
g61
(dp3593
g69
I3
ssg70
g3587
sg63
(lp3594
S''
asbasbasbasbasbasbasbasbasbasbasbag56
(g72
g58
NtRp3595
(dp3596
g61
(dp3597
sg70
g3303
sg63
(lp3598
g56
(g77
g58
NtRp3599
(dp3600
g61
(dp3601
g81
g82
ssg70
g3595
sg63
(lp3602
S'last_query'
p3603
asbag56
(g77
g58
NtRp3604
(dp3605
g61
(dp3606
g88
g89
ssg70
g3595
sg63
(lp3607
S':'
asbag56
(g77
g58
NtRp3608
(dp3609
g61
(dp3610
sg70
g3595
sg63
(lp3611
g56
(g57
g58
NtRp3612
(dp3613
g61
(dp3614
g69
I5
ssg70
g3608
sg63
(lp3615
S'db.auth_user.id>0'
p3616
asbasbasbasbasbsS'etype'
p3617
S"<type 'exceptions.NameError'>"
p3618
sS'date'
p3619
S'Sun Dec 18 22:48:38 2011'
p3620
sS'response'
p3621
g56
(g57
g58
NtRp3622
(dp3623
g61
(dp3624
sg63
(lp3625
g56
(g65
g58
NtRp3626
(dp3627
g61
(dp3628
g69
I5
ssg70
Nsg63
(lp3629
g56
(g72
g58
NtRp3630
(dp3631
g61
(dp3632
sg70
g3626
sg63
(lp3633
g56
(g77
g58
NtRp3634
(dp3635
g61
(dp3636
g81
g82
ssg70
g3630
sg63
(lp3637
g219
asbag56
(g77
g58
NtRp3638
(dp3639
g61
(dp3640
g88
g89
ssg70
g3630
sg63
(lp3641
S':'
asbag56
(g77
g58
NtRp3642
(dp3643
g61
(dp3644
sg70
g3630
sg63
(lp3645
g56
(g57
g58
NtRp3646
(dp3647
g61
(dp3648
g69
I5
ssg70
g3642
sg63
(lp3649
S'<cStringIO.StringO object at 0x3e037d8>'
p3650
asbasbasbag56
(g72
g58
NtRp3651
(dp3652
g61
(dp3653
sg70
g3626
sg63
(lp3654
g56
(g77
g58
NtRp3655
(dp3656
g61
(dp3657
g81
g82
ssg70
g3651
sg63
(lp3658
g307
asbag56
(g77
g58
NtRp3659
(dp3660
g61
(dp3661
g88
g89
ssg70
g3651
sg63
(lp3662
S':'
asbag56
(g77
g58
NtRp3663
(dp3664
g61
(dp3665
sg70
g3651
sg63
(lp3666
g56
(g57
g58
NtRp3667
(dp3668
g61
(dp3669
g69
I5
ssg70
g3663
sg63
(lp3670
g56
(g65
g58
NtRp3671
(dp3672
g61
(dp3673
g69
I4
ssg70
Nsg63
(lp3674
g56
(g72
g58
NtRp3675
(dp3676
g61
(dp3677
sg70
g3671
sg63
(lp3678
g56
(g77
g58
NtRp3679
(dp3680
g61
(dp3681
g81
g82
ssg70
g3675
sg63
(lp3682
S'session_id_topoi'
p3683
asbag56
(g77
g58
NtRp3684
(dp3685
g61
(dp3686
g88
g89
ssg70
g3675
sg63
(lp3687
S':'
asbag56
(g77
g58
NtRp3688
(dp3689
g61
(dp3690
sg70
g3675
sg63
(lp3691
g56
(g57
g58
NtRp3692
(dp3693
g61
(dp3694
g69
I4
ssg70
g3688
sg63
(lp3695
g56
(g65
g58
NtRp3696
(dp3697
g61
(dp3698
g69
I3
ssg70
Nsg63
(lp3699
g56
(g72
g58
NtRp3700
(dp3701
g61
(dp3702
sg70
g3696
sg63
(lp3703
g56
(g77
g58
NtRp3704
(dp3705
g61
(dp3706
g81
g82
ssg70
g3700
sg63
(lp3707
g357
asbag56
(g77
g58
NtRp3708
(dp3709
g61
(dp3710
g88
g89
ssg70
g3700
sg63
(lp3711
S':'
asbag56
(g77
g58
NtRp3712
(dp3713
g61
(dp3714
sg70
g3700
sg63
(lp3715
g56
(g57
g58
NtRp3716
(dp3717
g61
(dp3718
g69
I3
ssg70
g3712
sg63
(lp3719
S''
asbasbasbag56
(g72
g58
NtRp3720
(dp3721
g61
(dp3722
sg70
g3696
sg63
(lp3723
g56
(g77
g58
NtRp3724
(dp3725
g61
(dp3726
g81
g82
ssg70
g3720
sg63
(lp3727
g378
asbag56
(g77
g58
NtRp3728
(dp3729
g61
(dp3730
g88
g89
ssg70
g3720
sg63
(lp3731
S':'
asbag56
(g77
g58
NtRp3732
(dp3733
g61
(dp3734
sg70
g3720
sg63
(lp3735
g56
(g57
g58
NtRp3736
(dp3737
g61
(dp3738
g69
I3
ssg70
g3732
sg63
(lp3739
S''
asbasbasbag56
(g72
g58
NtRp3740
(dp3741
g61
(dp3742
sg70
g3696
sg63
(lp3743
g56
(g77
g58
NtRp3744
(dp3745
g61
(dp3746
g81
g82
ssg70
g3740
sg63
(lp3747
g399
asbag56
(g77
g58
NtRp3748
(dp3749
g61
(dp3750
g88
g89
ssg70
g3740
sg63
(lp3751
S':'
asbag56
(g77
g58
NtRp3752
(dp3753
g61
(dp3754
sg70
g3740
sg63
(lp3755
g56
(g57
g58
NtRp3756
(dp3757
g61
(dp3758
g69
I3
ssg70
g3752
sg63
(lp3759
S'2592000'
p3760
asbasbasbag56
(g72
g58
NtRp3761
(dp3762
g61
(dp3763
sg70
g3696
sg63
(lp3764
g56
(g77
g58
NtRp3765
(dp3766
g61
(dp3767
g81
g82
ssg70
g3761
sg63
(lp3768
g420
asbag56
(g77
g58
NtRp3769
(dp3770
g61
(dp3771
g88
g89
ssg70
g3761
sg63
(lp3772
S':'
asbag56
(g77
g58
NtRp3773
(dp3774
g61
(dp3775
sg70
g3761
sg63
(lp3776
g56
(g57
g58
NtRp3777
(dp3778
g61
(dp3779
g69
I3
ssg70
g3773
sg63
(lp3780
S''
asbasbasbag56
(g72
g58
NtRp3781
(dp3782
g61
(dp3783
sg70
g3696
sg63
(lp3784
g56
(g77
g58
NtRp3785
(dp3786
g61
(dp3787
g81
g82
ssg70
g3781
sg63
(lp3788
g441
asbag56
(g77
g58
NtRp3789
(dp3790
g61
(dp3791
g88
g89
ssg70
g3781
sg63
(lp3792
S':'
asbag56
(g77
g58
NtRp3793
(dp3794
g61
(dp3795
sg70
g3781
sg63
(lp3796
g56
(g57
g58
NtRp3797
(dp3798
g61
(dp3799
g69
I3
ssg70
g3793
sg63
(lp3800
S''
asbasbasbag56
(g72
g58
NtRp3801
(dp3802
g61
(dp3803
sg70
g3696
sg63
(lp3804
g56
(g77
g58
NtRp3805
(dp3806
g61
(dp3807
g81
g82
ssg70
g3801
sg63
(lp3808
g462
asbag56
(g77
g58
NtRp3809
(dp3810
g61
(dp3811
g88
g89
ssg70
g3801
sg63
(lp3812
S':'
asbag56
(g77
g58
NtRp3813
(dp3814
g61
(dp3815
sg70
g3801
sg63
(lp3816
g56
(g57
g58
NtRp3817
(dp3818
g61
(dp3819
g69
I3
ssg70
g3813
sg63
(lp3820
S'/'
asbasbasbag56
(g72
g58
NtRp3821
(dp3822
g61
(dp3823
sg70
g3696
sg63
(lp3824
g56
(g77
g58
NtRp3825
(dp3826
g61
(dp3827
g81
g82
ssg70
g3821
sg63
(lp3828
g483
asbag56
(g77
g58
NtRp3829
(dp3830
g61
(dp3831
g88
g89
ssg70
g3821
sg63
(lp3832
S':'
asbag56
(g77
g58
NtRp3833
(dp3834
g61
(dp3835
sg70
g3821
sg63
(lp3836
g56
(g57
g58
NtRp3837
(dp3838
g61
(dp3839
g69
I3
ssg70
g3833
sg63
(lp3840
S''
asbasbasbag56
(g72
g58
NtRp3841
(dp3842
g61
(dp3843
sg70
g3696
sg63
(lp3844
g56
(g77
g58
NtRp3845
(dp3846
g61
(dp3847
g81
g82
ssg70
g3841
sg63
(lp3848
g504
asbag56
(g77
g58
NtRp3849
(dp3850
g61
(dp3851
g88
g89
ssg70
g3841
sg63
(lp3852
S':'
asbag56
(g77
g58
NtRp3853
(dp3854
g61
(dp3855
sg70
g3841
sg63
(lp3856
g56
(g57
g58
NtRp3857
(dp3858
g61
(dp3859
g69
I3
ssg70
g3853
sg63
(lp3860
S''
asbasbasbasbasbasbasbasbasbasbasbag56
(g72
g58
NtRp3861
(dp3862
g61
(dp3863
sg70
g3626
sg63
(lp3864
g56
(g77
g58
NtRp3865
(dp3866
g61
(dp3867
g81
g82
ssg70
g3861
sg63
(lp3868
S'files'
p3869
asbag56
(g77
g58
NtRp3870
(dp3871
g61
(dp3872
g88
g89
ssg70
g3861
sg63
(lp3873
S':'
asbag56
(g77
g58
NtRp3874
(dp3875
g61
(dp3876
sg70
g3861
sg63
(lp3877
g56
(g57
g58
NtRp3878
(dp3879
g61
(dp3880
g69
I5
ssg70
g3874
sg63
(lp3881
g56
(g65
g58
NtRp3882
(dp3883
g61
(dp3884
g69
I4
ssg70
Nsg63
(lp3885
sbasbasbasbag56
(g72
g58
NtRp3886
(dp3887
g61
(dp3888
sg70
g3626
sg63
(lp3889
g56
(g77
g58
NtRp3890
(dp3891
g61
(dp3892
g81
g82
ssg70
g3886
sg63
(lp3893
S'flash'
p3894
asbag56
(g77
g58
NtRp3895
(dp3896
g61
(dp3897
g88
g89
ssg70
g3886
sg63
(lp3898
S':'
asbag56
(g77
g58
NtRp3899
(dp3900
g61
(dp3901
sg70
g3886
sg63
(lp3902
g56
(g57
g58
NtRp3903
(dp3904
g61
(dp3905
g69
I5
ssg70
g3899
sg63
(lp3906
S''
asbasbasbag56
(g72
g58
NtRp3907
(dp3908
g61
(dp3909
sg70
g3626
sg63
(lp3910
g56
(g77
g58
NtRp3911
(dp3912
g61
(dp3913
g81
g82
ssg70
g3907
sg63
(lp3914
S'generic_patterns'
p3915
asbag56
(g77
g58
NtRp3916
(dp3917
g61
(dp3918
g88
g89
ssg70
g3907
sg63
(lp3919
S':'
asbag56
(g77
g58
NtRp3920
(dp3921
g61
(dp3922
sg70
g3907
sg63
(lp3923
g56
(g57
g58
NtRp3924
(dp3925
g61
(dp3926
g69
I5
ssg70
g3920
sg63
(lp3927
g56
(g65
g58
NtRp3928
(dp3929
g61
(dp3930
g69
I4
ssg70
Nsg63
(lp3931
g56
(g72
g58
NtRp3932
(dp3933
g61
(dp3934
sg70
g3928
sg63
(lp3935
g56
(g77
g58
NtRp3936
(dp3937
g61
(dp3938
sg70
g3932
sg63
(lp3939
g56
(g57
g58
NtRp3940
(dp3941
g61
(dp3942
g69
I4
ssg70
g3936
sg63
(lp3943
S'*'
asbasbasbasbasbasbasbag56
(g72
g58
NtRp3944
(dp3945
g61
(dp3946
sg70
g3626
sg63
(lp3947
g56
(g77
g58
NtRp3948
(dp3949
g61
(dp3950
g81
g82
ssg70
g3944
sg63
(lp3951
S'headers'
p3952
asbag56
(g77
g58
NtRp3953
(dp3954
g61
(dp3955
g88
g89
ssg70
g3944
sg63
(lp3956
S':'
asbag56
(g77
g58
NtRp3957
(dp3958
g61
(dp3959
sg70
g3944
sg63
(lp3960
g56
(g57
g58
NtRp3961
(dp3962
g61
(dp3963
g69
I5
ssg70
g3957
sg63
(lp3964
g56
(g65
g58
NtRp3965
(dp3966
g61
(dp3967
g69
I4
ssg70
Nsg63
(lp3968
g56
(g72
g58
NtRp3969
(dp3970
g61
(dp3971
sg70
g3965
sg63
(lp3972
g56
(g77
g58
NtRp3973
(dp3974
g61
(dp3975
g81
g82
ssg70
g3969
sg63
(lp3976
S'Cache-Control'
p3977
asbag56
(g77
g58
NtRp3978
(dp3979
g61
(dp3980
g88
g89
ssg70
g3969
sg63
(lp3981
S':'
asbag56
(g77
g58
NtRp3982
(dp3983
g61
(dp3984
sg70
g3969
sg63
(lp3985
g56
(g57
g58
NtRp3986
(dp3987
g61
(dp3988
g69
I4
ssg70
g3982
sg63
(lp3989
S'no-store, no-cache, must-revalidate, post-check=0, pre-check=0'
p3990
asbasbasbag56
(g72
g58
NtRp3991
(dp3992
g61
(dp3993
sg70
g3965
sg63
(lp3994
g56
(g77
g58
NtRp3995
(dp3996
g61
(dp3997
g81
g82
ssg70
g3991
sg63
(lp3998
S'Content-Type'
p3999
asbag56
(g77
g58
NtRp4000
(dp4001
g61
(dp4002
g88
g89
ssg70
g3991
sg63
(lp4003
S':'
asbag56
(g77
g58
NtRp4004
(dp4005
g61
(dp4006
sg70
g3991
sg63
(lp4007
g56
(g57
g58
NtRp4008
(dp4009
g61
(dp4010
g69
I4
ssg70
g4004
sg63
(lp4011
S'text/html; charset=utf-8'
p4012
asbasbasbag56
(g72
g58
NtRp4013
(dp4014
g61
(dp4015
sg70
g3965
sg63
(lp4016
g56
(g77
g58
NtRp4017
(dp4018
g61
(dp4019
g81
g82
ssg70
g4013
sg63
(lp4020
S'Expires'
p4021
asbag56
(g77
g58
NtRp4022
(dp4023
g61
(dp4024
g88
g89
ssg70
g4013
sg63
(lp4025
S':'
asbag56
(g77
g58
NtRp4026
(dp4027
g61
(dp4028
sg70
g4013
sg63
(lp4029
g56
(g57
g58
NtRp4030
(dp4031
g61
(dp4032
g69
I4
ssg70
g4026
sg63
(lp4033
S'Mon, 19 Dec 2011 03:48:38 GMT'
p4034
asbasbasbag56
(g72
g58
NtRp4035
(dp4036
g61
(dp4037
sg70
g3965
sg63
(lp4038
g56
(g77
g58
NtRp4039
(dp4040
g61
(dp4041
g81
g82
ssg70
g4035
sg63
(lp4042
S'Pragma'
p4043
asbag56
(g77
g58
NtRp4044
(dp4045
g61
(dp4046
g88
g89
ssg70
g4035
sg63
(lp4047
S':'
asbag56
(g77
g58
NtRp4048
(dp4049
g61
(dp4050
sg70
g4035
sg63
(lp4051
g56
(g57
g58
NtRp4052
(dp4053
g61
(dp4054
g69
I4
ssg70
g4048
sg63
(lp4055
S'no-cache'
p4056
asbasbasbag56
(g72
g58
NtRp4057
(dp4058
g61
(dp4059
sg70
g3965
sg63
(lp4060
g56
(g77
g58
NtRp4061
(dp4062
g61
(dp4063
g81
g82
ssg70
g4057
sg63
(lp4064
S'X-Powered-By'
p4065
asbag56
(g77
g58
NtRp4066
(dp4067
g61
(dp4068
g88
g89
ssg70
g4057
sg63
(lp4069
S':'
asbag56
(g77
g58
NtRp4070
(dp4071
g61
(dp4072
sg70
g4057
sg63
(lp4073
g56
(g57
g58
NtRp4074
(dp4075
g61
(dp4076
g69
I4
ssg70
g4070
sg63
(lp4077
S'web2py'
p4078
asbasbasbasbasbasbasbag56
(g72
g58
NtRp4079
(dp4080
g61
(dp4081
sg70
g3626
sg63
(lp4082
g56
(g77
g58
NtRp4083
(dp4084
g61
(dp4085
g81
g82
ssg70
g4079
sg63
(lp4086
S'menu'
p4087
asbag56
(g77
g58
NtRp4088
(dp4089
g61
(dp4090
g88
g89
ssg70
g4079
sg63
(lp4091
S':'
asbag56
(g77
g58
NtRp4092
(dp4093
g61
(dp4094
sg70
g4079
sg63
(lp4095
g56
(g57
g58
NtRp4096
(dp4097
g61
(dp4098
g69
I5
ssg70
g4092
sg63
(lp4099
g56
(g65
g58
NtRp4100
(dp4101
g61
(dp4102
g69
I4
ssg70
Nsg63
(lp4103
g56
(g72
g58
NtRp4104
(dp4105
g61
(dp4106
sg70
g4100
sg63
(lp4107
g56
(g77
g58
NtRp4108
(dp4109
g61
(dp4110
sg70
g4104
sg63
(lp4111
g56
(g57
g58
NtRp4112
(dp4113
g61
(dp4114
g69
I4
ssg70
g4108
sg63
(lp4115
g56
(g65
g58
NtRp4116
(dp4117
g61
(dp4118
g69
I3
ssg70
Nsg63
(lp4119
g56
(g72
g58
NtRp4120
(dp4121
g61
(dp4122
sg70
g4116
sg63
(lp4123
g56
(g77
g58
NtRp4124
(dp4125
g61
(dp4126
sg70
g4120
sg63
(lp4127
g56
(g57
g58
NtRp4128
(dp4129
g61
(dp4130
g69
I3
ssg70
g4124
sg63
(lp4131
cgluon.languages
lazyT_unpickle
p4132
(S't\x04\x00\x00\x00Home'
tRp4133
asbasbasbag56
(g72
g58
NtRp4134
(dp4135
g61
(dp4136
sg70
g4116
sg63
(lp4137
g56
(g77
g58
NtRp4138
(dp4139
g61
(dp4140
sg70
g4134
sg63
(lp4141
g56
(g57
g58
NtRp4142
(dp4143
g61
(dp4144
g69
I3
ssg70
g4138
sg63
(lp4145
g1046
asbasbasbag56
(g72
g58
NtRp4146
(dp4147
g61
(dp4148
sg70
g4116
sg63
(lp4149
g56
(g77
g58
NtRp4150
(dp4151
g61
(dp4152
sg70
g4146
sg63
(lp4153
g56
(g57
g58
NtRp4154
(dp4155
g61
(dp4156
g69
I3
ssg70
g4150
sg63
(lp4157
S'/topoi/default/index.load'
p4158
asbasbasbag56
(g72
g58
NtRp4159
(dp4160
g61
(dp4161
sg70
g4116
sg63
(lp4162
g56
(g77
g58
NtRp4163
(dp4164
g61
(dp4165
sg70
g4159
sg63
(lp4166
g56
(g57
g58
NtRp4167
(dp4168
g61
(dp4169
g69
I3
ssg70
g4163
sg63
(lp4170
g56
(g65
g58
NtRp4171
(dp4172
g61
(dp4173
g69
I2
ssg70
Nsg63
(lp4174
sbasbasbasbasbasbasbasbag56
(g72
g58
NtRp4175
(dp4176
g61
(dp4177
sg70
g4100
sg63
(lp4178
g56
(g77
g58
NtRp4179
(dp4180
g61
(dp4181
sg70
g4175
sg63
(lp4182
g56
(g57
g58
NtRp4183
(dp4184
g61
(dp4185
g69
I4
ssg70
g4179
sg63
(lp4186
g56
(g65
g58
NtRp4187
(dp4188
g61
(dp4189
g69
I3
ssg70
Nsg63
(lp4190
g56
(g72
g58
NtRp4191
(dp4192
g61
(dp4193
sg70
g4187
sg63
(lp4194
g56
(g77
g58
NtRp4195
(dp4196
g61
(dp4197
sg70
g4191
sg63
(lp4198
g56
(g57
g58
NtRp4199
(dp4200
g61
(dp4201
g69
I3
ssg70
g4195
sg63
(lp4202
g4132
(S't\x01\x00\x00\x00S'
tRp4203
asbasbasbag56
(g72
g58
NtRp4204
(dp4205
g61
(dp4206
sg70
g4187
sg63
(lp4207
g56
(g77
g58
NtRp4208
(dp4209
g61
(dp4210
sg70
g4204
sg63
(lp4211
g56
(g57
g58
NtRp4212
(dp4213
g61
(dp4214
g69
I3
ssg70
g4208
sg63
(lp4215
g1046
asbasbasbag56
(g72
g58
NtRp4216
(dp4217
g61
(dp4218
sg70
g4187
sg63
(lp4219
g56
(g77
g58
NtRp4220
(dp4221
g61
(dp4222
sg70
g4216
sg63
(lp4223
g56
(g57
g58
NtRp4224
(dp4225
g61
(dp4226
g69
I3
ssg70
g4220
sg63
(lp4227
S'/admin/default/design/topoi.load'
p4228
asbasbasbag56
(g72
g58
NtRp4229
(dp4230
g61
(dp4231
sg70
g4187
sg63
(lp4232
g56
(g77
g58
NtRp4233
(dp4234
g61
(dp4235
sg70
g4229
sg63
(lp4236
g56
(g57
g58
NtRp4237
(dp4238
g61
(dp4239
g69
I3
ssg70
g4233
sg63
(lp4240
g56
(g65
g58
NtRp4241
(dp4242
g61
(dp4243
g69
I2
ssg70
Nsg63
(lp4244
g56
(g72
g58
NtRp4245
(dp4246
g61
(dp4247
sg70
g4241
sg63
(lp4248
g56
(g77
g58
NtRp4249
(dp4250
g61
(dp4251
sg70
g4245
sg63
(lp4252
g56
(g57
g58
NtRp4253
(dp4254
g61
(dp4255
g69
I2
ssg70
g4249
sg63
(lp4256
g56
(g65
g58
NtRp4257
(dp4258
g61
(dp4259
g69
I1
ssg70
Nsg63
(lp4260
g56
(g72
g58
NtRp4261
(dp4262
g61
(dp4263
sg70
g4257
sg63
(lp4264
g56
(g77
g58
NtRp4265
(dp4266
g61
(dp4267
sg70
g4261
sg63
(lp4268
g56
(g57
g58
NtRp4269
(dp4270
g61
(dp4271
g69
I1
ssg70
g4265
sg63
(lp4272
g4132
(S't\n\x00\x00\x00Controller'
tRp4273
asbasbasbag56
(g72
g58
NtRp4274
(dp4275
g61
(dp4276
sg70
g4257
sg63
(lp4277
g56
(g77
g58
NtRp4278
(dp4279
g61
(dp4280
sg70
g4274
sg63
(lp4281
g56
(g57
g58
NtRp4282
(dp4283
g61
(dp4284
g69
I1
ssg70
g4278
sg63
(lp4285
I00
asbasbasbag56
(g72
g58
NtRp4286
(dp4287
g61
(dp4288
sg70
g4257
sg63
(lp4289
g56
(g77
g58
NtRp4290
(dp4291
g61
(dp4292
sg70
g4286
sg63
(lp4293
g56
(g57
g58
NtRp4294
(dp4295
g61
(dp4296
g69
I1
ssg70
g4290
sg63
(lp4297
S'/admin/default/edit/topoi/controllers/plugin_ajaxselect.py'
p4298
asbasbasbasbasbasbasbag56
(g72
g58
NtRp4299
(dp4300
g61
(dp4301
sg70
g4241
sg63
(lp4302
g56
(g77
g58
NtRp4303
(dp4304
g61
(dp4305
sg70
g4299
sg63
(lp4306
g56
(g57
g58
NtRp4307
(dp4308
g61
(dp4309
g69
I2
ssg70
g4303
sg63
(lp4310
g56
(g65
g58
NtRp4311
(dp4312
g61
(dp4313
g69
I1
ssg70
Nsg63
(lp4314
g56
(g72
g58
NtRp4315
(dp4316
g61
(dp4317
sg70
g4311
sg63
(lp4318
g56
(g77
g58
NtRp4319
(dp4320
g61
(dp4321
sg70
g4315
sg63
(lp4322
g56
(g57
g58
NtRp4323
(dp4324
g61
(dp4325
g69
I1
ssg70
g4319
sg63
(lp4326
g4132
(S't\x04\x00\x00\x00View'
tRp4327
asbasbasbag56
(g72
g58
NtRp4328
(dp4329
g61
(dp4330
sg70
g4311
sg63
(lp4331
g56
(g77
g58
NtRp4332
(dp4333
g61
(dp4334
sg70
g4328
sg63
(lp4335
g56
(g57
g58
NtRp4336
(dp4337
g61
(dp4338
g69
I1
ssg70
g4332
sg63
(lp4339
I00
asbasbasbag56
(g72
g58
NtRp4340
(dp4341
g61
(dp4342
sg70
g4311
sg63
(lp4343
g56
(g77
g58
NtRp4344
(dp4345
g61
(dp4346
sg70
g4340
sg63
(lp4347
g56
(g57
g58
NtRp4348
(dp4349
g61
(dp4350
g69
I1
ssg70
g4344
sg63
(lp4351
S'/admin/default/edit/topoi/views/plugin_ajaxselect/set_widget.load'
p4352
asbasbasbasbasbasbasbag56
(g72
g58
NtRp4353
(dp4354
g61
(dp4355
sg70
g4241
sg63
(lp4356
g56
(g77
g58
NtRp4357
(dp4358
g61
(dp4359
sg70
g4353
sg63
(lp4360
g56
(g57
g58
NtRp4361
(dp4362
g61
(dp4363
g69
I2
ssg70
g4357
sg63
(lp4364
g56
(g65
g58
NtRp4365
(dp4366
g61
(dp4367
g69
I1
ssg70
Nsg63
(lp4368
g56
(g72
g58
NtRp4369
(dp4370
g61
(dp4371
sg70
g4365
sg63
(lp4372
g56
(g77
g58
NtRp4373
(dp4374
g61
(dp4375
sg70
g4369
sg63
(lp4376
g56
(g57
g58
NtRp4377
(dp4378
g61
(dp4379
g69
I1
ssg70
g4373
sg63
(lp4380
g4132
(S't\x06\x00\x00\x00Layout'
tRp4381
asbasbasbag56
(g72
g58
NtRp4382
(dp4383
g61
(dp4384
sg70
g4365
sg63
(lp4385
g56
(g77
g58
NtRp4386
(dp4387
g61
(dp4388
sg70
g4382
sg63
(lp4389
g56
(g57
g58
NtRp4390
(dp4391
g61
(dp4392
g69
I1
ssg70
g4386
sg63
(lp4393
I00
asbasbasbag56
(g72
g58
NtRp4394
(dp4395
g61
(dp4396
sg70
g4365
sg63
(lp4397
g56
(g77
g58
NtRp4398
(dp4399
g61
(dp4400
sg70
g4394
sg63
(lp4401
g56
(g57
g58
NtRp4402
(dp4403
g61
(dp4404
g69
I1
ssg70
g4398
sg63
(lp4405
S'/admin/default/edit/topoi/views/layout.html'
p4406
asbasbasbasbasbasbasbag56
(g72
g58
NtRp4407
(dp4408
g61
(dp4409
sg70
g4241
sg63
(lp4410
g56
(g77
g58
NtRp4411
(dp4412
g61
(dp4413
sg70
g4407
sg63
(lp4414
g56
(g57
g58
NtRp4415
(dp4416
g61
(dp4417
g69
I2
ssg70
g4411
sg63
(lp4418
g56
(g65
g58
NtRp4419
(dp4420
g61
(dp4421
g69
I1
ssg70
Nsg63
(lp4422
g56
(g72
g58
NtRp4423
(dp4424
g61
(dp4425
sg70
g4419
sg63
(lp4426
g56
(g77
g58
NtRp4427
(dp4428
g61
(dp4429
sg70
g4423
sg63
(lp4430
g56
(g57
g58
NtRp4431
(dp4432
g61
(dp4433
g69
I1
ssg70
g4427
sg63
(lp4434
g4132
(S't\n\x00\x00\x00Stylesheet'
tRp4435
asbasbasbag56
(g72
g58
NtRp4436
(dp4437
g61
(dp4438
sg70
g4419
sg63
(lp4439
g56
(g77
g58
NtRp4440
(dp4441
g61
(dp4442
sg70
g4436
sg63
(lp4443
g56
(g57
g58
NtRp4444
(dp4445
g61
(dp4446
g69
I1
ssg70
g4440
sg63
(lp4447
I00
asbasbasbag56
(g72
g58
NtRp4448
(dp4449
g61
(dp4450
sg70
g4419
sg63
(lp4451
g56
(g77
g58
NtRp4452
(dp4453
g61
(dp4454
sg70
g4448
sg63
(lp4455
g56
(g57
g58
NtRp4456
(dp4457
g61
(dp4458
g69
I1
ssg70
g4452
sg63
(lp4459
S'/admin/default/edit/topoi/static/base.css'
p4460
asbasbasbasbasbasbasbag56
(g72
g58
NtRp4461
(dp4462
g61
(dp4463
sg70
g4241
sg63
(lp4464
g56
(g77
g58
NtRp4465
(dp4466
g61
(dp4467
sg70
g4461
sg63
(lp4468
g56
(g57
g58
NtRp4469
(dp4470
g61
(dp4471
g69
I2
ssg70
g4465
sg63
(lp4472
g56
(g65
g58
NtRp4473
(dp4474
g61
(dp4475
g69
I1
ssg70
Nsg63
(lp4476
g56
(g72
g58
NtRp4477
(dp4478
g61
(dp4479
sg70
g4473
sg63
(lp4480
g56
(g77
g58
NtRp4481
(dp4482
g61
(dp4483
sg70
g4477
sg63
(lp4484
g56
(g57
g58
NtRp4485
(dp4486
g61
(dp4487
g69
I1
ssg70
g4481
sg63
(lp4488
g4132
(S's\x08\x00\x00\x00DB Model'
tRp4489
asbasbasbag56
(g72
g58
NtRp4490
(dp4491
g61
(dp4492
sg70
g4473
sg63
(lp4493
g56
(g77
g58
NtRp4494
(dp4495
g61
(dp4496
sg70
g4490
sg63
(lp4497
g56
(g57
g58
NtRp4498
(dp4499
g61
(dp4500
g69
I1
ssg70
g4494
sg63
(lp4501
I00
asbasbasbag56
(g72
g58
NtRp4502
(dp4503
g61
(dp4504
sg70
g4473
sg63
(lp4505
g56
(g77
g58
NtRp4506
(dp4507
g61
(dp4508
sg70
g4502
sg63
(lp4509
g56
(g57
g58
NtRp4510
(dp4511
g61
(dp4512
g69
I1
ssg70
g4506
sg63
(lp4513
S'/admin/default/edit/topoi/models/db.py'
p4514
asbasbasbasbasbasbasbag56
(g72
g58
NtRp4515
(dp4516
g61
(dp4517
sg70
g4241
sg63
(lp4518
g56
(g77
g58
NtRp4519
(dp4520
g61
(dp4521
sg70
g4515
sg63
(lp4522
g56
(g57
g58
NtRp4523
(dp4524
g61
(dp4525
g69
I2
ssg70
g4519
sg63
(lp4526
g56
(g65
g58
NtRp4527
(dp4528
g61
(dp4529
g69
I1
ssg70
Nsg63
(lp4530
g56
(g72
g58
NtRp4531
(dp4532
g61
(dp4533
sg70
g4527
sg63
(lp4534
g56
(g77
g58
NtRp4535
(dp4536
g61
(dp4537
sg70
g4531
sg63
(lp4538
g56
(g57
g58
NtRp4539
(dp4540
g61
(dp4541
g69
I1
ssg70
g4535
sg63
(lp4542
g4132
(S's\n\x00\x00\x00Menu Model'
tRp4543
asbasbasbag56
(g72
g58
NtRp4544
(dp4545
g61
(dp4546
sg70
g4527
sg63
(lp4547
g56
(g77
g58
NtRp4548
(dp4549
g61
(dp4550
sg70
g4544
sg63
(lp4551
g56
(g57
g58
NtRp4552
(dp4553
g61
(dp4554
g69
I1
ssg70
g4548
sg63
(lp4555
I00
asbasbasbag56
(g72
g58
NtRp4556
(dp4557
g61
(dp4558
sg70
g4527
sg63
(lp4559
g56
(g77
g58
NtRp4560
(dp4561
g61
(dp4562
sg70
g4556
sg63
(lp4563
g56
(g57
g58
NtRp4564
(dp4565
g61
(dp4566
g69
I1
ssg70
g4560
sg63
(lp4567
S'/admin/default/edit/topoi/models/menu.py'
p4568
asbasbasbasbasbasbasbag56
(g72
g58
NtRp4569
(dp4570
g61
(dp4571
sg70
g4241
sg63
(lp4572
g56
(g77
g58
NtRp4573
(dp4574
g61
(dp4575
sg70
g4569
sg63
(lp4576
g56
(g57
g58
NtRp4577
(dp4578
g61
(dp4579
g69
I2
ssg70
g4573
sg63
(lp4580
g56
(g65
g58
NtRp4581
(dp4582
g61
(dp4583
g69
I1
ssg70
Nsg63
(lp4584
g56
(g72
g58
NtRp4585
(dp4586
g61
(dp4587
sg70
g4581
sg63
(lp4588
g56
(g77
g58
NtRp4589
(dp4590
g61
(dp4591
sg70
g4585
sg63
(lp4592
g56
(g57
g58
NtRp4593
(dp4594
g61
(dp4595
g69
I1
ssg70
g4589
sg63
(lp4596
g4132
(S't\x08\x00\x00\x00Database'
tRp4597
asbasbasbag56
(g72
g58
NtRp4598
(dp4599
g61
(dp4600
sg70
g4581
sg63
(lp4601
g56
(g77
g58
NtRp4602
(dp4603
g61
(dp4604
sg70
g4598
sg63
(lp4605
g56
(g57
g58
NtRp4606
(dp4607
g61
(dp4608
g69
I1
ssg70
g4602
sg63
(lp4609
I00
asbasbasbag56
(g72
g58
NtRp4610
(dp4611
g61
(dp4612
sg70
g4581
sg63
(lp4613
g56
(g77
g58
NtRp4614
(dp4615
g61
(dp4616
sg70
g4610
sg63
(lp4617
g56
(g57
g58
NtRp4618
(dp4619
g61
(dp4620
g69
I1
ssg70
g4614
sg63
(lp4621
S'/topoi/appadmin/index.load'
p4622
asbasbasbasbasbasbasbag56
(g72
g58
NtRp4623
(dp4624
g61
(dp4625
sg70
g4241
sg63
(lp4626
g56
(g77
g58
NtRp4627
(dp4628
g61
(dp4629
sg70
g4623
sg63
(lp4630
g56
(g57
g58
NtRp4631
(dp4632
g61
(dp4633
g69
I2
ssg70
g4627
sg63
(lp4634
g56
(g65
g58
NtRp4635
(dp4636
g61
(dp4637
g69
I1
ssg70
Nsg63
(lp4638
g56
(g72
g58
NtRp4639
(dp4640
g61
(dp4641
sg70
g4635
sg63
(lp4642
g56
(g77
g58
NtRp4643
(dp4644
g61
(dp4645
sg70
g4639
sg63
(lp4646
g56
(g57
g58
NtRp4647
(dp4648
g61
(dp4649
g69
I1
ssg70
g4643
sg63
(lp4650
g4132
(S't\x06\x00\x00\x00Errors'
tRp4651
asbasbasbag56
(g72
g58
NtRp4652
(dp4653
g61
(dp4654
sg70
g4635
sg63
(lp4655
g56
(g77
g58
NtRp4656
(dp4657
g61
(dp4658
sg70
g4652
sg63
(lp4659
g56
(g57
g58
NtRp4660
(dp4661
g61
(dp4662
g69
I1
ssg70
g4656
sg63
(lp4663
I00
asbasbasbag56
(g72
g58
NtRp4664
(dp4665
g61
(dp4666
sg70
g4635
sg63
(lp4667
g56
(g77
g58
NtRp4668
(dp4669
g61
(dp4670
sg70
g4664
sg63
(lp4671
g56
(g57
g58
NtRp4672
(dp4673
g61
(dp4674
g69
I1
ssg70
g4668
sg63
(lp4675
S'/admin/default/errors/topoi.load'
p4676
asbasbasbasbasbasbasbag56
(g72
g58
NtRp4677
(dp4678
g61
(dp4679
sg70
g4241
sg63
(lp4680
g56
(g77
g58
NtRp4681
(dp4682
g61
(dp4683
sg70
g4677
sg63
(lp4684
g56
(g57
g58
NtRp4685
(dp4686
g61
(dp4687
g69
I2
ssg70
g4681
sg63
(lp4688
g56
(g65
g58
NtRp4689
(dp4690
g61
(dp4691
g69
I1
ssg70
Nsg63
(lp4692
g56
(g72
g58
NtRp4693
(dp4694
g61
(dp4695
sg70
g4689
sg63
(lp4696
g56
(g77
g58
NtRp4697
(dp4698
g61
(dp4699
sg70
g4693
sg63
(lp4700
g56
(g57
g58
NtRp4701
(dp4702
g61
(dp4703
g69
I1
ssg70
g4697
sg63
(lp4704
g4132
(S't\x05\x00\x00\x00About'
tRp4705
asbasbasbag56
(g72
g58
NtRp4706
(dp4707
g61
(dp4708
sg70
g4689
sg63
(lp4709
g56
(g77
g58
NtRp4710
(dp4711
g61
(dp4712
sg70
g4706
sg63
(lp4713
g56
(g57
g58
NtRp4714
(dp4715
g61
(dp4716
g69
I1
ssg70
g4710
sg63
(lp4717
I00
asbasbasbag56
(g72
g58
NtRp4718
(dp4719
g61
(dp4720
sg70
g4689
sg63
(lp4721
g56
(g77
g58
NtRp4722
(dp4723
g61
(dp4724
sg70
g4718
sg63
(lp4725
g56
(g57
g58
NtRp4726
(dp4727
g61
(dp4728
g69
I1
ssg70
g4722
sg63
(lp4729
S'/admin/default/about/topoi.load'
p4730
asbasbasbasbasbasbasbasbasbasbasbasbasbasbasbasbasbasbasbag56
(g72
g58
NtRp4731
(dp4732
g61
(dp4733
sg70
g3626
sg63
(lp4734
g56
(g77
g58
NtRp4735
(dp4736
g61
(dp4737
g81
g82
ssg70
g4731
sg63
(lp4738
S'meta'
p4739
asbag56
(g77
g58
NtRp4740
(dp4741
g61
(dp4742
g88
g89
ssg70
g4731
sg63
(lp4743
S':'
asbag56
(g77
g58
NtRp4744
(dp4745
g61
(dp4746
sg70
g4731
sg63
(lp4747
g56
(g57
g58
NtRp4748
(dp4749
g61
(dp4750
g69
I5
ssg70
g4744
sg63
(lp4751
g56
(g65
g58
NtRp4752
(dp4753
g61
(dp4754
g69
I4
ssg70
Nsg63
(lp4755
g56
(g72
g58
NtRp4756
(dp4757
g61
(dp4758
sg70
g4752
sg63
(lp4759
g56
(g77
g58
NtRp4760
(dp4761
g61
(dp4762
g81
g82
ssg70
g4756
sg63
(lp4763
S'author'
p4764
asbag56
(g77
g58
NtRp4765
(dp4766
g61
(dp4767
g88
g89
ssg70
g4756
sg63
(lp4768
S':'
asbag56
(g77
g58
NtRp4769
(dp4770
g61
(dp4771
sg70
g4756
sg63
(lp4772
g56
(g57
g58
NtRp4773
(dp4774
g61
(dp4775
g69
I4
ssg70
g4769
sg63
(lp4776
S'Ian W. Scott'
p4777
asbasbasbag56
(g72
g58
NtRp4778
(dp4779
g61
(dp4780
sg70
g4752
sg63
(lp4781
g56
(g77
g58
NtRp4782
(dp4783
g61
(dp4784
g81
g82
ssg70
g4778
sg63
(lp4785
S'copyright'
p4786
asbag56
(g77
g58
NtRp4787
(dp4788
g61
(dp4789
g88
g89
ssg70
g4778
sg63
(lp4790
S':'
asbag56
(g77
g58
NtRp4791
(dp4792
g61
(dp4793
sg70
g4778
sg63
(lp4794
g56
(g57
g58
NtRp4795
(dp4796
g61
(dp4797
g69
I4
ssg70
g4791
sg63
(lp4798
S'Copyright 2011'
p4799
asbasbasbag56
(g72
g58
NtRp4800
(dp4801
g61
(dp4802
sg70
g4752
sg63
(lp4803
g56
(g77
g58
NtRp4804
(dp4805
g61
(dp4806
g81
g82
ssg70
g4800
sg63
(lp4807
S'description'
p4808
asbag56
(g77
g58
NtRp4809
(dp4810
g61
(dp4811
g88
g89
ssg70
g4800
sg63
(lp4812
S':'
asbag56
(g77
g58
NtRp4813
(dp4814
g61
(dp4815
sg70
g4800
sg63
(lp4816
g56
(g57
g58
NtRp4817
(dp4818
g61
(dp4819
g69
I4
ssg70
g4813
sg63
(lp4820
S'A web-app for managing primary-text research in the humanities.'
p4821
asbasbasbag56
(g72
g58
NtRp4822
(dp4823
g61
(dp4824
sg70
g4752
sg63
(lp4825
g56
(g77
g58
NtRp4826
(dp4827
g61
(dp4828
g81
g82
ssg70
g4822
sg63
(lp4829
S'generator'
p4830
asbag56
(g77
g58
NtRp4831
(dp4832
g61
(dp4833
g88
g89
ssg70
g4822
sg63
(lp4834
S':'
asbag56
(g77
g58
NtRp4835
(dp4836
g61
(dp4837
sg70
g4822
sg63
(lp4838
g56
(g57
g58
NtRp4839
(dp4840
g61
(dp4841
g69
I4
ssg70
g4835
sg63
(lp4842
S'Web2py Enterprise Framework'
p4843
asbasbasbag56
(g72
g58
NtRp4844
(dp4845
g61
(dp4846
sg70
g4752
sg63
(lp4847
g56
(g77
g58
NtRp4848
(dp4849
g61
(dp4850
g81
g82
ssg70
g4844
sg63
(lp4851
S'keywords'
p4852
asbag56
(g77
g58
NtRp4853
(dp4854
g61
(dp4855
g88
g89
ssg70
g4844
sg63
(lp4856
S':'
asbag56
(g77
g58
NtRp4857
(dp4858
g61
(dp4859
sg70
g4844
sg63
(lp4860
g56
(g57
g58
NtRp4861
(dp4862
g61
(dp4863
g69
I4
ssg70
g4857
sg63
(lp4864
S'research, humanities, biblical'
p4865
asbasbasbasbasbasbasbag56
(g72
g58
NtRp4866
(dp4867
g61
(dp4868
sg70
g3626
sg63
(lp4869
g56
(g77
g58
NtRp4870
(dp4871
g61
(dp4872
g81
g82
ssg70
g4866
sg63
(lp4873
S'postprocessing'
p4874
asbag56
(g77
g58
NtRp4875
(dp4876
g61
(dp4877
g88
g89
ssg70
g4866
sg63
(lp4878
S':'
asbag56
(g77
g58
NtRp4879
(dp4880
g61
(dp4881
sg70
g4866
sg63
(lp4882
g56
(g57
g58
NtRp4883
(dp4884
g61
(dp4885
g69
I5
ssg70
g4879
sg63
(lp4886
g56
(g65
g58
NtRp4887
(dp4888
g61
(dp4889
g69
I4
ssg70
Nsg63
(lp4890
sbasbasbasbag56
(g72
g58
NtRp4891
(dp4892
g61
(dp4893
sg70
g3626
sg63
(lp4894
g56
(g77
g58
NtRp4895
(dp4896
g61
(dp4897
g81
g82
ssg70
g4891
sg63
(lp4898
S'session_file'
p4899
asbag56
(g77
g58
NtRp4900
(dp4901
g61
(dp4902
g88
g89
ssg70
g4891
sg63
(lp4903
S':'
asbag56
(g77
g58
NtRp4904
(dp4905
g61
(dp4906
sg70
g4891
sg63
(lp4907
g56
(g57
g58
NtRp4908
(dp4909
g61
(dp4910
g69
I5
ssg70
g4904
sg63
(lp4911
S"<open file '/home/ian/web2py/applications/topoi/sessions/127.0.0.1-fbfd7fa3-57f5-4d42-8f08-594178070e93', mode 'rb+' at 0x338de40>"
p4912
asbasbasbag56
(g72
g58
NtRp4913
(dp4914
g61
(dp4915
sg70
g3626
sg63
(lp4916
g56
(g77
g58
NtRp4917
(dp4918
g61
(dp4919
g81
g82
ssg70
g4913
sg63
(lp4920
S'session_filename'
p4921
asbag56
(g77
g58
NtRp4922
(dp4923
g61
(dp4924
g88
g89
ssg70
g4913
sg63
(lp4925
S':'
asbag56
(g77
g58
NtRp4926
(dp4927
g61
(dp4928
sg70
g4913
sg63
(lp4929
g56
(g57
g58
NtRp4930
(dp4931
g61
(dp4932
g69
I5
ssg70
g4926
sg63
(lp4933
S'/home/ian/web2py/applications/topoi/sessions/127.0.0.1-fbfd7fa3-57f5-4d42-8f08-594178070e93'
p4934
asbasbasbag56
(g72
g58
NtRp4935
(dp4936
g61
(dp4937
sg70
g3626
sg63
(lp4938
g56
(g77
g58
NtRp4939
(dp4940
g61
(dp4941
g81
g82
ssg70
g4935
sg63
(lp4942
S'session_id'
p4943
asbag56
(g77
g58
NtRp4944
(dp4945
g61
(dp4946
g88
g89
ssg70
g4935
sg63
(lp4947
S':'
asbag56
(g77
g58
NtRp4948
(dp4949
g61
(dp4950
sg70
g4935
sg63
(lp4951
g56
(g57
g58
NtRp4952
(dp4953
g61
(dp4954
g69
I5
ssg70
g4948
sg63
(lp4955
S'127.0.0.1-fbfd7fa3-57f5-4d42-8f08-594178070e93'
p4956
asbasbasbag56
(g72
g58
NtRp4957
(dp4958
g61
(dp4959
sg70
g3626
sg63
(lp4960
g56
(g77
g58
NtRp4961
(dp4962
g61
(dp4963
g81
g82
ssg70
g4957
sg63
(lp4964
S'session_id_name'
p4965
asbag56
(g77
g58
NtRp4966
(dp4967
g61
(dp4968
g88
g89
ssg70
g4957
sg63
(lp4969
S':'
asbag56
(g77
g58
NtRp4970
(dp4971
g61
(dp4972
sg70
g4957
sg63
(lp4973
g56
(g57
g58
NtRp4974
(dp4975
g61
(dp4976
g69
I5
ssg70
g4970
sg63
(lp4977
g3683
asbasbasbag56
(g72
g58
NtRp4978
(dp4979
g61
(dp4980
sg70
g3626
sg63
(lp4981
g56
(g77
g58
NtRp4982
(dp4983
g61
(dp4984
g81
g82
ssg70
g4978
sg63
(lp4985
S'session_locked'
p4986
asbag56
(g77
g58
NtRp4987
(dp4988
g61
(dp4989
g88
g89
ssg70
g4978
sg63
(lp4990
S':'
asbag56
(g77
g58
NtRp4991
(dp4992
g61
(dp4993
sg70
g4978
sg63
(lp4994
g56
(g57
g58
NtRp4995
(dp4996
g61
(dp4997
g69
I5
ssg70
g4991
sg63
(lp4998
g99
asbasbasbag56
(g72
g58
NtRp4999
(dp5000
g61
(dp5001
sg70
g3626
sg63
(lp5002
g56
(g77
g58
NtRp5003
(dp5004
g61
(dp5005
g81
g82
ssg70
g4999
sg63
(lp5006
S'session_new'
p5007
asbag56
(g77
g58
NtRp5008
(dp5009
g61
(dp5010
g88
g89
ssg70
g4999
sg63
(lp5011
S':'
asbag56
(g77
g58
NtRp5012
(dp5013
g61
(dp5014
sg70
g4999
sg63
(lp5015
g56
(g57
g58
NtRp5016
(dp5017
g61
(dp5018
g69
I5
ssg70
g5012
sg63
(lp5019
g1046
asbasbasbag56
(g72
g58
NtRp5020
(dp5021
g61
(dp5022
sg70
g3626
sg63
(lp5023
g56
(g77
g58
NtRp5024
(dp5025
g61
(dp5026
g81
g82
ssg70
g5020
sg63
(lp5027
S'status'
p5028
asbag56
(g77
g58
NtRp5029
(dp5030
g61
(dp5031
g88
g89
ssg70
g5020
sg63
(lp5032
S':'
asbag56
(g77
g58
NtRp5033
(dp5034
g61
(dp5035
sg70
g5020
sg63
(lp5036
g56
(g57
g58
NtRp5037
(dp5038
g61
(dp5039
g69
I5
ssg70
g5033
sg63
(lp5040
S'200'
p5041
asbasbasbag56
(g72
g58
NtRp5042
(dp5043
g61
(dp5044
sg70
g3626
sg63
(lp5045
g56
(g77
g58
NtRp5046
(dp5047
g61
(dp5048
g81
g82
ssg70
g5042
sg63
(lp5049
S'subtitle'
p5050
asbag56
(g77
g58
NtRp5051
(dp5052
g61
(dp5053
g88
g89
ssg70
g5042
sg63
(lp5054
S':'
asbag56
(g77
g58
NtRp5055
(dp5056
g61
(dp5057
sg70
g5042
sg63
(lp5058
g56
(g57
g58
NtRp5059
(dp5060
g61
(dp5061
g69
I5
ssg70
g5055
sg63
(lp5062
g4132
(S's;\x00\x00\x00A tool for managing primary-text research in the humanities'
tRp5063
asbasbasbag56
(g72
g58
NtRp5064
(dp5065
g61
(dp5066
sg70
g3626
sg63
(lp5067
g56
(g77
g58
NtRp5068
(dp5069
g61
(dp5070
g81
g82
ssg70
g5064
sg63
(lp5071
S'title'
p5072
asbag56
(g77
g58
NtRp5073
(dp5074
g61
(dp5075
g88
g89
ssg70
g5064
sg63
(lp5076
S':'
asbag56
(g77
g58
NtRp5077
(dp5078
g61
(dp5079
sg70
g5064
sg63
(lp5080
g56
(g57
g58
NtRp5081
(dp5082
g61
(dp5083
g69
I5
ssg70
g5077
sg63
(lp5084
g121
asbasbasbag56
(g72
g58
NtRp5085
(dp5086
g61
(dp5087
sg70
g3626
sg63
(lp5088
g56
(g77
g58
NtRp5089
(dp5090
g61
(dp5091
g81
g82
ssg70
g5085
sg63
(lp5092
g2495
asbag56
(g77
g58
NtRp5093
(dp5094
g61
(dp5095
g88
g89
ssg70
g5085
sg63
(lp5096
S':'
asbag56
(g77
g58
NtRp5097
(dp5098
g61
(dp5099
sg70
g5085
sg63
(lp5100
g56
(g57
g58
NtRp5101
(dp5102
g61
(dp5103
g69
I5
ssg70
g5097
sg63
(lp5104
g2508
asbasbasbag56
(g72
g58
NtRp5105
(dp5106
g61
(dp5107
sg70
g3626
sg63
(lp5108
g56
(g77
g58
NtRp5109
(dp5110
g61
(dp5111
g81
g82
ssg70
g5105
sg63
(lp5112
S'view'
p5113
asbag56
(g77
g58
NtRp5114
(dp5115
g61
(dp5116
g88
g89
ssg70
g5105
sg63
(lp5117
S':'
asbag56
(g77
g58
NtRp5118
(dp5119
g61
(dp5120
sg70
g5105
sg63
(lp5121
g56
(g57
g58
NtRp5122
(dp5123
g61
(dp5124
g69
I5
ssg70
g5118
sg63
(lp5125
S'plugin_ajaxselect/set_widget.load'
p5126
asbasbasbasbasbsS'locals'
p5127
(dp5128
S'loadname'
p5129
S"'notes_author_loader'"
p5130
sS'the_table'
p5131
S"<Table {'reference': <gluon.dal.Field object at ...>, '_id': <gluon.dal.Field object at 0x3e18710>}>"
p5132
sS'value'
p5133
S"'10'"
p5134
sS'field'
p5135
S"'author'"
p5136
sS'table'
p5137
S"'notes'"
p5138
sS'the_field'
p5139
S'<gluon.dal.Field object>'
p5140
sS'the_linktable'
p5141
S"<Table {'ALL': <gluon.dal.SQLALL object at 0x3e1...0>, 'id': <gluon.dal.Field object at 0x3e15950>}>"
p5142
sS'linktable'
p5143
S"'authors'"
p5144
sssS'traceback'
p5145
S'Traceback (most recent call last):\n  File "/home/ian/web2py/gluon/restricted.py", line 194, in restricted\n    exec ccode in environment\n  File "/home/ian/web2py/applications/topoi/controllers/plugin_ajaxselect.py", line 35, in <module>\n  File "/home/ian/web2py/gluon/globals.py", line 149, in <lambda>\n    self._caller = lambda f: f()\n  File "/home/ian/web2py/applications/topoi/controllers/plugin_ajaxselect.py", line 31, in set_widget\n    w = OptionsWidget.widget(self.field, self.value)\nNameError: global name \'self\' is not defined\n'
p5146
s.