(dp1
S'output'
p2
S''
sS'layer'
p3
S'/home/ian/web2py/applications/topoi/controllers/plugin_listandedit.py'
p4
sS'code'
p5
S'# coding: utf8\n# try something like\ndef list():\n    """\n    API: Takes two required arguments. The first is the name of the table being listed, and the second is the id of the project.\n    Takes one required variable in the URL request: a dictionary with at least one item with the index \'fields\'. The value of request.vars[fields] provides the fields to be used to represent each record in the list.\n    """\n    response.files.append(URL(\'static\', \'plugin_listandedit/plugin_listandedit.css\'))\n    response.files.append(URL(\'static\', \'plugin_listandedit/plugin_listandedit.js\'))\n\n    tablename = request.args[0]\n    fieldnames = request.vars[\'fields\']\n\n    rowlist = \'\'\n    if not tablename in db.tables():\n        response.flash = \'Sorry, you are trying to list entries from a table that does not exist in the database.\'\n    else:\n        tb = db[tablename]\n        rowlist = db(tb).select()\n\n    listset = []\n    for r in rowlist:\n        listformat = \'\'\n        for f in fieldnames:\n            if tb.fields[f].type == \'reference\':\n                print \'ref\'\n            else:\n                listformat += r[f]\n\n        i = A(listformat, _href=URL(\'plugin_listandedit\', \'edit.load\', args=[tablename, r.id]), _class=\'plugin_listandedit_list\', cid=\'viewpane\')\n        listset.append(i)\n\n    return dict(listset = listset)\n\ndef edit():\n    tablename = request.args[0]\n    rowid = request.args[1]\n    form = crud.update(db[tablename], rowid)\n\n    return dict(form = form)\n\nresponse._vars=response._caller(list)\n'
p6
sS'snapshot'
p7
(dp8
S'exception'
p9
(dp10
S'__hash__'
p11
S"<method-wrapper '__hash__' of exceptions.TypeError object>"
p12
sS'__setattr__'
p13
S"<method-wrapper '__setattr__' of exceptions.TypeError object>"
p14
sS'__reduce_ex__'
p15
S'<built-in method __reduce_ex__ of exceptions.TypeError object>'
p16
sS'__getslice__'
p17
S"<method-wrapper '__getslice__' of exceptions.TypeError object>"
p18
sS'__getitem__'
p19
S"<method-wrapper '__getitem__' of exceptions.TypeError object>"
p20
sS'__setstate__'
p21
S'<built-in method __setstate__ of exceptions.TypeError object>'
p22
sS'args'
p23
S"('list indices must be integers, not str',)"
p24
sS'__reduce__'
p25
S'<built-in method __reduce__ of exceptions.TypeError object>'
p26
sS'__str__'
p27
S"<method-wrapper '__str__' of exceptions.TypeError object>"
p28
sS'__format__'
p29
S'<built-in method __format__ of exceptions.TypeError object>'
p30
sS'__getattribute__'
p31
S"<method-wrapper '__getattribute__' of exceptions.TypeError object>"
p32
sS'__class__'
p33
S"<type 'exceptions.TypeError'>"
p34
sS'__unicode__'
p35
S'<built-in method __unicode__ of exceptions.TypeError object>'
p36
sS'__delattr__'
p37
S"<method-wrapper '__delattr__' of exceptions.TypeError object>"
p38
sS'__subclasshook__'
p39
S'<built-in method __subclasshook__ of type object>'
p40
sS'__repr__'
p41
S"<method-wrapper '__repr__' of exceptions.TypeError object>"
p42
sS'__dict__'
p43
S'{}'
p44
sS'__sizeof__'
p45
S'<built-in method __sizeof__ of exceptions.TypeError object>'
p46
sS'__doc__'
p47
S"'Inappropriate argument type.'"
p48
sS'__init__'
p49
S"<method-wrapper '__init__' of exceptions.TypeError object>"
p50
sS'__new__'
p51
S'<built-in method __new__ of type object>'
p52
ssS'evalue'
p53
S'list indices must be integers, not str'
p54
sS'request'
p55
ccopy_reg
_reconstructor
p56
(cgluon.html
BEAUTIFY
p57
c__builtin__
object
p58
NtRp59
(dp60
S'attributes'
p61
(dp62
sS'components'
p63
(lp64
g56
(cgluon.html
TABLE
p65
g58
NtRp66
(dp67
g61
(dp68
S'level'
p69
I5
ssS'parent'
p70
Nsg63
(lp71
g56
(cgluon.html
TR
p72
g58
NtRp73
(dp74
g61
(dp75
sg70
g66
sg63
(lp76
g56
(cgluon.html
TD
p77
g58
NtRp78
(dp79
g61
(dp80
S'_style'
p81
S'font-weight:bold;'
p82
ssg70
g73
sg63
(lp83
S'ajax'
p84
asbag56
(g77
g58
NtRp85
(dp86
g61
(dp87
S'_valign'
p88
S'top'
p89
ssg70
g73
sg63
(lp90
S':'
asbag56
(g77
g58
NtRp91
(dp92
g61
(dp93
sg70
g73
sg63
(lp94
g56
(g57
g58
NtRp95
(dp96
g61
(dp97
g69
I5
ssg70
g91
sg63
(lp98
S'False'
p99
asbasbasbag56
(g72
g58
NtRp100
(dp101
g61
(dp102
sg70
g66
sg63
(lp103
g56
(g77
g58
NtRp104
(dp105
g61
(dp106
g81
g82
ssg70
g100
sg63
(lp107
S'application'
p108
asbag56
(g77
g58
NtRp109
(dp110
g61
(dp111
g88
g89
ssg70
g100
sg63
(lp112
S':'
asbag56
(g77
g58
NtRp113
(dp114
g61
(dp115
sg70
g100
sg63
(lp116
g56
(g57
g58
NtRp117
(dp118
g61
(dp119
g69
I5
ssg70
g113
sg63
(lp120
S'topoi'
p121
asbasbasbag56
(g72
g58
NtRp122
(dp123
g61
(dp124
sg70
g66
sg63
(lp125
g56
(g77
g58
NtRp126
(dp127
g61
(dp128
g81
g82
ssg70
g122
sg63
(lp129
g23
asbag56
(g77
g58
NtRp130
(dp131
g61
(dp132
g88
g89
ssg70
g122
sg63
(lp133
S':'
asbag56
(g77
g58
NtRp134
(dp135
g61
(dp136
sg70
g122
sg63
(lp137
g56
(g57
g58
NtRp138
(dp139
g61
(dp140
g69
I5
ssg70
g134
sg63
(lp141
g56
(g65
g58
NtRp142
(dp143
g61
(dp144
g69
I4
ssg70
Nsg63
(lp145
g56
(g72
g58
NtRp146
(dp147
g61
(dp148
sg70
g142
sg63
(lp149
g56
(g77
g58
NtRp150
(dp151
g61
(dp152
sg70
g146
sg63
(lp153
g56
(g57
g58
NtRp154
(dp155
g61
(dp156
g69
I4
ssg70
g150
sg63
(lp157
S'notes'
p158
asbasbasbag56
(g72
g58
NtRp159
(dp160
g61
(dp161
sg70
g142
sg63
(lp162
g56
(g77
g58
NtRp163
(dp164
g61
(dp165
sg70
g159
sg63
(lp166
g56
(g57
g58
NtRp167
(dp168
g61
(dp169
g69
I4
ssg70
g163
sg63
(lp170
S'1'
asbasbasbasbasbasbasbag56
(g72
g58
NtRp171
(dp172
g61
(dp173
sg70
g66
sg63
(lp174
g56
(g77
g58
NtRp175
(dp176
g61
(dp177
g81
g82
ssg70
g171
sg63
(lp178
S'body'
p179
asbag56
(g77
g58
NtRp180
(dp181
g61
(dp182
g88
g89
ssg70
g171
sg63
(lp183
S':'
asbag56
(g77
g58
NtRp184
(dp185
g61
(dp186
sg70
g171
sg63
(lp187
g56
(g57
g58
NtRp188
(dp189
g61
(dp190
g69
I5
ssg70
g184
sg63
(lp191
S'<cStringIO.StringO object at 0x39c1110>'
p192
asbasbasbag56
(g72
g58
NtRp193
(dp194
g61
(dp195
sg70
g66
sg63
(lp196
g56
(g77
g58
NtRp197
(dp198
g61
(dp199
g81
g82
ssg70
g193
sg63
(lp200
S'client'
p201
asbag56
(g77
g58
NtRp202
(dp203
g61
(dp204
g88
g89
ssg70
g193
sg63
(lp205
S':'
asbag56
(g77
g58
NtRp206
(dp207
g61
(dp208
sg70
g193
sg63
(lp209
g56
(g57
g58
NtRp210
(dp211
g61
(dp212
g69
I5
ssg70
g206
sg63
(lp213
S'127.0.0.1'
p214
asbasbasbag56
(g72
g58
NtRp215
(dp216
g61
(dp217
sg70
g66
sg63
(lp218
g56
(g77
g58
NtRp219
(dp220
g61
(dp221
g81
g82
ssg70
g215
sg63
(lp222
S'controller'
p223
asbag56
(g77
g58
NtRp224
(dp225
g61
(dp226
g88
g89
ssg70
g215
sg63
(lp227
S':'
asbag56
(g77
g58
NtRp228
(dp229
g61
(dp230
sg70
g215
sg63
(lp231
g56
(g57
g58
NtRp232
(dp233
g61
(dp234
g69
I5
ssg70
g228
sg63
(lp235
S'plugin_listandedit'
p236
asbasbasbag56
(g72
g58
NtRp237
(dp238
g61
(dp239
sg70
g66
sg63
(lp240
g56
(g77
g58
NtRp241
(dp242
g61
(dp243
g81
g82
ssg70
g237
sg63
(lp244
S'cookies'
p245
asbag56
(g77
g58
NtRp246
(dp247
g61
(dp248
g88
g89
ssg70
g237
sg63
(lp249
S':'
asbag56
(g77
g58
NtRp250
(dp251
g61
(dp252
sg70
g237
sg63
(lp253
g56
(g57
g58
NtRp254
(dp255
g61
(dp256
g69
I5
ssg70
g250
sg63
(lp257
g56
(g65
g58
NtRp258
(dp259
g61
(dp260
g69
I4
ssg70
Nsg63
(lp261
g56
(g72
g58
NtRp262
(dp263
g61
(dp264
sg70
g258
sg63
(lp265
g56
(g77
g58
NtRp266
(dp267
g61
(dp268
g81
g82
ssg70
g262
sg63
(lp269
S'session_id_admin'
p270
asbag56
(g77
g58
NtRp271
(dp272
g61
(dp273
g88
g89
ssg70
g262
sg63
(lp274
S':'
asbag56
(g77
g58
NtRp275
(dp276
g61
(dp277
sg70
g262
sg63
(lp278
g56
(g57
g58
NtRp279
(dp280
g61
(dp281
g69
I4
ssg70
g275
sg63
(lp282
g56
(g65
g58
NtRp283
(dp284
g61
(dp285
g69
I3
ssg70
Nsg63
(lp286
g56
(g72
g58
NtRp287
(dp288
g61
(dp289
sg70
g283
sg63
(lp290
g56
(g77
g58
NtRp291
(dp292
g61
(dp293
g81
g82
ssg70
g287
sg63
(lp294
S'comment'
p295
asbag56
(g77
g58
NtRp296
(dp297
g61
(dp298
g88
g89
ssg70
g287
sg63
(lp299
S':'
asbag56
(g77
g58
NtRp300
(dp301
g61
(dp302
sg70
g287
sg63
(lp303
g56
(g57
g58
NtRp304
(dp305
g61
(dp306
g69
I3
ssg70
g300
sg63
(lp307
S''
asbasbasbag56
(g72
g58
NtRp308
(dp309
g61
(dp310
sg70
g283
sg63
(lp311
g56
(g77
g58
NtRp312
(dp313
g61
(dp314
g81
g82
ssg70
g308
sg63
(lp315
S'domain'
p316
asbag56
(g77
g58
NtRp317
(dp318
g61
(dp319
g88
g89
ssg70
g308
sg63
(lp320
S':'
asbag56
(g77
g58
NtRp321
(dp322
g61
(dp323
sg70
g308
sg63
(lp324
g56
(g57
g58
NtRp325
(dp326
g61
(dp327
g69
I3
ssg70
g321
sg63
(lp328
S''
asbasbasbag56
(g72
g58
NtRp329
(dp330
g61
(dp331
sg70
g283
sg63
(lp332
g56
(g77
g58
NtRp333
(dp334
g61
(dp335
g81
g82
ssg70
g329
sg63
(lp336
S'expires'
p337
asbag56
(g77
g58
NtRp338
(dp339
g61
(dp340
g88
g89
ssg70
g329
sg63
(lp341
S':'
asbag56
(g77
g58
NtRp342
(dp343
g61
(dp344
sg70
g329
sg63
(lp345
g56
(g57
g58
NtRp346
(dp347
g61
(dp348
g69
I3
ssg70
g342
sg63
(lp349
S''
asbasbasbag56
(g72
g58
NtRp350
(dp351
g61
(dp352
sg70
g283
sg63
(lp353
g56
(g77
g58
NtRp354
(dp355
g61
(dp356
g81
g82
ssg70
g350
sg63
(lp357
S'httponly'
p358
asbag56
(g77
g58
NtRp359
(dp360
g61
(dp361
g88
g89
ssg70
g350
sg63
(lp362
S':'
asbag56
(g77
g58
NtRp363
(dp364
g61
(dp365
sg70
g350
sg63
(lp366
g56
(g57
g58
NtRp367
(dp368
g61
(dp369
g69
I3
ssg70
g363
sg63
(lp370
S''
asbasbasbag56
(g72
g58
NtRp371
(dp372
g61
(dp373
sg70
g283
sg63
(lp374
g56
(g77
g58
NtRp375
(dp376
g61
(dp377
g81
g82
ssg70
g371
sg63
(lp378
S'max-age'
p379
asbag56
(g77
g58
NtRp380
(dp381
g61
(dp382
g88
g89
ssg70
g371
sg63
(lp383
S':'
asbag56
(g77
g58
NtRp384
(dp385
g61
(dp386
sg70
g371
sg63
(lp387
g56
(g57
g58
NtRp388
(dp389
g61
(dp390
g69
I3
ssg70
g384
sg63
(lp391
S''
asbasbasbag56
(g72
g58
NtRp392
(dp393
g61
(dp394
sg70
g283
sg63
(lp395
g56
(g77
g58
NtRp396
(dp397
g61
(dp398
g81
g82
ssg70
g392
sg63
(lp399
S'path'
p400
asbag56
(g77
g58
NtRp401
(dp402
g61
(dp403
g88
g89
ssg70
g392
sg63
(lp404
S':'
asbag56
(g77
g58
NtRp405
(dp406
g61
(dp407
sg70
g392
sg63
(lp408
g56
(g57
g58
NtRp409
(dp410
g61
(dp411
g69
I3
ssg70
g405
sg63
(lp412
S''
asbasbasbag56
(g72
g58
NtRp413
(dp414
g61
(dp415
sg70
g283
sg63
(lp416
g56
(g77
g58
NtRp417
(dp418
g61
(dp419
g81
g82
ssg70
g413
sg63
(lp420
S'secure'
p421
asbag56
(g77
g58
NtRp422
(dp423
g61
(dp424
g88
g89
ssg70
g413
sg63
(lp425
S':'
asbag56
(g77
g58
NtRp426
(dp427
g61
(dp428
sg70
g413
sg63
(lp429
g56
(g57
g58
NtRp430
(dp431
g61
(dp432
g69
I3
ssg70
g426
sg63
(lp433
S''
asbasbasbag56
(g72
g58
NtRp434
(dp435
g61
(dp436
sg70
g283
sg63
(lp437
g56
(g77
g58
NtRp438
(dp439
g61
(dp440
g81
g82
ssg70
g434
sg63
(lp441
S'version'
p442
asbag56
(g77
g58
NtRp443
(dp444
g61
(dp445
g88
g89
ssg70
g434
sg63
(lp446
S':'
asbag56
(g77
g58
NtRp447
(dp448
g61
(dp449
sg70
g434
sg63
(lp450
g56
(g57
g58
NtRp451
(dp452
g61
(dp453
g69
I3
ssg70
g447
sg63
(lp454
S''
asbasbasbasbasbasbasbag56
(g72
g58
NtRp455
(dp456
g61
(dp457
sg70
g258
sg63
(lp458
g56
(g77
g58
NtRp459
(dp460
g61
(dp461
g81
g82
ssg70
g455
sg63
(lp462
S'session_id_topoi'
p463
asbag56
(g77
g58
NtRp464
(dp465
g61
(dp466
g88
g89
ssg70
g455
sg63
(lp467
S':'
asbag56
(g77
g58
NtRp468
(dp469
g61
(dp470
sg70
g455
sg63
(lp471
g56
(g57
g58
NtRp472
(dp473
g61
(dp474
g69
I4
ssg70
g468
sg63
(lp475
g56
(g65
g58
NtRp476
(dp477
g61
(dp478
g69
I3
ssg70
Nsg63
(lp479
g56
(g72
g58
NtRp480
(dp481
g61
(dp482
sg70
g476
sg63
(lp483
g56
(g77
g58
NtRp484
(dp485
g61
(dp486
g81
g82
ssg70
g480
sg63
(lp487
g295
asbag56
(g77
g58
NtRp488
(dp489
g61
(dp490
g88
g89
ssg70
g480
sg63
(lp491
S':'
asbag56
(g77
g58
NtRp492
(dp493
g61
(dp494
sg70
g480
sg63
(lp495
g56
(g57
g58
NtRp496
(dp497
g61
(dp498
g69
I3
ssg70
g492
sg63
(lp499
S''
asbasbasbag56
(g72
g58
NtRp500
(dp501
g61
(dp502
sg70
g476
sg63
(lp503
g56
(g77
g58
NtRp504
(dp505
g61
(dp506
g81
g82
ssg70
g500
sg63
(lp507
g316
asbag56
(g77
g58
NtRp508
(dp509
g61
(dp510
g88
g89
ssg70
g500
sg63
(lp511
S':'
asbag56
(g77
g58
NtRp512
(dp513
g61
(dp514
sg70
g500
sg63
(lp515
g56
(g57
g58
NtRp516
(dp517
g61
(dp518
g69
I3
ssg70
g512
sg63
(lp519
S''
asbasbasbag56
(g72
g58
NtRp520
(dp521
g61
(dp522
sg70
g476
sg63
(lp523
g56
(g77
g58
NtRp524
(dp525
g61
(dp526
g81
g82
ssg70
g520
sg63
(lp527
g337
asbag56
(g77
g58
NtRp528
(dp529
g61
(dp530
g88
g89
ssg70
g520
sg63
(lp531
S':'
asbag56
(g77
g58
NtRp532
(dp533
g61
(dp534
sg70
g520
sg63
(lp535
g56
(g57
g58
NtRp536
(dp537
g61
(dp538
g69
I3
ssg70
g532
sg63
(lp539
S''
asbasbasbag56
(g72
g58
NtRp540
(dp541
g61
(dp542
sg70
g476
sg63
(lp543
g56
(g77
g58
NtRp544
(dp545
g61
(dp546
g81
g82
ssg70
g540
sg63
(lp547
g358
asbag56
(g77
g58
NtRp548
(dp549
g61
(dp550
g88
g89
ssg70
g540
sg63
(lp551
S':'
asbag56
(g77
g58
NtRp552
(dp553
g61
(dp554
sg70
g540
sg63
(lp555
g56
(g57
g58
NtRp556
(dp557
g61
(dp558
g69
I3
ssg70
g552
sg63
(lp559
S''
asbasbasbag56
(g72
g58
NtRp560
(dp561
g61
(dp562
sg70
g476
sg63
(lp563
g56
(g77
g58
NtRp564
(dp565
g61
(dp566
g81
g82
ssg70
g560
sg63
(lp567
g379
asbag56
(g77
g58
NtRp568
(dp569
g61
(dp570
g88
g89
ssg70
g560
sg63
(lp571
S':'
asbag56
(g77
g58
NtRp572
(dp573
g61
(dp574
sg70
g560
sg63
(lp575
g56
(g57
g58
NtRp576
(dp577
g61
(dp578
g69
I3
ssg70
g572
sg63
(lp579
S''
asbasbasbag56
(g72
g58
NtRp580
(dp581
g61
(dp582
sg70
g476
sg63
(lp583
g56
(g77
g58
NtRp584
(dp585
g61
(dp586
g81
g82
ssg70
g580
sg63
(lp587
g400
asbag56
(g77
g58
NtRp588
(dp589
g61
(dp590
g88
g89
ssg70
g580
sg63
(lp591
S':'
asbag56
(g77
g58
NtRp592
(dp593
g61
(dp594
sg70
g580
sg63
(lp595
g56
(g57
g58
NtRp596
(dp597
g61
(dp598
g69
I3
ssg70
g592
sg63
(lp599
S''
asbasbasbag56
(g72
g58
NtRp600
(dp601
g61
(dp602
sg70
g476
sg63
(lp603
g56
(g77
g58
NtRp604
(dp605
g61
(dp606
g81
g82
ssg70
g600
sg63
(lp607
g421
asbag56
(g77
g58
NtRp608
(dp609
g61
(dp610
g88
g89
ssg70
g600
sg63
(lp611
S':'
asbag56
(g77
g58
NtRp612
(dp613
g61
(dp614
sg70
g600
sg63
(lp615
g56
(g57
g58
NtRp616
(dp617
g61
(dp618
g69
I3
ssg70
g612
sg63
(lp619
S''
asbasbasbag56
(g72
g58
NtRp620
(dp621
g61
(dp622
sg70
g476
sg63
(lp623
g56
(g77
g58
NtRp624
(dp625
g61
(dp626
g81
g82
ssg70
g620
sg63
(lp627
g442
asbag56
(g77
g58
NtRp628
(dp629
g61
(dp630
g88
g89
ssg70
g620
sg63
(lp631
S':'
asbag56
(g77
g58
NtRp632
(dp633
g61
(dp634
sg70
g620
sg63
(lp635
g56
(g57
g58
NtRp636
(dp637
g61
(dp638
g69
I3
ssg70
g632
sg63
(lp639
S''
asbasbasbasbasbasbasbag56
(g72
g58
NtRp640
(dp641
g61
(dp642
sg70
g258
sg63
(lp643
g56
(g77
g58
NtRp644
(dp645
g61
(dp646
g81
g82
ssg70
g640
sg63
(lp647
S'session_id_welcome'
p648
asbag56
(g77
g58
NtRp649
(dp650
g61
(dp651
g88
g89
ssg70
g640
sg63
(lp652
S':'
asbag56
(g77
g58
NtRp653
(dp654
g61
(dp655
sg70
g640
sg63
(lp656
g56
(g57
g58
NtRp657
(dp658
g61
(dp659
g69
I4
ssg70
g653
sg63
(lp660
g56
(g65
g58
NtRp661
(dp662
g61
(dp663
g69
I3
ssg70
Nsg63
(lp664
g56
(g72
g58
NtRp665
(dp666
g61
(dp667
sg70
g661
sg63
(lp668
g56
(g77
g58
NtRp669
(dp670
g61
(dp671
g81
g82
ssg70
g665
sg63
(lp672
g295
asbag56
(g77
g58
NtRp673
(dp674
g61
(dp675
g88
g89
ssg70
g665
sg63
(lp676
S':'
asbag56
(g77
g58
NtRp677
(dp678
g61
(dp679
sg70
g665
sg63
(lp680
g56
(g57
g58
NtRp681
(dp682
g61
(dp683
g69
I3
ssg70
g677
sg63
(lp684
S''
asbasbasbag56
(g72
g58
NtRp685
(dp686
g61
(dp687
sg70
g661
sg63
(lp688
g56
(g77
g58
NtRp689
(dp690
g61
(dp691
g81
g82
ssg70
g685
sg63
(lp692
g316
asbag56
(g77
g58
NtRp693
(dp694
g61
(dp695
g88
g89
ssg70
g685
sg63
(lp696
S':'
asbag56
(g77
g58
NtRp697
(dp698
g61
(dp699
sg70
g685
sg63
(lp700
g56
(g57
g58
NtRp701
(dp702
g61
(dp703
g69
I3
ssg70
g697
sg63
(lp704
S''
asbasbasbag56
(g72
g58
NtRp705
(dp706
g61
(dp707
sg70
g661
sg63
(lp708
g56
(g77
g58
NtRp709
(dp710
g61
(dp711
g81
g82
ssg70
g705
sg63
(lp712
g337
asbag56
(g77
g58
NtRp713
(dp714
g61
(dp715
g88
g89
ssg70
g705
sg63
(lp716
S':'
asbag56
(g77
g58
NtRp717
(dp718
g61
(dp719
sg70
g705
sg63
(lp720
g56
(g57
g58
NtRp721
(dp722
g61
(dp723
g69
I3
ssg70
g717
sg63
(lp724
S''
asbasbasbag56
(g72
g58
NtRp725
(dp726
g61
(dp727
sg70
g661
sg63
(lp728
g56
(g77
g58
NtRp729
(dp730
g61
(dp731
g81
g82
ssg70
g725
sg63
(lp732
g358
asbag56
(g77
g58
NtRp733
(dp734
g61
(dp735
g88
g89
ssg70
g725
sg63
(lp736
S':'
asbag56
(g77
g58
NtRp737
(dp738
g61
(dp739
sg70
g725
sg63
(lp740
g56
(g57
g58
NtRp741
(dp742
g61
(dp743
g69
I3
ssg70
g737
sg63
(lp744
S''
asbasbasbag56
(g72
g58
NtRp745
(dp746
g61
(dp747
sg70
g661
sg63
(lp748
g56
(g77
g58
NtRp749
(dp750
g61
(dp751
g81
g82
ssg70
g745
sg63
(lp752
g379
asbag56
(g77
g58
NtRp753
(dp754
g61
(dp755
g88
g89
ssg70
g745
sg63
(lp756
S':'
asbag56
(g77
g58
NtRp757
(dp758
g61
(dp759
sg70
g745
sg63
(lp760
g56
(g57
g58
NtRp761
(dp762
g61
(dp763
g69
I3
ssg70
g757
sg63
(lp764
S''
asbasbasbag56
(g72
g58
NtRp765
(dp766
g61
(dp767
sg70
g661
sg63
(lp768
g56
(g77
g58
NtRp769
(dp770
g61
(dp771
g81
g82
ssg70
g765
sg63
(lp772
g400
asbag56
(g77
g58
NtRp773
(dp774
g61
(dp775
g88
g89
ssg70
g765
sg63
(lp776
S':'
asbag56
(g77
g58
NtRp777
(dp778
g61
(dp779
sg70
g765
sg63
(lp780
g56
(g57
g58
NtRp781
(dp782
g61
(dp783
g69
I3
ssg70
g777
sg63
(lp784
S''
asbasbasbag56
(g72
g58
NtRp785
(dp786
g61
(dp787
sg70
g661
sg63
(lp788
g56
(g77
g58
NtRp789
(dp790
g61
(dp791
g81
g82
ssg70
g785
sg63
(lp792
g421
asbag56
(g77
g58
NtRp793
(dp794
g61
(dp795
g88
g89
ssg70
g785
sg63
(lp796
S':'
asbag56
(g77
g58
NtRp797
(dp798
g61
(dp799
sg70
g785
sg63
(lp800
g56
(g57
g58
NtRp801
(dp802
g61
(dp803
g69
I3
ssg70
g797
sg63
(lp804
S''
asbasbasbag56
(g72
g58
NtRp805
(dp806
g61
(dp807
sg70
g661
sg63
(lp808
g56
(g77
g58
NtRp809
(dp810
g61
(dp811
g81
g82
ssg70
g805
sg63
(lp812
g442
asbag56
(g77
g58
NtRp813
(dp814
g61
(dp815
g88
g89
ssg70
g805
sg63
(lp816
S':'
asbag56
(g77
g58
NtRp817
(dp818
g61
(dp819
sg70
g805
sg63
(lp820
g56
(g57
g58
NtRp821
(dp822
g61
(dp823
g69
I3
ssg70
g817
sg63
(lp824
S''
asbasbasbasbasbasbasbasbasbasbasbag56
(g72
g58
NtRp825
(dp826
g61
(dp827
sg70
g66
sg63
(lp828
g56
(g77
g58
NtRp829
(dp830
g61
(dp831
g81
g82
ssg70
g825
sg63
(lp832
S'env'
p833
asbag56
(g77
g58
NtRp834
(dp835
g61
(dp836
g88
g89
ssg70
g825
sg63
(lp837
S':'
asbag56
(g77
g58
NtRp838
(dp839
g61
(dp840
sg70
g825
sg63
(lp841
g56
(g57
g58
NtRp842
(dp843
g61
(dp844
g69
I5
ssg70
g838
sg63
(lp845
g56
(g65
g58
NtRp846
(dp847
g61
(dp848
g69
I4
ssg70
Nsg63
(lp849
g56
(g72
g58
NtRp850
(dp851
g61
(dp852
sg70
g846
sg63
(lp853
g56
(g77
g58
NtRp854
(dp855
g61
(dp856
g81
g82
ssg70
g850
sg63
(lp857
S'app_folders'
p858
asbag56
(g77
g58
NtRp859
(dp860
g61
(dp861
g88
g89
ssg70
g850
sg63
(lp862
S':'
asbag56
(g77
g58
NtRp863
(dp864
g61
(dp865
sg70
g850
sg63
(lp866
g56
(g57
g58
NtRp867
(dp868
g61
(dp869
g69
I4
ssg70
g863
sg63
(lp870
S"set(['/home/ian/web2py/applications/topoi/', '/home/ian/web2py/applications/welcome/', '/home/ian/web2py/applications/admin/'])"
p871
asbasbasbag56
(g72
g58
NtRp872
(dp873
g61
(dp874
sg70
g846
sg63
(lp875
g56
(g77
g58
NtRp876
(dp877
g61
(dp878
g81
g82
ssg70
g872
sg63
(lp879
S'applications_parent'
p880
asbag56
(g77
g58
NtRp881
(dp882
g61
(dp883
g88
g89
ssg70
g872
sg63
(lp884
S':'
asbag56
(g77
g58
NtRp885
(dp886
g61
(dp887
sg70
g872
sg63
(lp888
g56
(g57
g58
NtRp889
(dp890
g61
(dp891
g69
I4
ssg70
g885
sg63
(lp892
S'/home/ian/web2py'
p893
asbasbasbag56
(g72
g58
NtRp894
(dp895
g61
(dp896
sg70
g846
sg63
(lp897
g56
(g77
g58
NtRp898
(dp899
g61
(dp900
g81
g82
ssg70
g894
sg63
(lp901
S'cmd_args'
p902
asbag56
(g77
g58
NtRp903
(dp904
g61
(dp905
g88
g89
ssg70
g894
sg63
(lp906
S':'
asbag56
(g77
g58
NtRp907
(dp908
g61
(dp909
sg70
g894
sg63
(lp910
g56
(g57
g58
NtRp911
(dp912
g61
(dp913
g69
I4
ssg70
g907
sg63
(lp914
g56
(g65
g58
NtRp915
(dp916
g61
(dp917
g69
I3
ssg70
Nsg63
(lp918
sbasbasbasbag56
(g72
g58
NtRp919
(dp920
g61
(dp921
sg70
g846
sg63
(lp922
g56
(g77
g58
NtRp923
(dp924
g61
(dp925
g81
g82
ssg70
g919
sg63
(lp926
S'cmd_options'
p927
asbag56
(g77
g58
NtRp928
(dp929
g61
(dp930
g88
g89
ssg70
g919
sg63
(lp931
S':'
asbag56
(g77
g58
NtRp932
(dp933
g61
(dp934
sg70
g919
sg63
(lp935
g56
(g57
g58
NtRp936
(dp937
g61
(dp938
g69
I4
ssg70
g932
sg63
(lp939
S"<Values at 0x28e97e8: {'verbose': False, 'ip': '127.0.0.1', 'shutdown_timeout': 5, 'taskbar': False, 'nocron': False, 'pid_filename': 'httpserver.pid', 'maxthreads': None, 'softcron': False, 'server_name': 'Ariel-ubuntu', 'bpython': False, 'nogui': False, 'port': 8000, 'extcron': False, 'debuglevel': 30, 'test': None, 'folder': '/home/ian/web2py', 'config': '', 'import_models': False, 'winservice': '', 'shell': None, 'run': '', 'log_filename': 'httpserver.log', 'args': [''], 'ssl_ca_certificate': None, 'scheduler': None, 'profiler_filename': None, 'ssl_private_key': '', 'password': '<ask>', 'request_queue_size': 5, 'ssl_certificate': '', 'cronjob': False, 'plain': False, 'quiet': False, 'interfaces': None, 'minthreads': None, 'timeout': 10, 'numthreads': None, 'nobanner': False}>"
p940
asbasbasbag56
(g72
g58
NtRp941
(dp942
g61
(dp943
sg70
g846
sg63
(lp944
g56
(g77
g58
NtRp945
(dp946
g61
(dp947
g81
g82
ssg70
g941
sg63
(lp948
S'db_sessions'
p949
asbag56
(g77
g58
NtRp950
(dp951
g61
(dp952
g88
g89
ssg70
g941
sg63
(lp953
S':'
asbag56
(g77
g58
NtRp954
(dp955
g61
(dp956
sg70
g941
sg63
(lp957
g56
(g57
g58
NtRp958
(dp959
g61
(dp960
g69
I4
ssg70
g954
sg63
(lp961
S'set([])'
p962
asbasbasbag56
(g72
g58
NtRp963
(dp964
g61
(dp965
sg70
g846
sg63
(lp966
g56
(g77
g58
NtRp967
(dp968
g61
(dp969
g81
g82
ssg70
g963
sg63
(lp970
S'debugging'
p971
asbag56
(g77
g58
NtRp972
(dp973
g61
(dp974
g88
g89
ssg70
g963
sg63
(lp975
S':'
asbag56
(g77
g58
NtRp976
(dp977
g61
(dp978
sg70
g963
sg63
(lp979
g56
(g57
g58
NtRp980
(dp981
g61
(dp982
g69
I4
ssg70
g976
sg63
(lp983
g99
asbasbasbag56
(g72
g58
NtRp984
(dp985
g61
(dp986
sg70
g846
sg63
(lp987
g56
(g77
g58
NtRp988
(dp989
g61
(dp990
g81
g82
ssg70
g984
sg63
(lp991
S'gluon_parent'
p992
asbag56
(g77
g58
NtRp993
(dp994
g61
(dp995
g88
g89
ssg70
g984
sg63
(lp996
S':'
asbag56
(g77
g58
NtRp997
(dp998
g61
(dp999
sg70
g984
sg63
(lp1000
g56
(g57
g58
NtRp1001
(dp1002
g61
(dp1003
g69
I4
ssg70
g997
sg63
(lp1004
S'/home/ian/web2py'
p1005
asbasbasbag56
(g72
g58
NtRp1006
(dp1007
g61
(dp1008
sg70
g846
sg63
(lp1009
g56
(g77
g58
NtRp1010
(dp1011
g61
(dp1012
g81
g82
ssg70
g1006
sg63
(lp1013
S'http_accept'
p1014
asbag56
(g77
g58
NtRp1015
(dp1016
g61
(dp1017
g88
g89
ssg70
g1006
sg63
(lp1018
S':'
asbag56
(g77
g58
NtRp1019
(dp1020
g61
(dp1021
sg70
g1006
sg63
(lp1022
g56
(g57
g58
NtRp1023
(dp1024
g61
(dp1025
g69
I4
ssg70
g1019
sg63
(lp1026
S'text/html,application/xhtml+xml,application/xml;q=0.9,*/*;q=0.8'
p1027
asbasbasbag56
(g72
g58
NtRp1028
(dp1029
g61
(dp1030
sg70
g846
sg63
(lp1031
g56
(g77
g58
NtRp1032
(dp1033
g61
(dp1034
g81
g82
ssg70
g1028
sg63
(lp1035
S'http_accept_charset'
p1036
asbag56
(g77
g58
NtRp1037
(dp1038
g61
(dp1039
g88
g89
ssg70
g1028
sg63
(lp1040
S':'
asbag56
(g77
g58
NtRp1041
(dp1042
g61
(dp1043
sg70
g1028
sg63
(lp1044
g56
(g57
g58
NtRp1045
(dp1046
g61
(dp1047
g69
I4
ssg70
g1041
sg63
(lp1048
S'ISO-8859-1,utf-8;q=0.7,*;q=0.7'
p1049
asbasbasbag56
(g72
g58
NtRp1050
(dp1051
g61
(dp1052
sg70
g846
sg63
(lp1053
g56
(g77
g58
NtRp1054
(dp1055
g61
(dp1056
g81
g82
ssg70
g1050
sg63
(lp1057
S'http_accept_encoding'
p1058
asbag56
(g77
g58
NtRp1059
(dp1060
g61
(dp1061
g88
g89
ssg70
g1050
sg63
(lp1062
S':'
asbag56
(g77
g58
NtRp1063
(dp1064
g61
(dp1065
sg70
g1050
sg63
(lp1066
g56
(g57
g58
NtRp1067
(dp1068
g61
(dp1069
g69
I4
ssg70
g1063
sg63
(lp1070
S'gzip, deflate'
p1071
asbasbasbag56
(g72
g58
NtRp1072
(dp1073
g61
(dp1074
sg70
g846
sg63
(lp1075
g56
(g77
g58
NtRp1076
(dp1077
g61
(dp1078
g81
g82
ssg70
g1072
sg63
(lp1079
S'http_accept_language'
p1080
asbag56
(g77
g58
NtRp1081
(dp1082
g61
(dp1083
g88
g89
ssg70
g1072
sg63
(lp1084
S':'
asbag56
(g77
g58
NtRp1085
(dp1086
g61
(dp1087
sg70
g1072
sg63
(lp1088
g56
(g57
g58
NtRp1089
(dp1090
g61
(dp1091
g69
I4
ssg70
g1085
sg63
(lp1092
S'en-us,en;q=0.5'
p1093
asbasbasbag56
(g72
g58
NtRp1094
(dp1095
g61
(dp1096
sg70
g846
sg63
(lp1097
g56
(g77
g58
NtRp1098
(dp1099
g61
(dp1100
g81
g82
ssg70
g1094
sg63
(lp1101
S'http_cache_control'
p1102
asbag56
(g77
g58
NtRp1103
(dp1104
g61
(dp1105
g88
g89
ssg70
g1094
sg63
(lp1106
S':'
asbag56
(g77
g58
NtRp1107
(dp1108
g61
(dp1109
sg70
g1094
sg63
(lp1110
g56
(g57
g58
NtRp1111
(dp1112
g61
(dp1113
g69
I4
ssg70
g1107
sg63
(lp1114
S'max-age=0'
p1115
asbasbasbag56
(g72
g58
NtRp1116
(dp1117
g61
(dp1118
sg70
g846
sg63
(lp1119
g56
(g77
g58
NtRp1120
(dp1121
g61
(dp1122
g81
g82
ssg70
g1116
sg63
(lp1123
S'http_connection'
p1124
asbag56
(g77
g58
NtRp1125
(dp1126
g61
(dp1127
g88
g89
ssg70
g1116
sg63
(lp1128
S':'
asbag56
(g77
g58
NtRp1129
(dp1130
g61
(dp1131
sg70
g1116
sg63
(lp1132
g56
(g57
g58
NtRp1133
(dp1134
g61
(dp1135
g69
I4
ssg70
g1129
sg63
(lp1136
S'keep-alive'
p1137
asbasbasbag56
(g72
g58
NtRp1138
(dp1139
g61
(dp1140
sg70
g846
sg63
(lp1141
g56
(g77
g58
NtRp1142
(dp1143
g61
(dp1144
g81
g82
ssg70
g1138
sg63
(lp1145
S'http_cookie'
p1146
asbag56
(g77
g58
NtRp1147
(dp1148
g61
(dp1149
g88
g89
ssg70
g1138
sg63
(lp1150
S':'
asbag56
(g77
g58
NtRp1151
(dp1152
g61
(dp1153
sg70
g1138
sg63
(lp1154
g56
(g57
g58
NtRp1155
(dp1156
g61
(dp1157
g69
I4
ssg70
g1151
sg63
(lp1158
S'__utma_a2a=9789918665.1351576430.1320019504.1320019504.1320019504.1; session_id_topoi=127.0.0.1-af13e654-cdbc-4583-8d75-e46cda6f6e34; session_id_welcome=127.0.0.1-f28aa29a-3c83-46af-b1b6-7db0462dc2a3; session_id_admin=127.0.0.1-e69000a8-d3f0-48ca-b1d1-ec544631476d'
p1159
asbasbasbag56
(g72
g58
NtRp1160
(dp1161
g61
(dp1162
sg70
g846
sg63
(lp1163
g56
(g77
g58
NtRp1164
(dp1165
g61
(dp1166
g81
g82
ssg70
g1160
sg63
(lp1167
S'http_host'
p1168
asbag56
(g77
g58
NtRp1169
(dp1170
g61
(dp1171
g88
g89
ssg70
g1160
sg63
(lp1172
S':'
asbag56
(g77
g58
NtRp1173
(dp1174
g61
(dp1175
sg70
g1160
sg63
(lp1176
g56
(g57
g58
NtRp1177
(dp1178
g61
(dp1179
g69
I4
ssg70
g1173
sg63
(lp1180
S'127.0.0.1:8000'
p1181
asbasbasbag56
(g72
g58
NtRp1182
(dp1183
g61
(dp1184
sg70
g846
sg63
(lp1185
g56
(g77
g58
NtRp1186
(dp1187
g61
(dp1188
g81
g82
ssg70
g1182
sg63
(lp1189
S'http_referer'
p1190
asbag56
(g77
g58
NtRp1191
(dp1192
g61
(dp1193
g88
g89
ssg70
g1182
sg63
(lp1194
S':'
asbag56
(g77
g58
NtRp1195
(dp1196
g61
(dp1197
sg70
g1182
sg63
(lp1198
g56
(g57
g58
NtRp1199
(dp1200
g61
(dp1201
g69
I4
ssg70
g1195
sg63
(lp1202
S'http://127.0.0.1:8000/topoi/'
p1203
asbasbasbag56
(g72
g58
NtRp1204
(dp1205
g61
(dp1206
sg70
g846
sg63
(lp1207
g56
(g77
g58
NtRp1208
(dp1209
g61
(dp1210
g81
g82
ssg70
g1204
sg63
(lp1211
S'http_user_agent'
p1212
asbag56
(g77
g58
NtRp1213
(dp1214
g61
(dp1215
g88
g89
ssg70
g1204
sg63
(lp1216
S':'
asbag56
(g77
g58
NtRp1217
(dp1218
g61
(dp1219
sg70
g1204
sg63
(lp1220
g56
(g57
g58
NtRp1221
(dp1222
g61
(dp1223
g69
I4
ssg70
g1217
sg63
(lp1224
S'Mozilla/5.0 (Ubuntu; X11; Linux x86_64; rv:8.0) Gecko/20100101 Firefox/8.0 FirePHP/0.6'
p1225
asbasbasbag56
(g72
g58
NtRp1226
(dp1227
g61
(dp1228
sg70
g846
sg63
(lp1229
g56
(g77
g58
NtRp1230
(dp1231
g61
(dp1232
g81
g82
ssg70
g1226
sg63
(lp1233
S'http_x_insight'
p1234
asbag56
(g77
g58
NtRp1235
(dp1236
g61
(dp1237
g88
g89
ssg70
g1226
sg63
(lp1238
S':'
asbag56
(g77
g58
NtRp1239
(dp1240
g61
(dp1241
sg70
g1226
sg63
(lp1242
g56
(g57
g58
NtRp1243
(dp1244
g61
(dp1245
g69
I4
ssg70
g1239
sg63
(lp1246
S'activate'
p1247
asbasbasbag56
(g72
g58
NtRp1248
(dp1249
g61
(dp1250
sg70
g846
sg63
(lp1251
g56
(g77
g58
NtRp1252
(dp1253
g61
(dp1254
g81
g82
ssg70
g1248
sg63
(lp1255
S'is_jython'
p1256
asbag56
(g77
g58
NtRp1257
(dp1258
g61
(dp1259
g88
g89
ssg70
g1248
sg63
(lp1260
S':'
asbag56
(g77
g58
NtRp1261
(dp1262
g61
(dp1263
sg70
g1248
sg63
(lp1264
g56
(g57
g58
NtRp1265
(dp1266
g61
(dp1267
g69
I4
ssg70
g1261
sg63
(lp1268
g99
asbasbasbag56
(g72
g58
NtRp1269
(dp1270
g61
(dp1271
sg70
g846
sg63
(lp1272
g56
(g77
g58
NtRp1273
(dp1274
g61
(dp1275
g81
g82
ssg70
g1269
sg63
(lp1276
S'path_info'
p1277
asbag56
(g77
g58
NtRp1278
(dp1279
g61
(dp1280
g88
g89
ssg70
g1269
sg63
(lp1281
S':'
asbag56
(g77
g58
NtRp1282
(dp1283
g61
(dp1284
sg70
g1269
sg63
(lp1285
g56
(g57
g58
NtRp1286
(dp1287
g61
(dp1288
g69
I4
ssg70
g1282
sg63
(lp1289
S'/topoi/plugin_listandedit/list/notes/1'
p1290
asbasbasbag56
(g72
g58
NtRp1291
(dp1292
g61
(dp1293
sg70
g846
sg63
(lp1294
g56
(g77
g58
NtRp1295
(dp1296
g61
(dp1297
g81
g82
ssg70
g1291
sg63
(lp1298
S'query_string'
p1299
asbag56
(g77
g58
NtRp1300
(dp1301
g61
(dp1302
g88
g89
ssg70
g1291
sg63
(lp1303
S':'
asbag56
(g77
g58
NtRp1304
(dp1305
g61
(dp1306
sg70
g1291
sg63
(lp1307
g56
(g57
g58
NtRp1308
(dp1309
g61
(dp1310
g69
I4
ssg70
g1304
sg63
(lp1311
S'fields=author&fields=work&fields=reference'
p1312
asbasbasbag56
(g72
g58
NtRp1313
(dp1314
g61
(dp1315
sg70
g846
sg63
(lp1316
g56
(g77
g58
NtRp1317
(dp1318
g61
(dp1319
g81
g82
ssg70
g1313
sg63
(lp1320
S'remote_addr'
p1321
asbag56
(g77
g58
NtRp1322
(dp1323
g61
(dp1324
g88
g89
ssg70
g1313
sg63
(lp1325
S':'
asbag56
(g77
g58
NtRp1326
(dp1327
g61
(dp1328
sg70
g1313
sg63
(lp1329
g56
(g57
g58
NtRp1330
(dp1331
g61
(dp1332
g69
I4
ssg70
g1326
sg63
(lp1333
g214
asbasbasbag56
(g72
g58
NtRp1334
(dp1335
g61
(dp1336
sg70
g846
sg63
(lp1337
g56
(g77
g58
NtRp1338
(dp1339
g61
(dp1340
g81
g82
ssg70
g1334
sg63
(lp1341
S'remote_port'
p1342
asbag56
(g77
g58
NtRp1343
(dp1344
g61
(dp1345
g88
g89
ssg70
g1334
sg63
(lp1346
S':'
asbag56
(g77
g58
NtRp1347
(dp1348
g61
(dp1349
sg70
g1334
sg63
(lp1350
g56
(g57
g58
NtRp1351
(dp1352
g61
(dp1353
g69
I4
ssg70
g1347
sg63
(lp1354
S'50593'
p1355
asbasbasbag56
(g72
g58
NtRp1356
(dp1357
g61
(dp1358
sg70
g846
sg63
(lp1359
g56
(g77
g58
NtRp1360
(dp1361
g61
(dp1362
g81
g82
ssg70
g1356
sg63
(lp1363
S'request_method'
p1364
asbag56
(g77
g58
NtRp1365
(dp1366
g61
(dp1367
g88
g89
ssg70
g1356
sg63
(lp1368
S':'
asbag56
(g77
g58
NtRp1369
(dp1370
g61
(dp1371
sg70
g1356
sg63
(lp1372
g56
(g57
g58
NtRp1373
(dp1374
g61
(dp1375
g69
I4
ssg70
g1369
sg63
(lp1376
S'GET'
p1377
asbasbasbag56
(g72
g58
NtRp1378
(dp1379
g61
(dp1380
sg70
g846
sg63
(lp1381
g56
(g77
g58
NtRp1382
(dp1383
g61
(dp1384
g81
g82
ssg70
g1378
sg63
(lp1385
S'script_name'
p1386
asbag56
(g77
g58
NtRp1387
(dp1388
g61
(dp1389
g88
g89
ssg70
g1378
sg63
(lp1390
S':'
asbag56
(g77
g58
NtRp1391
(dp1392
g61
(dp1393
sg70
g1378
sg63
(lp1394
g56
(g57
g58
NtRp1395
(dp1396
g61
(dp1397
g69
I4
ssg70
g1391
sg63
(lp1398
S''
asbasbasbag56
(g72
g58
NtRp1399
(dp1400
g61
(dp1401
sg70
g846
sg63
(lp1402
g56
(g77
g58
NtRp1403
(dp1404
g61
(dp1405
g81
g82
ssg70
g1399
sg63
(lp1406
S'server_name'
p1407
asbag56
(g77
g58
NtRp1408
(dp1409
g61
(dp1410
g88
g89
ssg70
g1399
sg63
(lp1411
S':'
asbag56
(g77
g58
NtRp1412
(dp1413
g61
(dp1414
sg70
g1399
sg63
(lp1415
g56
(g57
g58
NtRp1416
(dp1417
g61
(dp1418
g69
I4
ssg70
g1412
sg63
(lp1419
S'Ariel-ubuntu'
p1420
asbasbasbag56
(g72
g58
NtRp1421
(dp1422
g61
(dp1423
sg70
g846
sg63
(lp1424
g56
(g77
g58
NtRp1425
(dp1426
g61
(dp1427
g81
g82
ssg70
g1421
sg63
(lp1428
S'server_port'
p1429
asbag56
(g77
g58
NtRp1430
(dp1431
g61
(dp1432
g88
g89
ssg70
g1421
sg63
(lp1433
S':'
asbag56
(g77
g58
NtRp1434
(dp1435
g61
(dp1436
sg70
g1421
sg63
(lp1437
g56
(g57
g58
NtRp1438
(dp1439
g61
(dp1440
g69
I4
ssg70
g1434
sg63
(lp1441
S'8000'
p1442
asbasbasbag56
(g72
g58
NtRp1443
(dp1444
g61
(dp1445
sg70
g846
sg63
(lp1446
g56
(g77
g58
NtRp1447
(dp1448
g61
(dp1449
g81
g82
ssg70
g1443
sg63
(lp1450
S'server_protocol'
p1451
asbag56
(g77
g58
NtRp1452
(dp1453
g61
(dp1454
g88
g89
ssg70
g1443
sg63
(lp1455
S':'
asbag56
(g77
g58
NtRp1456
(dp1457
g61
(dp1458
sg70
g1443
sg63
(lp1459
g56
(g57
g58
NtRp1460
(dp1461
g61
(dp1462
g69
I4
ssg70
g1456
sg63
(lp1463
S'HTTP/1.1'
p1464
asbasbasbag56
(g72
g58
NtRp1465
(dp1466
g61
(dp1467
sg70
g846
sg63
(lp1468
g56
(g77
g58
NtRp1469
(dp1470
g61
(dp1471
g81
g82
ssg70
g1465
sg63
(lp1472
S'server_software'
p1473
asbag56
(g77
g58
NtRp1474
(dp1475
g61
(dp1476
g88
g89
ssg70
g1465
sg63
(lp1477
S':'
asbag56
(g77
g58
NtRp1478
(dp1479
g61
(dp1480
sg70
g1465
sg63
(lp1481
g56
(g57
g58
NtRp1482
(dp1483
g61
(dp1484
g69
I4
ssg70
g1478
sg63
(lp1485
S'Rocket 1.2.4'
p1486
asbasbasbag56
(g72
g58
NtRp1487
(dp1488
g61
(dp1489
sg70
g846
sg63
(lp1490
g56
(g77
g58
NtRp1491
(dp1492
g61
(dp1493
g81
g82
ssg70
g1487
sg63
(lp1494
S'web2py_crontype'
p1495
asbag56
(g77
g58
NtRp1496
(dp1497
g61
(dp1498
g88
g89
ssg70
g1487
sg63
(lp1499
S':'
asbag56
(g77
g58
NtRp1500
(dp1501
g61
(dp1502
sg70
g1487
sg63
(lp1503
g56
(g57
g58
NtRp1504
(dp1505
g61
(dp1506
g69
I4
ssg70
g1500
sg63
(lp1507
S'hard'
p1508
asbasbasbag56
(g72
g58
NtRp1509
(dp1510
g61
(dp1511
sg70
g846
sg63
(lp1512
g56
(g77
g58
NtRp1513
(dp1514
g61
(dp1515
g81
g82
ssg70
g1509
sg63
(lp1516
S'web2py_path'
p1517
asbag56
(g77
g58
NtRp1518
(dp1519
g61
(dp1520
g88
g89
ssg70
g1509
sg63
(lp1521
S':'
asbag56
(g77
g58
NtRp1522
(dp1523
g61
(dp1524
sg70
g1509
sg63
(lp1525
g56
(g57
g58
NtRp1526
(dp1527
g61
(dp1528
g69
I4
ssg70
g1522
sg63
(lp1529
g893
asbasbasbag56
(g72
g58
NtRp1530
(dp1531
g61
(dp1532
sg70
g846
sg63
(lp1533
g56
(g77
g58
NtRp1534
(dp1535
g61
(dp1536
g81
g82
ssg70
g1530
sg63
(lp1537
S'web2py_version'
p1538
asbag56
(g77
g58
NtRp1539
(dp1540
g61
(dp1541
g88
g89
ssg70
g1530
sg63
(lp1542
S':'
asbag56
(g77
g58
NtRp1543
(dp1544
g61
(dp1545
sg70
g1530
sg63
(lp1546
g56
(g57
g58
NtRp1547
(dp1548
g61
(dp1549
g69
I4
ssg70
g1543
sg63
(lp1550
g56
(g65
g58
NtRp1551
(dp1552
g61
(dp1553
g69
I3
ssg70
Nsg63
(lp1554
g56
(g72
g58
NtRp1555
(dp1556
g61
(dp1557
sg70
g1551
sg63
(lp1558
g56
(g77
g58
NtRp1559
(dp1560
g61
(dp1561
sg70
g1555
sg63
(lp1562
g56
(g57
g58
NtRp1563
(dp1564
g61
(dp1565
g69
I3
ssg70
g1559
sg63
(lp1566
S'1'
asbasbasbag56
(g72
g58
NtRp1567
(dp1568
g61
(dp1569
sg70
g1551
sg63
(lp1570
g56
(g77
g58
NtRp1571
(dp1572
g61
(dp1573
sg70
g1567
sg63
(lp1574
g56
(g57
g58
NtRp1575
(dp1576
g61
(dp1577
g69
I3
ssg70
g1571
sg63
(lp1578
S'99'
p1579
asbasbasbag56
(g72
g58
NtRp1580
(dp1581
g61
(dp1582
sg70
g1551
sg63
(lp1583
g56
(g77
g58
NtRp1584
(dp1585
g61
(dp1586
sg70
g1580
sg63
(lp1587
g56
(g57
g58
NtRp1588
(dp1589
g61
(dp1590
g69
I3
ssg70
g1584
sg63
(lp1591
S'2'
asbasbasbag56
(g72
g58
NtRp1592
(dp1593
g61
(dp1594
sg70
g1551
sg63
(lp1595
g56
(g77
g58
NtRp1596
(dp1597
g61
(dp1598
sg70
g1592
sg63
(lp1599
g56
(g57
g58
NtRp1600
(dp1601
g61
(dp1602
g69
I3
ssg70
g1596
sg63
(lp1603
S'datetime.datetime(2011, 9, 26, 6, 55, 33)'
p1604
asbasbasbag56
(g72
g58
NtRp1605
(dp1606
g61
(dp1607
sg70
g1551
sg63
(lp1608
g56
(g77
g58
NtRp1609
(dp1610
g61
(dp1611
sg70
g1605
sg63
(lp1612
g56
(g57
g58
NtRp1613
(dp1614
g61
(dp1615
g69
I3
ssg70
g1609
sg63
(lp1616
S'stable'
p1617
asbasbasbasbasbasbasbag56
(g72
g58
NtRp1618
(dp1619
g61
(dp1620
sg70
g846
sg63
(lp1621
g56
(g77
g58
NtRp1622
(dp1623
g61
(dp1624
g81
g82
ssg70
g1618
sg63
(lp1625
S'wsgi_errors'
p1626
asbag56
(g77
g58
NtRp1627
(dp1628
g61
(dp1629
g88
g89
ssg70
g1618
sg63
(lp1630
S':'
asbag56
(g77
g58
NtRp1631
(dp1632
g61
(dp1633
sg70
g1618
sg63
(lp1634
g56
(g57
g58
NtRp1635
(dp1636
g61
(dp1637
g69
I4
ssg70
g1631
sg63
(lp1638
S"<open file '<stderr>', mode 'w' at 0x7ff925b48270>"
p1639
asbasbasbag56
(g72
g58
NtRp1640
(dp1641
g61
(dp1642
sg70
g846
sg63
(lp1643
g56
(g77
g58
NtRp1644
(dp1645
g61
(dp1646
g81
g82
ssg70
g1640
sg63
(lp1647
S'wsgi_file_wrapper'
p1648
asbag56
(g77
g58
NtRp1649
(dp1650
g61
(dp1651
g88
g89
ssg70
g1640
sg63
(lp1652
S':'
asbag56
(g77
g58
NtRp1653
(dp1654
g61
(dp1655
sg70
g1640
sg63
(lp1656
g56
(g57
g58
NtRp1657
(dp1658
g61
(dp1659
g69
I4
ssg70
g1653
sg63
(lp1660
S'<class wsgiref.util.FileWrapper at 0x27b2808>'
p1661
asbasbasbag56
(g72
g58
NtRp1662
(dp1663
g61
(dp1664
sg70
g846
sg63
(lp1665
g56
(g77
g58
NtRp1666
(dp1667
g61
(dp1668
g81
g82
ssg70
g1662
sg63
(lp1669
S'wsgi_input'
p1670
asbag56
(g77
g58
NtRp1671
(dp1672
g61
(dp1673
g88
g89
ssg70
g1662
sg63
(lp1674
S':'
asbag56
(g77
g58
NtRp1675
(dp1676
g61
(dp1677
sg70
g1662
sg63
(lp1678
g56
(g57
g58
NtRp1679
(dp1680
g61
(dp1681
g69
I4
ssg70
g1675
sg63
(lp1682
S'<socket._fileobject object at 0x39491d0>'
p1683
asbasbasbag56
(g72
g58
NtRp1684
(dp1685
g61
(dp1686
sg70
g846
sg63
(lp1687
g56
(g77
g58
NtRp1688
(dp1689
g61
(dp1690
g81
g82
ssg70
g1684
sg63
(lp1691
S'wsgi_multiprocess'
p1692
asbag56
(g77
g58
NtRp1693
(dp1694
g61
(dp1695
g88
g89
ssg70
g1684
sg63
(lp1696
S':'
asbag56
(g77
g58
NtRp1697
(dp1698
g61
(dp1699
sg70
g1684
sg63
(lp1700
g56
(g57
g58
NtRp1701
(dp1702
g61
(dp1703
g69
I4
ssg70
g1697
sg63
(lp1704
g99
asbasbasbag56
(g72
g58
NtRp1705
(dp1706
g61
(dp1707
sg70
g846
sg63
(lp1708
g56
(g77
g58
NtRp1709
(dp1710
g61
(dp1711
g81
g82
ssg70
g1705
sg63
(lp1712
S'wsgi_multithread'
p1713
asbag56
(g77
g58
NtRp1714
(dp1715
g61
(dp1716
g88
g89
ssg70
g1705
sg63
(lp1717
S':'
asbag56
(g77
g58
NtRp1718
(dp1719
g61
(dp1720
sg70
g1705
sg63
(lp1721
g56
(g57
g58
NtRp1722
(dp1723
g61
(dp1724
g69
I4
ssg70
g1718
sg63
(lp1725
S'True'
p1726
asbasbasbag56
(g72
g58
NtRp1727
(dp1728
g61
(dp1729
sg70
g846
sg63
(lp1730
g56
(g77
g58
NtRp1731
(dp1732
g61
(dp1733
g81
g82
ssg70
g1727
sg63
(lp1734
S'wsgi_run_once'
p1735
asbag56
(g77
g58
NtRp1736
(dp1737
g61
(dp1738
g88
g89
ssg70
g1727
sg63
(lp1739
S':'
asbag56
(g77
g58
NtRp1740
(dp1741
g61
(dp1742
sg70
g1727
sg63
(lp1743
g56
(g57
g58
NtRp1744
(dp1745
g61
(dp1746
g69
I4
ssg70
g1740
sg63
(lp1747
g99
asbasbasbag56
(g72
g58
NtRp1748
(dp1749
g61
(dp1750
sg70
g846
sg63
(lp1751
g56
(g77
g58
NtRp1752
(dp1753
g61
(dp1754
g81
g82
ssg70
g1748
sg63
(lp1755
S'wsgi_url_scheme'
p1756
asbag56
(g77
g58
NtRp1757
(dp1758
g61
(dp1759
g88
g89
ssg70
g1748
sg63
(lp1760
S':'
asbag56
(g77
g58
NtRp1761
(dp1762
g61
(dp1763
sg70
g1748
sg63
(lp1764
g56
(g57
g58
NtRp1765
(dp1766
g61
(dp1767
g69
I4
ssg70
g1761
sg63
(lp1768
S'http'
p1769
asbasbasbag56
(g72
g58
NtRp1770
(dp1771
g61
(dp1772
sg70
g846
sg63
(lp1773
g56
(g77
g58
NtRp1774
(dp1775
g61
(dp1776
g81
g82
ssg70
g1770
sg63
(lp1777
S'wsgi_version'
p1778
asbag56
(g77
g58
NtRp1779
(dp1780
g61
(dp1781
g88
g89
ssg70
g1770
sg63
(lp1782
S':'
asbag56
(g77
g58
NtRp1783
(dp1784
g61
(dp1785
sg70
g1770
sg63
(lp1786
g56
(g57
g58
NtRp1787
(dp1788
g61
(dp1789
g69
I4
ssg70
g1783
sg63
(lp1790
g56
(g65
g58
NtRp1791
(dp1792
g61
(dp1793
g69
I3
ssg70
Nsg63
(lp1794
g56
(g72
g58
NtRp1795
(dp1796
g61
(dp1797
sg70
g1791
sg63
(lp1798
g56
(g77
g58
NtRp1799
(dp1800
g61
(dp1801
sg70
g1795
sg63
(lp1802
g56
(g57
g58
NtRp1803
(dp1804
g61
(dp1805
g69
I3
ssg70
g1799
sg63
(lp1806
S'1'
asbasbasbag56
(g72
g58
NtRp1807
(dp1808
g61
(dp1809
sg70
g1791
sg63
(lp1810
g56
(g77
g58
NtRp1811
(dp1812
g61
(dp1813
sg70
g1807
sg63
(lp1814
g56
(g57
g58
NtRp1815
(dp1816
g61
(dp1817
g69
I3
ssg70
g1811
sg63
(lp1818
S'0'
asbasbasbasbasbasbasbasbasbasbasbag56
(g72
g58
NtRp1819
(dp1820
g61
(dp1821
sg70
g66
sg63
(lp1822
g56
(g77
g58
NtRp1823
(dp1824
g61
(dp1825
g81
g82
ssg70
g1819
sg63
(lp1826
S'extension'
p1827
asbag56
(g77
g58
NtRp1828
(dp1829
g61
(dp1830
g88
g89
ssg70
g1819
sg63
(lp1831
S':'
asbag56
(g77
g58
NtRp1832
(dp1833
g61
(dp1834
sg70
g1819
sg63
(lp1835
g56
(g57
g58
NtRp1836
(dp1837
g61
(dp1838
g69
I5
ssg70
g1832
sg63
(lp1839
S'html'
p1840
asbasbasbag56
(g72
g58
NtRp1841
(dp1842
g61
(dp1843
sg70
g66
sg63
(lp1844
g56
(g77
g58
NtRp1845
(dp1846
g61
(dp1847
g81
g82
ssg70
g1841
sg63
(lp1848
S'folder'
p1849
asbag56
(g77
g58
NtRp1850
(dp1851
g61
(dp1852
g88
g89
ssg70
g1841
sg63
(lp1853
S':'
asbag56
(g77
g58
NtRp1854
(dp1855
g61
(dp1856
sg70
g1841
sg63
(lp1857
g56
(g57
g58
NtRp1858
(dp1859
g61
(dp1860
g69
I5
ssg70
g1854
sg63
(lp1861
S'/home/ian/web2py/applications/topoi/'
p1862
asbasbasbag56
(g72
g58
NtRp1863
(dp1864
g61
(dp1865
sg70
g66
sg63
(lp1866
g56
(g77
g58
NtRp1867
(dp1868
g61
(dp1869
g81
g82
ssg70
g1863
sg63
(lp1870
S'function'
p1871
asbag56
(g77
g58
NtRp1872
(dp1873
g61
(dp1874
g88
g89
ssg70
g1863
sg63
(lp1875
S':'
asbag56
(g77
g58
NtRp1876
(dp1877
g61
(dp1878
sg70
g1863
sg63
(lp1879
g56
(g57
g58
NtRp1880
(dp1881
g61
(dp1882
g69
I5
ssg70
g1876
sg63
(lp1883
S'list'
p1884
asbasbasbag56
(g72
g58
NtRp1885
(dp1886
g61
(dp1887
sg70
g66
sg63
(lp1888
g56
(g77
g58
NtRp1889
(dp1890
g61
(dp1891
g81
g82
ssg70
g1885
sg63
(lp1892
S'get_vars'
p1893
asbag56
(g77
g58
NtRp1894
(dp1895
g61
(dp1896
g88
g89
ssg70
g1885
sg63
(lp1897
S':'
asbag56
(g77
g58
NtRp1898
(dp1899
g61
(dp1900
sg70
g1885
sg63
(lp1901
g56
(g57
g58
NtRp1902
(dp1903
g61
(dp1904
g69
I5
ssg70
g1898
sg63
(lp1905
g56
(g65
g58
NtRp1906
(dp1907
g61
(dp1908
g69
I4
ssg70
Nsg63
(lp1909
g56
(g72
g58
NtRp1910
(dp1911
g61
(dp1912
sg70
g1906
sg63
(lp1913
g56
(g77
g58
NtRp1914
(dp1915
g61
(dp1916
g81
g82
ssg70
g1910
sg63
(lp1917
S'fields'
p1918
asbag56
(g77
g58
NtRp1919
(dp1920
g61
(dp1921
g88
g89
ssg70
g1910
sg63
(lp1922
S':'
asbag56
(g77
g58
NtRp1923
(dp1924
g61
(dp1925
sg70
g1910
sg63
(lp1926
g56
(g57
g58
NtRp1927
(dp1928
g61
(dp1929
g69
I4
ssg70
g1923
sg63
(lp1930
g56
(g65
g58
NtRp1931
(dp1932
g61
(dp1933
g69
I3
ssg70
Nsg63
(lp1934
g56
(g72
g58
NtRp1935
(dp1936
g61
(dp1937
sg70
g1931
sg63
(lp1938
g56
(g77
g58
NtRp1939
(dp1940
g61
(dp1941
sg70
g1935
sg63
(lp1942
g56
(g57
g58
NtRp1943
(dp1944
g61
(dp1945
g69
I3
ssg70
g1939
sg63
(lp1946
S'author'
p1947
asbasbasbag56
(g72
g58
NtRp1948
(dp1949
g61
(dp1950
sg70
g1931
sg63
(lp1951
g56
(g77
g58
NtRp1952
(dp1953
g61
(dp1954
sg70
g1948
sg63
(lp1955
g56
(g57
g58
NtRp1956
(dp1957
g61
(dp1958
g69
I3
ssg70
g1952
sg63
(lp1959
S'work'
p1960
asbasbasbag56
(g72
g58
NtRp1961
(dp1962
g61
(dp1963
sg70
g1931
sg63
(lp1964
g56
(g77
g58
NtRp1965
(dp1966
g61
(dp1967
sg70
g1961
sg63
(lp1968
g56
(g57
g58
NtRp1969
(dp1970
g61
(dp1971
g69
I3
ssg70
g1965
sg63
(lp1972
S'reference'
p1973
asbasbasbasbasbasbasbasbasbasbasbag56
(g72
g58
NtRp1974
(dp1975
g61
(dp1976
sg70
g66
sg63
(lp1977
g56
(g77
g58
NtRp1978
(dp1979
g61
(dp1980
g81
g82
ssg70
g1974
sg63
(lp1981
S'global_settings'
p1982
asbag56
(g77
g58
NtRp1983
(dp1984
g61
(dp1985
g88
g89
ssg70
g1974
sg63
(lp1986
S':'
asbag56
(g77
g58
NtRp1987
(dp1988
g61
(dp1989
sg70
g1974
sg63
(lp1990
g56
(g57
g58
NtRp1991
(dp1992
g61
(dp1993
g69
I5
ssg70
g1987
sg63
(lp1994
g56
(g65
g58
NtRp1995
(dp1996
g61
(dp1997
g69
I4
ssg70
Nsg63
(lp1998
g56
(g72
g58
NtRp1999
(dp2000
g61
(dp2001
sg70
g1995
sg63
(lp2002
g56
(g77
g58
NtRp2003
(dp2004
g61
(dp2005
g81
g82
ssg70
g1999
sg63
(lp2006
g858
asbag56
(g77
g58
NtRp2007
(dp2008
g61
(dp2009
g88
g89
ssg70
g1999
sg63
(lp2010
S':'
asbag56
(g77
g58
NtRp2011
(dp2012
g61
(dp2013
sg70
g1999
sg63
(lp2014
g56
(g57
g58
NtRp2015
(dp2016
g61
(dp2017
g69
I4
ssg70
g2011
sg63
(lp2018
S"set(['/home/ian/web2py/applications/topoi/', '/home/ian/web2py/applications/welcome/', '/home/ian/web2py/applications/admin/'])"
p2019
asbasbasbag56
(g72
g58
NtRp2020
(dp2021
g61
(dp2022
sg70
g1995
sg63
(lp2023
g56
(g77
g58
NtRp2024
(dp2025
g61
(dp2026
g81
g82
ssg70
g2020
sg63
(lp2027
g880
asbag56
(g77
g58
NtRp2028
(dp2029
g61
(dp2030
g88
g89
ssg70
g2020
sg63
(lp2031
S':'
asbag56
(g77
g58
NtRp2032
(dp2033
g61
(dp2034
sg70
g2020
sg63
(lp2035
g56
(g57
g58
NtRp2036
(dp2037
g61
(dp2038
g69
I4
ssg70
g2032
sg63
(lp2039
g893
asbasbasbag56
(g72
g58
NtRp2040
(dp2041
g61
(dp2042
sg70
g1995
sg63
(lp2043
g56
(g77
g58
NtRp2044
(dp2045
g61
(dp2046
g81
g82
ssg70
g2040
sg63
(lp2047
g902
asbag56
(g77
g58
NtRp2048
(dp2049
g61
(dp2050
g88
g89
ssg70
g2040
sg63
(lp2051
S':'
asbag56
(g77
g58
NtRp2052
(dp2053
g61
(dp2054
sg70
g2040
sg63
(lp2055
g56
(g57
g58
NtRp2056
(dp2057
g61
(dp2058
g69
I4
ssg70
g2052
sg63
(lp2059
g56
(g65
g58
NtRp2060
(dp2061
g61
(dp2062
g69
I3
ssg70
Nsg63
(lp2063
sbasbasbasbag56
(g72
g58
NtRp2064
(dp2065
g61
(dp2066
sg70
g1995
sg63
(lp2067
g56
(g77
g58
NtRp2068
(dp2069
g61
(dp2070
g81
g82
ssg70
g2064
sg63
(lp2071
g927
asbag56
(g77
g58
NtRp2072
(dp2073
g61
(dp2074
g88
g89
ssg70
g2064
sg63
(lp2075
S':'
asbag56
(g77
g58
NtRp2076
(dp2077
g61
(dp2078
sg70
g2064
sg63
(lp2079
g56
(g57
g58
NtRp2080
(dp2081
g61
(dp2082
g69
I4
ssg70
g2076
sg63
(lp2083
S"<Values at 0x28e97e8: {'verbose': False, 'ip': '127.0.0.1', 'shutdown_timeout': 5, 'taskbar': False, 'nocron': False, 'pid_filename': 'httpserver.pid', 'maxthreads': None, 'softcron': False, 'server_name': 'Ariel-ubuntu', 'bpython': False, 'nogui': False, 'port': 8000, 'extcron': False, 'debuglevel': 30, 'test': None, 'folder': '/home/ian/web2py', 'config': '', 'import_models': False, 'winservice': '', 'shell': None, 'run': '', 'log_filename': 'httpserver.log', 'args': [''], 'ssl_ca_certificate': None, 'scheduler': None, 'profiler_filename': None, 'ssl_private_key': '', 'password': '<ask>', 'request_queue_size': 5, 'ssl_certificate': '', 'cronjob': False, 'plain': False, 'quiet': False, 'interfaces': None, 'minthreads': None, 'timeout': 10, 'numthreads': None, 'nobanner': False}>"
p2084
asbasbasbag56
(g72
g58
NtRp2085
(dp2086
g61
(dp2087
sg70
g1995
sg63
(lp2088
g56
(g77
g58
NtRp2089
(dp2090
g61
(dp2091
g81
g82
ssg70
g2085
sg63
(lp2092
g949
asbag56
(g77
g58
NtRp2093
(dp2094
g61
(dp2095
g88
g89
ssg70
g2085
sg63
(lp2096
S':'
asbag56
(g77
g58
NtRp2097
(dp2098
g61
(dp2099
sg70
g2085
sg63
(lp2100
g56
(g57
g58
NtRp2101
(dp2102
g61
(dp2103
g69
I4
ssg70
g2097
sg63
(lp2104
S'set([])'
p2105
asbasbasbag56
(g72
g58
NtRp2106
(dp2107
g61
(dp2108
sg70
g1995
sg63
(lp2109
g56
(g77
g58
NtRp2110
(dp2111
g61
(dp2112
g81
g82
ssg70
g2106
sg63
(lp2113
g971
asbag56
(g77
g58
NtRp2114
(dp2115
g61
(dp2116
g88
g89
ssg70
g2106
sg63
(lp2117
S':'
asbag56
(g77
g58
NtRp2118
(dp2119
g61
(dp2120
sg70
g2106
sg63
(lp2121
g56
(g57
g58
NtRp2122
(dp2123
g61
(dp2124
g69
I4
ssg70
g2118
sg63
(lp2125
g99
asbasbasbag56
(g72
g58
NtRp2126
(dp2127
g61
(dp2128
sg70
g1995
sg63
(lp2129
g56
(g77
g58
NtRp2130
(dp2131
g61
(dp2132
g81
g82
ssg70
g2126
sg63
(lp2133
g992
asbag56
(g77
g58
NtRp2134
(dp2135
g61
(dp2136
g88
g89
ssg70
g2126
sg63
(lp2137
S':'
asbag56
(g77
g58
NtRp2138
(dp2139
g61
(dp2140
sg70
g2126
sg63
(lp2141
g56
(g57
g58
NtRp2142
(dp2143
g61
(dp2144
g69
I4
ssg70
g2138
sg63
(lp2145
g1005
asbasbasbag56
(g72
g58
NtRp2146
(dp2147
g61
(dp2148
sg70
g1995
sg63
(lp2149
g56
(g77
g58
NtRp2150
(dp2151
g61
(dp2152
g81
g82
ssg70
g2146
sg63
(lp2153
g1256
asbag56
(g77
g58
NtRp2154
(dp2155
g61
(dp2156
g88
g89
ssg70
g2146
sg63
(lp2157
S':'
asbag56
(g77
g58
NtRp2158
(dp2159
g61
(dp2160
sg70
g2146
sg63
(lp2161
g56
(g57
g58
NtRp2162
(dp2163
g61
(dp2164
g69
I4
ssg70
g2158
sg63
(lp2165
g99
asbasbasbag56
(g72
g58
NtRp2166
(dp2167
g61
(dp2168
sg70
g1995
sg63
(lp2169
g56
(g77
g58
NtRp2170
(dp2171
g61
(dp2172
g81
g82
ssg70
g2166
sg63
(lp2173
g1495
asbag56
(g77
g58
NtRp2174
(dp2175
g61
(dp2176
g88
g89
ssg70
g2166
sg63
(lp2177
S':'
asbag56
(g77
g58
NtRp2178
(dp2179
g61
(dp2180
sg70
g2166
sg63
(lp2181
g56
(g57
g58
NtRp2182
(dp2183
g61
(dp2184
g69
I4
ssg70
g2178
sg63
(lp2185
g1508
asbasbasbag56
(g72
g58
NtRp2186
(dp2187
g61
(dp2188
sg70
g1995
sg63
(lp2189
g56
(g77
g58
NtRp2190
(dp2191
g61
(dp2192
g81
g82
ssg70
g2186
sg63
(lp2193
g1538
asbag56
(g77
g58
NtRp2194
(dp2195
g61
(dp2196
g88
g89
ssg70
g2186
sg63
(lp2197
S':'
asbag56
(g77
g58
NtRp2198
(dp2199
g61
(dp2200
sg70
g2186
sg63
(lp2201
g56
(g57
g58
NtRp2202
(dp2203
g61
(dp2204
g69
I4
ssg70
g2198
sg63
(lp2205
g56
(g65
g58
NtRp2206
(dp2207
g61
(dp2208
g69
I3
ssg70
Nsg63
(lp2209
g56
(g72
g58
NtRp2210
(dp2211
g61
(dp2212
sg70
g2206
sg63
(lp2213
g56
(g77
g58
NtRp2214
(dp2215
g61
(dp2216
sg70
g2210
sg63
(lp2217
g56
(g57
g58
NtRp2218
(dp2219
g61
(dp2220
g69
I3
ssg70
g2214
sg63
(lp2221
S'1'
asbasbasbag56
(g72
g58
NtRp2222
(dp2223
g61
(dp2224
sg70
g2206
sg63
(lp2225
g56
(g77
g58
NtRp2226
(dp2227
g61
(dp2228
sg70
g2222
sg63
(lp2229
g56
(g57
g58
NtRp2230
(dp2231
g61
(dp2232
g69
I3
ssg70
g2226
sg63
(lp2233
S'99'
p2234
asbasbasbag56
(g72
g58
NtRp2235
(dp2236
g61
(dp2237
sg70
g2206
sg63
(lp2238
g56
(g77
g58
NtRp2239
(dp2240
g61
(dp2241
sg70
g2235
sg63
(lp2242
g56
(g57
g58
NtRp2243
(dp2244
g61
(dp2245
g69
I3
ssg70
g2239
sg63
(lp2246
S'2'
asbasbasbag56
(g72
g58
NtRp2247
(dp2248
g61
(dp2249
sg70
g2206
sg63
(lp2250
g56
(g77
g58
NtRp2251
(dp2252
g61
(dp2253
sg70
g2247
sg63
(lp2254
g56
(g57
g58
NtRp2255
(dp2256
g61
(dp2257
g69
I3
ssg70
g2251
sg63
(lp2258
S'datetime.datetime(2011, 9, 26, 6, 55, 33)'
p2259
asbasbasbag56
(g72
g58
NtRp2260
(dp2261
g61
(dp2262
sg70
g2206
sg63
(lp2263
g56
(g77
g58
NtRp2264
(dp2265
g61
(dp2266
sg70
g2260
sg63
(lp2267
g56
(g57
g58
NtRp2268
(dp2269
g61
(dp2270
g69
I3
ssg70
g2264
sg63
(lp2271
g1617
asbasbasbasbasbasbasbasbasbasbasbag56
(g72
g58
NtRp2272
(dp2273
g61
(dp2274
sg70
g66
sg63
(lp2275
g56
(g77
g58
NtRp2276
(dp2277
g61
(dp2278
g81
g82
ssg70
g2272
sg63
(lp2279
S'is_https'
p2280
asbag56
(g77
g58
NtRp2281
(dp2282
g61
(dp2283
g88
g89
ssg70
g2272
sg63
(lp2284
S':'
asbag56
(g77
g58
NtRp2285
(dp2286
g61
(dp2287
sg70
g2272
sg63
(lp2288
g56
(g57
g58
NtRp2289
(dp2290
g61
(dp2291
g69
I5
ssg70
g2285
sg63
(lp2292
g99
asbasbasbag56
(g72
g58
NtRp2293
(dp2294
g61
(dp2295
sg70
g66
sg63
(lp2296
g56
(g77
g58
NtRp2297
(dp2298
g61
(dp2299
g81
g82
ssg70
g2293
sg63
(lp2300
S'is_local'
p2301
asbag56
(g77
g58
NtRp2302
(dp2303
g61
(dp2304
g88
g89
ssg70
g2293
sg63
(lp2305
S':'
asbag56
(g77
g58
NtRp2306
(dp2307
g61
(dp2308
sg70
g2293
sg63
(lp2309
g56
(g57
g58
NtRp2310
(dp2311
g61
(dp2312
g69
I5
ssg70
g2306
sg63
(lp2313
g1726
asbasbasbag56
(g72
g58
NtRp2314
(dp2315
g61
(dp2316
sg70
g66
sg63
(lp2317
g56
(g77
g58
NtRp2318
(dp2319
g61
(dp2320
g81
g82
ssg70
g2314
sg63
(lp2321
S'is_restful'
p2322
asbag56
(g77
g58
NtRp2323
(dp2324
g61
(dp2325
g88
g89
ssg70
g2314
sg63
(lp2326
S':'
asbag56
(g77
g58
NtRp2327
(dp2328
g61
(dp2329
sg70
g2314
sg63
(lp2330
g56
(g57
g58
NtRp2331
(dp2332
g61
(dp2333
g69
I5
ssg70
g2327
sg63
(lp2334
g99
asbasbasbag56
(g72
g58
NtRp2335
(dp2336
g61
(dp2337
sg70
g66
sg63
(lp2338
g56
(g77
g58
NtRp2339
(dp2340
g61
(dp2341
g81
g82
ssg70
g2335
sg63
(lp2342
S'now'
p2343
asbag56
(g77
g58
NtRp2344
(dp2345
g61
(dp2346
g88
g89
ssg70
g2335
sg63
(lp2347
S':'
asbag56
(g77
g58
NtRp2348
(dp2349
g61
(dp2350
sg70
g2335
sg63
(lp2351
g56
(g57
g58
NtRp2352
(dp2353
g61
(dp2354
g69
I5
ssg70
g2348
sg63
(lp2355
S'datetime.datetime(2011, 12, 1, 13, 35, 30, 236465)'
p2356
asbasbasbag56
(g72
g58
NtRp2357
(dp2358
g61
(dp2359
sg70
g66
sg63
(lp2360
g56
(g77
g58
NtRp2361
(dp2362
g61
(dp2363
g81
g82
ssg70
g2357
sg63
(lp2364
S'post_vars'
p2365
asbag56
(g77
g58
NtRp2366
(dp2367
g61
(dp2368
g88
g89
ssg70
g2357
sg63
(lp2369
S':'
asbag56
(g77
g58
NtRp2370
(dp2371
g61
(dp2372
sg70
g2357
sg63
(lp2373
g56
(g57
g58
NtRp2374
(dp2375
g61
(dp2376
g69
I5
ssg70
g2370
sg63
(lp2377
g56
(g65
g58
NtRp2378
(dp2379
g61
(dp2380
g69
I4
ssg70
Nsg63
(lp2381
sbasbasbasbag56
(g72
g58
NtRp2382
(dp2383
g61
(dp2384
sg70
g66
sg63
(lp2385
g56
(g77
g58
NtRp2386
(dp2387
g61
(dp2388
g81
g82
ssg70
g2382
sg63
(lp2389
S'raw_args'
p2390
asbag56
(g77
g58
NtRp2391
(dp2392
g61
(dp2393
g88
g89
ssg70
g2382
sg63
(lp2394
S':'
asbag56
(g77
g58
NtRp2395
(dp2396
g61
(dp2397
sg70
g2382
sg63
(lp2398
g56
(g57
g58
NtRp2399
(dp2400
g61
(dp2401
g69
I5
ssg70
g2395
sg63
(lp2402
S'notes/1'
p2403
asbasbasbag56
(g72
g58
NtRp2404
(dp2405
g61
(dp2406
sg70
g66
sg63
(lp2407
g56
(g77
g58
NtRp2408
(dp2409
g61
(dp2410
g81
g82
ssg70
g2404
sg63
(lp2411
S'url'
p2412
asbag56
(g77
g58
NtRp2413
(dp2414
g61
(dp2415
g88
g89
ssg70
g2404
sg63
(lp2416
S':'
asbag56
(g77
g58
NtRp2417
(dp2418
g61
(dp2419
sg70
g2404
sg63
(lp2420
g56
(g57
g58
NtRp2421
(dp2422
g61
(dp2423
g69
I5
ssg70
g2417
sg63
(lp2424
S'/topoi/plugin_listandedit/list/notes/1'
p2425
asbasbasbag56
(g72
g58
NtRp2426
(dp2427
g61
(dp2428
sg70
g66
sg63
(lp2429
g56
(g77
g58
NtRp2430
(dp2431
g61
(dp2432
g81
g82
ssg70
g2426
sg63
(lp2433
S'utcnow'
p2434
asbag56
(g77
g58
NtRp2435
(dp2436
g61
(dp2437
g88
g89
ssg70
g2426
sg63
(lp2438
S':'
asbag56
(g77
g58
NtRp2439
(dp2440
g61
(dp2441
sg70
g2426
sg63
(lp2442
g56
(g57
g58
NtRp2443
(dp2444
g61
(dp2445
g69
I5
ssg70
g2439
sg63
(lp2446
S'datetime.datetime(2011, 12, 1, 18, 35, 30, 236530)'
p2447
asbasbasbag56
(g72
g58
NtRp2448
(dp2449
g61
(dp2450
sg70
g66
sg63
(lp2451
g56
(g77
g58
NtRp2452
(dp2453
g61
(dp2454
g81
g82
ssg70
g2448
sg63
(lp2455
S'uuid'
p2456
asbag56
(g77
g58
NtRp2457
(dp2458
g61
(dp2459
g88
g89
ssg70
g2448
sg63
(lp2460
S':'
asbag56
(g77
g58
NtRp2461
(dp2462
g61
(dp2463
sg70
g2448
sg63
(lp2464
g56
(g57
g58
NtRp2465
(dp2466
g61
(dp2467
g69
I5
ssg70
g2461
sg63
(lp2468
S'topoi/127.0.0.1.2011-12-01.13-35-30.1c5662f3-bc95-4ebc-8d4f-2b14e02c829b'
p2469
asbasbasbag56
(g72
g58
NtRp2470
(dp2471
g61
(dp2472
sg70
g66
sg63
(lp2473
g56
(g77
g58
NtRp2474
(dp2475
g61
(dp2476
g81
g82
ssg70
g2470
sg63
(lp2477
S'vars'
p2478
asbag56
(g77
g58
NtRp2479
(dp2480
g61
(dp2481
g88
g89
ssg70
g2470
sg63
(lp2482
S':'
asbag56
(g77
g58
NtRp2483
(dp2484
g61
(dp2485
sg70
g2470
sg63
(lp2486
g56
(g57
g58
NtRp2487
(dp2488
g61
(dp2489
g69
I5
ssg70
g2483
sg63
(lp2490
g56
(g65
g58
NtRp2491
(dp2492
g61
(dp2493
g69
I4
ssg70
Nsg63
(lp2494
g56
(g72
g58
NtRp2495
(dp2496
g61
(dp2497
sg70
g2491
sg63
(lp2498
g56
(g77
g58
NtRp2499
(dp2500
g61
(dp2501
g81
g82
ssg70
g2495
sg63
(lp2502
g1918
asbag56
(g77
g58
NtRp2503
(dp2504
g61
(dp2505
g88
g89
ssg70
g2495
sg63
(lp2506
S':'
asbag56
(g77
g58
NtRp2507
(dp2508
g61
(dp2509
sg70
g2495
sg63
(lp2510
g56
(g57
g58
NtRp2511
(dp2512
g61
(dp2513
g69
I4
ssg70
g2507
sg63
(lp2514
g56
(g65
g58
NtRp2515
(dp2516
g61
(dp2517
g69
I3
ssg70
Nsg63
(lp2518
g56
(g72
g58
NtRp2519
(dp2520
g61
(dp2521
sg70
g2515
sg63
(lp2522
g56
(g77
g58
NtRp2523
(dp2524
g61
(dp2525
sg70
g2519
sg63
(lp2526
g56
(g57
g58
NtRp2527
(dp2528
g61
(dp2529
g69
I3
ssg70
g2523
sg63
(lp2530
g1947
asbasbasbag56
(g72
g58
NtRp2531
(dp2532
g61
(dp2533
sg70
g2515
sg63
(lp2534
g56
(g77
g58
NtRp2535
(dp2536
g61
(dp2537
sg70
g2531
sg63
(lp2538
g56
(g57
g58
NtRp2539
(dp2540
g61
(dp2541
g69
I3
ssg70
g2535
sg63
(lp2542
g1960
asbasbasbag56
(g72
g58
NtRp2543
(dp2544
g61
(dp2545
sg70
g2515
sg63
(lp2546
g56
(g77
g58
NtRp2547
(dp2548
g61
(dp2549
sg70
g2543
sg63
(lp2550
g56
(g57
g58
NtRp2551
(dp2552
g61
(dp2553
g69
I3
ssg70
g2547
sg63
(lp2554
g1973
asbasbasbasbasbasbasbasbasbasbasbag56
(g72
g58
NtRp2555
(dp2556
g61
(dp2557
sg70
g66
sg63
(lp2558
g56
(g77
g58
NtRp2559
(dp2560
g61
(dp2561
g81
g82
ssg70
g2555
sg63
(lp2562
S'wsgi'
p2563
asbag56
(g77
g58
NtRp2564
(dp2565
g61
(dp2566
g88
g89
ssg70
g2555
sg63
(lp2567
S':'
asbag56
(g77
g58
NtRp2568
(dp2569
g61
(dp2570
sg70
g2555
sg63
(lp2571
g56
(g57
g58
NtRp2572
(dp2573
g61
(dp2574
g69
I5
ssg70
g2568
sg63
(lp2575
g56
(g65
g58
NtRp2576
(dp2577
g61
(dp2578
g69
I4
ssg70
Nsg63
(lp2579
g56
(g72
g58
NtRp2580
(dp2581
g61
(dp2582
sg70
g2576
sg63
(lp2583
g56
(g77
g58
NtRp2584
(dp2585
g61
(dp2586
g81
g82
ssg70
g2580
sg63
(lp2587
S'environ'
p2588
asbag56
(g77
g58
NtRp2589
(dp2590
g61
(dp2591
g88
g89
ssg70
g2580
sg63
(lp2592
S':'
asbag56
(g77
g58
NtRp2593
(dp2594
g61
(dp2595
sg70
g2580
sg63
(lp2596
g56
(g57
g58
NtRp2597
(dp2598
g61
(dp2599
g69
I4
ssg70
g2593
sg63
(lp2600
g56
(g65
g58
NtRp2601
(dp2602
g61
(dp2603
g69
I3
ssg70
Nsg63
(lp2604
g56
(g72
g58
NtRp2605
(dp2606
g61
(dp2607
sg70
g2601
sg63
(lp2608
g56
(g77
g58
NtRp2609
(dp2610
g61
(dp2611
g81
g82
ssg70
g2605
sg63
(lp2612
S'HTTP_ACCEPT'
p2613
asbag56
(g77
g58
NtRp2614
(dp2615
g61
(dp2616
g88
g89
ssg70
g2605
sg63
(lp2617
S':'
asbag56
(g77
g58
NtRp2618
(dp2619
g61
(dp2620
sg70
g2605
sg63
(lp2621
g56
(g57
g58
NtRp2622
(dp2623
g61
(dp2624
g69
I3
ssg70
g2618
sg63
(lp2625
g1027
asbasbasbag56
(g72
g58
NtRp2626
(dp2627
g61
(dp2628
sg70
g2601
sg63
(lp2629
g56
(g77
g58
NtRp2630
(dp2631
g61
(dp2632
g81
g82
ssg70
g2626
sg63
(lp2633
S'HTTP_ACCEPT_CHARSET'
p2634
asbag56
(g77
g58
NtRp2635
(dp2636
g61
(dp2637
g88
g89
ssg70
g2626
sg63
(lp2638
S':'
asbag56
(g77
g58
NtRp2639
(dp2640
g61
(dp2641
sg70
g2626
sg63
(lp2642
g56
(g57
g58
NtRp2643
(dp2644
g61
(dp2645
g69
I3
ssg70
g2639
sg63
(lp2646
g1049
asbasbasbag56
(g72
g58
NtRp2647
(dp2648
g61
(dp2649
sg70
g2601
sg63
(lp2650
g56
(g77
g58
NtRp2651
(dp2652
g61
(dp2653
g81
g82
ssg70
g2647
sg63
(lp2654
S'HTTP_ACCEPT_ENCODING'
p2655
asbag56
(g77
g58
NtRp2656
(dp2657
g61
(dp2658
g88
g89
ssg70
g2647
sg63
(lp2659
S':'
asbag56
(g77
g58
NtRp2660
(dp2661
g61
(dp2662
sg70
g2647
sg63
(lp2663
g56
(g57
g58
NtRp2664
(dp2665
g61
(dp2666
g69
I3
ssg70
g2660
sg63
(lp2667
g1071
asbasbasbag56
(g72
g58
NtRp2668
(dp2669
g61
(dp2670
sg70
g2601
sg63
(lp2671
g56
(g77
g58
NtRp2672
(dp2673
g61
(dp2674
g81
g82
ssg70
g2668
sg63
(lp2675
S'HTTP_ACCEPT_LANGUAGE'
p2676
asbag56
(g77
g58
NtRp2677
(dp2678
g61
(dp2679
g88
g89
ssg70
g2668
sg63
(lp2680
S':'
asbag56
(g77
g58
NtRp2681
(dp2682
g61
(dp2683
sg70
g2668
sg63
(lp2684
g56
(g57
g58
NtRp2685
(dp2686
g61
(dp2687
g69
I3
ssg70
g2681
sg63
(lp2688
g1093
asbasbasbag56
(g72
g58
NtRp2689
(dp2690
g61
(dp2691
sg70
g2601
sg63
(lp2692
g56
(g77
g58
NtRp2693
(dp2694
g61
(dp2695
g81
g82
ssg70
g2689
sg63
(lp2696
S'HTTP_CACHE_CONTROL'
p2697
asbag56
(g77
g58
NtRp2698
(dp2699
g61
(dp2700
g88
g89
ssg70
g2689
sg63
(lp2701
S':'
asbag56
(g77
g58
NtRp2702
(dp2703
g61
(dp2704
sg70
g2689
sg63
(lp2705
g56
(g57
g58
NtRp2706
(dp2707
g61
(dp2708
g69
I3
ssg70
g2702
sg63
(lp2709
g1115
asbasbasbag56
(g72
g58
NtRp2710
(dp2711
g61
(dp2712
sg70
g2601
sg63
(lp2713
g56
(g77
g58
NtRp2714
(dp2715
g61
(dp2716
g81
g82
ssg70
g2710
sg63
(lp2717
S'HTTP_CONNECTION'
p2718
asbag56
(g77
g58
NtRp2719
(dp2720
g61
(dp2721
g88
g89
ssg70
g2710
sg63
(lp2722
S':'
asbag56
(g77
g58
NtRp2723
(dp2724
g61
(dp2725
sg70
g2710
sg63
(lp2726
g56
(g57
g58
NtRp2727
(dp2728
g61
(dp2729
g69
I3
ssg70
g2723
sg63
(lp2730
g1137
asbasbasbag56
(g72
g58
NtRp2731
(dp2732
g61
(dp2733
sg70
g2601
sg63
(lp2734
g56
(g77
g58
NtRp2735
(dp2736
g61
(dp2737
g81
g82
ssg70
g2731
sg63
(lp2738
S'HTTP_COOKIE'
p2739
asbag56
(g77
g58
NtRp2740
(dp2741
g61
(dp2742
g88
g89
ssg70
g2731
sg63
(lp2743
S':'
asbag56
(g77
g58
NtRp2744
(dp2745
g61
(dp2746
sg70
g2731
sg63
(lp2747
g56
(g57
g58
NtRp2748
(dp2749
g61
(dp2750
g69
I3
ssg70
g2744
sg63
(lp2751
g1159
asbasbasbag56
(g72
g58
NtRp2752
(dp2753
g61
(dp2754
sg70
g2601
sg63
(lp2755
g56
(g77
g58
NtRp2756
(dp2757
g61
(dp2758
g81
g82
ssg70
g2752
sg63
(lp2759
S'HTTP_HOST'
p2760
asbag56
(g77
g58
NtRp2761
(dp2762
g61
(dp2763
g88
g89
ssg70
g2752
sg63
(lp2764
S':'
asbag56
(g77
g58
NtRp2765
(dp2766
g61
(dp2767
sg70
g2752
sg63
(lp2768
g56
(g57
g58
NtRp2769
(dp2770
g61
(dp2771
g69
I3
ssg70
g2765
sg63
(lp2772
g1181
asbasbasbag56
(g72
g58
NtRp2773
(dp2774
g61
(dp2775
sg70
g2601
sg63
(lp2776
g56
(g77
g58
NtRp2777
(dp2778
g61
(dp2779
g81
g82
ssg70
g2773
sg63
(lp2780
S'HTTP_REFERER'
p2781
asbag56
(g77
g58
NtRp2782
(dp2783
g61
(dp2784
g88
g89
ssg70
g2773
sg63
(lp2785
S':'
asbag56
(g77
g58
NtRp2786
(dp2787
g61
(dp2788
sg70
g2773
sg63
(lp2789
g56
(g57
g58
NtRp2790
(dp2791
g61
(dp2792
g69
I3
ssg70
g2786
sg63
(lp2793
g1203
asbasbasbag56
(g72
g58
NtRp2794
(dp2795
g61
(dp2796
sg70
g2601
sg63
(lp2797
g56
(g77
g58
NtRp2798
(dp2799
g61
(dp2800
g81
g82
ssg70
g2794
sg63
(lp2801
S'HTTP_USER_AGENT'
p2802
asbag56
(g77
g58
NtRp2803
(dp2804
g61
(dp2805
g88
g89
ssg70
g2794
sg63
(lp2806
S':'
asbag56
(g77
g58
NtRp2807
(dp2808
g61
(dp2809
sg70
g2794
sg63
(lp2810
g56
(g57
g58
NtRp2811
(dp2812
g61
(dp2813
g69
I3
ssg70
g2807
sg63
(lp2814
g1225
asbasbasbag56
(g72
g58
NtRp2815
(dp2816
g61
(dp2817
sg70
g2601
sg63
(lp2818
g56
(g77
g58
NtRp2819
(dp2820
g61
(dp2821
g81
g82
ssg70
g2815
sg63
(lp2822
S'HTTP_X_INSIGHT'
p2823
asbag56
(g77
g58
NtRp2824
(dp2825
g61
(dp2826
g88
g89
ssg70
g2815
sg63
(lp2827
S':'
asbag56
(g77
g58
NtRp2828
(dp2829
g61
(dp2830
sg70
g2815
sg63
(lp2831
g56
(g57
g58
NtRp2832
(dp2833
g61
(dp2834
g69
I3
ssg70
g2828
sg63
(lp2835
g1247
asbasbasbag56
(g72
g58
NtRp2836
(dp2837
g61
(dp2838
sg70
g2601
sg63
(lp2839
g56
(g77
g58
NtRp2840
(dp2841
g61
(dp2842
g81
g82
ssg70
g2836
sg63
(lp2843
S'PATH_INFO'
p2844
asbag56
(g77
g58
NtRp2845
(dp2846
g61
(dp2847
g88
g89
ssg70
g2836
sg63
(lp2848
S':'
asbag56
(g77
g58
NtRp2849
(dp2850
g61
(dp2851
sg70
g2836
sg63
(lp2852
g56
(g57
g58
NtRp2853
(dp2854
g61
(dp2855
g69
I3
ssg70
g2849
sg63
(lp2856
g1290
asbasbasbag56
(g72
g58
NtRp2857
(dp2858
g61
(dp2859
sg70
g2601
sg63
(lp2860
g56
(g77
g58
NtRp2861
(dp2862
g61
(dp2863
g81
g82
ssg70
g2857
sg63
(lp2864
S'QUERY_STRING'
p2865
asbag56
(g77
g58
NtRp2866
(dp2867
g61
(dp2868
g88
g89
ssg70
g2857
sg63
(lp2869
S':'
asbag56
(g77
g58
NtRp2870
(dp2871
g61
(dp2872
sg70
g2857
sg63
(lp2873
g56
(g57
g58
NtRp2874
(dp2875
g61
(dp2876
g69
I3
ssg70
g2870
sg63
(lp2877
g1312
asbasbasbag56
(g72
g58
NtRp2878
(dp2879
g61
(dp2880
sg70
g2601
sg63
(lp2881
g56
(g77
g58
NtRp2882
(dp2883
g61
(dp2884
g81
g82
ssg70
g2878
sg63
(lp2885
S'REMOTE_ADDR'
p2886
asbag56
(g77
g58
NtRp2887
(dp2888
g61
(dp2889
g88
g89
ssg70
g2878
sg63
(lp2890
S':'
asbag56
(g77
g58
NtRp2891
(dp2892
g61
(dp2893
sg70
g2878
sg63
(lp2894
g56
(g57
g58
NtRp2895
(dp2896
g61
(dp2897
g69
I3
ssg70
g2891
sg63
(lp2898
g214
asbasbasbag56
(g72
g58
NtRp2899
(dp2900
g61
(dp2901
sg70
g2601
sg63
(lp2902
g56
(g77
g58
NtRp2903
(dp2904
g61
(dp2905
g81
g82
ssg70
g2899
sg63
(lp2906
S'REMOTE_PORT'
p2907
asbag56
(g77
g58
NtRp2908
(dp2909
g61
(dp2910
g88
g89
ssg70
g2899
sg63
(lp2911
S':'
asbag56
(g77
g58
NtRp2912
(dp2913
g61
(dp2914
sg70
g2899
sg63
(lp2915
g56
(g57
g58
NtRp2916
(dp2917
g61
(dp2918
g69
I3
ssg70
g2912
sg63
(lp2919
g1355
asbasbasbag56
(g72
g58
NtRp2920
(dp2921
g61
(dp2922
sg70
g2601
sg63
(lp2923
g56
(g77
g58
NtRp2924
(dp2925
g61
(dp2926
g81
g82
ssg70
g2920
sg63
(lp2927
S'REQUEST_METHOD'
p2928
asbag56
(g77
g58
NtRp2929
(dp2930
g61
(dp2931
g88
g89
ssg70
g2920
sg63
(lp2932
S':'
asbag56
(g77
g58
NtRp2933
(dp2934
g61
(dp2935
sg70
g2920
sg63
(lp2936
g56
(g57
g58
NtRp2937
(dp2938
g61
(dp2939
g69
I3
ssg70
g2933
sg63
(lp2940
g1377
asbasbasbag56
(g72
g58
NtRp2941
(dp2942
g61
(dp2943
sg70
g2601
sg63
(lp2944
g56
(g77
g58
NtRp2945
(dp2946
g61
(dp2947
g81
g82
ssg70
g2941
sg63
(lp2948
S'SCRIPT_NAME'
p2949
asbag56
(g77
g58
NtRp2950
(dp2951
g61
(dp2952
g88
g89
ssg70
g2941
sg63
(lp2953
S':'
asbag56
(g77
g58
NtRp2954
(dp2955
g61
(dp2956
sg70
g2941
sg63
(lp2957
g56
(g57
g58
NtRp2958
(dp2959
g61
(dp2960
g69
I3
ssg70
g2954
sg63
(lp2961
S''
asbasbasbag56
(g72
g58
NtRp2962
(dp2963
g61
(dp2964
sg70
g2601
sg63
(lp2965
g56
(g77
g58
NtRp2966
(dp2967
g61
(dp2968
g81
g82
ssg70
g2962
sg63
(lp2969
S'SERVER_NAME'
p2970
asbag56
(g77
g58
NtRp2971
(dp2972
g61
(dp2973
g88
g89
ssg70
g2962
sg63
(lp2974
S':'
asbag56
(g77
g58
NtRp2975
(dp2976
g61
(dp2977
sg70
g2962
sg63
(lp2978
g56
(g57
g58
NtRp2979
(dp2980
g61
(dp2981
g69
I3
ssg70
g2975
sg63
(lp2982
g1420
asbasbasbag56
(g72
g58
NtRp2983
(dp2984
g61
(dp2985
sg70
g2601
sg63
(lp2986
g56
(g77
g58
NtRp2987
(dp2988
g61
(dp2989
g81
g82
ssg70
g2983
sg63
(lp2990
S'SERVER_PORT'
p2991
asbag56
(g77
g58
NtRp2992
(dp2993
g61
(dp2994
g88
g89
ssg70
g2983
sg63
(lp2995
S':'
asbag56
(g77
g58
NtRp2996
(dp2997
g61
(dp2998
sg70
g2983
sg63
(lp2999
g56
(g57
g58
NtRp3000
(dp3001
g61
(dp3002
g69
I3
ssg70
g2996
sg63
(lp3003
g1442
asbasbasbag56
(g72
g58
NtRp3004
(dp3005
g61
(dp3006
sg70
g2601
sg63
(lp3007
g56
(g77
g58
NtRp3008
(dp3009
g61
(dp3010
g81
g82
ssg70
g3004
sg63
(lp3011
S'SERVER_PROTOCOL'
p3012
asbag56
(g77
g58
NtRp3013
(dp3014
g61
(dp3015
g88
g89
ssg70
g3004
sg63
(lp3016
S':'
asbag56
(g77
g58
NtRp3017
(dp3018
g61
(dp3019
sg70
g3004
sg63
(lp3020
g56
(g57
g58
NtRp3021
(dp3022
g61
(dp3023
g69
I3
ssg70
g3017
sg63
(lp3024
g1464
asbasbasbag56
(g72
g58
NtRp3025
(dp3026
g61
(dp3027
sg70
g2601
sg63
(lp3028
g56
(g77
g58
NtRp3029
(dp3030
g61
(dp3031
g81
g82
ssg70
g3025
sg63
(lp3032
S'SERVER_SOFTWARE'
p3033
asbag56
(g77
g58
NtRp3034
(dp3035
g61
(dp3036
g88
g89
ssg70
g3025
sg63
(lp3037
S':'
asbag56
(g77
g58
NtRp3038
(dp3039
g61
(dp3040
sg70
g3025
sg63
(lp3041
g56
(g57
g58
NtRp3042
(dp3043
g61
(dp3044
g69
I3
ssg70
g3038
sg63
(lp3045
g1486
asbasbasbag56
(g72
g58
NtRp3046
(dp3047
g61
(dp3048
sg70
g2601
sg63
(lp3049
g56
(g77
g58
NtRp3050
(dp3051
g61
(dp3052
g81
g82
ssg70
g3046
sg63
(lp3053
S'wsgi.errors'
p3054
asbag56
(g77
g58
NtRp3055
(dp3056
g61
(dp3057
g88
g89
ssg70
g3046
sg63
(lp3058
S':'
asbag56
(g77
g58
NtRp3059
(dp3060
g61
(dp3061
sg70
g3046
sg63
(lp3062
g56
(g57
g58
NtRp3063
(dp3064
g61
(dp3065
g69
I3
ssg70
g3059
sg63
(lp3066
S"<open file '<stderr>', mode 'w' at 0x7ff925b48270>"
p3067
asbasbasbag56
(g72
g58
NtRp3068
(dp3069
g61
(dp3070
sg70
g2601
sg63
(lp3071
g56
(g77
g58
NtRp3072
(dp3073
g61
(dp3074
g81
g82
ssg70
g3068
sg63
(lp3075
S'wsgi.file_wrapper'
p3076
asbag56
(g77
g58
NtRp3077
(dp3078
g61
(dp3079
g88
g89
ssg70
g3068
sg63
(lp3080
S':'
asbag56
(g77
g58
NtRp3081
(dp3082
g61
(dp3083
sg70
g3068
sg63
(lp3084
g56
(g57
g58
NtRp3085
(dp3086
g61
(dp3087
g69
I3
ssg70
g3081
sg63
(lp3088
S'<class wsgiref.util.FileWrapper at 0x27b2808>'
p3089
asbasbasbag56
(g72
g58
NtRp3090
(dp3091
g61
(dp3092
sg70
g2601
sg63
(lp3093
g56
(g77
g58
NtRp3094
(dp3095
g61
(dp3096
g81
g82
ssg70
g3090
sg63
(lp3097
S'wsgi.input'
p3098
asbag56
(g77
g58
NtRp3099
(dp3100
g61
(dp3101
g88
g89
ssg70
g3090
sg63
(lp3102
S':'
asbag56
(g77
g58
NtRp3103
(dp3104
g61
(dp3105
sg70
g3090
sg63
(lp3106
g56
(g57
g58
NtRp3107
(dp3108
g61
(dp3109
g69
I3
ssg70
g3103
sg63
(lp3110
S'<cStringIO.StringO object at 0x39c1110>'
p3111
asbasbasbag56
(g72
g58
NtRp3112
(dp3113
g61
(dp3114
sg70
g2601
sg63
(lp3115
g56
(g77
g58
NtRp3116
(dp3117
g61
(dp3118
g81
g82
ssg70
g3112
sg63
(lp3119
S'wsgi.multiprocess'
p3120
asbag56
(g77
g58
NtRp3121
(dp3122
g61
(dp3123
g88
g89
ssg70
g3112
sg63
(lp3124
S':'
asbag56
(g77
g58
NtRp3125
(dp3126
g61
(dp3127
sg70
g3112
sg63
(lp3128
g56
(g57
g58
NtRp3129
(dp3130
g61
(dp3131
g69
I3
ssg70
g3125
sg63
(lp3132
g99
asbasbasbag56
(g72
g58
NtRp3133
(dp3134
g61
(dp3135
sg70
g2601
sg63
(lp3136
g56
(g77
g58
NtRp3137
(dp3138
g61
(dp3139
g81
g82
ssg70
g3133
sg63
(lp3140
S'wsgi.multithread'
p3141
asbag56
(g77
g58
NtRp3142
(dp3143
g61
(dp3144
g88
g89
ssg70
g3133
sg63
(lp3145
S':'
asbag56
(g77
g58
NtRp3146
(dp3147
g61
(dp3148
sg70
g3133
sg63
(lp3149
g56
(g57
g58
NtRp3150
(dp3151
g61
(dp3152
g69
I3
ssg70
g3146
sg63
(lp3153
g1726
asbasbasbag56
(g72
g58
NtRp3154
(dp3155
g61
(dp3156
sg70
g2601
sg63
(lp3157
g56
(g77
g58
NtRp3158
(dp3159
g61
(dp3160
g81
g82
ssg70
g3154
sg63
(lp3161
S'wsgi.run_once'
p3162
asbag56
(g77
g58
NtRp3163
(dp3164
g61
(dp3165
g88
g89
ssg70
g3154
sg63
(lp3166
S':'
asbag56
(g77
g58
NtRp3167
(dp3168
g61
(dp3169
sg70
g3154
sg63
(lp3170
g56
(g57
g58
NtRp3171
(dp3172
g61
(dp3173
g69
I3
ssg70
g3167
sg63
(lp3174
g99
asbasbasbag56
(g72
g58
NtRp3175
(dp3176
g61
(dp3177
sg70
g2601
sg63
(lp3178
g56
(g77
g58
NtRp3179
(dp3180
g61
(dp3181
g81
g82
ssg70
g3175
sg63
(lp3182
S'wsgi.url_scheme'
p3183
asbag56
(g77
g58
NtRp3184
(dp3185
g61
(dp3186
g88
g89
ssg70
g3175
sg63
(lp3187
S':'
asbag56
(g77
g58
NtRp3188
(dp3189
g61
(dp3190
sg70
g3175
sg63
(lp3191
g56
(g57
g58
NtRp3192
(dp3193
g61
(dp3194
g69
I3
ssg70
g3188
sg63
(lp3195
g1769
asbasbasbag56
(g72
g58
NtRp3196
(dp3197
g61
(dp3198
sg70
g2601
sg63
(lp3199
g56
(g77
g58
NtRp3200
(dp3201
g61
(dp3202
g81
g82
ssg70
g3196
sg63
(lp3203
S'wsgi.version'
p3204
asbag56
(g77
g58
NtRp3205
(dp3206
g61
(dp3207
g88
g89
ssg70
g3196
sg63
(lp3208
S':'
asbag56
(g77
g58
NtRp3209
(dp3210
g61
(dp3211
sg70
g3196
sg63
(lp3212
g56
(g57
g58
NtRp3213
(dp3214
g61
(dp3215
g69
I3
ssg70
g3209
sg63
(lp3216
S'1'
asbasbasbasbasbasbasbasbasbasbasbasbasbsS'frames'
p3217
(lp3218
(dp3219
S'file'
p3220
S'/home/ian/web2py/gluon/restricted.py'
p3221
sS'dump'
p3222
(dp3223
S'environment'
p3224
S"{'A': <class 'gluon.html.A'>, 'Auth': <class 'gluon.tools.Auth'>, 'B': <class 'gluon.html.B'>, 'BEAUTIFY': <class 'gluon.html.BEAUTIFY'>, 'BODY': <class 'gluon.html.BODY'>, 'BR': <class 'gluon.html.BR'>, 'BUTTON': <class 'gluon.html.BUTTON'>, 'CAT': <class 'gluon.html.CAT'>, 'CENTER': <class 'gluon.html.CENTER'>, 'CLEANUP': <class 'gluon.validators.CLEANUP'>, ...}"
p3225
sS'ccode'
p3226
S'<code object <module> at 0x3799030, file "/home/...topoi/controllers/plugin_listandedit.py", line 3>'
p3227
ssS'lnum'
p3228
I194
sS'lines'
p3229
(dp3230
I192
S'        else:'
p3231
sI193
S'            ccode = compile2(code,layer)'
p3232
sI194
S'        exec ccode in environment'
p3233
sI195
S'    except HTTP:'
p3234
sI196
S'        raise'
p3235
sI197
S'    except Exception, error:'
p3236
sI198
S'        # XXX Show exception in Wing IDE if running in debugger'
p3237
sI189
S'    try:'
p3238
sI190
S'        if type(code) == types.CodeType:'
p3239
sI191
S'            ccode = code'
p3240
ssS'call'
p3241
S"(code='# coding: utf8\\n# try something like\\ndef list():\\n...m = form)\\n\\nresponse._vars=response._caller(list)\\n', environment={'A': <class 'gluon.html.A'>, 'Auth': <class 'gluon.tools.Auth'>, 'B': <class 'gluon.html.B'>, 'BEAUTIFY': <class 'gluon.html.BEAUTIFY'>, 'BODY': <class 'gluon.html.BODY'>, 'BR': <class 'gluon.html.BR'>, 'BUTTON': <class 'gluon.html.BUTTON'>, 'CAT': <class 'gluon.html.CAT'>, 'CENTER': <class 'gluon.html.CENTER'>, 'CLEANUP': <class 'gluon.validators.CLEANUP'>, ...}, layer='/home/ian/web2py/applications/topoi/controllers/plugin_listandedit.py')"
p3242
sS'func'
p3243
S'restricted'
p3244
sa(dp3245
g3220
S'/home/ian/web2py/applications/topoi/controllers/plugin_listandedit.py'
p3246
sg3222
(dp3247
sg3228
I42
sg3229
(dp3248
I32
S''
sI33
S'    return dict(listset = listset)'
p3249
sI34
S''
sI35
S'def edit():'
p3250
sI36
S'    tablename = request.args[0]'
p3251
sI37
S'    rowid = request.args[1]'
p3252
sI38
S'    form = crud.update(db[tablename], rowid)'
p3253
sI39
S''
sI40
S'    return dict(form = form)'
p3254
sI31
S'        listset.append(i)'
p3255
ssg3241
S'()'
p3256
sg3243
S'<module>'
p3257
sa(dp3258
g3220
S'/home/ian/web2py/gluon/globals.py'
p3259
sg3222
(dp3260
S'self'
p3261
S'undefined'
p3262
sS'f'
S'<function list>'
p3263
ssg3228
I149
sg3229
(dp3264
I144
S'        self.meta = Storage()      # used by web2py_ajax.html'
p3265
sI145
S'        self.menu = []             # used by the default view layout'
p3266
sI146
S'        self.files = []            # used by web2py_ajax.html'
p3267
sI147
S'        self.generic_patterns = [] # patterns to allow generic views'
p3268
sI148
S'        self._vars = None'
p3269
sI149
S'        self._caller = lambda f: f()'
p3270
sI150
S'        self._view_environment = None'
p3271
sI151
S'        self._custom_commit = None'
p3272
sI152
S'        self._custom_rollback = None'
p3273
sI153
S''
ssg3241
S'(f=<function list>)'
p3274
sg3243
S'<lambda>'
p3275
sa(dp3276
g3220
S'/home/ian/web2py/applications/topoi/controllers/plugin_listandedit.py'
p3277
sg3222
(dp3278
S'tb.fields'
p3279
S"['id', 'label', 'user', 'author', 'work', 'refer...cerpt', 'body', 'tags', 'last_edited', 'project']"
p3280
sS'].type'
p3281
g3262
sS'tb'
p3282
S"<Table {'reference': <gluon.dal.Field object at ...>, '_id': <gluon.dal.Field object at 0x447e210>}>"
p3283
sS'f'
S"'author'"
p3284
ssg3228
I25
sg3229
(dp3285
I20
S''
sI21
S'    listset = []'
p3286
sI22
S'    for r in rowlist:'
p3287
sI23
S"        listformat = ''"
p3288
sI24
S'        for f in fieldnames:'
p3289
sI25
S"            if tb.fields[f].type == 'reference':"
p3290
sI26
S"                print 'ref'"
p3291
sI27
S'            else:'
p3292
sI28
S'                listformat += r[f]'
p3293
sI29
S''
ssg3241
S'()'
p3294
sg3243
S'list'
p3295
sasS'pyver'
p3296
S'Python 2.7.2+: /usr/bin/python2.7'
p3297
sS'session'
p3298
g56
(g57
g58
NtRp3299
(dp3300
g61
(dp3301
sg63
(lp3302
g56
(g65
g58
NtRp3303
(dp3304
g61
(dp3305
g69
I5
ssg70
Nsg63
(lp3306
g56
(g72
g58
NtRp3307
(dp3308
g61
(dp3309
sg70
g3303
sg63
(lp3310
g56
(g77
g58
NtRp3311
(dp3312
g61
(dp3313
g81
g82
ssg70
g3307
sg63
(lp3314
S'auth'
p3315
asbag56
(g77
g58
NtRp3316
(dp3317
g61
(dp3318
g88
g89
ssg70
g3307
sg63
(lp3319
S':'
asbag56
(g77
g58
NtRp3320
(dp3321
g61
(dp3322
sg70
g3307
sg63
(lp3323
g56
(g57
g58
NtRp3324
(dp3325
g61
(dp3326
g69
I5
ssg70
g3320
sg63
(lp3327
g56
(g65
g58
NtRp3328
(dp3329
g61
(dp3330
g69
I4
ssg70
Nsg63
(lp3331
g56
(g72
g58
NtRp3332
(dp3333
g61
(dp3334
sg70
g3328
sg63
(lp3335
g56
(g77
g58
NtRp3336
(dp3337
g61
(dp3338
g81
g82
ssg70
g3332
sg63
(lp3339
S'expiration'
p3340
asbag56
(g77
g58
NtRp3341
(dp3342
g61
(dp3343
g88
g89
ssg70
g3332
sg63
(lp3344
S':'
asbag56
(g77
g58
NtRp3345
(dp3346
g61
(dp3347
sg70
g3332
sg63
(lp3348
g56
(g57
g58
NtRp3349
(dp3350
g61
(dp3351
g69
I4
ssg70
g3345
sg63
(lp3352
S'2592000'
p3353
asbasbasbag56
(g72
g58
NtRp3354
(dp3355
g61
(dp3356
sg70
g3328
sg63
(lp3357
g56
(g77
g58
NtRp3358
(dp3359
g61
(dp3360
g81
g82
ssg70
g3354
sg63
(lp3361
S'hmac_key'
p3362
asbag56
(g77
g58
NtRp3363
(dp3364
g61
(dp3365
g88
g89
ssg70
g3354
sg63
(lp3366
S':'
asbag56
(g77
g58
NtRp3367
(dp3368
g61
(dp3369
sg70
g3354
sg63
(lp3370
g56
(g57
g58
NtRp3371
(dp3372
g61
(dp3373
g69
I4
ssg70
g3367
sg63
(lp3374
S'eceeeca4-e0d7-49bc-a679-949298c4984a'
p3375
asbasbasbag56
(g72
g58
NtRp3376
(dp3377
g61
(dp3378
sg70
g3328
sg63
(lp3379
g56
(g77
g58
NtRp3380
(dp3381
g61
(dp3382
g81
g82
ssg70
g3376
sg63
(lp3383
S'last_visit'
p3384
asbag56
(g77
g58
NtRp3385
(dp3386
g61
(dp3387
g88
g89
ssg70
g3376
sg63
(lp3388
S':'
asbag56
(g77
g58
NtRp3389
(dp3390
g61
(dp3391
sg70
g3376
sg63
(lp3392
g56
(g57
g58
NtRp3393
(dp3394
g61
(dp3395
g69
I4
ssg70
g3389
sg63
(lp3396
S'datetime.datetime(2011, 11, 28, 8, 41, 19, 979285)'
p3397
asbasbasbag56
(g72
g58
NtRp3398
(dp3399
g61
(dp3400
sg70
g3328
sg63
(lp3401
g56
(g77
g58
NtRp3402
(dp3403
g61
(dp3404
g81
g82
ssg70
g3398
sg63
(lp3405
S'remember'
p3406
asbag56
(g77
g58
NtRp3407
(dp3408
g61
(dp3409
g88
g89
ssg70
g3398
sg63
(lp3410
S':'
asbag56
(g77
g58
NtRp3411
(dp3412
g61
(dp3413
sg70
g3398
sg63
(lp3414
g56
(g57
g58
NtRp3415
(dp3416
g61
(dp3417
g69
I4
ssg70
g3411
sg63
(lp3418
g1726
asbasbasbag56
(g72
g58
NtRp3419
(dp3420
g61
(dp3421
sg70
g3328
sg63
(lp3422
g56
(g77
g58
NtRp3423
(dp3424
g61
(dp3425
g81
g82
ssg70
g3419
sg63
(lp3426
S'user'
p3427
asbag56
(g77
g58
NtRp3428
(dp3429
g61
(dp3430
g88
g89
ssg70
g3419
sg63
(lp3431
S':'
asbag56
(g77
g58
NtRp3432
(dp3433
g61
(dp3434
sg70
g3419
sg63
(lp3435
g56
(g57
g58
NtRp3436
(dp3437
g61
(dp3438
g69
I4
ssg70
g3432
sg63
(lp3439
g56
(g65
g58
NtRp3440
(dp3441
g61
(dp3442
g69
I3
ssg70
Nsg63
(lp3443
g56
(g72
g58
NtRp3444
(dp3445
g61
(dp3446
sg70
g3440
sg63
(lp3447
g56
(g77
g58
NtRp3448
(dp3449
g61
(dp3450
g81
g82
ssg70
g3444
sg63
(lp3451
S'email'
p3452
asbag56
(g77
g58
NtRp3453
(dp3454
g61
(dp3455
g88
g89
ssg70
g3444
sg63
(lp3456
S':'
asbag56
(g77
g58
NtRp3457
(dp3458
g61
(dp3459
sg70
g3444
sg63
(lp3460
g56
(g57
g58
NtRp3461
(dp3462
g61
(dp3463
g69
I3
ssg70
g3457
sg63
(lp3464
S'scottianw@gmail.com'
p3465
asbasbasbag56
(g72
g58
NtRp3466
(dp3467
g61
(dp3468
sg70
g3440
sg63
(lp3469
g56
(g77
g58
NtRp3470
(dp3471
g61
(dp3472
g81
g82
ssg70
g3466
sg63
(lp3473
S'first_name'
p3474
asbag56
(g77
g58
NtRp3475
(dp3476
g61
(dp3477
g88
g89
ssg70
g3466
sg63
(lp3478
S':'
asbag56
(g77
g58
NtRp3479
(dp3480
g61
(dp3481
sg70
g3466
sg63
(lp3482
g56
(g57
g58
NtRp3483
(dp3484
g61
(dp3485
g69
I3
ssg70
g3479
sg63
(lp3486
S'Ian'
p3487
asbasbasbag56
(g72
g58
NtRp3488
(dp3489
g61
(dp3490
sg70
g3440
sg63
(lp3491
g56
(g77
g58
NtRp3492
(dp3493
g61
(dp3494
g81
g82
ssg70
g3488
sg63
(lp3495
S'id'
p3496
asbag56
(g77
g58
NtRp3497
(dp3498
g61
(dp3499
g88
g89
ssg70
g3488
sg63
(lp3500
S':'
asbag56
(g77
g58
NtRp3501
(dp3502
g61
(dp3503
sg70
g3488
sg63
(lp3504
g56
(g57
g58
NtRp3505
(dp3506
g61
(dp3507
g69
I3
ssg70
g3501
sg63
(lp3508
S'1'
asbasbasbag56
(g72
g58
NtRp3509
(dp3510
g61
(dp3511
sg70
g3440
sg63
(lp3512
g56
(g77
g58
NtRp3513
(dp3514
g61
(dp3515
g81
g82
ssg70
g3509
sg63
(lp3516
S'last_name'
p3517
asbag56
(g77
g58
NtRp3518
(dp3519
g61
(dp3520
g88
g89
ssg70
g3509
sg63
(lp3521
S':'
asbag56
(g77
g58
NtRp3522
(dp3523
g61
(dp3524
sg70
g3509
sg63
(lp3525
g56
(g57
g58
NtRp3526
(dp3527
g61
(dp3528
g69
I3
ssg70
g3522
sg63
(lp3529
S'Scott'
p3530
asbasbasbag56
(g72
g58
NtRp3531
(dp3532
g61
(dp3533
sg70
g3440
sg63
(lp3534
g56
(g77
g58
NtRp3535
(dp3536
g61
(dp3537
g81
g82
ssg70
g3531
sg63
(lp3538
S'password'
p3539
asbag56
(g77
g58
NtRp3540
(dp3541
g61
(dp3542
g88
g89
ssg70
g3531
sg63
(lp3543
S':'
asbag56
(g77
g58
NtRp3544
(dp3545
g61
(dp3546
sg70
g3531
sg63
(lp3547
g56
(g57
g58
NtRp3548
(dp3549
g61
(dp3550
g69
I3
ssg70
g3544
sg63
(lp3551
S'6fb48d01a3959846ba0fe062b1789f17d9cf3d34d3ec5aa948f598bbf4387cb10eb60c797988f41dfea97ee691b338dd77413d430229e401cf7c84e6cd9c4458'
p3552
asbasbasbag56
(g72
g58
NtRp3553
(dp3554
g61
(dp3555
sg70
g3440
sg63
(lp3556
g56
(g77
g58
NtRp3557
(dp3558
g61
(dp3559
g81
g82
ssg70
g3553
sg63
(lp3560
S'registration_key'
p3561
asbag56
(g77
g58
NtRp3562
(dp3563
g61
(dp3564
g88
g89
ssg70
g3553
sg63
(lp3565
S':'
asbag56
(g77
g58
NtRp3566
(dp3567
g61
(dp3568
sg70
g3553
sg63
(lp3569
g56
(g57
g58
NtRp3570
(dp3571
g61
(dp3572
g69
I3
ssg70
g3566
sg63
(lp3573
S''
asbasbasbag56
(g72
g58
NtRp3574
(dp3575
g61
(dp3576
sg70
g3440
sg63
(lp3577
g56
(g77
g58
NtRp3578
(dp3579
g61
(dp3580
g81
g82
ssg70
g3574
sg63
(lp3581
S'reset_password_key'
p3582
asbag56
(g77
g58
NtRp3583
(dp3584
g61
(dp3585
g88
g89
ssg70
g3574
sg63
(lp3586
S':'
asbag56
(g77
g58
NtRp3587
(dp3588
g61
(dp3589
sg70
g3574
sg63
(lp3590
g56
(g57
g58
NtRp3591
(dp3592
g61
(dp3593
g69
I3
ssg70
g3587
sg63
(lp3594
S''
asbasbasbasbasbasbasbasbasbasbasbasbasbsS'etype'
p3595
S"<type 'exceptions.TypeError'>"
p3596
sS'date'
p3597
S'Thu Dec  1 13:35:30 2011'
p3598
sS'response'
p3599
g56
(g57
g58
NtRp3600
(dp3601
g61
(dp3602
sg63
(lp3603
g56
(g65
g58
NtRp3604
(dp3605
g61
(dp3606
g69
I5
ssg70
Nsg63
(lp3607
g56
(g72
g58
NtRp3608
(dp3609
g61
(dp3610
sg70
g3604
sg63
(lp3611
g56
(g77
g58
NtRp3612
(dp3613
g61
(dp3614
g81
g82
ssg70
g3608
sg63
(lp3615
g179
asbag56
(g77
g58
NtRp3616
(dp3617
g61
(dp3618
g88
g89
ssg70
g3608
sg63
(lp3619
S':'
asbag56
(g77
g58
NtRp3620
(dp3621
g61
(dp3622
sg70
g3608
sg63
(lp3623
g56
(g57
g58
NtRp3624
(dp3625
g61
(dp3626
g69
I5
ssg70
g3620
sg63
(lp3627
S'<cStringIO.StringO object at 0x2e4cea0>'
p3628
asbasbasbag56
(g72
g58
NtRp3629
(dp3630
g61
(dp3631
sg70
g3604
sg63
(lp3632
g56
(g77
g58
NtRp3633
(dp3634
g61
(dp3635
g81
g82
ssg70
g3629
sg63
(lp3636
g245
asbag56
(g77
g58
NtRp3637
(dp3638
g61
(dp3639
g88
g89
ssg70
g3629
sg63
(lp3640
S':'
asbag56
(g77
g58
NtRp3641
(dp3642
g61
(dp3643
sg70
g3629
sg63
(lp3644
g56
(g57
g58
NtRp3645
(dp3646
g61
(dp3647
g69
I5
ssg70
g3641
sg63
(lp3648
g56
(g65
g58
NtRp3649
(dp3650
g61
(dp3651
g69
I4
ssg70
Nsg63
(lp3652
g56
(g72
g58
NtRp3653
(dp3654
g61
(dp3655
sg70
g3649
sg63
(lp3656
g56
(g77
g58
NtRp3657
(dp3658
g61
(dp3659
g81
g82
ssg70
g3653
sg63
(lp3660
S'session_id_topoi'
p3661
asbag56
(g77
g58
NtRp3662
(dp3663
g61
(dp3664
g88
g89
ssg70
g3653
sg63
(lp3665
S':'
asbag56
(g77
g58
NtRp3666
(dp3667
g61
(dp3668
sg70
g3653
sg63
(lp3669
g56
(g57
g58
NtRp3670
(dp3671
g61
(dp3672
g69
I4
ssg70
g3666
sg63
(lp3673
g56
(g65
g58
NtRp3674
(dp3675
g61
(dp3676
g69
I3
ssg70
Nsg63
(lp3677
g56
(g72
g58
NtRp3678
(dp3679
g61
(dp3680
sg70
g3674
sg63
(lp3681
g56
(g77
g58
NtRp3682
(dp3683
g61
(dp3684
g81
g82
ssg70
g3678
sg63
(lp3685
g295
asbag56
(g77
g58
NtRp3686
(dp3687
g61
(dp3688
g88
g89
ssg70
g3678
sg63
(lp3689
S':'
asbag56
(g77
g58
NtRp3690
(dp3691
g61
(dp3692
sg70
g3678
sg63
(lp3693
g56
(g57
g58
NtRp3694
(dp3695
g61
(dp3696
g69
I3
ssg70
g3690
sg63
(lp3697
S''
asbasbasbag56
(g72
g58
NtRp3698
(dp3699
g61
(dp3700
sg70
g3674
sg63
(lp3701
g56
(g77
g58
NtRp3702
(dp3703
g61
(dp3704
g81
g82
ssg70
g3698
sg63
(lp3705
g316
asbag56
(g77
g58
NtRp3706
(dp3707
g61
(dp3708
g88
g89
ssg70
g3698
sg63
(lp3709
S':'
asbag56
(g77
g58
NtRp3710
(dp3711
g61
(dp3712
sg70
g3698
sg63
(lp3713
g56
(g57
g58
NtRp3714
(dp3715
g61
(dp3716
g69
I3
ssg70
g3710
sg63
(lp3717
S''
asbasbasbag56
(g72
g58
NtRp3718
(dp3719
g61
(dp3720
sg70
g3674
sg63
(lp3721
g56
(g77
g58
NtRp3722
(dp3723
g61
(dp3724
g81
g82
ssg70
g3718
sg63
(lp3725
g337
asbag56
(g77
g58
NtRp3726
(dp3727
g61
(dp3728
g88
g89
ssg70
g3718
sg63
(lp3729
S':'
asbag56
(g77
g58
NtRp3730
(dp3731
g61
(dp3732
sg70
g3718
sg63
(lp3733
g56
(g57
g58
NtRp3734
(dp3735
g61
(dp3736
g69
I3
ssg70
g3730
sg63
(lp3737
S'2592000'
p3738
asbasbasbag56
(g72
g58
NtRp3739
(dp3740
g61
(dp3741
sg70
g3674
sg63
(lp3742
g56
(g77
g58
NtRp3743
(dp3744
g61
(dp3745
g81
g82
ssg70
g3739
sg63
(lp3746
g358
asbag56
(g77
g58
NtRp3747
(dp3748
g61
(dp3749
g88
g89
ssg70
g3739
sg63
(lp3750
S':'
asbag56
(g77
g58
NtRp3751
(dp3752
g61
(dp3753
sg70
g3739
sg63
(lp3754
g56
(g57
g58
NtRp3755
(dp3756
g61
(dp3757
g69
I3
ssg70
g3751
sg63
(lp3758
S''
asbasbasbag56
(g72
g58
NtRp3759
(dp3760
g61
(dp3761
sg70
g3674
sg63
(lp3762
g56
(g77
g58
NtRp3763
(dp3764
g61
(dp3765
g81
g82
ssg70
g3759
sg63
(lp3766
g379
asbag56
(g77
g58
NtRp3767
(dp3768
g61
(dp3769
g88
g89
ssg70
g3759
sg63
(lp3770
S':'
asbag56
(g77
g58
NtRp3771
(dp3772
g61
(dp3773
sg70
g3759
sg63
(lp3774
g56
(g57
g58
NtRp3775
(dp3776
g61
(dp3777
g69
I3
ssg70
g3771
sg63
(lp3778
S''
asbasbasbag56
(g72
g58
NtRp3779
(dp3780
g61
(dp3781
sg70
g3674
sg63
(lp3782
g56
(g77
g58
NtRp3783
(dp3784
g61
(dp3785
g81
g82
ssg70
g3779
sg63
(lp3786
g400
asbag56
(g77
g58
NtRp3787
(dp3788
g61
(dp3789
g88
g89
ssg70
g3779
sg63
(lp3790
S':'
asbag56
(g77
g58
NtRp3791
(dp3792
g61
(dp3793
sg70
g3779
sg63
(lp3794
g56
(g57
g58
NtRp3795
(dp3796
g61
(dp3797
g69
I3
ssg70
g3791
sg63
(lp3798
S'/'
asbasbasbag56
(g72
g58
NtRp3799
(dp3800
g61
(dp3801
sg70
g3674
sg63
(lp3802
g56
(g77
g58
NtRp3803
(dp3804
g61
(dp3805
g81
g82
ssg70
g3799
sg63
(lp3806
g421
asbag56
(g77
g58
NtRp3807
(dp3808
g61
(dp3809
g88
g89
ssg70
g3799
sg63
(lp3810
S':'
asbag56
(g77
g58
NtRp3811
(dp3812
g61
(dp3813
sg70
g3799
sg63
(lp3814
g56
(g57
g58
NtRp3815
(dp3816
g61
(dp3817
g69
I3
ssg70
g3811
sg63
(lp3818
S''
asbasbasbag56
(g72
g58
NtRp3819
(dp3820
g61
(dp3821
sg70
g3674
sg63
(lp3822
g56
(g77
g58
NtRp3823
(dp3824
g61
(dp3825
g81
g82
ssg70
g3819
sg63
(lp3826
g442
asbag56
(g77
g58
NtRp3827
(dp3828
g61
(dp3829
g88
g89
ssg70
g3819
sg63
(lp3830
S':'
asbag56
(g77
g58
NtRp3831
(dp3832
g61
(dp3833
sg70
g3819
sg63
(lp3834
g56
(g57
g58
NtRp3835
(dp3836
g61
(dp3837
g69
I3
ssg70
g3831
sg63
(lp3838
S''
asbasbasbasbasbasbasbasbasbasbasbag56
(g72
g58
NtRp3839
(dp3840
g61
(dp3841
sg70
g3604
sg63
(lp3842
g56
(g77
g58
NtRp3843
(dp3844
g61
(dp3845
g81
g82
ssg70
g3839
sg63
(lp3846
S'files'
p3847
asbag56
(g77
g58
NtRp3848
(dp3849
g61
(dp3850
g88
g89
ssg70
g3839
sg63
(lp3851
S':'
asbag56
(g77
g58
NtRp3852
(dp3853
g61
(dp3854
sg70
g3839
sg63
(lp3855
g56
(g57
g58
NtRp3856
(dp3857
g61
(dp3858
g69
I5
ssg70
g3852
sg63
(lp3859
g56
(g65
g58
NtRp3860
(dp3861
g61
(dp3862
g69
I4
ssg70
Nsg63
(lp3863
g56
(g72
g58
NtRp3864
(dp3865
g61
(dp3866
sg70
g3860
sg63
(lp3867
g56
(g77
g58
NtRp3868
(dp3869
g61
(dp3870
sg70
g3864
sg63
(lp3871
g56
(g57
g58
NtRp3872
(dp3873
g61
(dp3874
g69
I4
ssg70
g3868
sg63
(lp3875
S'/topoi/static/plugin_listandedit/plugin_listandedit.css'
p3876
asbasbasbag56
(g72
g58
NtRp3877
(dp3878
g61
(dp3879
sg70
g3860
sg63
(lp3880
g56
(g77
g58
NtRp3881
(dp3882
g61
(dp3883
sg70
g3877
sg63
(lp3884
g56
(g57
g58
NtRp3885
(dp3886
g61
(dp3887
g69
I4
ssg70
g3881
sg63
(lp3888
S'/topoi/static/plugin_listandedit/plugin_listandedit.js'
p3889
asbasbasbasbasbasbasbag56
(g72
g58
NtRp3890
(dp3891
g61
(dp3892
sg70
g3604
sg63
(lp3893
g56
(g77
g58
NtRp3894
(dp3895
g61
(dp3896
g81
g82
ssg70
g3890
sg63
(lp3897
S'flash'
p3898
asbag56
(g77
g58
NtRp3899
(dp3900
g61
(dp3901
g88
g89
ssg70
g3890
sg63
(lp3902
S':'
asbag56
(g77
g58
NtRp3903
(dp3904
g61
(dp3905
sg70
g3890
sg63
(lp3906
g56
(g57
g58
NtRp3907
(dp3908
g61
(dp3909
g69
I5
ssg70
g3903
sg63
(lp3910
S''
asbasbasbag56
(g72
g58
NtRp3911
(dp3912
g61
(dp3913
sg70
g3604
sg63
(lp3914
g56
(g77
g58
NtRp3915
(dp3916
g61
(dp3917
g81
g82
ssg70
g3911
sg63
(lp3918
S'generic_patterns'
p3919
asbag56
(g77
g58
NtRp3920
(dp3921
g61
(dp3922
g88
g89
ssg70
g3911
sg63
(lp3923
S':'
asbag56
(g77
g58
NtRp3924
(dp3925
g61
(dp3926
sg70
g3911
sg63
(lp3927
g56
(g57
g58
NtRp3928
(dp3929
g61
(dp3930
g69
I5
ssg70
g3924
sg63
(lp3931
g56
(g65
g58
NtRp3932
(dp3933
g61
(dp3934
g69
I4
ssg70
Nsg63
(lp3935
g56
(g72
g58
NtRp3936
(dp3937
g61
(dp3938
sg70
g3932
sg63
(lp3939
g56
(g77
g58
NtRp3940
(dp3941
g61
(dp3942
sg70
g3936
sg63
(lp3943
g56
(g57
g58
NtRp3944
(dp3945
g61
(dp3946
g69
I4
ssg70
g3940
sg63
(lp3947
S'*'
asbasbasbasbasbasbasbag56
(g72
g58
NtRp3948
(dp3949
g61
(dp3950
sg70
g3604
sg63
(lp3951
g56
(g77
g58
NtRp3952
(dp3953
g61
(dp3954
g81
g82
ssg70
g3948
sg63
(lp3955
S'headers'
p3956
asbag56
(g77
g58
NtRp3957
(dp3958
g61
(dp3959
g88
g89
ssg70
g3948
sg63
(lp3960
S':'
asbag56
(g77
g58
NtRp3961
(dp3962
g61
(dp3963
sg70
g3948
sg63
(lp3964
g56
(g57
g58
NtRp3965
(dp3966
g61
(dp3967
g69
I5
ssg70
g3961
sg63
(lp3968
g56
(g65
g58
NtRp3969
(dp3970
g61
(dp3971
g69
I4
ssg70
Nsg63
(lp3972
g56
(g72
g58
NtRp3973
(dp3974
g61
(dp3975
sg70
g3969
sg63
(lp3976
g56
(g77
g58
NtRp3977
(dp3978
g61
(dp3979
g81
g82
ssg70
g3973
sg63
(lp3980
S'Cache-Control'
p3981
asbag56
(g77
g58
NtRp3982
(dp3983
g61
(dp3984
g88
g89
ssg70
g3973
sg63
(lp3985
S':'
asbag56
(g77
g58
NtRp3986
(dp3987
g61
(dp3988
sg70
g3973
sg63
(lp3989
g56
(g57
g58
NtRp3990
(dp3991
g61
(dp3992
g69
I4
ssg70
g3986
sg63
(lp3993
S'no-store, no-cache, must-revalidate, post-check=0, pre-check=0'
p3994
asbasbasbag56
(g72
g58
NtRp3995
(dp3996
g61
(dp3997
sg70
g3969
sg63
(lp3998
g56
(g77
g58
NtRp3999
(dp4000
g61
(dp4001
g81
g82
ssg70
g3995
sg63
(lp4002
S'Content-Type'
p4003
asbag56
(g77
g58
NtRp4004
(dp4005
g61
(dp4006
g88
g89
ssg70
g3995
sg63
(lp4007
S':'
asbag56
(g77
g58
NtRp4008
(dp4009
g61
(dp4010
sg70
g3995
sg63
(lp4011
g56
(g57
g58
NtRp4012
(dp4013
g61
(dp4014
g69
I4
ssg70
g4008
sg63
(lp4015
S'text/html; charset=utf-8'
p4016
asbasbasbag56
(g72
g58
NtRp4017
(dp4018
g61
(dp4019
sg70
g3969
sg63
(lp4020
g56
(g77
g58
NtRp4021
(dp4022
g61
(dp4023
g81
g82
ssg70
g4017
sg63
(lp4024
S'Expires'
p4025
asbag56
(g77
g58
NtRp4026
(dp4027
g61
(dp4028
g88
g89
ssg70
g4017
sg63
(lp4029
S':'
asbag56
(g77
g58
NtRp4030
(dp4031
g61
(dp4032
sg70
g4017
sg63
(lp4033
g56
(g57
g58
NtRp4034
(dp4035
g61
(dp4036
g69
I4
ssg70
g4030
sg63
(lp4037
S'Thu, 01 Dec 2011 18:35:30 GMT'
p4038
asbasbasbag56
(g72
g58
NtRp4039
(dp4040
g61
(dp4041
sg70
g3969
sg63
(lp4042
g56
(g77
g58
NtRp4043
(dp4044
g61
(dp4045
g81
g82
ssg70
g4039
sg63
(lp4046
S'Pragma'
p4047
asbag56
(g77
g58
NtRp4048
(dp4049
g61
(dp4050
g88
g89
ssg70
g4039
sg63
(lp4051
S':'
asbag56
(g77
g58
NtRp4052
(dp4053
g61
(dp4054
sg70
g4039
sg63
(lp4055
g56
(g57
g58
NtRp4056
(dp4057
g61
(dp4058
g69
I4
ssg70
g4052
sg63
(lp4059
S'no-cache'
p4060
asbasbasbag56
(g72
g58
NtRp4061
(dp4062
g61
(dp4063
sg70
g3969
sg63
(lp4064
g56
(g77
g58
NtRp4065
(dp4066
g61
(dp4067
g81
g82
ssg70
g4061
sg63
(lp4068
S'X-Powered-By'
p4069
asbag56
(g77
g58
NtRp4070
(dp4071
g61
(dp4072
g88
g89
ssg70
g4061
sg63
(lp4073
S':'
asbag56
(g77
g58
NtRp4074
(dp4075
g61
(dp4076
sg70
g4061
sg63
(lp4077
g56
(g57
g58
NtRp4078
(dp4079
g61
(dp4080
g69
I4
ssg70
g4074
sg63
(lp4081
S'web2py'
p4082
asbasbasbasbasbasbasbag56
(g72
g58
NtRp4083
(dp4084
g61
(dp4085
sg70
g3604
sg63
(lp4086
g56
(g77
g58
NtRp4087
(dp4088
g61
(dp4089
g81
g82
ssg70
g4083
sg63
(lp4090
S'menu'
p4091
asbag56
(g77
g58
NtRp4092
(dp4093
g61
(dp4094
g88
g89
ssg70
g4083
sg63
(lp4095
S':'
asbag56
(g77
g58
NtRp4096
(dp4097
g61
(dp4098
sg70
g4083
sg63
(lp4099
g56
(g57
g58
NtRp4100
(dp4101
g61
(dp4102
g69
I5
ssg70
g4096
sg63
(lp4103
g56
(g65
g58
NtRp4104
(dp4105
g61
(dp4106
g69
I4
ssg70
Nsg63
(lp4107
g56
(g72
g58
NtRp4108
(dp4109
g61
(dp4110
sg70
g4104
sg63
(lp4111
g56
(g77
g58
NtRp4112
(dp4113
g61
(dp4114
sg70
g4108
sg63
(lp4115
g56
(g57
g58
NtRp4116
(dp4117
g61
(dp4118
g69
I4
ssg70
g4112
sg63
(lp4119
g56
(g65
g58
NtRp4120
(dp4121
g61
(dp4122
g69
I3
ssg70
Nsg63
(lp4123
g56
(g72
g58
NtRp4124
(dp4125
g61
(dp4126
sg70
g4120
sg63
(lp4127
g56
(g77
g58
NtRp4128
(dp4129
g61
(dp4130
sg70
g4124
sg63
(lp4131
g56
(g57
g58
NtRp4132
(dp4133
g61
(dp4134
g69
I3
ssg70
g4128
sg63
(lp4135
cgluon.languages
lazyT_unpickle
p4136
(S't\x04\x00\x00\x00Home'
tRp4137
asbasbasbag56
(g72
g58
NtRp4138
(dp4139
g61
(dp4140
sg70
g4120
sg63
(lp4141
g56
(g77
g58
NtRp4142
(dp4143
g61
(dp4144
sg70
g4138
sg63
(lp4145
g56
(g57
g58
NtRp4146
(dp4147
g61
(dp4148
g69
I3
ssg70
g4142
sg63
(lp4149
g99
asbasbasbag56
(g72
g58
NtRp4150
(dp4151
g61
(dp4152
sg70
g4120
sg63
(lp4153
g56
(g77
g58
NtRp4154
(dp4155
g61
(dp4156
sg70
g4150
sg63
(lp4157
g56
(g57
g58
NtRp4158
(dp4159
g61
(dp4160
g69
I3
ssg70
g4154
sg63
(lp4161
S'/topoi/default/index'
p4162
asbasbasbag56
(g72
g58
NtRp4163
(dp4164
g61
(dp4165
sg70
g4120
sg63
(lp4166
g56
(g77
g58
NtRp4167
(dp4168
g61
(dp4169
sg70
g4163
sg63
(lp4170
g56
(g57
g58
NtRp4171
(dp4172
g61
(dp4173
g69
I3
ssg70
g4167
sg63
(lp4174
g56
(g65
g58
NtRp4175
(dp4176
g61
(dp4177
g69
I2
ssg70
Nsg63
(lp4178
sbasbasbasbasbasbasbasbag56
(g72
g58
NtRp4179
(dp4180
g61
(dp4181
sg70
g4104
sg63
(lp4182
g56
(g77
g58
NtRp4183
(dp4184
g61
(dp4185
sg70
g4179
sg63
(lp4186
g56
(g57
g58
NtRp4187
(dp4188
g61
(dp4189
g69
I4
ssg70
g4183
sg63
(lp4190
g56
(g65
g58
NtRp4191
(dp4192
g61
(dp4193
g69
I3
ssg70
Nsg63
(lp4194
g56
(g72
g58
NtRp4195
(dp4196
g61
(dp4197
sg70
g4191
sg63
(lp4198
g56
(g77
g58
NtRp4199
(dp4200
g61
(dp4201
sg70
g4195
sg63
(lp4202
g56
(g57
g58
NtRp4203
(dp4204
g61
(dp4205
g69
I3
ssg70
g4199
sg63
(lp4206
g4136
(S's\x08\x00\x00\x00This App'
tRp4207
asbasbasbag56
(g72
g58
NtRp4208
(dp4209
g61
(dp4210
sg70
g4191
sg63
(lp4211
g56
(g77
g58
NtRp4212
(dp4213
g61
(dp4214
sg70
g4208
sg63
(lp4215
g56
(g57
g58
NtRp4216
(dp4217
g61
(dp4218
g69
I3
ssg70
g4212
sg63
(lp4219
g99
asbasbasbag56
(g72
g58
NtRp4220
(dp4221
g61
(dp4222
sg70
g4191
sg63
(lp4223
g56
(g77
g58
NtRp4224
(dp4225
g61
(dp4226
sg70
g4220
sg63
(lp4227
g56
(g57
g58
NtRp4228
(dp4229
g61
(dp4230
g69
I3
ssg70
g4224
sg63
(lp4231
S'/admin/default/design/topoi'
p4232
asbasbasbag56
(g72
g58
NtRp4233
(dp4234
g61
(dp4235
sg70
g4191
sg63
(lp4236
g56
(g77
g58
NtRp4237
(dp4238
g61
(dp4239
sg70
g4233
sg63
(lp4240
g56
(g57
g58
NtRp4241
(dp4242
g61
(dp4243
g69
I3
ssg70
g4237
sg63
(lp4244
g56
(g65
g58
NtRp4245
(dp4246
g61
(dp4247
g69
I2
ssg70
Nsg63
(lp4248
g56
(g72
g58
NtRp4249
(dp4250
g61
(dp4251
sg70
g4245
sg63
(lp4252
g56
(g77
g58
NtRp4253
(dp4254
g61
(dp4255
sg70
g4249
sg63
(lp4256
g56
(g57
g58
NtRp4257
(dp4258
g61
(dp4259
g69
I2
ssg70
g4253
sg63
(lp4260
g56
(g65
g58
NtRp4261
(dp4262
g61
(dp4263
g69
I1
ssg70
Nsg63
(lp4264
g56
(g72
g58
NtRp4265
(dp4266
g61
(dp4267
sg70
g4261
sg63
(lp4268
g56
(g77
g58
NtRp4269
(dp4270
g61
(dp4271
sg70
g4265
sg63
(lp4272
g56
(g57
g58
NtRp4273
(dp4274
g61
(dp4275
g69
I1
ssg70
g4269
sg63
(lp4276
g4136
(S't\n\x00\x00\x00Controller'
tRp4277
asbasbasbag56
(g72
g58
NtRp4278
(dp4279
g61
(dp4280
sg70
g4261
sg63
(lp4281
g56
(g77
g58
NtRp4282
(dp4283
g61
(dp4284
sg70
g4278
sg63
(lp4285
g56
(g57
g58
NtRp4286
(dp4287
g61
(dp4288
g69
I1
ssg70
g4282
sg63
(lp4289
I00
asbasbasbag56
(g72
g58
NtRp4290
(dp4291
g61
(dp4292
sg70
g4261
sg63
(lp4293
g56
(g77
g58
NtRp4294
(dp4295
g61
(dp4296
sg70
g4290
sg63
(lp4297
g56
(g57
g58
NtRp4298
(dp4299
g61
(dp4300
g69
I1
ssg70
g4294
sg63
(lp4301
S'/admin/default/edit/topoi/controllers/plugin_listandedit.py'
p4302
asbasbasbasbasbasbasbag56
(g72
g58
NtRp4303
(dp4304
g61
(dp4305
sg70
g4245
sg63
(lp4306
g56
(g77
g58
NtRp4307
(dp4308
g61
(dp4309
sg70
g4303
sg63
(lp4310
g56
(g57
g58
NtRp4311
(dp4312
g61
(dp4313
g69
I2
ssg70
g4307
sg63
(lp4314
g56
(g65
g58
NtRp4315
(dp4316
g61
(dp4317
g69
I1
ssg70
Nsg63
(lp4318
g56
(g72
g58
NtRp4319
(dp4320
g61
(dp4321
sg70
g4315
sg63
(lp4322
g56
(g77
g58
NtRp4323
(dp4324
g61
(dp4325
sg70
g4319
sg63
(lp4326
g56
(g57
g58
NtRp4327
(dp4328
g61
(dp4329
g69
I1
ssg70
g4323
sg63
(lp4330
g4136
(S't\x04\x00\x00\x00View'
tRp4331
asbasbasbag56
(g72
g58
NtRp4332
(dp4333
g61
(dp4334
sg70
g4315
sg63
(lp4335
g56
(g77
g58
NtRp4336
(dp4337
g61
(dp4338
sg70
g4332
sg63
(lp4339
g56
(g57
g58
NtRp4340
(dp4341
g61
(dp4342
g69
I1
ssg70
g4336
sg63
(lp4343
I00
asbasbasbag56
(g72
g58
NtRp4344
(dp4345
g61
(dp4346
sg70
g4315
sg63
(lp4347
g56
(g77
g58
NtRp4348
(dp4349
g61
(dp4350
sg70
g4344
sg63
(lp4351
g56
(g57
g58
NtRp4352
(dp4353
g61
(dp4354
g69
I1
ssg70
g4348
sg63
(lp4355
S'/admin/default/edit/topoi/views/plugin_listandedit/list.html'
p4356
asbasbasbasbasbasbasbag56
(g72
g58
NtRp4357
(dp4358
g61
(dp4359
sg70
g4245
sg63
(lp4360
g56
(g77
g58
NtRp4361
(dp4362
g61
(dp4363
sg70
g4357
sg63
(lp4364
g56
(g57
g58
NtRp4365
(dp4366
g61
(dp4367
g69
I2
ssg70
g4361
sg63
(lp4368
g56
(g65
g58
NtRp4369
(dp4370
g61
(dp4371
g69
I1
ssg70
Nsg63
(lp4372
g56
(g72
g58
NtRp4373
(dp4374
g61
(dp4375
sg70
g4369
sg63
(lp4376
g56
(g77
g58
NtRp4377
(dp4378
g61
(dp4379
sg70
g4373
sg63
(lp4380
g56
(g57
g58
NtRp4381
(dp4382
g61
(dp4383
g69
I1
ssg70
g4377
sg63
(lp4384
g4136
(S't\x06\x00\x00\x00Layout'
tRp4385
asbasbasbag56
(g72
g58
NtRp4386
(dp4387
g61
(dp4388
sg70
g4369
sg63
(lp4389
g56
(g77
g58
NtRp4390
(dp4391
g61
(dp4392
sg70
g4386
sg63
(lp4393
g56
(g57
g58
NtRp4394
(dp4395
g61
(dp4396
g69
I1
ssg70
g4390
sg63
(lp4397
I00
asbasbasbag56
(g72
g58
NtRp4398
(dp4399
g61
(dp4400
sg70
g4369
sg63
(lp4401
g56
(g77
g58
NtRp4402
(dp4403
g61
(dp4404
sg70
g4398
sg63
(lp4405
g56
(g57
g58
NtRp4406
(dp4407
g61
(dp4408
g69
I1
ssg70
g4402
sg63
(lp4409
S'/admin/default/edit/topoi/views/layout.html'
p4410
asbasbasbasbasbasbasbag56
(g72
g58
NtRp4411
(dp4412
g61
(dp4413
sg70
g4245
sg63
(lp4414
g56
(g77
g58
NtRp4415
(dp4416
g61
(dp4417
sg70
g4411
sg63
(lp4418
g56
(g57
g58
NtRp4419
(dp4420
g61
(dp4421
g69
I2
ssg70
g4415
sg63
(lp4422
g56
(g65
g58
NtRp4423
(dp4424
g61
(dp4425
g69
I1
ssg70
Nsg63
(lp4426
g56
(g72
g58
NtRp4427
(dp4428
g61
(dp4429
sg70
g4423
sg63
(lp4430
g56
(g77
g58
NtRp4431
(dp4432
g61
(dp4433
sg70
g4427
sg63
(lp4434
g56
(g57
g58
NtRp4435
(dp4436
g61
(dp4437
g69
I1
ssg70
g4431
sg63
(lp4438
g4136
(S't\n\x00\x00\x00Stylesheet'
tRp4439
asbasbasbag56
(g72
g58
NtRp4440
(dp4441
g61
(dp4442
sg70
g4423
sg63
(lp4443
g56
(g77
g58
NtRp4444
(dp4445
g61
(dp4446
sg70
g4440
sg63
(lp4447
g56
(g57
g58
NtRp4448
(dp4449
g61
(dp4450
g69
I1
ssg70
g4444
sg63
(lp4451
I00
asbasbasbag56
(g72
g58
NtRp4452
(dp4453
g61
(dp4454
sg70
g4423
sg63
(lp4455
g56
(g77
g58
NtRp4456
(dp4457
g61
(dp4458
sg70
g4452
sg63
(lp4459
g56
(g57
g58
NtRp4460
(dp4461
g61
(dp4462
g69
I1
ssg70
g4456
sg63
(lp4463
S'/admin/default/edit/topoi/static/base.css'
p4464
asbasbasbasbasbasbasbag56
(g72
g58
NtRp4465
(dp4466
g61
(dp4467
sg70
g4245
sg63
(lp4468
g56
(g77
g58
NtRp4469
(dp4470
g61
(dp4471
sg70
g4465
sg63
(lp4472
g56
(g57
g58
NtRp4473
(dp4474
g61
(dp4475
g69
I2
ssg70
g4469
sg63
(lp4476
g56
(g65
g58
NtRp4477
(dp4478
g61
(dp4479
g69
I1
ssg70
Nsg63
(lp4480
g56
(g72
g58
NtRp4481
(dp4482
g61
(dp4483
sg70
g4477
sg63
(lp4484
g56
(g77
g58
NtRp4485
(dp4486
g61
(dp4487
sg70
g4481
sg63
(lp4488
g56
(g57
g58
NtRp4489
(dp4490
g61
(dp4491
g69
I1
ssg70
g4485
sg63
(lp4492
g4136
(S's\x08\x00\x00\x00DB Model'
tRp4493
asbasbasbag56
(g72
g58
NtRp4494
(dp4495
g61
(dp4496
sg70
g4477
sg63
(lp4497
g56
(g77
g58
NtRp4498
(dp4499
g61
(dp4500
sg70
g4494
sg63
(lp4501
g56
(g57
g58
NtRp4502
(dp4503
g61
(dp4504
g69
I1
ssg70
g4498
sg63
(lp4505
I00
asbasbasbag56
(g72
g58
NtRp4506
(dp4507
g61
(dp4508
sg70
g4477
sg63
(lp4509
g56
(g77
g58
NtRp4510
(dp4511
g61
(dp4512
sg70
g4506
sg63
(lp4513
g56
(g57
g58
NtRp4514
(dp4515
g61
(dp4516
g69
I1
ssg70
g4510
sg63
(lp4517
S'/admin/default/edit/topoi/models/db.py'
p4518
asbasbasbasbasbasbasbag56
(g72
g58
NtRp4519
(dp4520
g61
(dp4521
sg70
g4245
sg63
(lp4522
g56
(g77
g58
NtRp4523
(dp4524
g61
(dp4525
sg70
g4519
sg63
(lp4526
g56
(g57
g58
NtRp4527
(dp4528
g61
(dp4529
g69
I2
ssg70
g4523
sg63
(lp4530
g56
(g65
g58
NtRp4531
(dp4532
g61
(dp4533
g69
I1
ssg70
Nsg63
(lp4534
g56
(g72
g58
NtRp4535
(dp4536
g61
(dp4537
sg70
g4531
sg63
(lp4538
g56
(g77
g58
NtRp4539
(dp4540
g61
(dp4541
sg70
g4535
sg63
(lp4542
g56
(g57
g58
NtRp4543
(dp4544
g61
(dp4545
g69
I1
ssg70
g4539
sg63
(lp4546
g4136
(S's\n\x00\x00\x00Menu Model'
tRp4547
asbasbasbag56
(g72
g58
NtRp4548
(dp4549
g61
(dp4550
sg70
g4531
sg63
(lp4551
g56
(g77
g58
NtRp4552
(dp4553
g61
(dp4554
sg70
g4548
sg63
(lp4555
g56
(g57
g58
NtRp4556
(dp4557
g61
(dp4558
g69
I1
ssg70
g4552
sg63
(lp4559
I00
asbasbasbag56
(g72
g58
NtRp4560
(dp4561
g61
(dp4562
sg70
g4531
sg63
(lp4563
g56
(g77
g58
NtRp4564
(dp4565
g61
(dp4566
sg70
g4560
sg63
(lp4567
g56
(g57
g58
NtRp4568
(dp4569
g61
(dp4570
g69
I1
ssg70
g4564
sg63
(lp4571
S'/admin/default/edit/topoi/models/menu.py'
p4572
asbasbasbasbasbasbasbag56
(g72
g58
NtRp4573
(dp4574
g61
(dp4575
sg70
g4245
sg63
(lp4576
g56
(g77
g58
NtRp4577
(dp4578
g61
(dp4579
sg70
g4573
sg63
(lp4580
g56
(g57
g58
NtRp4581
(dp4582
g61
(dp4583
g69
I2
ssg70
g4577
sg63
(lp4584
g56
(g65
g58
NtRp4585
(dp4586
g61
(dp4587
g69
I1
ssg70
Nsg63
(lp4588
g56
(g72
g58
NtRp4589
(dp4590
g61
(dp4591
sg70
g4585
sg63
(lp4592
g56
(g77
g58
NtRp4593
(dp4594
g61
(dp4595
sg70
g4589
sg63
(lp4596
g56
(g57
g58
NtRp4597
(dp4598
g61
(dp4599
g69
I1
ssg70
g4593
sg63
(lp4600
g4136
(S't\x08\x00\x00\x00Database'
tRp4601
asbasbasbag56
(g72
g58
NtRp4602
(dp4603
g61
(dp4604
sg70
g4585
sg63
(lp4605
g56
(g77
g58
NtRp4606
(dp4607
g61
(dp4608
sg70
g4602
sg63
(lp4609
g56
(g57
g58
NtRp4610
(dp4611
g61
(dp4612
g69
I1
ssg70
g4606
sg63
(lp4613
I00
asbasbasbag56
(g72
g58
NtRp4614
(dp4615
g61
(dp4616
sg70
g4585
sg63
(lp4617
g56
(g77
g58
NtRp4618
(dp4619
g61
(dp4620
sg70
g4614
sg63
(lp4621
g56
(g57
g58
NtRp4622
(dp4623
g61
(dp4624
g69
I1
ssg70
g4618
sg63
(lp4625
S'/topoi/appadmin/index'
p4626
asbasbasbasbasbasbasbag56
(g72
g58
NtRp4627
(dp4628
g61
(dp4629
sg70
g4245
sg63
(lp4630
g56
(g77
g58
NtRp4631
(dp4632
g61
(dp4633
sg70
g4627
sg63
(lp4634
g56
(g57
g58
NtRp4635
(dp4636
g61
(dp4637
g69
I2
ssg70
g4631
sg63
(lp4638
g56
(g65
g58
NtRp4639
(dp4640
g61
(dp4641
g69
I1
ssg70
Nsg63
(lp4642
g56
(g72
g58
NtRp4643
(dp4644
g61
(dp4645
sg70
g4639
sg63
(lp4646
g56
(g77
g58
NtRp4647
(dp4648
g61
(dp4649
sg70
g4643
sg63
(lp4650
g56
(g57
g58
NtRp4651
(dp4652
g61
(dp4653
g69
I1
ssg70
g4647
sg63
(lp4654
g4136
(S't\x06\x00\x00\x00Errors'
tRp4655
asbasbasbag56
(g72
g58
NtRp4656
(dp4657
g61
(dp4658
sg70
g4639
sg63
(lp4659
g56
(g77
g58
NtRp4660
(dp4661
g61
(dp4662
sg70
g4656
sg63
(lp4663
g56
(g57
g58
NtRp4664
(dp4665
g61
(dp4666
g69
I1
ssg70
g4660
sg63
(lp4667
I00
asbasbasbag56
(g72
g58
NtRp4668
(dp4669
g61
(dp4670
sg70
g4639
sg63
(lp4671
g56
(g77
g58
NtRp4672
(dp4673
g61
(dp4674
sg70
g4668
sg63
(lp4675
g56
(g57
g58
NtRp4676
(dp4677
g61
(dp4678
g69
I1
ssg70
g4672
sg63
(lp4679
S'/admin/default/errors/topoi'
p4680
asbasbasbasbasbasbasbag56
(g72
g58
NtRp4681
(dp4682
g61
(dp4683
sg70
g4245
sg63
(lp4684
g56
(g77
g58
NtRp4685
(dp4686
g61
(dp4687
sg70
g4681
sg63
(lp4688
g56
(g57
g58
NtRp4689
(dp4690
g61
(dp4691
g69
I2
ssg70
g4685
sg63
(lp4692
g56
(g65
g58
NtRp4693
(dp4694
g61
(dp4695
g69
I1
ssg70
Nsg63
(lp4696
g56
(g72
g58
NtRp4697
(dp4698
g61
(dp4699
sg70
g4693
sg63
(lp4700
g56
(g77
g58
NtRp4701
(dp4702
g61
(dp4703
sg70
g4697
sg63
(lp4704
g56
(g57
g58
NtRp4705
(dp4706
g61
(dp4707
g69
I1
ssg70
g4701
sg63
(lp4708
g4136
(S't\x05\x00\x00\x00About'
tRp4709
asbasbasbag56
(g72
g58
NtRp4710
(dp4711
g61
(dp4712
sg70
g4693
sg63
(lp4713
g56
(g77
g58
NtRp4714
(dp4715
g61
(dp4716
sg70
g4710
sg63
(lp4717
g56
(g57
g58
NtRp4718
(dp4719
g61
(dp4720
g69
I1
ssg70
g4714
sg63
(lp4721
I00
asbasbasbag56
(g72
g58
NtRp4722
(dp4723
g61
(dp4724
sg70
g4693
sg63
(lp4725
g56
(g77
g58
NtRp4726
(dp4727
g61
(dp4728
sg70
g4722
sg63
(lp4729
g56
(g57
g58
NtRp4730
(dp4731
g61
(dp4732
g69
I1
ssg70
g4726
sg63
(lp4733
S'/admin/default/about/topoi'
p4734
asbasbasbasbasbasbasbasbasbasbasbasbasbasbasbasbasbasbasbag56
(g72
g58
NtRp4735
(dp4736
g61
(dp4737
sg70
g3604
sg63
(lp4738
g56
(g77
g58
NtRp4739
(dp4740
g61
(dp4741
g81
g82
ssg70
g4735
sg63
(lp4742
S'meta'
p4743
asbag56
(g77
g58
NtRp4744
(dp4745
g61
(dp4746
g88
g89
ssg70
g4735
sg63
(lp4747
S':'
asbag56
(g77
g58
NtRp4748
(dp4749
g61
(dp4750
sg70
g4735
sg63
(lp4751
g56
(g57
g58
NtRp4752
(dp4753
g61
(dp4754
g69
I5
ssg70
g4748
sg63
(lp4755
g56
(g65
g58
NtRp4756
(dp4757
g61
(dp4758
g69
I4
ssg70
Nsg63
(lp4759
g56
(g72
g58
NtRp4760
(dp4761
g61
(dp4762
sg70
g4756
sg63
(lp4763
g56
(g77
g58
NtRp4764
(dp4765
g61
(dp4766
g81
g82
ssg70
g4760
sg63
(lp4767
S'author'
p4768
asbag56
(g77
g58
NtRp4769
(dp4770
g61
(dp4771
g88
g89
ssg70
g4760
sg63
(lp4772
S':'
asbag56
(g77
g58
NtRp4773
(dp4774
g61
(dp4775
sg70
g4760
sg63
(lp4776
g56
(g57
g58
NtRp4777
(dp4778
g61
(dp4779
g69
I4
ssg70
g4773
sg63
(lp4780
S'Ian W. Scott'
p4781
asbasbasbag56
(g72
g58
NtRp4782
(dp4783
g61
(dp4784
sg70
g4756
sg63
(lp4785
g56
(g77
g58
NtRp4786
(dp4787
g61
(dp4788
g81
g82
ssg70
g4782
sg63
(lp4789
S'copyright'
p4790
asbag56
(g77
g58
NtRp4791
(dp4792
g61
(dp4793
g88
g89
ssg70
g4782
sg63
(lp4794
S':'
asbag56
(g77
g58
NtRp4795
(dp4796
g61
(dp4797
sg70
g4782
sg63
(lp4798
g56
(g57
g58
NtRp4799
(dp4800
g61
(dp4801
g69
I4
ssg70
g4795
sg63
(lp4802
S'Copyright 2011'
p4803
asbasbasbag56
(g72
g58
NtRp4804
(dp4805
g61
(dp4806
sg70
g4756
sg63
(lp4807
g56
(g77
g58
NtRp4808
(dp4809
g61
(dp4810
g81
g82
ssg70
g4804
sg63
(lp4811
S'description'
p4812
asbag56
(g77
g58
NtRp4813
(dp4814
g61
(dp4815
g88
g89
ssg70
g4804
sg63
(lp4816
S':'
asbag56
(g77
g58
NtRp4817
(dp4818
g61
(dp4819
sg70
g4804
sg63
(lp4820
g56
(g57
g58
NtRp4821
(dp4822
g61
(dp4823
g69
I4
ssg70
g4817
sg63
(lp4824
S'A web-app for managing primary-text research in the humanities.'
p4825
asbasbasbag56
(g72
g58
NtRp4826
(dp4827
g61
(dp4828
sg70
g4756
sg63
(lp4829
g56
(g77
g58
NtRp4830
(dp4831
g61
(dp4832
g81
g82
ssg70
g4826
sg63
(lp4833
S'generator'
p4834
asbag56
(g77
g58
NtRp4835
(dp4836
g61
(dp4837
g88
g89
ssg70
g4826
sg63
(lp4838
S':'
asbag56
(g77
g58
NtRp4839
(dp4840
g61
(dp4841
sg70
g4826
sg63
(lp4842
g56
(g57
g58
NtRp4843
(dp4844
g61
(dp4845
g69
I4
ssg70
g4839
sg63
(lp4846
S'Web2py Enterprise Framework'
p4847
asbasbasbag56
(g72
g58
NtRp4848
(dp4849
g61
(dp4850
sg70
g4756
sg63
(lp4851
g56
(g77
g58
NtRp4852
(dp4853
g61
(dp4854
g81
g82
ssg70
g4848
sg63
(lp4855
S'keywords'
p4856
asbag56
(g77
g58
NtRp4857
(dp4858
g61
(dp4859
g88
g89
ssg70
g4848
sg63
(lp4860
S':'
asbag56
(g77
g58
NtRp4861
(dp4862
g61
(dp4863
sg70
g4848
sg63
(lp4864
g56
(g57
g58
NtRp4865
(dp4866
g61
(dp4867
g69
I4
ssg70
g4861
sg63
(lp4868
S'research, humanities, biblical'
p4869
asbasbasbasbasbasbasbag56
(g72
g58
NtRp4870
(dp4871
g61
(dp4872
sg70
g3604
sg63
(lp4873
g56
(g77
g58
NtRp4874
(dp4875
g61
(dp4876
g81
g82
ssg70
g4870
sg63
(lp4877
S'postprocessing'
p4878
asbag56
(g77
g58
NtRp4879
(dp4880
g61
(dp4881
g88
g89
ssg70
g4870
sg63
(lp4882
S':'
asbag56
(g77
g58
NtRp4883
(dp4884
g61
(dp4885
sg70
g4870
sg63
(lp4886
g56
(g57
g58
NtRp4887
(dp4888
g61
(dp4889
g69
I5
ssg70
g4883
sg63
(lp4890
g56
(g65
g58
NtRp4891
(dp4892
g61
(dp4893
g69
I4
ssg70
Nsg63
(lp4894
sbasbasbasbag56
(g72
g58
NtRp4895
(dp4896
g61
(dp4897
sg70
g3604
sg63
(lp4898
g56
(g77
g58
NtRp4899
(dp4900
g61
(dp4901
g81
g82
ssg70
g4895
sg63
(lp4902
S'session_file'
p4903
asbag56
(g77
g58
NtRp4904
(dp4905
g61
(dp4906
g88
g89
ssg70
g4895
sg63
(lp4907
S':'
asbag56
(g77
g58
NtRp4908
(dp4909
g61
(dp4910
sg70
g4895
sg63
(lp4911
g56
(g57
g58
NtRp4912
(dp4913
g61
(dp4914
g69
I5
ssg70
g4908
sg63
(lp4915
S"<open file '/home/ian/web2py/applications/topoi/sessions/127.0.0.1-af13e654-cdbc-4583-8d75-e46cda6f6e34', mode 'rb+' at 0x3a19db0>"
p4916
asbasbasbag56
(g72
g58
NtRp4917
(dp4918
g61
(dp4919
sg70
g3604
sg63
(lp4920
g56
(g77
g58
NtRp4921
(dp4922
g61
(dp4923
g81
g82
ssg70
g4917
sg63
(lp4924
S'session_filename'
p4925
asbag56
(g77
g58
NtRp4926
(dp4927
g61
(dp4928
g88
g89
ssg70
g4917
sg63
(lp4929
S':'
asbag56
(g77
g58
NtRp4930
(dp4931
g61
(dp4932
sg70
g4917
sg63
(lp4933
g56
(g57
g58
NtRp4934
(dp4935
g61
(dp4936
g69
I5
ssg70
g4930
sg63
(lp4937
S'/home/ian/web2py/applications/topoi/sessions/127.0.0.1-af13e654-cdbc-4583-8d75-e46cda6f6e34'
p4938
asbasbasbag56
(g72
g58
NtRp4939
(dp4940
g61
(dp4941
sg70
g3604
sg63
(lp4942
g56
(g77
g58
NtRp4943
(dp4944
g61
(dp4945
g81
g82
ssg70
g4939
sg63
(lp4946
S'session_id'
p4947
asbag56
(g77
g58
NtRp4948
(dp4949
g61
(dp4950
g88
g89
ssg70
g4939
sg63
(lp4951
S':'
asbag56
(g77
g58
NtRp4952
(dp4953
g61
(dp4954
sg70
g4939
sg63
(lp4955
g56
(g57
g58
NtRp4956
(dp4957
g61
(dp4958
g69
I5
ssg70
g4952
sg63
(lp4959
S'127.0.0.1-af13e654-cdbc-4583-8d75-e46cda6f6e34'
p4960
asbasbasbag56
(g72
g58
NtRp4961
(dp4962
g61
(dp4963
sg70
g3604
sg63
(lp4964
g56
(g77
g58
NtRp4965
(dp4966
g61
(dp4967
g81
g82
ssg70
g4961
sg63
(lp4968
S'session_id_name'
p4969
asbag56
(g77
g58
NtRp4970
(dp4971
g61
(dp4972
g88
g89
ssg70
g4961
sg63
(lp4973
S':'
asbag56
(g77
g58
NtRp4974
(dp4975
g61
(dp4976
sg70
g4961
sg63
(lp4977
g56
(g57
g58
NtRp4978
(dp4979
g61
(dp4980
g69
I5
ssg70
g4974
sg63
(lp4981
g3661
asbasbasbag56
(g72
g58
NtRp4982
(dp4983
g61
(dp4984
sg70
g3604
sg63
(lp4985
g56
(g77
g58
NtRp4986
(dp4987
g61
(dp4988
g81
g82
ssg70
g4982
sg63
(lp4989
S'session_locked'
p4990
asbag56
(g77
g58
NtRp4991
(dp4992
g61
(dp4993
g88
g89
ssg70
g4982
sg63
(lp4994
S':'
asbag56
(g77
g58
NtRp4995
(dp4996
g61
(dp4997
sg70
g4982
sg63
(lp4998
g56
(g57
g58
NtRp4999
(dp5000
g61
(dp5001
g69
I5
ssg70
g4995
sg63
(lp5002
g1726
asbasbasbag56
(g72
g58
NtRp5003
(dp5004
g61
(dp5005
sg70
g3604
sg63
(lp5006
g56
(g77
g58
NtRp5007
(dp5008
g61
(dp5009
g81
g82
ssg70
g5003
sg63
(lp5010
S'session_new'
p5011
asbag56
(g77
g58
NtRp5012
(dp5013
g61
(dp5014
g88
g89
ssg70
g5003
sg63
(lp5015
S':'
asbag56
(g77
g58
NtRp5016
(dp5017
g61
(dp5018
sg70
g5003
sg63
(lp5019
g56
(g57
g58
NtRp5020
(dp5021
g61
(dp5022
g69
I5
ssg70
g5016
sg63
(lp5023
g99
asbasbasbag56
(g72
g58
NtRp5024
(dp5025
g61
(dp5026
sg70
g3604
sg63
(lp5027
g56
(g77
g58
NtRp5028
(dp5029
g61
(dp5030
g81
g82
ssg70
g5024
sg63
(lp5031
S'status'
p5032
asbag56
(g77
g58
NtRp5033
(dp5034
g61
(dp5035
g88
g89
ssg70
g5024
sg63
(lp5036
S':'
asbag56
(g77
g58
NtRp5037
(dp5038
g61
(dp5039
sg70
g5024
sg63
(lp5040
g56
(g57
g58
NtRp5041
(dp5042
g61
(dp5043
g69
I5
ssg70
g5037
sg63
(lp5044
S'200'
p5045
asbasbasbag56
(g72
g58
NtRp5046
(dp5047
g61
(dp5048
sg70
g3604
sg63
(lp5049
g56
(g77
g58
NtRp5050
(dp5051
g61
(dp5052
g81
g82
ssg70
g5046
sg63
(lp5053
S'subtitle'
p5054
asbag56
(g77
g58
NtRp5055
(dp5056
g61
(dp5057
g88
g89
ssg70
g5046
sg63
(lp5058
S':'
asbag56
(g77
g58
NtRp5059
(dp5060
g61
(dp5061
sg70
g5046
sg63
(lp5062
g56
(g57
g58
NtRp5063
(dp5064
g61
(dp5065
g69
I5
ssg70
g5059
sg63
(lp5066
g4136
(S's;\x00\x00\x00A tool for managing primary-text research in the humanities'
tRp5067
asbasbasbag56
(g72
g58
NtRp5068
(dp5069
g61
(dp5070
sg70
g3604
sg63
(lp5071
g56
(g77
g58
NtRp5072
(dp5073
g61
(dp5074
g81
g82
ssg70
g5068
sg63
(lp5075
S'title'
p5076
asbag56
(g77
g58
NtRp5077
(dp5078
g61
(dp5079
g88
g89
ssg70
g5068
sg63
(lp5080
S':'
asbag56
(g77
g58
NtRp5081
(dp5082
g61
(dp5083
sg70
g5068
sg63
(lp5084
g56
(g57
g58
NtRp5085
(dp5086
g61
(dp5087
g69
I5
ssg70
g5081
sg63
(lp5088
g121
asbasbasbag56
(g72
g58
NtRp5089
(dp5090
g61
(dp5091
sg70
g3604
sg63
(lp5092
g56
(g77
g58
NtRp5093
(dp5094
g61
(dp5095
g81
g82
ssg70
g5089
sg63
(lp5096
g2456
asbag56
(g77
g58
NtRp5097
(dp5098
g61
(dp5099
g88
g89
ssg70
g5089
sg63
(lp5100
S':'
asbag56
(g77
g58
NtRp5101
(dp5102
g61
(dp5103
sg70
g5089
sg63
(lp5104
g56
(g57
g58
NtRp5105
(dp5106
g61
(dp5107
g69
I5
ssg70
g5101
sg63
(lp5108
g2469
asbasbasbag56
(g72
g58
NtRp5109
(dp5110
g61
(dp5111
sg70
g3604
sg63
(lp5112
g56
(g77
g58
NtRp5113
(dp5114
g61
(dp5115
g81
g82
ssg70
g5109
sg63
(lp5116
S'view'
p5117
asbag56
(g77
g58
NtRp5118
(dp5119
g61
(dp5120
g88
g89
ssg70
g5109
sg63
(lp5121
S':'
asbag56
(g77
g58
NtRp5122
(dp5123
g61
(dp5124
sg70
g5109
sg63
(lp5125
g56
(g57
g58
NtRp5126
(dp5127
g61
(dp5128
g69
I5
ssg70
g5122
sg63
(lp5129
S'plugin_listandedit/list.html'
p5130
asbasbasbasbasbsS'locals'
p5131
(dp5132
S'listformat'
p5133
S"''"
p5134
sS'f'
S"'author'"
p5135
sS'tablename'
p5136
S"'notes'"
p5137
sS'rowlist'
p5138
S'<gluon.dal.Rows object>'
p5139
sS'fieldnames'
p5140
S"['author', 'work', 'reference']"
p5141
sS'r'
S"<Row {'body': '', 'reference': '69d.4', 'author'...elete_record': <function <lambda> at 0x379f578>}>"
p5142
sS'tb'
p5143
S"<Table {'reference': <gluon.dal.Field object at ...>, '_id': <gluon.dal.Field object at 0x447e210>}>"
p5144
sS'listset'
p5145
S'[]'
p5146
sssS'traceback'
p5147
S'Traceback (most recent call last):\n  File "/home/ian/web2py/gluon/restricted.py", line 194, in restricted\n    exec ccode in environment\n  File "/home/ian/web2py/applications/topoi/controllers/plugin_listandedit.py", line 42, in <module>\n  File "/home/ian/web2py/gluon/globals.py", line 149, in <lambda>\n    self._caller = lambda f: f()\n  File "/home/ian/web2py/applications/topoi/controllers/plugin_listandedit.py", line 25, in list\n    if tb.fields[f].type == \'reference\':\nTypeError: list indices must be integers, not str\n'
p5148
s.