(dp1
S'output'
p2
S''
sS'layer'
p3
S'/home/ian/web2py/applications/topoi/controllers/plugin_listandedit.py'
p4
sS'code'
p5
S'# coding: utf8\n\ndef list():\n    """\n    API: Takes two required arguments. The first is the name of the table being listed, and the second is the id of the project.\n    Takes one required variable in the URL request: a dictionary with at least one item with the index \'fields\'. The value of request.vars[fields] provides the fields to be used to represent each record in the list.\n    """\n    response.files.append(URL(\'static\', \'plugin_listandedit/plugin_listandedit.css\'))\n    response.files.append(URL(\'static\', \'plugin_listandedit/plugin_listandedit.js\'))\n\n    tablename = request.args[0]\n    fieldnames = request.vars[\'fields\']\n\n    rowlist = \'\'\n    if not tablename in db.tables():\n        response.flash = \'Sorry, you are trying to list entries from a table that does not exist in the database.\'\n    else:\n        tb = db[tablename]\n        rowlist = db((tb.author == db.authors.id) & (tb.work == db.works.id)).select()\n        print rowlist\n\n    listset = []\n    for r in rowlist:\n        #FIXME: I need to get these values programmatically from vars[\'fields\']\n        listformat = r.authors.name, \', \', r.works.title, \', \', r.notes.reference\n\n        i = A(listformat, _href=URL(\'plugin_listandedit\', \'edit.load\', args=[tablename, r.notes.id]), _class=\'plugin_listandedit_list\', cid=\'viewpane\')\n        listset.append(i)\n\n    return dict(listset = listset)\n\ndef edit():\n    tablename = request.args[0]\n    rowid = request.args[1]\n    formname = \'%s/%s\' % (tablename, rowid)\n\n    form = SQLFORM(db[tablename], rowid)\n    if form.process().accepted():\n        response.flash = \'form accepted\'\n    else:\n        response.flash = \'something went wrong\'\n\n    return dict(form = form)\n\nresponse._vars=response._caller(edit)\n'
p6
sS'snapshot'
p7
(dp8
S'exception'
p9
(dp10
S'__hash__'
p11
S"<method-wrapper '__hash__' of exceptions.TypeError object>"
p12
sS'__setattr__'
p13
S"<method-wrapper '__setattr__' of exceptions.TypeError object>"
p14
sS'__reduce_ex__'
p15
S'<built-in method __reduce_ex__ of exceptions.TypeError object>'
p16
sS'__getslice__'
p17
S"<method-wrapper '__getslice__' of exceptions.TypeError object>"
p18
sS'__getitem__'
p19
S"<method-wrapper '__getitem__' of exceptions.TypeError object>"
p20
sS'__setstate__'
p21
S'<built-in method __setstate__ of exceptions.TypeError object>'
p22
sS'args'
p23
S'("\'bool\' object is not callable",)'
p24
sS'__reduce__'
p25
S'<built-in method __reduce__ of exceptions.TypeError object>'
p26
sS'__str__'
p27
S"<method-wrapper '__str__' of exceptions.TypeError object>"
p28
sS'__format__'
p29
S'<built-in method __format__ of exceptions.TypeError object>'
p30
sS'__getattribute__'
p31
S"<method-wrapper '__getattribute__' of exceptions.TypeError object>"
p32
sS'__class__'
p33
S"<type 'exceptions.TypeError'>"
p34
sS'__unicode__'
p35
S'<built-in method __unicode__ of exceptions.TypeError object>'
p36
sS'__delattr__'
p37
S"<method-wrapper '__delattr__' of exceptions.TypeError object>"
p38
sS'__subclasshook__'
p39
S'<built-in method __subclasshook__ of type object>'
p40
sS'__repr__'
p41
S"<method-wrapper '__repr__' of exceptions.TypeError object>"
p42
sS'__dict__'
p43
S'{}'
p44
sS'__sizeof__'
p45
S'<built-in method __sizeof__ of exceptions.TypeError object>'
p46
sS'__doc__'
p47
S"'Inappropriate argument type.'"
p48
sS'__init__'
p49
S"<method-wrapper '__init__' of exceptions.TypeError object>"
p50
sS'__new__'
p51
S'<built-in method __new__ of type object>'
p52
ssS'evalue'
p53
S"'bool' object is not callable"
p54
sS'request'
p55
ccopy_reg
_reconstructor
p56
(cgluon.html
BEAUTIFY
p57
c__builtin__
object
p58
NtRp59
(dp60
S'attributes'
p61
(dp62
sS'components'
p63
(lp64
g56
(cgluon.html
TABLE
p65
g58
NtRp66
(dp67
g61
(dp68
S'level'
p69
I5
ssS'parent'
p70
Nsg63
(lp71
g56
(cgluon.html
TR
p72
g58
NtRp73
(dp74
g61
(dp75
sg70
g66
sg63
(lp76
g56
(cgluon.html
TD
p77
g58
NtRp78
(dp79
g61
(dp80
S'_style'
p81
S'font-weight:bold;'
p82
ssg70
g73
sg63
(lp83
S'ajax'
p84
asbag56
(g77
g58
NtRp85
(dp86
g61
(dp87
S'_valign'
p88
S'top'
p89
ssg70
g73
sg63
(lp90
S':'
asbag56
(g77
g58
NtRp91
(dp92
g61
(dp93
sg70
g73
sg63
(lp94
g56
(g57
g58
NtRp95
(dp96
g61
(dp97
g69
I5
ssg70
g91
sg63
(lp98
S'True'
p99
asbasbasbag56
(g72
g58
NtRp100
(dp101
g61
(dp102
sg70
g66
sg63
(lp103
g56
(g77
g58
NtRp104
(dp105
g61
(dp106
g81
g82
ssg70
g100
sg63
(lp107
S'application'
p108
asbag56
(g77
g58
NtRp109
(dp110
g61
(dp111
g88
g89
ssg70
g100
sg63
(lp112
S':'
asbag56
(g77
g58
NtRp113
(dp114
g61
(dp115
sg70
g100
sg63
(lp116
g56
(g57
g58
NtRp117
(dp118
g61
(dp119
g69
I5
ssg70
g113
sg63
(lp120
S'topoi'
p121
asbasbasbag56
(g72
g58
NtRp122
(dp123
g61
(dp124
sg70
g66
sg63
(lp125
g56
(g77
g58
NtRp126
(dp127
g61
(dp128
g81
g82
ssg70
g122
sg63
(lp129
g23
asbag56
(g77
g58
NtRp130
(dp131
g61
(dp132
g88
g89
ssg70
g122
sg63
(lp133
S':'
asbag56
(g77
g58
NtRp134
(dp135
g61
(dp136
sg70
g122
sg63
(lp137
g56
(g57
g58
NtRp138
(dp139
g61
(dp140
g69
I5
ssg70
g134
sg63
(lp141
g56
(g65
g58
NtRp142
(dp143
g61
(dp144
g69
I4
ssg70
Nsg63
(lp145
g56
(g72
g58
NtRp146
(dp147
g61
(dp148
sg70
g142
sg63
(lp149
g56
(g77
g58
NtRp150
(dp151
g61
(dp152
sg70
g146
sg63
(lp153
g56
(g57
g58
NtRp154
(dp155
g61
(dp156
g69
I4
ssg70
g150
sg63
(lp157
S'notes'
p158
asbasbasbag56
(g72
g58
NtRp159
(dp160
g61
(dp161
sg70
g142
sg63
(lp162
g56
(g77
g58
NtRp163
(dp164
g61
(dp165
sg70
g159
sg63
(lp166
g56
(g57
g58
NtRp167
(dp168
g61
(dp169
g69
I4
ssg70
g163
sg63
(lp170
S'2'
asbasbasbasbasbasbasbag56
(g72
g58
NtRp171
(dp172
g61
(dp173
sg70
g66
sg63
(lp174
g56
(g77
g58
NtRp175
(dp176
g61
(dp177
g81
g82
ssg70
g171
sg63
(lp178
S'body'
p179
asbag56
(g77
g58
NtRp180
(dp181
g61
(dp182
g88
g89
ssg70
g171
sg63
(lp183
S':'
asbag56
(g77
g58
NtRp184
(dp185
g61
(dp186
sg70
g171
sg63
(lp187
g56
(g57
g58
NtRp188
(dp189
g61
(dp190
g69
I5
ssg70
g184
sg63
(lp191
S'<cStringIO.StringO object at 0x3a428f0>'
p192
asbasbasbag56
(g72
g58
NtRp193
(dp194
g61
(dp195
sg70
g66
sg63
(lp196
g56
(g77
g58
NtRp197
(dp198
g61
(dp199
g81
g82
ssg70
g193
sg63
(lp200
S'cid'
p201
asbag56
(g77
g58
NtRp202
(dp203
g61
(dp204
g88
g89
ssg70
g193
sg63
(lp205
S':'
asbag56
(g77
g58
NtRp206
(dp207
g61
(dp208
sg70
g193
sg63
(lp209
g56
(g57
g58
NtRp210
(dp211
g61
(dp212
g69
I5
ssg70
g206
sg63
(lp213
S'viewpane'
p214
asbasbasbag56
(g72
g58
NtRp215
(dp216
g61
(dp217
sg70
g66
sg63
(lp218
g56
(g77
g58
NtRp219
(dp220
g61
(dp221
g81
g82
ssg70
g215
sg63
(lp222
S'client'
p223
asbag56
(g77
g58
NtRp224
(dp225
g61
(dp226
g88
g89
ssg70
g215
sg63
(lp227
S':'
asbag56
(g77
g58
NtRp228
(dp229
g61
(dp230
sg70
g215
sg63
(lp231
g56
(g57
g58
NtRp232
(dp233
g61
(dp234
g69
I5
ssg70
g228
sg63
(lp235
S'127.0.0.1'
p236
asbasbasbag56
(g72
g58
NtRp237
(dp238
g61
(dp239
sg70
g66
sg63
(lp240
g56
(g77
g58
NtRp241
(dp242
g61
(dp243
g81
g82
ssg70
g237
sg63
(lp244
S'controller'
p245
asbag56
(g77
g58
NtRp246
(dp247
g61
(dp248
g88
g89
ssg70
g237
sg63
(lp249
S':'
asbag56
(g77
g58
NtRp250
(dp251
g61
(dp252
sg70
g237
sg63
(lp253
g56
(g57
g58
NtRp254
(dp255
g61
(dp256
g69
I5
ssg70
g250
sg63
(lp257
S'plugin_listandedit'
p258
asbasbasbag56
(g72
g58
NtRp259
(dp260
g61
(dp261
sg70
g66
sg63
(lp262
g56
(g77
g58
NtRp263
(dp264
g61
(dp265
g81
g82
ssg70
g259
sg63
(lp266
S'cookies'
p267
asbag56
(g77
g58
NtRp268
(dp269
g61
(dp270
g88
g89
ssg70
g259
sg63
(lp271
S':'
asbag56
(g77
g58
NtRp272
(dp273
g61
(dp274
sg70
g259
sg63
(lp275
g56
(g57
g58
NtRp276
(dp277
g61
(dp278
g69
I5
ssg70
g272
sg63
(lp279
g56
(g65
g58
NtRp280
(dp281
g61
(dp282
g69
I4
ssg70
Nsg63
(lp283
g56
(g72
g58
NtRp284
(dp285
g61
(dp286
sg70
g280
sg63
(lp287
g56
(g77
g58
NtRp288
(dp289
g61
(dp290
g81
g82
ssg70
g284
sg63
(lp291
S'session_id_admin'
p292
asbag56
(g77
g58
NtRp293
(dp294
g61
(dp295
g88
g89
ssg70
g284
sg63
(lp296
S':'
asbag56
(g77
g58
NtRp297
(dp298
g61
(dp299
sg70
g284
sg63
(lp300
g56
(g57
g58
NtRp301
(dp302
g61
(dp303
g69
I4
ssg70
g297
sg63
(lp304
g56
(g65
g58
NtRp305
(dp306
g61
(dp307
g69
I3
ssg70
Nsg63
(lp308
g56
(g72
g58
NtRp309
(dp310
g61
(dp311
sg70
g305
sg63
(lp312
g56
(g77
g58
NtRp313
(dp314
g61
(dp315
g81
g82
ssg70
g309
sg63
(lp316
S'comment'
p317
asbag56
(g77
g58
NtRp318
(dp319
g61
(dp320
g88
g89
ssg70
g309
sg63
(lp321
S':'
asbag56
(g77
g58
NtRp322
(dp323
g61
(dp324
sg70
g309
sg63
(lp325
g56
(g57
g58
NtRp326
(dp327
g61
(dp328
g69
I3
ssg70
g322
sg63
(lp329
S''
asbasbasbag56
(g72
g58
NtRp330
(dp331
g61
(dp332
sg70
g305
sg63
(lp333
g56
(g77
g58
NtRp334
(dp335
g61
(dp336
g81
g82
ssg70
g330
sg63
(lp337
S'domain'
p338
asbag56
(g77
g58
NtRp339
(dp340
g61
(dp341
g88
g89
ssg70
g330
sg63
(lp342
S':'
asbag56
(g77
g58
NtRp343
(dp344
g61
(dp345
sg70
g330
sg63
(lp346
g56
(g57
g58
NtRp347
(dp348
g61
(dp349
g69
I3
ssg70
g343
sg63
(lp350
S''
asbasbasbag56
(g72
g58
NtRp351
(dp352
g61
(dp353
sg70
g305
sg63
(lp354
g56
(g77
g58
NtRp355
(dp356
g61
(dp357
g81
g82
ssg70
g351
sg63
(lp358
S'expires'
p359
asbag56
(g77
g58
NtRp360
(dp361
g61
(dp362
g88
g89
ssg70
g351
sg63
(lp363
S':'
asbag56
(g77
g58
NtRp364
(dp365
g61
(dp366
sg70
g351
sg63
(lp367
g56
(g57
g58
NtRp368
(dp369
g61
(dp370
g69
I3
ssg70
g364
sg63
(lp371
S''
asbasbasbag56
(g72
g58
NtRp372
(dp373
g61
(dp374
sg70
g305
sg63
(lp375
g56
(g77
g58
NtRp376
(dp377
g61
(dp378
g81
g82
ssg70
g372
sg63
(lp379
S'httponly'
p380
asbag56
(g77
g58
NtRp381
(dp382
g61
(dp383
g88
g89
ssg70
g372
sg63
(lp384
S':'
asbag56
(g77
g58
NtRp385
(dp386
g61
(dp387
sg70
g372
sg63
(lp388
g56
(g57
g58
NtRp389
(dp390
g61
(dp391
g69
I3
ssg70
g385
sg63
(lp392
S''
asbasbasbag56
(g72
g58
NtRp393
(dp394
g61
(dp395
sg70
g305
sg63
(lp396
g56
(g77
g58
NtRp397
(dp398
g61
(dp399
g81
g82
ssg70
g393
sg63
(lp400
S'max-age'
p401
asbag56
(g77
g58
NtRp402
(dp403
g61
(dp404
g88
g89
ssg70
g393
sg63
(lp405
S':'
asbag56
(g77
g58
NtRp406
(dp407
g61
(dp408
sg70
g393
sg63
(lp409
g56
(g57
g58
NtRp410
(dp411
g61
(dp412
g69
I3
ssg70
g406
sg63
(lp413
S''
asbasbasbag56
(g72
g58
NtRp414
(dp415
g61
(dp416
sg70
g305
sg63
(lp417
g56
(g77
g58
NtRp418
(dp419
g61
(dp420
g81
g82
ssg70
g414
sg63
(lp421
S'path'
p422
asbag56
(g77
g58
NtRp423
(dp424
g61
(dp425
g88
g89
ssg70
g414
sg63
(lp426
S':'
asbag56
(g77
g58
NtRp427
(dp428
g61
(dp429
sg70
g414
sg63
(lp430
g56
(g57
g58
NtRp431
(dp432
g61
(dp433
g69
I3
ssg70
g427
sg63
(lp434
S''
asbasbasbag56
(g72
g58
NtRp435
(dp436
g61
(dp437
sg70
g305
sg63
(lp438
g56
(g77
g58
NtRp439
(dp440
g61
(dp441
g81
g82
ssg70
g435
sg63
(lp442
S'secure'
p443
asbag56
(g77
g58
NtRp444
(dp445
g61
(dp446
g88
g89
ssg70
g435
sg63
(lp447
S':'
asbag56
(g77
g58
NtRp448
(dp449
g61
(dp450
sg70
g435
sg63
(lp451
g56
(g57
g58
NtRp452
(dp453
g61
(dp454
g69
I3
ssg70
g448
sg63
(lp455
S''
asbasbasbag56
(g72
g58
NtRp456
(dp457
g61
(dp458
sg70
g305
sg63
(lp459
g56
(g77
g58
NtRp460
(dp461
g61
(dp462
g81
g82
ssg70
g456
sg63
(lp463
S'version'
p464
asbag56
(g77
g58
NtRp465
(dp466
g61
(dp467
g88
g89
ssg70
g456
sg63
(lp468
S':'
asbag56
(g77
g58
NtRp469
(dp470
g61
(dp471
sg70
g456
sg63
(lp472
g56
(g57
g58
NtRp473
(dp474
g61
(dp475
g69
I3
ssg70
g469
sg63
(lp476
S''
asbasbasbasbasbasbasbag56
(g72
g58
NtRp477
(dp478
g61
(dp479
sg70
g280
sg63
(lp480
g56
(g77
g58
NtRp481
(dp482
g61
(dp483
g81
g82
ssg70
g477
sg63
(lp484
S'session_id_topoi'
p485
asbag56
(g77
g58
NtRp486
(dp487
g61
(dp488
g88
g89
ssg70
g477
sg63
(lp489
S':'
asbag56
(g77
g58
NtRp490
(dp491
g61
(dp492
sg70
g477
sg63
(lp493
g56
(g57
g58
NtRp494
(dp495
g61
(dp496
g69
I4
ssg70
g490
sg63
(lp497
g56
(g65
g58
NtRp498
(dp499
g61
(dp500
g69
I3
ssg70
Nsg63
(lp501
g56
(g72
g58
NtRp502
(dp503
g61
(dp504
sg70
g498
sg63
(lp505
g56
(g77
g58
NtRp506
(dp507
g61
(dp508
g81
g82
ssg70
g502
sg63
(lp509
g317
asbag56
(g77
g58
NtRp510
(dp511
g61
(dp512
g88
g89
ssg70
g502
sg63
(lp513
S':'
asbag56
(g77
g58
NtRp514
(dp515
g61
(dp516
sg70
g502
sg63
(lp517
g56
(g57
g58
NtRp518
(dp519
g61
(dp520
g69
I3
ssg70
g514
sg63
(lp521
S''
asbasbasbag56
(g72
g58
NtRp522
(dp523
g61
(dp524
sg70
g498
sg63
(lp525
g56
(g77
g58
NtRp526
(dp527
g61
(dp528
g81
g82
ssg70
g522
sg63
(lp529
g338
asbag56
(g77
g58
NtRp530
(dp531
g61
(dp532
g88
g89
ssg70
g522
sg63
(lp533
S':'
asbag56
(g77
g58
NtRp534
(dp535
g61
(dp536
sg70
g522
sg63
(lp537
g56
(g57
g58
NtRp538
(dp539
g61
(dp540
g69
I3
ssg70
g534
sg63
(lp541
S''
asbasbasbag56
(g72
g58
NtRp542
(dp543
g61
(dp544
sg70
g498
sg63
(lp545
g56
(g77
g58
NtRp546
(dp547
g61
(dp548
g81
g82
ssg70
g542
sg63
(lp549
g359
asbag56
(g77
g58
NtRp550
(dp551
g61
(dp552
g88
g89
ssg70
g542
sg63
(lp553
S':'
asbag56
(g77
g58
NtRp554
(dp555
g61
(dp556
sg70
g542
sg63
(lp557
g56
(g57
g58
NtRp558
(dp559
g61
(dp560
g69
I3
ssg70
g554
sg63
(lp561
S''
asbasbasbag56
(g72
g58
NtRp562
(dp563
g61
(dp564
sg70
g498
sg63
(lp565
g56
(g77
g58
NtRp566
(dp567
g61
(dp568
g81
g82
ssg70
g562
sg63
(lp569
g380
asbag56
(g77
g58
NtRp570
(dp571
g61
(dp572
g88
g89
ssg70
g562
sg63
(lp573
S':'
asbag56
(g77
g58
NtRp574
(dp575
g61
(dp576
sg70
g562
sg63
(lp577
g56
(g57
g58
NtRp578
(dp579
g61
(dp580
g69
I3
ssg70
g574
sg63
(lp581
S''
asbasbasbag56
(g72
g58
NtRp582
(dp583
g61
(dp584
sg70
g498
sg63
(lp585
g56
(g77
g58
NtRp586
(dp587
g61
(dp588
g81
g82
ssg70
g582
sg63
(lp589
g401
asbag56
(g77
g58
NtRp590
(dp591
g61
(dp592
g88
g89
ssg70
g582
sg63
(lp593
S':'
asbag56
(g77
g58
NtRp594
(dp595
g61
(dp596
sg70
g582
sg63
(lp597
g56
(g57
g58
NtRp598
(dp599
g61
(dp600
g69
I3
ssg70
g594
sg63
(lp601
S''
asbasbasbag56
(g72
g58
NtRp602
(dp603
g61
(dp604
sg70
g498
sg63
(lp605
g56
(g77
g58
NtRp606
(dp607
g61
(dp608
g81
g82
ssg70
g602
sg63
(lp609
g422
asbag56
(g77
g58
NtRp610
(dp611
g61
(dp612
g88
g89
ssg70
g602
sg63
(lp613
S':'
asbag56
(g77
g58
NtRp614
(dp615
g61
(dp616
sg70
g602
sg63
(lp617
g56
(g57
g58
NtRp618
(dp619
g61
(dp620
g69
I3
ssg70
g614
sg63
(lp621
S''
asbasbasbag56
(g72
g58
NtRp622
(dp623
g61
(dp624
sg70
g498
sg63
(lp625
g56
(g77
g58
NtRp626
(dp627
g61
(dp628
g81
g82
ssg70
g622
sg63
(lp629
g443
asbag56
(g77
g58
NtRp630
(dp631
g61
(dp632
g88
g89
ssg70
g622
sg63
(lp633
S':'
asbag56
(g77
g58
NtRp634
(dp635
g61
(dp636
sg70
g622
sg63
(lp637
g56
(g57
g58
NtRp638
(dp639
g61
(dp640
g69
I3
ssg70
g634
sg63
(lp641
S''
asbasbasbag56
(g72
g58
NtRp642
(dp643
g61
(dp644
sg70
g498
sg63
(lp645
g56
(g77
g58
NtRp646
(dp647
g61
(dp648
g81
g82
ssg70
g642
sg63
(lp649
g464
asbag56
(g77
g58
NtRp650
(dp651
g61
(dp652
g88
g89
ssg70
g642
sg63
(lp653
S':'
asbag56
(g77
g58
NtRp654
(dp655
g61
(dp656
sg70
g642
sg63
(lp657
g56
(g57
g58
NtRp658
(dp659
g61
(dp660
g69
I3
ssg70
g654
sg63
(lp661
S''
asbasbasbasbasbasbasbasbasbasbasbag56
(g72
g58
NtRp662
(dp663
g61
(dp664
sg70
g66
sg63
(lp665
g56
(g77
g58
NtRp666
(dp667
g61
(dp668
g81
g82
ssg70
g662
sg63
(lp669
S'env'
p670
asbag56
(g77
g58
NtRp671
(dp672
g61
(dp673
g88
g89
ssg70
g662
sg63
(lp674
S':'
asbag56
(g77
g58
NtRp675
(dp676
g61
(dp677
sg70
g662
sg63
(lp678
g56
(g57
g58
NtRp679
(dp680
g61
(dp681
g69
I5
ssg70
g675
sg63
(lp682
g56
(g65
g58
NtRp683
(dp684
g61
(dp685
g69
I4
ssg70
Nsg63
(lp686
g56
(g72
g58
NtRp687
(dp688
g61
(dp689
sg70
g683
sg63
(lp690
g56
(g77
g58
NtRp691
(dp692
g61
(dp693
g81
g82
ssg70
g687
sg63
(lp694
S'app_folders'
p695
asbag56
(g77
g58
NtRp696
(dp697
g61
(dp698
g88
g89
ssg70
g687
sg63
(lp699
S':'
asbag56
(g77
g58
NtRp700
(dp701
g61
(dp702
sg70
g687
sg63
(lp703
g56
(g57
g58
NtRp704
(dp705
g61
(dp706
g69
I4
ssg70
g700
sg63
(lp707
S"set(['/home/ian/web2py/applications/topoi/', '/home/ian/web2py/applications/admin/'])"
p708
asbasbasbag56
(g72
g58
NtRp709
(dp710
g61
(dp711
sg70
g683
sg63
(lp712
g56
(g77
g58
NtRp713
(dp714
g61
(dp715
g81
g82
ssg70
g709
sg63
(lp716
S'applications_parent'
p717
asbag56
(g77
g58
NtRp718
(dp719
g61
(dp720
g88
g89
ssg70
g709
sg63
(lp721
S':'
asbag56
(g77
g58
NtRp722
(dp723
g61
(dp724
sg70
g709
sg63
(lp725
g56
(g57
g58
NtRp726
(dp727
g61
(dp728
g69
I4
ssg70
g722
sg63
(lp729
S'/home/ian/web2py'
p730
asbasbasbag56
(g72
g58
NtRp731
(dp732
g61
(dp733
sg70
g683
sg63
(lp734
g56
(g77
g58
NtRp735
(dp736
g61
(dp737
g81
g82
ssg70
g731
sg63
(lp738
S'cmd_args'
p739
asbag56
(g77
g58
NtRp740
(dp741
g61
(dp742
g88
g89
ssg70
g731
sg63
(lp743
S':'
asbag56
(g77
g58
NtRp744
(dp745
g61
(dp746
sg70
g731
sg63
(lp747
g56
(g57
g58
NtRp748
(dp749
g61
(dp750
g69
I4
ssg70
g744
sg63
(lp751
g56
(g65
g58
NtRp752
(dp753
g61
(dp754
g69
I3
ssg70
Nsg63
(lp755
sbasbasbasbag56
(g72
g58
NtRp756
(dp757
g61
(dp758
sg70
g683
sg63
(lp759
g56
(g77
g58
NtRp760
(dp761
g61
(dp762
g81
g82
ssg70
g756
sg63
(lp763
S'cmd_options'
p764
asbag56
(g77
g58
NtRp765
(dp766
g61
(dp767
g88
g89
ssg70
g756
sg63
(lp768
S':'
asbag56
(g77
g58
NtRp769
(dp770
g61
(dp771
sg70
g756
sg63
(lp772
g56
(g57
g58
NtRp773
(dp774
g61
(dp775
g69
I4
ssg70
g769
sg63
(lp776
S"<Values at 0x2c53758: {'verbose': False, 'ip': '127.0.0.1', 'shutdown_timeout': 5, 'taskbar': False, 'nocron': False, 'pid_filename': 'httpserver.pid', 'maxthreads': None, 'softcron': False, 'server_name': 'uriel', 'bpython': False, 'nogui': False, 'port': 8000, 'extcron': False, 'debuglevel': 30, 'test': None, 'folder': '/home/ian/web2py', 'config': '', 'import_models': False, 'winservice': '', 'shell': None, 'run': '', 'log_filename': 'httpserver.log', 'args': [''], 'ssl_ca_certificate': None, 'scheduler': None, 'profiler_filename': None, 'ssl_private_key': '', 'password': '<ask>', 'request_queue_size': 5, 'ssl_certificate': '', 'cronjob': False, 'plain': False, 'quiet': False, 'interfaces': None, 'minthreads': None, 'timeout': 10, 'numthreads': None, 'nobanner': False}>"
p777
asbasbasbag56
(g72
g58
NtRp778
(dp779
g61
(dp780
sg70
g683
sg63
(lp781
g56
(g77
g58
NtRp782
(dp783
g61
(dp784
g81
g82
ssg70
g778
sg63
(lp785
S'db_sessions'
p786
asbag56
(g77
g58
NtRp787
(dp788
g61
(dp789
g88
g89
ssg70
g778
sg63
(lp790
S':'
asbag56
(g77
g58
NtRp791
(dp792
g61
(dp793
sg70
g778
sg63
(lp794
g56
(g57
g58
NtRp795
(dp796
g61
(dp797
g69
I4
ssg70
g791
sg63
(lp798
S'set([])'
p799
asbasbasbag56
(g72
g58
NtRp800
(dp801
g61
(dp802
sg70
g683
sg63
(lp803
g56
(g77
g58
NtRp804
(dp805
g61
(dp806
g81
g82
ssg70
g800
sg63
(lp807
S'debugging'
p808
asbag56
(g77
g58
NtRp809
(dp810
g61
(dp811
g88
g89
ssg70
g800
sg63
(lp812
S':'
asbag56
(g77
g58
NtRp813
(dp814
g61
(dp815
sg70
g800
sg63
(lp816
g56
(g57
g58
NtRp817
(dp818
g61
(dp819
g69
I4
ssg70
g813
sg63
(lp820
S'False'
p821
asbasbasbag56
(g72
g58
NtRp822
(dp823
g61
(dp824
sg70
g683
sg63
(lp825
g56
(g77
g58
NtRp826
(dp827
g61
(dp828
g81
g82
ssg70
g822
sg63
(lp829
S'gluon_parent'
p830
asbag56
(g77
g58
NtRp831
(dp832
g61
(dp833
g88
g89
ssg70
g822
sg63
(lp834
S':'
asbag56
(g77
g58
NtRp835
(dp836
g61
(dp837
sg70
g822
sg63
(lp838
g56
(g57
g58
NtRp839
(dp840
g61
(dp841
g69
I4
ssg70
g835
sg63
(lp842
S'/home/ian/web2py'
p843
asbasbasbag56
(g72
g58
NtRp844
(dp845
g61
(dp846
sg70
g683
sg63
(lp847
g56
(g77
g58
NtRp848
(dp849
g61
(dp850
g81
g82
ssg70
g844
sg63
(lp851
S'http_accept'
p852
asbag56
(g77
g58
NtRp853
(dp854
g61
(dp855
g88
g89
ssg70
g844
sg63
(lp856
S':'
asbag56
(g77
g58
NtRp857
(dp858
g61
(dp859
sg70
g844
sg63
(lp860
g56
(g57
g58
NtRp861
(dp862
g61
(dp863
g69
I4
ssg70
g857
sg63
(lp864
S'*/*'
p865
asbasbasbag56
(g72
g58
NtRp866
(dp867
g61
(dp868
sg70
g683
sg63
(lp869
g56
(g77
g58
NtRp870
(dp871
g61
(dp872
g81
g82
ssg70
g866
sg63
(lp873
S'http_accept_charset'
p874
asbag56
(g77
g58
NtRp875
(dp876
g61
(dp877
g88
g89
ssg70
g866
sg63
(lp878
S':'
asbag56
(g77
g58
NtRp879
(dp880
g61
(dp881
sg70
g866
sg63
(lp882
g56
(g57
g58
NtRp883
(dp884
g61
(dp885
g69
I4
ssg70
g879
sg63
(lp886
S'UTF-8,*'
p887
asbasbasbag56
(g72
g58
NtRp888
(dp889
g61
(dp890
sg70
g683
sg63
(lp891
g56
(g77
g58
NtRp892
(dp893
g61
(dp894
g81
g82
ssg70
g888
sg63
(lp895
S'http_accept_encoding'
p896
asbag56
(g77
g58
NtRp897
(dp898
g61
(dp899
g88
g89
ssg70
g888
sg63
(lp900
S':'
asbag56
(g77
g58
NtRp901
(dp902
g61
(dp903
sg70
g888
sg63
(lp904
g56
(g57
g58
NtRp905
(dp906
g61
(dp907
g69
I4
ssg70
g901
sg63
(lp908
S'gzip, deflate'
p909
asbasbasbag56
(g72
g58
NtRp910
(dp911
g61
(dp912
sg70
g683
sg63
(lp913
g56
(g77
g58
NtRp914
(dp915
g61
(dp916
g81
g82
ssg70
g910
sg63
(lp917
S'http_accept_language'
p918
asbag56
(g77
g58
NtRp919
(dp920
g61
(dp921
g88
g89
ssg70
g910
sg63
(lp922
S':'
asbag56
(g77
g58
NtRp923
(dp924
g61
(dp925
sg70
g910
sg63
(lp926
g56
(g57
g58
NtRp927
(dp928
g61
(dp929
g69
I4
ssg70
g923
sg63
(lp930
S'en-us,en;q=0.5'
p931
asbasbasbag56
(g72
g58
NtRp932
(dp933
g61
(dp934
sg70
g683
sg63
(lp935
g56
(g77
g58
NtRp936
(dp937
g61
(dp938
g81
g82
ssg70
g932
sg63
(lp939
S'http_connection'
p940
asbag56
(g77
g58
NtRp941
(dp942
g61
(dp943
g88
g89
ssg70
g932
sg63
(lp944
S':'
asbag56
(g77
g58
NtRp945
(dp946
g61
(dp947
sg70
g932
sg63
(lp948
g56
(g57
g58
NtRp949
(dp950
g61
(dp951
g69
I4
ssg70
g945
sg63
(lp952
S'keep-alive'
p953
asbasbasbag56
(g72
g58
NtRp954
(dp955
g61
(dp956
sg70
g683
sg63
(lp957
g56
(g77
g58
NtRp958
(dp959
g61
(dp960
g81
g82
ssg70
g954
sg63
(lp961
S'http_cookie'
p962
asbag56
(g77
g58
NtRp963
(dp964
g61
(dp965
g88
g89
ssg70
g954
sg63
(lp966
S':'
asbag56
(g77
g58
NtRp967
(dp968
g61
(dp969
sg70
g954
sg63
(lp970
g56
(g57
g58
NtRp971
(dp972
g61
(dp973
g69
I4
ssg70
g967
sg63
(lp974
S'session_id_topoi=127.0.0.1-fbfd7fa3-57f5-4d42-8f08-594178070e93; session_id_admin=127.0.0.1-d7c37b6e-5c02-4001-ac4d-6ba36c6ca1e8'
p975
asbasbasbag56
(g72
g58
NtRp976
(dp977
g61
(dp978
sg70
g683
sg63
(lp979
g56
(g77
g58
NtRp980
(dp981
g61
(dp982
g81
g82
ssg70
g976
sg63
(lp983
S'http_host'
p984
asbag56
(g77
g58
NtRp985
(dp986
g61
(dp987
g88
g89
ssg70
g976
sg63
(lp988
S':'
asbag56
(g77
g58
NtRp989
(dp990
g61
(dp991
sg70
g976
sg63
(lp992
g56
(g57
g58
NtRp993
(dp994
g61
(dp995
g69
I4
ssg70
g989
sg63
(lp996
S'127.0.0.1:8000'
p997
asbasbasbag56
(g72
g58
NtRp998
(dp999
g61
(dp1000
sg70
g683
sg63
(lp1001
g56
(g77
g58
NtRp1002
(dp1003
g61
(dp1004
g81
g82
ssg70
g998
sg63
(lp1005
S'http_referer'
p1006
asbag56
(g77
g58
NtRp1007
(dp1008
g61
(dp1009
g88
g89
ssg70
g998
sg63
(lp1010
S':'
asbag56
(g77
g58
NtRp1011
(dp1012
g61
(dp1013
sg70
g998
sg63
(lp1014
g56
(g57
g58
NtRp1015
(dp1016
g61
(dp1017
g69
I4
ssg70
g1011
sg63
(lp1018
S'http://127.0.0.1:8000/topoi/plugin_listandedit/list/notes/1?fields=author&fields=work&fields=reference'
p1019
asbasbasbag56
(g72
g58
NtRp1020
(dp1021
g61
(dp1022
sg70
g683
sg63
(lp1023
g56
(g77
g58
NtRp1024
(dp1025
g61
(dp1026
g81
g82
ssg70
g1020
sg63
(lp1027
S'http_user_agent'
p1028
asbag56
(g77
g58
NtRp1029
(dp1030
g61
(dp1031
g88
g89
ssg70
g1020
sg63
(lp1032
S':'
asbag56
(g77
g58
NtRp1033
(dp1034
g61
(dp1035
sg70
g1020
sg63
(lp1036
g56
(g57
g58
NtRp1037
(dp1038
g61
(dp1039
g69
I4
ssg70
g1033
sg63
(lp1040
S'Mozilla/5.0 (Ubuntu; X11; Linux x86_64; rv:8.0) Gecko/20100101 Firefox/8.0'
p1041
asbasbasbag56
(g72
g58
NtRp1042
(dp1043
g61
(dp1044
sg70
g683
sg63
(lp1045
g56
(g77
g58
NtRp1046
(dp1047
g61
(dp1048
g81
g82
ssg70
g1042
sg63
(lp1049
S'http_web2py_component_element'
p1050
asbag56
(g77
g58
NtRp1051
(dp1052
g61
(dp1053
g88
g89
ssg70
g1042
sg63
(lp1054
S':'
asbag56
(g77
g58
NtRp1055
(dp1056
g61
(dp1057
sg70
g1042
sg63
(lp1058
g56
(g57
g58
NtRp1059
(dp1060
g61
(dp1061
g69
I4
ssg70
g1055
sg63
(lp1062
g214
asbasbasbag56
(g72
g58
NtRp1063
(dp1064
g61
(dp1065
sg70
g683
sg63
(lp1066
g56
(g77
g58
NtRp1067
(dp1068
g61
(dp1069
g81
g82
ssg70
g1063
sg63
(lp1070
S'http_web2py_component_location'
p1071
asbag56
(g77
g58
NtRp1072
(dp1073
g61
(dp1074
g88
g89
ssg70
g1063
sg63
(lp1075
S':'
asbag56
(g77
g58
NtRp1076
(dp1077
g61
(dp1078
sg70
g1063
sg63
(lp1079
g56
(g57
g58
NtRp1080
(dp1081
g61
(dp1082
g69
I4
ssg70
g1076
sg63
(lp1083
S'http://127.0.0.1:8000/topoi/plugin_listandedit/list/notes/1?fields=author&fields=work&fields=reference'
p1084
asbasbasbag56
(g72
g58
NtRp1085
(dp1086
g61
(dp1087
sg70
g683
sg63
(lp1088
g56
(g77
g58
NtRp1089
(dp1090
g61
(dp1091
g81
g82
ssg70
g1085
sg63
(lp1092
S'http_x_requested_with'
p1093
asbag56
(g77
g58
NtRp1094
(dp1095
g61
(dp1096
g88
g89
ssg70
g1085
sg63
(lp1097
S':'
asbag56
(g77
g58
NtRp1098
(dp1099
g61
(dp1100
sg70
g1085
sg63
(lp1101
g56
(g57
g58
NtRp1102
(dp1103
g61
(dp1104
g69
I4
ssg70
g1098
sg63
(lp1105
S'XMLHttpRequest'
p1106
asbasbasbag56
(g72
g58
NtRp1107
(dp1108
g61
(dp1109
sg70
g683
sg63
(lp1110
g56
(g77
g58
NtRp1111
(dp1112
g61
(dp1113
g81
g82
ssg70
g1107
sg63
(lp1114
S'is_jython'
p1115
asbag56
(g77
g58
NtRp1116
(dp1117
g61
(dp1118
g88
g89
ssg70
g1107
sg63
(lp1119
S':'
asbag56
(g77
g58
NtRp1120
(dp1121
g61
(dp1122
sg70
g1107
sg63
(lp1123
g56
(g57
g58
NtRp1124
(dp1125
g61
(dp1126
g69
I4
ssg70
g1120
sg63
(lp1127
g821
asbasbasbag56
(g72
g58
NtRp1128
(dp1129
g61
(dp1130
sg70
g683
sg63
(lp1131
g56
(g77
g58
NtRp1132
(dp1133
g61
(dp1134
g81
g82
ssg70
g1128
sg63
(lp1135
S'path_info'
p1136
asbag56
(g77
g58
NtRp1137
(dp1138
g61
(dp1139
g88
g89
ssg70
g1128
sg63
(lp1140
S':'
asbag56
(g77
g58
NtRp1141
(dp1142
g61
(dp1143
sg70
g1128
sg63
(lp1144
g56
(g57
g58
NtRp1145
(dp1146
g61
(dp1147
g69
I4
ssg70
g1141
sg63
(lp1148
S'/topoi/plugin_listandedit/edit.load/notes/2'
p1149
asbasbasbag56
(g72
g58
NtRp1150
(dp1151
g61
(dp1152
sg70
g683
sg63
(lp1153
g56
(g77
g58
NtRp1154
(dp1155
g61
(dp1156
g81
g82
ssg70
g1150
sg63
(lp1157
S'query_string'
p1158
asbag56
(g77
g58
NtRp1159
(dp1160
g61
(dp1161
g88
g89
ssg70
g1150
sg63
(lp1162
S':'
asbag56
(g77
g58
NtRp1163
(dp1164
g61
(dp1165
sg70
g1150
sg63
(lp1166
g56
(g57
g58
NtRp1167
(dp1168
g61
(dp1169
g69
I4
ssg70
g1163
sg63
(lp1170
S''
asbasbasbag56
(g72
g58
NtRp1171
(dp1172
g61
(dp1173
sg70
g683
sg63
(lp1174
g56
(g77
g58
NtRp1175
(dp1176
g61
(dp1177
g81
g82
ssg70
g1171
sg63
(lp1178
S'remote_addr'
p1179
asbag56
(g77
g58
NtRp1180
(dp1181
g61
(dp1182
g88
g89
ssg70
g1171
sg63
(lp1183
S':'
asbag56
(g77
g58
NtRp1184
(dp1185
g61
(dp1186
sg70
g1171
sg63
(lp1187
g56
(g57
g58
NtRp1188
(dp1189
g61
(dp1190
g69
I4
ssg70
g1184
sg63
(lp1191
g236
asbasbasbag56
(g72
g58
NtRp1192
(dp1193
g61
(dp1194
sg70
g683
sg63
(lp1195
g56
(g77
g58
NtRp1196
(dp1197
g61
(dp1198
g81
g82
ssg70
g1192
sg63
(lp1199
S'remote_port'
p1200
asbag56
(g77
g58
NtRp1201
(dp1202
g61
(dp1203
g88
g89
ssg70
g1192
sg63
(lp1204
S':'
asbag56
(g77
g58
NtRp1205
(dp1206
g61
(dp1207
sg70
g1192
sg63
(lp1208
g56
(g57
g58
NtRp1209
(dp1210
g61
(dp1211
g69
I4
ssg70
g1205
sg63
(lp1212
S'57071'
p1213
asbasbasbag56
(g72
g58
NtRp1214
(dp1215
g61
(dp1216
sg70
g683
sg63
(lp1217
g56
(g77
g58
NtRp1218
(dp1219
g61
(dp1220
g81
g82
ssg70
g1214
sg63
(lp1221
S'request_method'
p1222
asbag56
(g77
g58
NtRp1223
(dp1224
g61
(dp1225
g88
g89
ssg70
g1214
sg63
(lp1226
S':'
asbag56
(g77
g58
NtRp1227
(dp1228
g61
(dp1229
sg70
g1214
sg63
(lp1230
g56
(g57
g58
NtRp1231
(dp1232
g61
(dp1233
g69
I4
ssg70
g1227
sg63
(lp1234
S'GET'
p1235
asbasbasbag56
(g72
g58
NtRp1236
(dp1237
g61
(dp1238
sg70
g683
sg63
(lp1239
g56
(g77
g58
NtRp1240
(dp1241
g61
(dp1242
g81
g82
ssg70
g1236
sg63
(lp1243
S'script_name'
p1244
asbag56
(g77
g58
NtRp1245
(dp1246
g61
(dp1247
g88
g89
ssg70
g1236
sg63
(lp1248
S':'
asbag56
(g77
g58
NtRp1249
(dp1250
g61
(dp1251
sg70
g1236
sg63
(lp1252
g56
(g57
g58
NtRp1253
(dp1254
g61
(dp1255
g69
I4
ssg70
g1249
sg63
(lp1256
S''
asbasbasbag56
(g72
g58
NtRp1257
(dp1258
g61
(dp1259
sg70
g683
sg63
(lp1260
g56
(g77
g58
NtRp1261
(dp1262
g61
(dp1263
g81
g82
ssg70
g1257
sg63
(lp1264
S'server_name'
p1265
asbag56
(g77
g58
NtRp1266
(dp1267
g61
(dp1268
g88
g89
ssg70
g1257
sg63
(lp1269
S':'
asbag56
(g77
g58
NtRp1270
(dp1271
g61
(dp1272
sg70
g1257
sg63
(lp1273
g56
(g57
g58
NtRp1274
(dp1275
g61
(dp1276
g69
I4
ssg70
g1270
sg63
(lp1277
S'uriel'
p1278
asbasbasbag56
(g72
g58
NtRp1279
(dp1280
g61
(dp1281
sg70
g683
sg63
(lp1282
g56
(g77
g58
NtRp1283
(dp1284
g61
(dp1285
g81
g82
ssg70
g1279
sg63
(lp1286
S'server_port'
p1287
asbag56
(g77
g58
NtRp1288
(dp1289
g61
(dp1290
g88
g89
ssg70
g1279
sg63
(lp1291
S':'
asbag56
(g77
g58
NtRp1292
(dp1293
g61
(dp1294
sg70
g1279
sg63
(lp1295
g56
(g57
g58
NtRp1296
(dp1297
g61
(dp1298
g69
I4
ssg70
g1292
sg63
(lp1299
S'8000'
p1300
asbasbasbag56
(g72
g58
NtRp1301
(dp1302
g61
(dp1303
sg70
g683
sg63
(lp1304
g56
(g77
g58
NtRp1305
(dp1306
g61
(dp1307
g81
g82
ssg70
g1301
sg63
(lp1308
S'server_protocol'
p1309
asbag56
(g77
g58
NtRp1310
(dp1311
g61
(dp1312
g88
g89
ssg70
g1301
sg63
(lp1313
S':'
asbag56
(g77
g58
NtRp1314
(dp1315
g61
(dp1316
sg70
g1301
sg63
(lp1317
g56
(g57
g58
NtRp1318
(dp1319
g61
(dp1320
g69
I4
ssg70
g1314
sg63
(lp1321
S'HTTP/1.1'
p1322
asbasbasbag56
(g72
g58
NtRp1323
(dp1324
g61
(dp1325
sg70
g683
sg63
(lp1326
g56
(g77
g58
NtRp1327
(dp1328
g61
(dp1329
g81
g82
ssg70
g1323
sg63
(lp1330
S'server_software'
p1331
asbag56
(g77
g58
NtRp1332
(dp1333
g61
(dp1334
g88
g89
ssg70
g1323
sg63
(lp1335
S':'
asbag56
(g77
g58
NtRp1336
(dp1337
g61
(dp1338
sg70
g1323
sg63
(lp1339
g56
(g57
g58
NtRp1340
(dp1341
g61
(dp1342
g69
I4
ssg70
g1336
sg63
(lp1343
S'Rocket 1.2.4'
p1344
asbasbasbag56
(g72
g58
NtRp1345
(dp1346
g61
(dp1347
sg70
g683
sg63
(lp1348
g56
(g77
g58
NtRp1349
(dp1350
g61
(dp1351
g81
g82
ssg70
g1345
sg63
(lp1352
S'web2py_crontype'
p1353
asbag56
(g77
g58
NtRp1354
(dp1355
g61
(dp1356
g88
g89
ssg70
g1345
sg63
(lp1357
S':'
asbag56
(g77
g58
NtRp1358
(dp1359
g61
(dp1360
sg70
g1345
sg63
(lp1361
g56
(g57
g58
NtRp1362
(dp1363
g61
(dp1364
g69
I4
ssg70
g1358
sg63
(lp1365
S'hard'
p1366
asbasbasbag56
(g72
g58
NtRp1367
(dp1368
g61
(dp1369
sg70
g683
sg63
(lp1370
g56
(g77
g58
NtRp1371
(dp1372
g61
(dp1373
g81
g82
ssg70
g1367
sg63
(lp1374
S'web2py_path'
p1375
asbag56
(g77
g58
NtRp1376
(dp1377
g61
(dp1378
g88
g89
ssg70
g1367
sg63
(lp1379
S':'
asbag56
(g77
g58
NtRp1380
(dp1381
g61
(dp1382
sg70
g1367
sg63
(lp1383
g56
(g57
g58
NtRp1384
(dp1385
g61
(dp1386
g69
I4
ssg70
g1380
sg63
(lp1387
g730
asbasbasbag56
(g72
g58
NtRp1388
(dp1389
g61
(dp1390
sg70
g683
sg63
(lp1391
g56
(g77
g58
NtRp1392
(dp1393
g61
(dp1394
g81
g82
ssg70
g1388
sg63
(lp1395
S'web2py_version'
p1396
asbag56
(g77
g58
NtRp1397
(dp1398
g61
(dp1399
g88
g89
ssg70
g1388
sg63
(lp1400
S':'
asbag56
(g77
g58
NtRp1401
(dp1402
g61
(dp1403
sg70
g1388
sg63
(lp1404
g56
(g57
g58
NtRp1405
(dp1406
g61
(dp1407
g69
I4
ssg70
g1401
sg63
(lp1408
g56
(g65
g58
NtRp1409
(dp1410
g61
(dp1411
g69
I3
ssg70
Nsg63
(lp1412
g56
(g72
g58
NtRp1413
(dp1414
g61
(dp1415
sg70
g1409
sg63
(lp1416
g56
(g77
g58
NtRp1417
(dp1418
g61
(dp1419
sg70
g1413
sg63
(lp1420
g56
(g57
g58
NtRp1421
(dp1422
g61
(dp1423
g69
I3
ssg70
g1417
sg63
(lp1424
S'1'
asbasbasbag56
(g72
g58
NtRp1425
(dp1426
g61
(dp1427
sg70
g1409
sg63
(lp1428
g56
(g77
g58
NtRp1429
(dp1430
g61
(dp1431
sg70
g1425
sg63
(lp1432
g56
(g57
g58
NtRp1433
(dp1434
g61
(dp1435
g69
I3
ssg70
g1429
sg63
(lp1436
S'99'
p1437
asbasbasbag56
(g72
g58
NtRp1438
(dp1439
g61
(dp1440
sg70
g1409
sg63
(lp1441
g56
(g77
g58
NtRp1442
(dp1443
g61
(dp1444
sg70
g1438
sg63
(lp1445
g56
(g57
g58
NtRp1446
(dp1447
g61
(dp1448
g69
I3
ssg70
g1442
sg63
(lp1449
S'2'
asbasbasbag56
(g72
g58
NtRp1450
(dp1451
g61
(dp1452
sg70
g1409
sg63
(lp1453
g56
(g77
g58
NtRp1454
(dp1455
g61
(dp1456
sg70
g1450
sg63
(lp1457
g56
(g57
g58
NtRp1458
(dp1459
g61
(dp1460
g69
I3
ssg70
g1454
sg63
(lp1461
S'datetime.datetime(2011, 9, 26, 6, 55, 33)'
p1462
asbasbasbag56
(g72
g58
NtRp1463
(dp1464
g61
(dp1465
sg70
g1409
sg63
(lp1466
g56
(g77
g58
NtRp1467
(dp1468
g61
(dp1469
sg70
g1463
sg63
(lp1470
g56
(g57
g58
NtRp1471
(dp1472
g61
(dp1473
g69
I3
ssg70
g1467
sg63
(lp1474
S'stable'
p1475
asbasbasbasbasbasbasbag56
(g72
g58
NtRp1476
(dp1477
g61
(dp1478
sg70
g683
sg63
(lp1479
g56
(g77
g58
NtRp1480
(dp1481
g61
(dp1482
g81
g82
ssg70
g1476
sg63
(lp1483
S'wsgi_errors'
p1484
asbag56
(g77
g58
NtRp1485
(dp1486
g61
(dp1487
g88
g89
ssg70
g1476
sg63
(lp1488
S':'
asbag56
(g77
g58
NtRp1489
(dp1490
g61
(dp1491
sg70
g1476
sg63
(lp1492
g56
(g57
g58
NtRp1493
(dp1494
g61
(dp1495
g69
I4
ssg70
g1489
sg63
(lp1496
S"<open file '<stderr>', mode 'w' at 0x7f8b30c7d270>"
p1497
asbasbasbag56
(g72
g58
NtRp1498
(dp1499
g61
(dp1500
sg70
g683
sg63
(lp1501
g56
(g77
g58
NtRp1502
(dp1503
g61
(dp1504
g81
g82
ssg70
g1498
sg63
(lp1505
S'wsgi_file_wrapper'
p1506
asbag56
(g77
g58
NtRp1507
(dp1508
g61
(dp1509
g88
g89
ssg70
g1498
sg63
(lp1510
S':'
asbag56
(g77
g58
NtRp1511
(dp1512
g61
(dp1513
sg70
g1498
sg63
(lp1514
g56
(g57
g58
NtRp1515
(dp1516
g61
(dp1517
g69
I4
ssg70
g1511
sg63
(lp1518
S'<class wsgiref.util.FileWrapper at 0x2b1e870>'
p1519
asbasbasbag56
(g72
g58
NtRp1520
(dp1521
g61
(dp1522
sg70
g683
sg63
(lp1523
g56
(g77
g58
NtRp1524
(dp1525
g61
(dp1526
g81
g82
ssg70
g1520
sg63
(lp1527
S'wsgi_input'
p1528
asbag56
(g77
g58
NtRp1529
(dp1530
g61
(dp1531
g88
g89
ssg70
g1520
sg63
(lp1532
S':'
asbag56
(g77
g58
NtRp1533
(dp1534
g61
(dp1535
sg70
g1520
sg63
(lp1536
g56
(g57
g58
NtRp1537
(dp1538
g61
(dp1539
g69
I4
ssg70
g1533
sg63
(lp1540
S'<socket._fileobject object at 0x4c9e650>'
p1541
asbasbasbag56
(g72
g58
NtRp1542
(dp1543
g61
(dp1544
sg70
g683
sg63
(lp1545
g56
(g77
g58
NtRp1546
(dp1547
g61
(dp1548
g81
g82
ssg70
g1542
sg63
(lp1549
S'wsgi_multiprocess'
p1550
asbag56
(g77
g58
NtRp1551
(dp1552
g61
(dp1553
g88
g89
ssg70
g1542
sg63
(lp1554
S':'
asbag56
(g77
g58
NtRp1555
(dp1556
g61
(dp1557
sg70
g1542
sg63
(lp1558
g56
(g57
g58
NtRp1559
(dp1560
g61
(dp1561
g69
I4
ssg70
g1555
sg63
(lp1562
g821
asbasbasbag56
(g72
g58
NtRp1563
(dp1564
g61
(dp1565
sg70
g683
sg63
(lp1566
g56
(g77
g58
NtRp1567
(dp1568
g61
(dp1569
g81
g82
ssg70
g1563
sg63
(lp1570
S'wsgi_multithread'
p1571
asbag56
(g77
g58
NtRp1572
(dp1573
g61
(dp1574
g88
g89
ssg70
g1563
sg63
(lp1575
S':'
asbag56
(g77
g58
NtRp1576
(dp1577
g61
(dp1578
sg70
g1563
sg63
(lp1579
g56
(g57
g58
NtRp1580
(dp1581
g61
(dp1582
g69
I4
ssg70
g1576
sg63
(lp1583
g99
asbasbasbag56
(g72
g58
NtRp1584
(dp1585
g61
(dp1586
sg70
g683
sg63
(lp1587
g56
(g77
g58
NtRp1588
(dp1589
g61
(dp1590
g81
g82
ssg70
g1584
sg63
(lp1591
S'wsgi_run_once'
p1592
asbag56
(g77
g58
NtRp1593
(dp1594
g61
(dp1595
g88
g89
ssg70
g1584
sg63
(lp1596
S':'
asbag56
(g77
g58
NtRp1597
(dp1598
g61
(dp1599
sg70
g1584
sg63
(lp1600
g56
(g57
g58
NtRp1601
(dp1602
g61
(dp1603
g69
I4
ssg70
g1597
sg63
(lp1604
g821
asbasbasbag56
(g72
g58
NtRp1605
(dp1606
g61
(dp1607
sg70
g683
sg63
(lp1608
g56
(g77
g58
NtRp1609
(dp1610
g61
(dp1611
g81
g82
ssg70
g1605
sg63
(lp1612
S'wsgi_url_scheme'
p1613
asbag56
(g77
g58
NtRp1614
(dp1615
g61
(dp1616
g88
g89
ssg70
g1605
sg63
(lp1617
S':'
asbag56
(g77
g58
NtRp1618
(dp1619
g61
(dp1620
sg70
g1605
sg63
(lp1621
g56
(g57
g58
NtRp1622
(dp1623
g61
(dp1624
g69
I4
ssg70
g1618
sg63
(lp1625
S'http'
p1626
asbasbasbag56
(g72
g58
NtRp1627
(dp1628
g61
(dp1629
sg70
g683
sg63
(lp1630
g56
(g77
g58
NtRp1631
(dp1632
g61
(dp1633
g81
g82
ssg70
g1627
sg63
(lp1634
S'wsgi_version'
p1635
asbag56
(g77
g58
NtRp1636
(dp1637
g61
(dp1638
g88
g89
ssg70
g1627
sg63
(lp1639
S':'
asbag56
(g77
g58
NtRp1640
(dp1641
g61
(dp1642
sg70
g1627
sg63
(lp1643
g56
(g57
g58
NtRp1644
(dp1645
g61
(dp1646
g69
I4
ssg70
g1640
sg63
(lp1647
g56
(g65
g58
NtRp1648
(dp1649
g61
(dp1650
g69
I3
ssg70
Nsg63
(lp1651
g56
(g72
g58
NtRp1652
(dp1653
g61
(dp1654
sg70
g1648
sg63
(lp1655
g56
(g77
g58
NtRp1656
(dp1657
g61
(dp1658
sg70
g1652
sg63
(lp1659
g56
(g57
g58
NtRp1660
(dp1661
g61
(dp1662
g69
I3
ssg70
g1656
sg63
(lp1663
S'1'
asbasbasbag56
(g72
g58
NtRp1664
(dp1665
g61
(dp1666
sg70
g1648
sg63
(lp1667
g56
(g77
g58
NtRp1668
(dp1669
g61
(dp1670
sg70
g1664
sg63
(lp1671
g56
(g57
g58
NtRp1672
(dp1673
g61
(dp1674
g69
I3
ssg70
g1668
sg63
(lp1675
S'0'
asbasbasbasbasbasbasbasbasbasbasbag56
(g72
g58
NtRp1676
(dp1677
g61
(dp1678
sg70
g66
sg63
(lp1679
g56
(g77
g58
NtRp1680
(dp1681
g61
(dp1682
g81
g82
ssg70
g1676
sg63
(lp1683
S'extension'
p1684
asbag56
(g77
g58
NtRp1685
(dp1686
g61
(dp1687
g88
g89
ssg70
g1676
sg63
(lp1688
S':'
asbag56
(g77
g58
NtRp1689
(dp1690
g61
(dp1691
sg70
g1676
sg63
(lp1692
g56
(g57
g58
NtRp1693
(dp1694
g61
(dp1695
g69
I5
ssg70
g1689
sg63
(lp1696
S'load'
p1697
asbasbasbag56
(g72
g58
NtRp1698
(dp1699
g61
(dp1700
sg70
g66
sg63
(lp1701
g56
(g77
g58
NtRp1702
(dp1703
g61
(dp1704
g81
g82
ssg70
g1698
sg63
(lp1705
S'folder'
p1706
asbag56
(g77
g58
NtRp1707
(dp1708
g61
(dp1709
g88
g89
ssg70
g1698
sg63
(lp1710
S':'
asbag56
(g77
g58
NtRp1711
(dp1712
g61
(dp1713
sg70
g1698
sg63
(lp1714
g56
(g57
g58
NtRp1715
(dp1716
g61
(dp1717
g69
I5
ssg70
g1711
sg63
(lp1718
S'/home/ian/web2py/applications/topoi/'
p1719
asbasbasbag56
(g72
g58
NtRp1720
(dp1721
g61
(dp1722
sg70
g66
sg63
(lp1723
g56
(g77
g58
NtRp1724
(dp1725
g61
(dp1726
g81
g82
ssg70
g1720
sg63
(lp1727
S'function'
p1728
asbag56
(g77
g58
NtRp1729
(dp1730
g61
(dp1731
g88
g89
ssg70
g1720
sg63
(lp1732
S':'
asbag56
(g77
g58
NtRp1733
(dp1734
g61
(dp1735
sg70
g1720
sg63
(lp1736
g56
(g57
g58
NtRp1737
(dp1738
g61
(dp1739
g69
I5
ssg70
g1733
sg63
(lp1740
S'edit'
p1741
asbasbasbag56
(g72
g58
NtRp1742
(dp1743
g61
(dp1744
sg70
g66
sg63
(lp1745
g56
(g77
g58
NtRp1746
(dp1747
g61
(dp1748
g81
g82
ssg70
g1742
sg63
(lp1749
S'get_vars'
p1750
asbag56
(g77
g58
NtRp1751
(dp1752
g61
(dp1753
g88
g89
ssg70
g1742
sg63
(lp1754
S':'
asbag56
(g77
g58
NtRp1755
(dp1756
g61
(dp1757
sg70
g1742
sg63
(lp1758
g56
(g57
g58
NtRp1759
(dp1760
g61
(dp1761
g69
I5
ssg70
g1755
sg63
(lp1762
g56
(g65
g58
NtRp1763
(dp1764
g61
(dp1765
g69
I4
ssg70
Nsg63
(lp1766
sbasbasbasbag56
(g72
g58
NtRp1767
(dp1768
g61
(dp1769
sg70
g66
sg63
(lp1770
g56
(g77
g58
NtRp1771
(dp1772
g61
(dp1773
g81
g82
ssg70
g1767
sg63
(lp1774
S'global_settings'
p1775
asbag56
(g77
g58
NtRp1776
(dp1777
g61
(dp1778
g88
g89
ssg70
g1767
sg63
(lp1779
S':'
asbag56
(g77
g58
NtRp1780
(dp1781
g61
(dp1782
sg70
g1767
sg63
(lp1783
g56
(g57
g58
NtRp1784
(dp1785
g61
(dp1786
g69
I5
ssg70
g1780
sg63
(lp1787
g56
(g65
g58
NtRp1788
(dp1789
g61
(dp1790
g69
I4
ssg70
Nsg63
(lp1791
g56
(g72
g58
NtRp1792
(dp1793
g61
(dp1794
sg70
g1788
sg63
(lp1795
g56
(g77
g58
NtRp1796
(dp1797
g61
(dp1798
g81
g82
ssg70
g1792
sg63
(lp1799
g695
asbag56
(g77
g58
NtRp1800
(dp1801
g61
(dp1802
g88
g89
ssg70
g1792
sg63
(lp1803
S':'
asbag56
(g77
g58
NtRp1804
(dp1805
g61
(dp1806
sg70
g1792
sg63
(lp1807
g56
(g57
g58
NtRp1808
(dp1809
g61
(dp1810
g69
I4
ssg70
g1804
sg63
(lp1811
S"set(['/home/ian/web2py/applications/topoi/', '/home/ian/web2py/applications/admin/'])"
p1812
asbasbasbag56
(g72
g58
NtRp1813
(dp1814
g61
(dp1815
sg70
g1788
sg63
(lp1816
g56
(g77
g58
NtRp1817
(dp1818
g61
(dp1819
g81
g82
ssg70
g1813
sg63
(lp1820
g717
asbag56
(g77
g58
NtRp1821
(dp1822
g61
(dp1823
g88
g89
ssg70
g1813
sg63
(lp1824
S':'
asbag56
(g77
g58
NtRp1825
(dp1826
g61
(dp1827
sg70
g1813
sg63
(lp1828
g56
(g57
g58
NtRp1829
(dp1830
g61
(dp1831
g69
I4
ssg70
g1825
sg63
(lp1832
g730
asbasbasbag56
(g72
g58
NtRp1833
(dp1834
g61
(dp1835
sg70
g1788
sg63
(lp1836
g56
(g77
g58
NtRp1837
(dp1838
g61
(dp1839
g81
g82
ssg70
g1833
sg63
(lp1840
g739
asbag56
(g77
g58
NtRp1841
(dp1842
g61
(dp1843
g88
g89
ssg70
g1833
sg63
(lp1844
S':'
asbag56
(g77
g58
NtRp1845
(dp1846
g61
(dp1847
sg70
g1833
sg63
(lp1848
g56
(g57
g58
NtRp1849
(dp1850
g61
(dp1851
g69
I4
ssg70
g1845
sg63
(lp1852
g56
(g65
g58
NtRp1853
(dp1854
g61
(dp1855
g69
I3
ssg70
Nsg63
(lp1856
sbasbasbasbag56
(g72
g58
NtRp1857
(dp1858
g61
(dp1859
sg70
g1788
sg63
(lp1860
g56
(g77
g58
NtRp1861
(dp1862
g61
(dp1863
g81
g82
ssg70
g1857
sg63
(lp1864
g764
asbag56
(g77
g58
NtRp1865
(dp1866
g61
(dp1867
g88
g89
ssg70
g1857
sg63
(lp1868
S':'
asbag56
(g77
g58
NtRp1869
(dp1870
g61
(dp1871
sg70
g1857
sg63
(lp1872
g56
(g57
g58
NtRp1873
(dp1874
g61
(dp1875
g69
I4
ssg70
g1869
sg63
(lp1876
S"<Values at 0x2c53758: {'verbose': False, 'ip': '127.0.0.1', 'shutdown_timeout': 5, 'taskbar': False, 'nocron': False, 'pid_filename': 'httpserver.pid', 'maxthreads': None, 'softcron': False, 'server_name': 'uriel', 'bpython': False, 'nogui': False, 'port': 8000, 'extcron': False, 'debuglevel': 30, 'test': None, 'folder': '/home/ian/web2py', 'config': '', 'import_models': False, 'winservice': '', 'shell': None, 'run': '', 'log_filename': 'httpserver.log', 'args': [''], 'ssl_ca_certificate': None, 'scheduler': None, 'profiler_filename': None, 'ssl_private_key': '', 'password': '<ask>', 'request_queue_size': 5, 'ssl_certificate': '', 'cronjob': False, 'plain': False, 'quiet': False, 'interfaces': None, 'minthreads': None, 'timeout': 10, 'numthreads': None, 'nobanner': False}>"
p1877
asbasbasbag56
(g72
g58
NtRp1878
(dp1879
g61
(dp1880
sg70
g1788
sg63
(lp1881
g56
(g77
g58
NtRp1882
(dp1883
g61
(dp1884
g81
g82
ssg70
g1878
sg63
(lp1885
g786
asbag56
(g77
g58
NtRp1886
(dp1887
g61
(dp1888
g88
g89
ssg70
g1878
sg63
(lp1889
S':'
asbag56
(g77
g58
NtRp1890
(dp1891
g61
(dp1892
sg70
g1878
sg63
(lp1893
g56
(g57
g58
NtRp1894
(dp1895
g61
(dp1896
g69
I4
ssg70
g1890
sg63
(lp1897
S'set([])'
p1898
asbasbasbag56
(g72
g58
NtRp1899
(dp1900
g61
(dp1901
sg70
g1788
sg63
(lp1902
g56
(g77
g58
NtRp1903
(dp1904
g61
(dp1905
g81
g82
ssg70
g1899
sg63
(lp1906
g808
asbag56
(g77
g58
NtRp1907
(dp1908
g61
(dp1909
g88
g89
ssg70
g1899
sg63
(lp1910
S':'
asbag56
(g77
g58
NtRp1911
(dp1912
g61
(dp1913
sg70
g1899
sg63
(lp1914
g56
(g57
g58
NtRp1915
(dp1916
g61
(dp1917
g69
I4
ssg70
g1911
sg63
(lp1918
g821
asbasbasbag56
(g72
g58
NtRp1919
(dp1920
g61
(dp1921
sg70
g1788
sg63
(lp1922
g56
(g77
g58
NtRp1923
(dp1924
g61
(dp1925
g81
g82
ssg70
g1919
sg63
(lp1926
g830
asbag56
(g77
g58
NtRp1927
(dp1928
g61
(dp1929
g88
g89
ssg70
g1919
sg63
(lp1930
S':'
asbag56
(g77
g58
NtRp1931
(dp1932
g61
(dp1933
sg70
g1919
sg63
(lp1934
g56
(g57
g58
NtRp1935
(dp1936
g61
(dp1937
g69
I4
ssg70
g1931
sg63
(lp1938
g843
asbasbasbag56
(g72
g58
NtRp1939
(dp1940
g61
(dp1941
sg70
g1788
sg63
(lp1942
g56
(g77
g58
NtRp1943
(dp1944
g61
(dp1945
g81
g82
ssg70
g1939
sg63
(lp1946
g1115
asbag56
(g77
g58
NtRp1947
(dp1948
g61
(dp1949
g88
g89
ssg70
g1939
sg63
(lp1950
S':'
asbag56
(g77
g58
NtRp1951
(dp1952
g61
(dp1953
sg70
g1939
sg63
(lp1954
g56
(g57
g58
NtRp1955
(dp1956
g61
(dp1957
g69
I4
ssg70
g1951
sg63
(lp1958
g821
asbasbasbag56
(g72
g58
NtRp1959
(dp1960
g61
(dp1961
sg70
g1788
sg63
(lp1962
g56
(g77
g58
NtRp1963
(dp1964
g61
(dp1965
g81
g82
ssg70
g1959
sg63
(lp1966
g1353
asbag56
(g77
g58
NtRp1967
(dp1968
g61
(dp1969
g88
g89
ssg70
g1959
sg63
(lp1970
S':'
asbag56
(g77
g58
NtRp1971
(dp1972
g61
(dp1973
sg70
g1959
sg63
(lp1974
g56
(g57
g58
NtRp1975
(dp1976
g61
(dp1977
g69
I4
ssg70
g1971
sg63
(lp1978
g1366
asbasbasbag56
(g72
g58
NtRp1979
(dp1980
g61
(dp1981
sg70
g1788
sg63
(lp1982
g56
(g77
g58
NtRp1983
(dp1984
g61
(dp1985
g81
g82
ssg70
g1979
sg63
(lp1986
g1396
asbag56
(g77
g58
NtRp1987
(dp1988
g61
(dp1989
g88
g89
ssg70
g1979
sg63
(lp1990
S':'
asbag56
(g77
g58
NtRp1991
(dp1992
g61
(dp1993
sg70
g1979
sg63
(lp1994
g56
(g57
g58
NtRp1995
(dp1996
g61
(dp1997
g69
I4
ssg70
g1991
sg63
(lp1998
g56
(g65
g58
NtRp1999
(dp2000
g61
(dp2001
g69
I3
ssg70
Nsg63
(lp2002
g56
(g72
g58
NtRp2003
(dp2004
g61
(dp2005
sg70
g1999
sg63
(lp2006
g56
(g77
g58
NtRp2007
(dp2008
g61
(dp2009
sg70
g2003
sg63
(lp2010
g56
(g57
g58
NtRp2011
(dp2012
g61
(dp2013
g69
I3
ssg70
g2007
sg63
(lp2014
S'1'
asbasbasbag56
(g72
g58
NtRp2015
(dp2016
g61
(dp2017
sg70
g1999
sg63
(lp2018
g56
(g77
g58
NtRp2019
(dp2020
g61
(dp2021
sg70
g2015
sg63
(lp2022
g56
(g57
g58
NtRp2023
(dp2024
g61
(dp2025
g69
I3
ssg70
g2019
sg63
(lp2026
S'99'
p2027
asbasbasbag56
(g72
g58
NtRp2028
(dp2029
g61
(dp2030
sg70
g1999
sg63
(lp2031
g56
(g77
g58
NtRp2032
(dp2033
g61
(dp2034
sg70
g2028
sg63
(lp2035
g56
(g57
g58
NtRp2036
(dp2037
g61
(dp2038
g69
I3
ssg70
g2032
sg63
(lp2039
S'2'
asbasbasbag56
(g72
g58
NtRp2040
(dp2041
g61
(dp2042
sg70
g1999
sg63
(lp2043
g56
(g77
g58
NtRp2044
(dp2045
g61
(dp2046
sg70
g2040
sg63
(lp2047
g56
(g57
g58
NtRp2048
(dp2049
g61
(dp2050
g69
I3
ssg70
g2044
sg63
(lp2051
S'datetime.datetime(2011, 9, 26, 6, 55, 33)'
p2052
asbasbasbag56
(g72
g58
NtRp2053
(dp2054
g61
(dp2055
sg70
g1999
sg63
(lp2056
g56
(g77
g58
NtRp2057
(dp2058
g61
(dp2059
sg70
g2053
sg63
(lp2060
g56
(g57
g58
NtRp2061
(dp2062
g61
(dp2063
g69
I3
ssg70
g2057
sg63
(lp2064
g1475
asbasbasbasbasbasbasbasbasbasbasbag56
(g72
g58
NtRp2065
(dp2066
g61
(dp2067
sg70
g66
sg63
(lp2068
g56
(g77
g58
NtRp2069
(dp2070
g61
(dp2071
g81
g82
ssg70
g2065
sg63
(lp2072
S'is_https'
p2073
asbag56
(g77
g58
NtRp2074
(dp2075
g61
(dp2076
g88
g89
ssg70
g2065
sg63
(lp2077
S':'
asbag56
(g77
g58
NtRp2078
(dp2079
g61
(dp2080
sg70
g2065
sg63
(lp2081
g56
(g57
g58
NtRp2082
(dp2083
g61
(dp2084
g69
I5
ssg70
g2078
sg63
(lp2085
g821
asbasbasbag56
(g72
g58
NtRp2086
(dp2087
g61
(dp2088
sg70
g66
sg63
(lp2089
g56
(g77
g58
NtRp2090
(dp2091
g61
(dp2092
g81
g82
ssg70
g2086
sg63
(lp2093
S'is_local'
p2094
asbag56
(g77
g58
NtRp2095
(dp2096
g61
(dp2097
g88
g89
ssg70
g2086
sg63
(lp2098
S':'
asbag56
(g77
g58
NtRp2099
(dp2100
g61
(dp2101
sg70
g2086
sg63
(lp2102
g56
(g57
g58
NtRp2103
(dp2104
g61
(dp2105
g69
I5
ssg70
g2099
sg63
(lp2106
g99
asbasbasbag56
(g72
g58
NtRp2107
(dp2108
g61
(dp2109
sg70
g66
sg63
(lp2110
g56
(g77
g58
NtRp2111
(dp2112
g61
(dp2113
g81
g82
ssg70
g2107
sg63
(lp2114
S'is_restful'
p2115
asbag56
(g77
g58
NtRp2116
(dp2117
g61
(dp2118
g88
g89
ssg70
g2107
sg63
(lp2119
S':'
asbag56
(g77
g58
NtRp2120
(dp2121
g61
(dp2122
sg70
g2107
sg63
(lp2123
g56
(g57
g58
NtRp2124
(dp2125
g61
(dp2126
g69
I5
ssg70
g2120
sg63
(lp2127
g821
asbasbasbag56
(g72
g58
NtRp2128
(dp2129
g61
(dp2130
sg70
g66
sg63
(lp2131
g56
(g77
g58
NtRp2132
(dp2133
g61
(dp2134
g81
g82
ssg70
g2128
sg63
(lp2135
S'now'
p2136
asbag56
(g77
g58
NtRp2137
(dp2138
g61
(dp2139
g88
g89
ssg70
g2128
sg63
(lp2140
S':'
asbag56
(g77
g58
NtRp2141
(dp2142
g61
(dp2143
sg70
g2128
sg63
(lp2144
g56
(g57
g58
NtRp2145
(dp2146
g61
(dp2147
g69
I5
ssg70
g2141
sg63
(lp2148
S'datetime.datetime(2011, 12, 17, 22, 8, 11, 353997)'
p2149
asbasbasbag56
(g72
g58
NtRp2150
(dp2151
g61
(dp2152
sg70
g66
sg63
(lp2153
g56
(g77
g58
NtRp2154
(dp2155
g61
(dp2156
g81
g82
ssg70
g2150
sg63
(lp2157
S'post_vars'
p2158
asbag56
(g77
g58
NtRp2159
(dp2160
g61
(dp2161
g88
g89
ssg70
g2150
sg63
(lp2162
S':'
asbag56
(g77
g58
NtRp2163
(dp2164
g61
(dp2165
sg70
g2150
sg63
(lp2166
g56
(g57
g58
NtRp2167
(dp2168
g61
(dp2169
g69
I5
ssg70
g2163
sg63
(lp2170
g56
(g65
g58
NtRp2171
(dp2172
g61
(dp2173
g69
I4
ssg70
Nsg63
(lp2174
sbasbasbasbag56
(g72
g58
NtRp2175
(dp2176
g61
(dp2177
sg70
g66
sg63
(lp2178
g56
(g77
g58
NtRp2179
(dp2180
g61
(dp2181
g81
g82
ssg70
g2175
sg63
(lp2182
S'raw_args'
p2183
asbag56
(g77
g58
NtRp2184
(dp2185
g61
(dp2186
g88
g89
ssg70
g2175
sg63
(lp2187
S':'
asbag56
(g77
g58
NtRp2188
(dp2189
g61
(dp2190
sg70
g2175
sg63
(lp2191
g56
(g57
g58
NtRp2192
(dp2193
g61
(dp2194
g69
I5
ssg70
g2188
sg63
(lp2195
S'notes/2'
p2196
asbasbasbag56
(g72
g58
NtRp2197
(dp2198
g61
(dp2199
sg70
g66
sg63
(lp2200
g56
(g77
g58
NtRp2201
(dp2202
g61
(dp2203
g81
g82
ssg70
g2197
sg63
(lp2204
S'raw_extension'
p2205
asbag56
(g77
g58
NtRp2206
(dp2207
g61
(dp2208
g88
g89
ssg70
g2197
sg63
(lp2209
S':'
asbag56
(g77
g58
NtRp2210
(dp2211
g61
(dp2212
sg70
g2197
sg63
(lp2213
g56
(g57
g58
NtRp2214
(dp2215
g61
(dp2216
g69
I5
ssg70
g2210
sg63
(lp2217
g1697
asbasbasbag56
(g72
g58
NtRp2218
(dp2219
g61
(dp2220
sg70
g66
sg63
(lp2221
g56
(g77
g58
NtRp2222
(dp2223
g61
(dp2224
g81
g82
ssg70
g2218
sg63
(lp2225
S'url'
p2226
asbag56
(g77
g58
NtRp2227
(dp2228
g61
(dp2229
g88
g89
ssg70
g2218
sg63
(lp2230
S':'
asbag56
(g77
g58
NtRp2231
(dp2232
g61
(dp2233
sg70
g2218
sg63
(lp2234
g56
(g57
g58
NtRp2235
(dp2236
g61
(dp2237
g69
I5
ssg70
g2231
sg63
(lp2238
S'/topoi/plugin_listandedit/edit.load/notes/2'
p2239
asbasbasbag56
(g72
g58
NtRp2240
(dp2241
g61
(dp2242
sg70
g66
sg63
(lp2243
g56
(g77
g58
NtRp2244
(dp2245
g61
(dp2246
g81
g82
ssg70
g2240
sg63
(lp2247
S'utcnow'
p2248
asbag56
(g77
g58
NtRp2249
(dp2250
g61
(dp2251
g88
g89
ssg70
g2240
sg63
(lp2252
S':'
asbag56
(g77
g58
NtRp2253
(dp2254
g61
(dp2255
sg70
g2240
sg63
(lp2256
g56
(g57
g58
NtRp2257
(dp2258
g61
(dp2259
g69
I5
ssg70
g2253
sg63
(lp2260
S'datetime.datetime(2011, 12, 18, 3, 8, 11, 354054)'
p2261
asbasbasbag56
(g72
g58
NtRp2262
(dp2263
g61
(dp2264
sg70
g66
sg63
(lp2265
g56
(g77
g58
NtRp2266
(dp2267
g61
(dp2268
g81
g82
ssg70
g2262
sg63
(lp2269
S'uuid'
p2270
asbag56
(g77
g58
NtRp2271
(dp2272
g61
(dp2273
g88
g89
ssg70
g2262
sg63
(lp2274
S':'
asbag56
(g77
g58
NtRp2275
(dp2276
g61
(dp2277
sg70
g2262
sg63
(lp2278
g56
(g57
g58
NtRp2279
(dp2280
g61
(dp2281
g69
I5
ssg70
g2275
sg63
(lp2282
S'topoi/127.0.0.1.2011-12-17.22-08-11.1e096ec2-df8d-4da8-b740-a009cfbcd0f5'
p2283
asbasbasbag56
(g72
g58
NtRp2284
(dp2285
g61
(dp2286
sg70
g66
sg63
(lp2287
g56
(g77
g58
NtRp2288
(dp2289
g61
(dp2290
g81
g82
ssg70
g2284
sg63
(lp2291
S'vars'
p2292
asbag56
(g77
g58
NtRp2293
(dp2294
g61
(dp2295
g88
g89
ssg70
g2284
sg63
(lp2296
S':'
asbag56
(g77
g58
NtRp2297
(dp2298
g61
(dp2299
sg70
g2284
sg63
(lp2300
g56
(g57
g58
NtRp2301
(dp2302
g61
(dp2303
g69
I5
ssg70
g2297
sg63
(lp2304
g56
(g65
g58
NtRp2305
(dp2306
g61
(dp2307
g69
I4
ssg70
Nsg63
(lp2308
sbasbasbasbag56
(g72
g58
NtRp2309
(dp2310
g61
(dp2311
sg70
g66
sg63
(lp2312
g56
(g77
g58
NtRp2313
(dp2314
g61
(dp2315
g81
g82
ssg70
g2309
sg63
(lp2316
S'wsgi'
p2317
asbag56
(g77
g58
NtRp2318
(dp2319
g61
(dp2320
g88
g89
ssg70
g2309
sg63
(lp2321
S':'
asbag56
(g77
g58
NtRp2322
(dp2323
g61
(dp2324
sg70
g2309
sg63
(lp2325
g56
(g57
g58
NtRp2326
(dp2327
g61
(dp2328
g69
I5
ssg70
g2322
sg63
(lp2329
g56
(g65
g58
NtRp2330
(dp2331
g61
(dp2332
g69
I4
ssg70
Nsg63
(lp2333
g56
(g72
g58
NtRp2334
(dp2335
g61
(dp2336
sg70
g2330
sg63
(lp2337
g56
(g77
g58
NtRp2338
(dp2339
g61
(dp2340
g81
g82
ssg70
g2334
sg63
(lp2341
S'environ'
p2342
asbag56
(g77
g58
NtRp2343
(dp2344
g61
(dp2345
g88
g89
ssg70
g2334
sg63
(lp2346
S':'
asbag56
(g77
g58
NtRp2347
(dp2348
g61
(dp2349
sg70
g2334
sg63
(lp2350
g56
(g57
g58
NtRp2351
(dp2352
g61
(dp2353
g69
I4
ssg70
g2347
sg63
(lp2354
g56
(g65
g58
NtRp2355
(dp2356
g61
(dp2357
g69
I3
ssg70
Nsg63
(lp2358
g56
(g72
g58
NtRp2359
(dp2360
g61
(dp2361
sg70
g2355
sg63
(lp2362
g56
(g77
g58
NtRp2363
(dp2364
g61
(dp2365
g81
g82
ssg70
g2359
sg63
(lp2366
S'HTTP_ACCEPT'
p2367
asbag56
(g77
g58
NtRp2368
(dp2369
g61
(dp2370
g88
g89
ssg70
g2359
sg63
(lp2371
S':'
asbag56
(g77
g58
NtRp2372
(dp2373
g61
(dp2374
sg70
g2359
sg63
(lp2375
g56
(g57
g58
NtRp2376
(dp2377
g61
(dp2378
g69
I3
ssg70
g2372
sg63
(lp2379
g865
asbasbasbag56
(g72
g58
NtRp2380
(dp2381
g61
(dp2382
sg70
g2355
sg63
(lp2383
g56
(g77
g58
NtRp2384
(dp2385
g61
(dp2386
g81
g82
ssg70
g2380
sg63
(lp2387
S'HTTP_ACCEPT_CHARSET'
p2388
asbag56
(g77
g58
NtRp2389
(dp2390
g61
(dp2391
g88
g89
ssg70
g2380
sg63
(lp2392
S':'
asbag56
(g77
g58
NtRp2393
(dp2394
g61
(dp2395
sg70
g2380
sg63
(lp2396
g56
(g57
g58
NtRp2397
(dp2398
g61
(dp2399
g69
I3
ssg70
g2393
sg63
(lp2400
g887
asbasbasbag56
(g72
g58
NtRp2401
(dp2402
g61
(dp2403
sg70
g2355
sg63
(lp2404
g56
(g77
g58
NtRp2405
(dp2406
g61
(dp2407
g81
g82
ssg70
g2401
sg63
(lp2408
S'HTTP_ACCEPT_ENCODING'
p2409
asbag56
(g77
g58
NtRp2410
(dp2411
g61
(dp2412
g88
g89
ssg70
g2401
sg63
(lp2413
S':'
asbag56
(g77
g58
NtRp2414
(dp2415
g61
(dp2416
sg70
g2401
sg63
(lp2417
g56
(g57
g58
NtRp2418
(dp2419
g61
(dp2420
g69
I3
ssg70
g2414
sg63
(lp2421
g909
asbasbasbag56
(g72
g58
NtRp2422
(dp2423
g61
(dp2424
sg70
g2355
sg63
(lp2425
g56
(g77
g58
NtRp2426
(dp2427
g61
(dp2428
g81
g82
ssg70
g2422
sg63
(lp2429
S'HTTP_ACCEPT_LANGUAGE'
p2430
asbag56
(g77
g58
NtRp2431
(dp2432
g61
(dp2433
g88
g89
ssg70
g2422
sg63
(lp2434
S':'
asbag56
(g77
g58
NtRp2435
(dp2436
g61
(dp2437
sg70
g2422
sg63
(lp2438
g56
(g57
g58
NtRp2439
(dp2440
g61
(dp2441
g69
I3
ssg70
g2435
sg63
(lp2442
g931
asbasbasbag56
(g72
g58
NtRp2443
(dp2444
g61
(dp2445
sg70
g2355
sg63
(lp2446
g56
(g77
g58
NtRp2447
(dp2448
g61
(dp2449
g81
g82
ssg70
g2443
sg63
(lp2450
S'HTTP_CONNECTION'
p2451
asbag56
(g77
g58
NtRp2452
(dp2453
g61
(dp2454
g88
g89
ssg70
g2443
sg63
(lp2455
S':'
asbag56
(g77
g58
NtRp2456
(dp2457
g61
(dp2458
sg70
g2443
sg63
(lp2459
g56
(g57
g58
NtRp2460
(dp2461
g61
(dp2462
g69
I3
ssg70
g2456
sg63
(lp2463
g953
asbasbasbag56
(g72
g58
NtRp2464
(dp2465
g61
(dp2466
sg70
g2355
sg63
(lp2467
g56
(g77
g58
NtRp2468
(dp2469
g61
(dp2470
g81
g82
ssg70
g2464
sg63
(lp2471
S'HTTP_COOKIE'
p2472
asbag56
(g77
g58
NtRp2473
(dp2474
g61
(dp2475
g88
g89
ssg70
g2464
sg63
(lp2476
S':'
asbag56
(g77
g58
NtRp2477
(dp2478
g61
(dp2479
sg70
g2464
sg63
(lp2480
g56
(g57
g58
NtRp2481
(dp2482
g61
(dp2483
g69
I3
ssg70
g2477
sg63
(lp2484
g975
asbasbasbag56
(g72
g58
NtRp2485
(dp2486
g61
(dp2487
sg70
g2355
sg63
(lp2488
g56
(g77
g58
NtRp2489
(dp2490
g61
(dp2491
g81
g82
ssg70
g2485
sg63
(lp2492
S'HTTP_HOST'
p2493
asbag56
(g77
g58
NtRp2494
(dp2495
g61
(dp2496
g88
g89
ssg70
g2485
sg63
(lp2497
S':'
asbag56
(g77
g58
NtRp2498
(dp2499
g61
(dp2500
sg70
g2485
sg63
(lp2501
g56
(g57
g58
NtRp2502
(dp2503
g61
(dp2504
g69
I3
ssg70
g2498
sg63
(lp2505
g997
asbasbasbag56
(g72
g58
NtRp2506
(dp2507
g61
(dp2508
sg70
g2355
sg63
(lp2509
g56
(g77
g58
NtRp2510
(dp2511
g61
(dp2512
g81
g82
ssg70
g2506
sg63
(lp2513
S'HTTP_REFERER'
p2514
asbag56
(g77
g58
NtRp2515
(dp2516
g61
(dp2517
g88
g89
ssg70
g2506
sg63
(lp2518
S':'
asbag56
(g77
g58
NtRp2519
(dp2520
g61
(dp2521
sg70
g2506
sg63
(lp2522
g56
(g57
g58
NtRp2523
(dp2524
g61
(dp2525
g69
I3
ssg70
g2519
sg63
(lp2526
g1019
asbasbasbag56
(g72
g58
NtRp2527
(dp2528
g61
(dp2529
sg70
g2355
sg63
(lp2530
g56
(g77
g58
NtRp2531
(dp2532
g61
(dp2533
g81
g82
ssg70
g2527
sg63
(lp2534
S'HTTP_USER_AGENT'
p2535
asbag56
(g77
g58
NtRp2536
(dp2537
g61
(dp2538
g88
g89
ssg70
g2527
sg63
(lp2539
S':'
asbag56
(g77
g58
NtRp2540
(dp2541
g61
(dp2542
sg70
g2527
sg63
(lp2543
g56
(g57
g58
NtRp2544
(dp2545
g61
(dp2546
g69
I3
ssg70
g2540
sg63
(lp2547
g1041
asbasbasbag56
(g72
g58
NtRp2548
(dp2549
g61
(dp2550
sg70
g2355
sg63
(lp2551
g56
(g77
g58
NtRp2552
(dp2553
g61
(dp2554
g81
g82
ssg70
g2548
sg63
(lp2555
S'HTTP_WEB2PY_COMPONENT_ELEMENT'
p2556
asbag56
(g77
g58
NtRp2557
(dp2558
g61
(dp2559
g88
g89
ssg70
g2548
sg63
(lp2560
S':'
asbag56
(g77
g58
NtRp2561
(dp2562
g61
(dp2563
sg70
g2548
sg63
(lp2564
g56
(g57
g58
NtRp2565
(dp2566
g61
(dp2567
g69
I3
ssg70
g2561
sg63
(lp2568
g214
asbasbasbag56
(g72
g58
NtRp2569
(dp2570
g61
(dp2571
sg70
g2355
sg63
(lp2572
g56
(g77
g58
NtRp2573
(dp2574
g61
(dp2575
g81
g82
ssg70
g2569
sg63
(lp2576
S'HTTP_WEB2PY_COMPONENT_LOCATION'
p2577
asbag56
(g77
g58
NtRp2578
(dp2579
g61
(dp2580
g88
g89
ssg70
g2569
sg63
(lp2581
S':'
asbag56
(g77
g58
NtRp2582
(dp2583
g61
(dp2584
sg70
g2569
sg63
(lp2585
g56
(g57
g58
NtRp2586
(dp2587
g61
(dp2588
g69
I3
ssg70
g2582
sg63
(lp2589
g1084
asbasbasbag56
(g72
g58
NtRp2590
(dp2591
g61
(dp2592
sg70
g2355
sg63
(lp2593
g56
(g77
g58
NtRp2594
(dp2595
g61
(dp2596
g81
g82
ssg70
g2590
sg63
(lp2597
S'HTTP_X_REQUESTED_WITH'
p2598
asbag56
(g77
g58
NtRp2599
(dp2600
g61
(dp2601
g88
g89
ssg70
g2590
sg63
(lp2602
S':'
asbag56
(g77
g58
NtRp2603
(dp2604
g61
(dp2605
sg70
g2590
sg63
(lp2606
g56
(g57
g58
NtRp2607
(dp2608
g61
(dp2609
g69
I3
ssg70
g2603
sg63
(lp2610
g1106
asbasbasbag56
(g72
g58
NtRp2611
(dp2612
g61
(dp2613
sg70
g2355
sg63
(lp2614
g56
(g77
g58
NtRp2615
(dp2616
g61
(dp2617
g81
g82
ssg70
g2611
sg63
(lp2618
S'PATH_INFO'
p2619
asbag56
(g77
g58
NtRp2620
(dp2621
g61
(dp2622
g88
g89
ssg70
g2611
sg63
(lp2623
S':'
asbag56
(g77
g58
NtRp2624
(dp2625
g61
(dp2626
sg70
g2611
sg63
(lp2627
g56
(g57
g58
NtRp2628
(dp2629
g61
(dp2630
g69
I3
ssg70
g2624
sg63
(lp2631
g1149
asbasbasbag56
(g72
g58
NtRp2632
(dp2633
g61
(dp2634
sg70
g2355
sg63
(lp2635
g56
(g77
g58
NtRp2636
(dp2637
g61
(dp2638
g81
g82
ssg70
g2632
sg63
(lp2639
S'QUERY_STRING'
p2640
asbag56
(g77
g58
NtRp2641
(dp2642
g61
(dp2643
g88
g89
ssg70
g2632
sg63
(lp2644
S':'
asbag56
(g77
g58
NtRp2645
(dp2646
g61
(dp2647
sg70
g2632
sg63
(lp2648
g56
(g57
g58
NtRp2649
(dp2650
g61
(dp2651
g69
I3
ssg70
g2645
sg63
(lp2652
S''
asbasbasbag56
(g72
g58
NtRp2653
(dp2654
g61
(dp2655
sg70
g2355
sg63
(lp2656
g56
(g77
g58
NtRp2657
(dp2658
g61
(dp2659
g81
g82
ssg70
g2653
sg63
(lp2660
S'REMOTE_ADDR'
p2661
asbag56
(g77
g58
NtRp2662
(dp2663
g61
(dp2664
g88
g89
ssg70
g2653
sg63
(lp2665
S':'
asbag56
(g77
g58
NtRp2666
(dp2667
g61
(dp2668
sg70
g2653
sg63
(lp2669
g56
(g57
g58
NtRp2670
(dp2671
g61
(dp2672
g69
I3
ssg70
g2666
sg63
(lp2673
g236
asbasbasbag56
(g72
g58
NtRp2674
(dp2675
g61
(dp2676
sg70
g2355
sg63
(lp2677
g56
(g77
g58
NtRp2678
(dp2679
g61
(dp2680
g81
g82
ssg70
g2674
sg63
(lp2681
S'REMOTE_PORT'
p2682
asbag56
(g77
g58
NtRp2683
(dp2684
g61
(dp2685
g88
g89
ssg70
g2674
sg63
(lp2686
S':'
asbag56
(g77
g58
NtRp2687
(dp2688
g61
(dp2689
sg70
g2674
sg63
(lp2690
g56
(g57
g58
NtRp2691
(dp2692
g61
(dp2693
g69
I3
ssg70
g2687
sg63
(lp2694
g1213
asbasbasbag56
(g72
g58
NtRp2695
(dp2696
g61
(dp2697
sg70
g2355
sg63
(lp2698
g56
(g77
g58
NtRp2699
(dp2700
g61
(dp2701
g81
g82
ssg70
g2695
sg63
(lp2702
S'REQUEST_METHOD'
p2703
asbag56
(g77
g58
NtRp2704
(dp2705
g61
(dp2706
g88
g89
ssg70
g2695
sg63
(lp2707
S':'
asbag56
(g77
g58
NtRp2708
(dp2709
g61
(dp2710
sg70
g2695
sg63
(lp2711
g56
(g57
g58
NtRp2712
(dp2713
g61
(dp2714
g69
I3
ssg70
g2708
sg63
(lp2715
g1235
asbasbasbag56
(g72
g58
NtRp2716
(dp2717
g61
(dp2718
sg70
g2355
sg63
(lp2719
g56
(g77
g58
NtRp2720
(dp2721
g61
(dp2722
g81
g82
ssg70
g2716
sg63
(lp2723
S'SCRIPT_NAME'
p2724
asbag56
(g77
g58
NtRp2725
(dp2726
g61
(dp2727
g88
g89
ssg70
g2716
sg63
(lp2728
S':'
asbag56
(g77
g58
NtRp2729
(dp2730
g61
(dp2731
sg70
g2716
sg63
(lp2732
g56
(g57
g58
NtRp2733
(dp2734
g61
(dp2735
g69
I3
ssg70
g2729
sg63
(lp2736
S''
asbasbasbag56
(g72
g58
NtRp2737
(dp2738
g61
(dp2739
sg70
g2355
sg63
(lp2740
g56
(g77
g58
NtRp2741
(dp2742
g61
(dp2743
g81
g82
ssg70
g2737
sg63
(lp2744
S'SERVER_NAME'
p2745
asbag56
(g77
g58
NtRp2746
(dp2747
g61
(dp2748
g88
g89
ssg70
g2737
sg63
(lp2749
S':'
asbag56
(g77
g58
NtRp2750
(dp2751
g61
(dp2752
sg70
g2737
sg63
(lp2753
g56
(g57
g58
NtRp2754
(dp2755
g61
(dp2756
g69
I3
ssg70
g2750
sg63
(lp2757
g1278
asbasbasbag56
(g72
g58
NtRp2758
(dp2759
g61
(dp2760
sg70
g2355
sg63
(lp2761
g56
(g77
g58
NtRp2762
(dp2763
g61
(dp2764
g81
g82
ssg70
g2758
sg63
(lp2765
S'SERVER_PORT'
p2766
asbag56
(g77
g58
NtRp2767
(dp2768
g61
(dp2769
g88
g89
ssg70
g2758
sg63
(lp2770
S':'
asbag56
(g77
g58
NtRp2771
(dp2772
g61
(dp2773
sg70
g2758
sg63
(lp2774
g56
(g57
g58
NtRp2775
(dp2776
g61
(dp2777
g69
I3
ssg70
g2771
sg63
(lp2778
g1300
asbasbasbag56
(g72
g58
NtRp2779
(dp2780
g61
(dp2781
sg70
g2355
sg63
(lp2782
g56
(g77
g58
NtRp2783
(dp2784
g61
(dp2785
g81
g82
ssg70
g2779
sg63
(lp2786
S'SERVER_PROTOCOL'
p2787
asbag56
(g77
g58
NtRp2788
(dp2789
g61
(dp2790
g88
g89
ssg70
g2779
sg63
(lp2791
S':'
asbag56
(g77
g58
NtRp2792
(dp2793
g61
(dp2794
sg70
g2779
sg63
(lp2795
g56
(g57
g58
NtRp2796
(dp2797
g61
(dp2798
g69
I3
ssg70
g2792
sg63
(lp2799
g1322
asbasbasbag56
(g72
g58
NtRp2800
(dp2801
g61
(dp2802
sg70
g2355
sg63
(lp2803
g56
(g77
g58
NtRp2804
(dp2805
g61
(dp2806
g81
g82
ssg70
g2800
sg63
(lp2807
S'SERVER_SOFTWARE'
p2808
asbag56
(g77
g58
NtRp2809
(dp2810
g61
(dp2811
g88
g89
ssg70
g2800
sg63
(lp2812
S':'
asbag56
(g77
g58
NtRp2813
(dp2814
g61
(dp2815
sg70
g2800
sg63
(lp2816
g56
(g57
g58
NtRp2817
(dp2818
g61
(dp2819
g69
I3
ssg70
g2813
sg63
(lp2820
g1344
asbasbasbag56
(g72
g58
NtRp2821
(dp2822
g61
(dp2823
sg70
g2355
sg63
(lp2824
g56
(g77
g58
NtRp2825
(dp2826
g61
(dp2827
g81
g82
ssg70
g2821
sg63
(lp2828
S'wsgi.errors'
p2829
asbag56
(g77
g58
NtRp2830
(dp2831
g61
(dp2832
g88
g89
ssg70
g2821
sg63
(lp2833
S':'
asbag56
(g77
g58
NtRp2834
(dp2835
g61
(dp2836
sg70
g2821
sg63
(lp2837
g56
(g57
g58
NtRp2838
(dp2839
g61
(dp2840
g69
I3
ssg70
g2834
sg63
(lp2841
S"<open file '<stderr>', mode 'w' at 0x7f8b30c7d270>"
p2842
asbasbasbag56
(g72
g58
NtRp2843
(dp2844
g61
(dp2845
sg70
g2355
sg63
(lp2846
g56
(g77
g58
NtRp2847
(dp2848
g61
(dp2849
g81
g82
ssg70
g2843
sg63
(lp2850
S'wsgi.file_wrapper'
p2851
asbag56
(g77
g58
NtRp2852
(dp2853
g61
(dp2854
g88
g89
ssg70
g2843
sg63
(lp2855
S':'
asbag56
(g77
g58
NtRp2856
(dp2857
g61
(dp2858
sg70
g2843
sg63
(lp2859
g56
(g57
g58
NtRp2860
(dp2861
g61
(dp2862
g69
I3
ssg70
g2856
sg63
(lp2863
S'<class wsgiref.util.FileWrapper at 0x2b1e870>'
p2864
asbasbasbag56
(g72
g58
NtRp2865
(dp2866
g61
(dp2867
sg70
g2355
sg63
(lp2868
g56
(g77
g58
NtRp2869
(dp2870
g61
(dp2871
g81
g82
ssg70
g2865
sg63
(lp2872
S'wsgi.input'
p2873
asbag56
(g77
g58
NtRp2874
(dp2875
g61
(dp2876
g88
g89
ssg70
g2865
sg63
(lp2877
S':'
asbag56
(g77
g58
NtRp2878
(dp2879
g61
(dp2880
sg70
g2865
sg63
(lp2881
g56
(g57
g58
NtRp2882
(dp2883
g61
(dp2884
g69
I3
ssg70
g2878
sg63
(lp2885
S'<cStringIO.StringO object at 0x3a428f0>'
p2886
asbasbasbag56
(g72
g58
NtRp2887
(dp2888
g61
(dp2889
sg70
g2355
sg63
(lp2890
g56
(g77
g58
NtRp2891
(dp2892
g61
(dp2893
g81
g82
ssg70
g2887
sg63
(lp2894
S'wsgi.multiprocess'
p2895
asbag56
(g77
g58
NtRp2896
(dp2897
g61
(dp2898
g88
g89
ssg70
g2887
sg63
(lp2899
S':'
asbag56
(g77
g58
NtRp2900
(dp2901
g61
(dp2902
sg70
g2887
sg63
(lp2903
g56
(g57
g58
NtRp2904
(dp2905
g61
(dp2906
g69
I3
ssg70
g2900
sg63
(lp2907
g821
asbasbasbag56
(g72
g58
NtRp2908
(dp2909
g61
(dp2910
sg70
g2355
sg63
(lp2911
g56
(g77
g58
NtRp2912
(dp2913
g61
(dp2914
g81
g82
ssg70
g2908
sg63
(lp2915
S'wsgi.multithread'
p2916
asbag56
(g77
g58
NtRp2917
(dp2918
g61
(dp2919
g88
g89
ssg70
g2908
sg63
(lp2920
S':'
asbag56
(g77
g58
NtRp2921
(dp2922
g61
(dp2923
sg70
g2908
sg63
(lp2924
g56
(g57
g58
NtRp2925
(dp2926
g61
(dp2927
g69
I3
ssg70
g2921
sg63
(lp2928
g99
asbasbasbag56
(g72
g58
NtRp2929
(dp2930
g61
(dp2931
sg70
g2355
sg63
(lp2932
g56
(g77
g58
NtRp2933
(dp2934
g61
(dp2935
g81
g82
ssg70
g2929
sg63
(lp2936
S'wsgi.run_once'
p2937
asbag56
(g77
g58
NtRp2938
(dp2939
g61
(dp2940
g88
g89
ssg70
g2929
sg63
(lp2941
S':'
asbag56
(g77
g58
NtRp2942
(dp2943
g61
(dp2944
sg70
g2929
sg63
(lp2945
g56
(g57
g58
NtRp2946
(dp2947
g61
(dp2948
g69
I3
ssg70
g2942
sg63
(lp2949
g821
asbasbasbag56
(g72
g58
NtRp2950
(dp2951
g61
(dp2952
sg70
g2355
sg63
(lp2953
g56
(g77
g58
NtRp2954
(dp2955
g61
(dp2956
g81
g82
ssg70
g2950
sg63
(lp2957
S'wsgi.url_scheme'
p2958
asbag56
(g77
g58
NtRp2959
(dp2960
g61
(dp2961
g88
g89
ssg70
g2950
sg63
(lp2962
S':'
asbag56
(g77
g58
NtRp2963
(dp2964
g61
(dp2965
sg70
g2950
sg63
(lp2966
g56
(g57
g58
NtRp2967
(dp2968
g61
(dp2969
g69
I3
ssg70
g2963
sg63
(lp2970
g1626
asbasbasbag56
(g72
g58
NtRp2971
(dp2972
g61
(dp2973
sg70
g2355
sg63
(lp2974
g56
(g77
g58
NtRp2975
(dp2976
g61
(dp2977
g81
g82
ssg70
g2971
sg63
(lp2978
S'wsgi.version'
p2979
asbag56
(g77
g58
NtRp2980
(dp2981
g61
(dp2982
g88
g89
ssg70
g2971
sg63
(lp2983
S':'
asbag56
(g77
g58
NtRp2984
(dp2985
g61
(dp2986
sg70
g2971
sg63
(lp2987
g56
(g57
g58
NtRp2988
(dp2989
g61
(dp2990
g69
I3
ssg70
g2984
sg63
(lp2991
S'1'
asbasbasbasbasbasbasbasbasbasbasbasbasbsS'frames'
p2992
(lp2993
(dp2994
S'file'
p2995
S'/home/ian/web2py/gluon/restricted.py'
p2996
sS'dump'
p2997
(dp2998
S'environment'
p2999
S"{'A': <class 'gluon.html.A'>, 'AjaxSelect': <class applications.topoi.modules.plugin_ajaxselect.AjaxSelect>, 'Auth': <class 'gluon.tools.Auth'>, 'B': <class 'gluon.html.B'>, 'BEAUTIFY': <class 'gluon.html.BEAUTIFY'>, 'BODY': <class 'gluon.html.BODY'>, 'BR': <class 'gluon.html.BR'>, 'BUTTON': <class 'gluon.html.BUTTON'>, 'CAT': <class 'gluon.html.CAT'>, 'CENTER': <class 'gluon.html.CENTER'>, ...}"
p3000
sS'ccode'
p3001
S'<code object <module> at 0x3a607b0, file "/home/...topoi/controllers/plugin_listandedit.py", line 3>'
p3002
ssS'lnum'
p3003
I194
sS'lines'
p3004
(dp3005
I192
S'        else:'
p3006
sI193
S'            ccode = compile2(code,layer)'
p3007
sI194
S'        exec ccode in environment'
p3008
sI195
S'    except HTTP:'
p3009
sI196
S'        raise'
p3010
sI197
S'    except Exception, error:'
p3011
sI198
S'        # XXX Show exception in Wing IDE if running in debugger'
p3012
sI189
S'    try:'
p3013
sI190
S'        if type(code) == types.CodeType:'
p3014
sI191
S'            ccode = code'
p3015
ssS'call'
p3016
S'(code=\'# coding: utf8\\n\\ndef list():\\n    """\\n    API: Tak...m = form)\\n\\nresponse._vars=response._caller(edit)\\n\', environment={\'A\': <class \'gluon.html.A\'>, \'AjaxSelect\': <class applications.topoi.modules.plugin_ajaxselect.AjaxSelect>, \'Auth\': <class \'gluon.tools.Auth\'>, \'B\': <class \'gluon.html.B\'>, \'BEAUTIFY\': <class \'gluon.html.BEAUTIFY\'>, \'BODY\': <class \'gluon.html.BODY\'>, \'BR\': <class \'gluon.html.BR\'>, \'BUTTON\': <class \'gluon.html.BUTTON\'>, \'CAT\': <class \'gluon.html.CAT\'>, \'CENTER\': <class \'gluon.html.CENTER\'>, ...}, layer=\'/home/ian/web2py/applications/topoi/controllers/plugin_listandedit.py\')'
p3017
sS'func'
p3018
S'restricted'
p3019
sa(dp3020
g2995
S'/home/ian/web2py/applications/topoi/controllers/plugin_listandedit.py'
p3021
sg2997
(dp3022
sg3003
I45
sg3004
(dp3023
I34
S'    rowid = request.args[1]'
p3024
sI35
S"    formname = '%s/%s' % (tablename, rowid)"
p3025
sI36
S''
sI37
S'    form = SQLFORM(db[tablename], rowid)'
p3026
sI38
S'    if form.process().accepted():'
p3027
sI39
S"        response.flash = 'form accepted'"
p3028
sI40
S'    else:'
p3029
sI41
S"        response.flash = 'something went wrong'"
p3030
sI42
S''
sI43
S'    return dict(form = form)'
p3031
ssg3016
S'()'
p3032
sg3018
S'<module>'
p3033
sa(dp3034
g2995
S'/home/ian/web2py/gluon/globals.py'
p3035
sg2997
(dp3036
S'self'
p3037
S'undefined'
p3038
sS'f'
S'<function edit>'
p3039
ssg3003
I149
sg3004
(dp3040
I144
S'        self.meta = Storage()      # used by web2py_ajax.html'
p3041
sI145
S'        self.menu = []             # used by the default view layout'
p3042
sI146
S'        self.files = []            # used by web2py_ajax.html'
p3043
sI147
S'        self.generic_patterns = [] # patterns to allow generic views'
p3044
sI148
S'        self._vars = None'
p3045
sI149
S'        self._caller = lambda f: f()'
p3046
sI150
S'        self._view_environment = None'
p3047
sI151
S'        self._custom_commit = None'
p3048
sI152
S'        self._custom_rollback = None'
p3049
sI153
S''
ssg3016
S'(f=<function edit>)'
p3050
sg3018
S'<lambda>'
p3051
sa(dp3052
g2995
S'/home/ian/web2py/applications/topoi/controllers/plugin_listandedit.py'
p3053
sg2997
(dp3054
S'form.process'
p3055
S'<bound method SQLFORM.process of <gluon.sqlhtml.SQLFORM object>>'
p3056
sS').accepted'
p3057
g3038
sS'form'
p3058
S'<gluon.sqlhtml.SQLFORM object>'
p3059
ssg3003
I38
sg3004
(dp3060
I33
S'    tablename = request.args[0]'
p3061
sI34
S'    rowid = request.args[1]'
p3062
sI35
S"    formname = '%s/%s' % (tablename, rowid)"
p3063
sI36
S''
sI37
S'    form = SQLFORM(db[tablename], rowid)'
p3064
sI38
S'    if form.process().accepted():'
p3065
sI39
S"        response.flash = 'form accepted'"
p3066
sI40
S'    else:'
p3067
sI41
S"        response.flash = 'something went wrong'"
p3068
sI42
S''
ssg3016
S'()'
p3069
sg3018
S'edit'
p3070
sasS'pyver'
p3071
S'Python 2.7.2+: /usr/bin/python2.7'
p3072
sS'session'
p3073
g56
(g57
g58
NtRp3074
(dp3075
g61
(dp3076
sg63
(lp3077
g56
(g65
g58
NtRp3078
(dp3079
g61
(dp3080
g69
I5
ssg70
Nsg63
(lp3081
g56
(g72
g58
NtRp3082
(dp3083
g61
(dp3084
sg70
g3078
sg63
(lp3085
g56
(g77
g58
NtRp3086
(dp3087
g61
(dp3088
g81
g82
ssg70
g3082
sg63
(lp3089
S'auth'
p3090
asbag56
(g77
g58
NtRp3091
(dp3092
g61
(dp3093
g88
g89
ssg70
g3082
sg63
(lp3094
S':'
asbag56
(g77
g58
NtRp3095
(dp3096
g61
(dp3097
sg70
g3082
sg63
(lp3098
g56
(g57
g58
NtRp3099
(dp3100
g61
(dp3101
g69
I5
ssg70
g3095
sg63
(lp3102
g56
(g65
g58
NtRp3103
(dp3104
g61
(dp3105
g69
I4
ssg70
Nsg63
(lp3106
g56
(g72
g58
NtRp3107
(dp3108
g61
(dp3109
sg70
g3103
sg63
(lp3110
g56
(g77
g58
NtRp3111
(dp3112
g61
(dp3113
g81
g82
ssg70
g3107
sg63
(lp3114
S'expiration'
p3115
asbag56
(g77
g58
NtRp3116
(dp3117
g61
(dp3118
g88
g89
ssg70
g3107
sg63
(lp3119
S':'
asbag56
(g77
g58
NtRp3120
(dp3121
g61
(dp3122
sg70
g3107
sg63
(lp3123
g56
(g57
g58
NtRp3124
(dp3125
g61
(dp3126
g69
I4
ssg70
g3120
sg63
(lp3127
S'2592000'
p3128
asbasbasbag56
(g72
g58
NtRp3129
(dp3130
g61
(dp3131
sg70
g3103
sg63
(lp3132
g56
(g77
g58
NtRp3133
(dp3134
g61
(dp3135
g81
g82
ssg70
g3129
sg63
(lp3136
S'hmac_key'
p3137
asbag56
(g77
g58
NtRp3138
(dp3139
g61
(dp3140
g88
g89
ssg70
g3129
sg63
(lp3141
S':'
asbag56
(g77
g58
NtRp3142
(dp3143
g61
(dp3144
sg70
g3129
sg63
(lp3145
g56
(g57
g58
NtRp3146
(dp3147
g61
(dp3148
g69
I4
ssg70
g3142
sg63
(lp3149
S'20c8192d-156c-406c-9f7b-eade4cd34288'
p3150
asbasbasbag56
(g72
g58
NtRp3151
(dp3152
g61
(dp3153
sg70
g3103
sg63
(lp3154
g56
(g77
g58
NtRp3155
(dp3156
g61
(dp3157
g81
g82
ssg70
g3151
sg63
(lp3158
S'last_visit'
p3159
asbag56
(g77
g58
NtRp3160
(dp3161
g61
(dp3162
g88
g89
ssg70
g3151
sg63
(lp3163
S':'
asbag56
(g77
g58
NtRp3164
(dp3165
g61
(dp3166
sg70
g3151
sg63
(lp3167
g56
(g57
g58
NtRp3168
(dp3169
g61
(dp3170
g69
I4
ssg70
g3164
sg63
(lp3171
S'datetime.datetime(2011, 12, 15, 14, 27, 18, 112795)'
p3172
asbasbasbag56
(g72
g58
NtRp3173
(dp3174
g61
(dp3175
sg70
g3103
sg63
(lp3176
g56
(g77
g58
NtRp3177
(dp3178
g61
(dp3179
g81
g82
ssg70
g3173
sg63
(lp3180
S'remember'
p3181
asbag56
(g77
g58
NtRp3182
(dp3183
g61
(dp3184
g88
g89
ssg70
g3173
sg63
(lp3185
S':'
asbag56
(g77
g58
NtRp3186
(dp3187
g61
(dp3188
sg70
g3173
sg63
(lp3189
g56
(g57
g58
NtRp3190
(dp3191
g61
(dp3192
g69
I4
ssg70
g3186
sg63
(lp3193
g99
asbasbasbag56
(g72
g58
NtRp3194
(dp3195
g61
(dp3196
sg70
g3103
sg63
(lp3197
g56
(g77
g58
NtRp3198
(dp3199
g61
(dp3200
g81
g82
ssg70
g3194
sg63
(lp3201
S'user'
p3202
asbag56
(g77
g58
NtRp3203
(dp3204
g61
(dp3205
g88
g89
ssg70
g3194
sg63
(lp3206
S':'
asbag56
(g77
g58
NtRp3207
(dp3208
g61
(dp3209
sg70
g3194
sg63
(lp3210
g56
(g57
g58
NtRp3211
(dp3212
g61
(dp3213
g69
I4
ssg70
g3207
sg63
(lp3214
g56
(g65
g58
NtRp3215
(dp3216
g61
(dp3217
g69
I3
ssg70
Nsg63
(lp3218
g56
(g72
g58
NtRp3219
(dp3220
g61
(dp3221
sg70
g3215
sg63
(lp3222
g56
(g77
g58
NtRp3223
(dp3224
g61
(dp3225
g81
g82
ssg70
g3219
sg63
(lp3226
S'email'
p3227
asbag56
(g77
g58
NtRp3228
(dp3229
g61
(dp3230
g88
g89
ssg70
g3219
sg63
(lp3231
S':'
asbag56
(g77
g58
NtRp3232
(dp3233
g61
(dp3234
sg70
g3219
sg63
(lp3235
g56
(g57
g58
NtRp3236
(dp3237
g61
(dp3238
g69
I3
ssg70
g3232
sg63
(lp3239
S'scottianw@gmail.com'
p3240
asbasbasbag56
(g72
g58
NtRp3241
(dp3242
g61
(dp3243
sg70
g3215
sg63
(lp3244
g56
(g77
g58
NtRp3245
(dp3246
g61
(dp3247
g81
g82
ssg70
g3241
sg63
(lp3248
S'first_name'
p3249
asbag56
(g77
g58
NtRp3250
(dp3251
g61
(dp3252
g88
g89
ssg70
g3241
sg63
(lp3253
S':'
asbag56
(g77
g58
NtRp3254
(dp3255
g61
(dp3256
sg70
g3241
sg63
(lp3257
g56
(g57
g58
NtRp3258
(dp3259
g61
(dp3260
g69
I3
ssg70
g3254
sg63
(lp3261
S'Ian'
p3262
asbasbasbag56
(g72
g58
NtRp3263
(dp3264
g61
(dp3265
sg70
g3215
sg63
(lp3266
g56
(g77
g58
NtRp3267
(dp3268
g61
(dp3269
g81
g82
ssg70
g3263
sg63
(lp3270
S'id'
p3271
asbag56
(g77
g58
NtRp3272
(dp3273
g61
(dp3274
g88
g89
ssg70
g3263
sg63
(lp3275
S':'
asbag56
(g77
g58
NtRp3276
(dp3277
g61
(dp3278
sg70
g3263
sg63
(lp3279
g56
(g57
g58
NtRp3280
(dp3281
g61
(dp3282
g69
I3
ssg70
g3276
sg63
(lp3283
S'1'
asbasbasbag56
(g72
g58
NtRp3284
(dp3285
g61
(dp3286
sg70
g3215
sg63
(lp3287
g56
(g77
g58
NtRp3288
(dp3289
g61
(dp3290
g81
g82
ssg70
g3284
sg63
(lp3291
S'last_name'
p3292
asbag56
(g77
g58
NtRp3293
(dp3294
g61
(dp3295
g88
g89
ssg70
g3284
sg63
(lp3296
S':'
asbag56
(g77
g58
NtRp3297
(dp3298
g61
(dp3299
sg70
g3284
sg63
(lp3300
g56
(g57
g58
NtRp3301
(dp3302
g61
(dp3303
g69
I3
ssg70
g3297
sg63
(lp3304
S'Scott'
p3305
asbasbasbag56
(g72
g58
NtRp3306
(dp3307
g61
(dp3308
sg70
g3215
sg63
(lp3309
g56
(g77
g58
NtRp3310
(dp3311
g61
(dp3312
g81
g82
ssg70
g3306
sg63
(lp3313
S'password'
p3314
asbag56
(g77
g58
NtRp3315
(dp3316
g61
(dp3317
g88
g89
ssg70
g3306
sg63
(lp3318
S':'
asbag56
(g77
g58
NtRp3319
(dp3320
g61
(dp3321
sg70
g3306
sg63
(lp3322
g56
(g57
g58
NtRp3323
(dp3324
g61
(dp3325
g69
I3
ssg70
g3319
sg63
(lp3326
S'6fb48d01a3959846ba0fe062b1789f17d9cf3d34d3ec5aa948f598bbf4387cb10eb60c797988f41dfea97ee691b338dd77413d430229e401cf7c84e6cd9c4458'
p3327
asbasbasbag56
(g72
g58
NtRp3328
(dp3329
g61
(dp3330
sg70
g3215
sg63
(lp3331
g56
(g77
g58
NtRp3332
(dp3333
g61
(dp3334
g81
g82
ssg70
g3328
sg63
(lp3335
S'registration_key'
p3336
asbag56
(g77
g58
NtRp3337
(dp3338
g61
(dp3339
g88
g89
ssg70
g3328
sg63
(lp3340
S':'
asbag56
(g77
g58
NtRp3341
(dp3342
g61
(dp3343
sg70
g3328
sg63
(lp3344
g56
(g57
g58
NtRp3345
(dp3346
g61
(dp3347
g69
I3
ssg70
g3341
sg63
(lp3348
S''
asbasbasbag56
(g72
g58
NtRp3349
(dp3350
g61
(dp3351
sg70
g3215
sg63
(lp3352
g56
(g77
g58
NtRp3353
(dp3354
g61
(dp3355
g81
g82
ssg70
g3349
sg63
(lp3356
S'reset_password_key'
p3357
asbag56
(g77
g58
NtRp3358
(dp3359
g61
(dp3360
g88
g89
ssg70
g3349
sg63
(lp3361
S':'
asbag56
(g77
g58
NtRp3362
(dp3363
g61
(dp3364
sg70
g3349
sg63
(lp3365
g56
(g57
g58
NtRp3366
(dp3367
g61
(dp3368
g69
I3
ssg70
g3362
sg63
(lp3369
S''
asbasbasbasbasbasbasbasbasbasbasbag56
(g72
g58
NtRp3370
(dp3371
g61
(dp3372
sg70
g3078
sg63
(lp3373
g56
(g77
g58
NtRp3374
(dp3375
g61
(dp3376
g81
g82
ssg70
g3370
sg63
(lp3377
S'last_query'
p3378
asbag56
(g77
g58
NtRp3379
(dp3380
g61
(dp3381
g88
g89
ssg70
g3370
sg63
(lp3382
S':'
asbag56
(g77
g58
NtRp3383
(dp3384
g61
(dp3385
sg70
g3370
sg63
(lp3386
g56
(g57
g58
NtRp3387
(dp3388
g61
(dp3389
g69
I5
ssg70
g3383
sg63
(lp3390
S'db.auth_user.id>0'
p3391
asbasbasbasbasbsS'etype'
p3392
S"<type 'exceptions.TypeError'>"
p3393
sS'date'
p3394
S'Sat Dec 17 22:08:11 2011'
p3395
sS'response'
p3396
g56
(g57
g58
NtRp3397
(dp3398
g61
(dp3399
sg63
(lp3400
g56
(g65
g58
NtRp3401
(dp3402
g61
(dp3403
g69
I5
ssg70
Nsg63
(lp3404
g56
(g72
g58
NtRp3405
(dp3406
g61
(dp3407
sg70
g3401
sg63
(lp3408
g56
(g77
g58
NtRp3409
(dp3410
g61
(dp3411
g81
g82
ssg70
g3405
sg63
(lp3412
g179
asbag56
(g77
g58
NtRp3413
(dp3414
g61
(dp3415
g88
g89
ssg70
g3405
sg63
(lp3416
S':'
asbag56
(g77
g58
NtRp3417
(dp3418
g61
(dp3419
sg70
g3405
sg63
(lp3420
g56
(g57
g58
NtRp3421
(dp3422
g61
(dp3423
g69
I5
ssg70
g3417
sg63
(lp3424
S'<cStringIO.StringO object at 0x4c8e9d0>'
p3425
asbasbasbag56
(g72
g58
NtRp3426
(dp3427
g61
(dp3428
sg70
g3401
sg63
(lp3429
g56
(g77
g58
NtRp3430
(dp3431
g61
(dp3432
g81
g82
ssg70
g3426
sg63
(lp3433
g267
asbag56
(g77
g58
NtRp3434
(dp3435
g61
(dp3436
g88
g89
ssg70
g3426
sg63
(lp3437
S':'
asbag56
(g77
g58
NtRp3438
(dp3439
g61
(dp3440
sg70
g3426
sg63
(lp3441
g56
(g57
g58
NtRp3442
(dp3443
g61
(dp3444
g69
I5
ssg70
g3438
sg63
(lp3445
g56
(g65
g58
NtRp3446
(dp3447
g61
(dp3448
g69
I4
ssg70
Nsg63
(lp3449
g56
(g72
g58
NtRp3450
(dp3451
g61
(dp3452
sg70
g3446
sg63
(lp3453
g56
(g77
g58
NtRp3454
(dp3455
g61
(dp3456
g81
g82
ssg70
g3450
sg63
(lp3457
S'session_id_topoi'
p3458
asbag56
(g77
g58
NtRp3459
(dp3460
g61
(dp3461
g88
g89
ssg70
g3450
sg63
(lp3462
S':'
asbag56
(g77
g58
NtRp3463
(dp3464
g61
(dp3465
sg70
g3450
sg63
(lp3466
g56
(g57
g58
NtRp3467
(dp3468
g61
(dp3469
g69
I4
ssg70
g3463
sg63
(lp3470
g56
(g65
g58
NtRp3471
(dp3472
g61
(dp3473
g69
I3
ssg70
Nsg63
(lp3474
g56
(g72
g58
NtRp3475
(dp3476
g61
(dp3477
sg70
g3471
sg63
(lp3478
g56
(g77
g58
NtRp3479
(dp3480
g61
(dp3481
g81
g82
ssg70
g3475
sg63
(lp3482
g317
asbag56
(g77
g58
NtRp3483
(dp3484
g61
(dp3485
g88
g89
ssg70
g3475
sg63
(lp3486
S':'
asbag56
(g77
g58
NtRp3487
(dp3488
g61
(dp3489
sg70
g3475
sg63
(lp3490
g56
(g57
g58
NtRp3491
(dp3492
g61
(dp3493
g69
I3
ssg70
g3487
sg63
(lp3494
S''
asbasbasbag56
(g72
g58
NtRp3495
(dp3496
g61
(dp3497
sg70
g3471
sg63
(lp3498
g56
(g77
g58
NtRp3499
(dp3500
g61
(dp3501
g81
g82
ssg70
g3495
sg63
(lp3502
g338
asbag56
(g77
g58
NtRp3503
(dp3504
g61
(dp3505
g88
g89
ssg70
g3495
sg63
(lp3506
S':'
asbag56
(g77
g58
NtRp3507
(dp3508
g61
(dp3509
sg70
g3495
sg63
(lp3510
g56
(g57
g58
NtRp3511
(dp3512
g61
(dp3513
g69
I3
ssg70
g3507
sg63
(lp3514
S''
asbasbasbag56
(g72
g58
NtRp3515
(dp3516
g61
(dp3517
sg70
g3471
sg63
(lp3518
g56
(g77
g58
NtRp3519
(dp3520
g61
(dp3521
g81
g82
ssg70
g3515
sg63
(lp3522
g359
asbag56
(g77
g58
NtRp3523
(dp3524
g61
(dp3525
g88
g89
ssg70
g3515
sg63
(lp3526
S':'
asbag56
(g77
g58
NtRp3527
(dp3528
g61
(dp3529
sg70
g3515
sg63
(lp3530
g56
(g57
g58
NtRp3531
(dp3532
g61
(dp3533
g69
I3
ssg70
g3527
sg63
(lp3534
S'2592000'
p3535
asbasbasbag56
(g72
g58
NtRp3536
(dp3537
g61
(dp3538
sg70
g3471
sg63
(lp3539
g56
(g77
g58
NtRp3540
(dp3541
g61
(dp3542
g81
g82
ssg70
g3536
sg63
(lp3543
g380
asbag56
(g77
g58
NtRp3544
(dp3545
g61
(dp3546
g88
g89
ssg70
g3536
sg63
(lp3547
S':'
asbag56
(g77
g58
NtRp3548
(dp3549
g61
(dp3550
sg70
g3536
sg63
(lp3551
g56
(g57
g58
NtRp3552
(dp3553
g61
(dp3554
g69
I3
ssg70
g3548
sg63
(lp3555
S''
asbasbasbag56
(g72
g58
NtRp3556
(dp3557
g61
(dp3558
sg70
g3471
sg63
(lp3559
g56
(g77
g58
NtRp3560
(dp3561
g61
(dp3562
g81
g82
ssg70
g3556
sg63
(lp3563
g401
asbag56
(g77
g58
NtRp3564
(dp3565
g61
(dp3566
g88
g89
ssg70
g3556
sg63
(lp3567
S':'
asbag56
(g77
g58
NtRp3568
(dp3569
g61
(dp3570
sg70
g3556
sg63
(lp3571
g56
(g57
g58
NtRp3572
(dp3573
g61
(dp3574
g69
I3
ssg70
g3568
sg63
(lp3575
S''
asbasbasbag56
(g72
g58
NtRp3576
(dp3577
g61
(dp3578
sg70
g3471
sg63
(lp3579
g56
(g77
g58
NtRp3580
(dp3581
g61
(dp3582
g81
g82
ssg70
g3576
sg63
(lp3583
g422
asbag56
(g77
g58
NtRp3584
(dp3585
g61
(dp3586
g88
g89
ssg70
g3576
sg63
(lp3587
S':'
asbag56
(g77
g58
NtRp3588
(dp3589
g61
(dp3590
sg70
g3576
sg63
(lp3591
g56
(g57
g58
NtRp3592
(dp3593
g61
(dp3594
g69
I3
ssg70
g3588
sg63
(lp3595
S'/'
asbasbasbag56
(g72
g58
NtRp3596
(dp3597
g61
(dp3598
sg70
g3471
sg63
(lp3599
g56
(g77
g58
NtRp3600
(dp3601
g61
(dp3602
g81
g82
ssg70
g3596
sg63
(lp3603
g443
asbag56
(g77
g58
NtRp3604
(dp3605
g61
(dp3606
g88
g89
ssg70
g3596
sg63
(lp3607
S':'
asbag56
(g77
g58
NtRp3608
(dp3609
g61
(dp3610
sg70
g3596
sg63
(lp3611
g56
(g57
g58
NtRp3612
(dp3613
g61
(dp3614
g69
I3
ssg70
g3608
sg63
(lp3615
S''
asbasbasbag56
(g72
g58
NtRp3616
(dp3617
g61
(dp3618
sg70
g3471
sg63
(lp3619
g56
(g77
g58
NtRp3620
(dp3621
g61
(dp3622
g81
g82
ssg70
g3616
sg63
(lp3623
g464
asbag56
(g77
g58
NtRp3624
(dp3625
g61
(dp3626
g88
g89
ssg70
g3616
sg63
(lp3627
S':'
asbag56
(g77
g58
NtRp3628
(dp3629
g61
(dp3630
sg70
g3616
sg63
(lp3631
g56
(g57
g58
NtRp3632
(dp3633
g61
(dp3634
g69
I3
ssg70
g3628
sg63
(lp3635
S''
asbasbasbasbasbasbasbasbasbasbasbag56
(g72
g58
NtRp3636
(dp3637
g61
(dp3638
sg70
g3401
sg63
(lp3639
g56
(g77
g58
NtRp3640
(dp3641
g61
(dp3642
g81
g82
ssg70
g3636
sg63
(lp3643
S'files'
p3644
asbag56
(g77
g58
NtRp3645
(dp3646
g61
(dp3647
g88
g89
ssg70
g3636
sg63
(lp3648
S':'
asbag56
(g77
g58
NtRp3649
(dp3650
g61
(dp3651
sg70
g3636
sg63
(lp3652
g56
(g57
g58
NtRp3653
(dp3654
g61
(dp3655
g69
I5
ssg70
g3649
sg63
(lp3656
g56
(g65
g58
NtRp3657
(dp3658
g61
(dp3659
g69
I4
ssg70
Nsg63
(lp3660
sbasbasbasbag56
(g72
g58
NtRp3661
(dp3662
g61
(dp3663
sg70
g3401
sg63
(lp3664
g56
(g77
g58
NtRp3665
(dp3666
g61
(dp3667
g81
g82
ssg70
g3661
sg63
(lp3668
S'flash'
p3669
asbag56
(g77
g58
NtRp3670
(dp3671
g61
(dp3672
g88
g89
ssg70
g3661
sg63
(lp3673
S':'
asbag56
(g77
g58
NtRp3674
(dp3675
g61
(dp3676
sg70
g3661
sg63
(lp3677
g56
(g57
g58
NtRp3678
(dp3679
g61
(dp3680
g69
I5
ssg70
g3674
sg63
(lp3681
S''
asbasbasbag56
(g72
g58
NtRp3682
(dp3683
g61
(dp3684
sg70
g3401
sg63
(lp3685
g56
(g77
g58
NtRp3686
(dp3687
g61
(dp3688
g81
g82
ssg70
g3682
sg63
(lp3689
S'generic_patterns'
p3690
asbag56
(g77
g58
NtRp3691
(dp3692
g61
(dp3693
g88
g89
ssg70
g3682
sg63
(lp3694
S':'
asbag56
(g77
g58
NtRp3695
(dp3696
g61
(dp3697
sg70
g3682
sg63
(lp3698
g56
(g57
g58
NtRp3699
(dp3700
g61
(dp3701
g69
I5
ssg70
g3695
sg63
(lp3702
g56
(g65
g58
NtRp3703
(dp3704
g61
(dp3705
g69
I4
ssg70
Nsg63
(lp3706
g56
(g72
g58
NtRp3707
(dp3708
g61
(dp3709
sg70
g3703
sg63
(lp3710
g56
(g77
g58
NtRp3711
(dp3712
g61
(dp3713
sg70
g3707
sg63
(lp3714
g56
(g57
g58
NtRp3715
(dp3716
g61
(dp3717
g69
I4
ssg70
g3711
sg63
(lp3718
S'*'
asbasbasbasbasbasbasbag56
(g72
g58
NtRp3719
(dp3720
g61
(dp3721
sg70
g3401
sg63
(lp3722
g56
(g77
g58
NtRp3723
(dp3724
g61
(dp3725
g81
g82
ssg70
g3719
sg63
(lp3726
S'headers'
p3727
asbag56
(g77
g58
NtRp3728
(dp3729
g61
(dp3730
g88
g89
ssg70
g3719
sg63
(lp3731
S':'
asbag56
(g77
g58
NtRp3732
(dp3733
g61
(dp3734
sg70
g3719
sg63
(lp3735
g56
(g57
g58
NtRp3736
(dp3737
g61
(dp3738
g69
I5
ssg70
g3732
sg63
(lp3739
g56
(g65
g58
NtRp3740
(dp3741
g61
(dp3742
g69
I4
ssg70
Nsg63
(lp3743
g56
(g72
g58
NtRp3744
(dp3745
g61
(dp3746
sg70
g3740
sg63
(lp3747
g56
(g77
g58
NtRp3748
(dp3749
g61
(dp3750
g81
g82
ssg70
g3744
sg63
(lp3751
S'Cache-Control'
p3752
asbag56
(g77
g58
NtRp3753
(dp3754
g61
(dp3755
g88
g89
ssg70
g3744
sg63
(lp3756
S':'
asbag56
(g77
g58
NtRp3757
(dp3758
g61
(dp3759
sg70
g3744
sg63
(lp3760
g56
(g57
g58
NtRp3761
(dp3762
g61
(dp3763
g69
I4
ssg70
g3757
sg63
(lp3764
S'no-store, no-cache, must-revalidate, post-check=0, pre-check=0'
p3765
asbasbasbag56
(g72
g58
NtRp3766
(dp3767
g61
(dp3768
sg70
g3740
sg63
(lp3769
g56
(g77
g58
NtRp3770
(dp3771
g61
(dp3772
g81
g82
ssg70
g3766
sg63
(lp3773
S'Content-Type'
p3774
asbag56
(g77
g58
NtRp3775
(dp3776
g61
(dp3777
g88
g89
ssg70
g3766
sg63
(lp3778
S':'
asbag56
(g77
g58
NtRp3779
(dp3780
g61
(dp3781
sg70
g3766
sg63
(lp3782
g56
(g57
g58
NtRp3783
(dp3784
g61
(dp3785
g69
I4
ssg70
g3779
sg63
(lp3786
S'text/html; charset=utf-8'
p3787
asbasbasbag56
(g72
g58
NtRp3788
(dp3789
g61
(dp3790
sg70
g3740
sg63
(lp3791
g56
(g77
g58
NtRp3792
(dp3793
g61
(dp3794
g81
g82
ssg70
g3788
sg63
(lp3795
S'Expires'
p3796
asbag56
(g77
g58
NtRp3797
(dp3798
g61
(dp3799
g88
g89
ssg70
g3788
sg63
(lp3800
S':'
asbag56
(g77
g58
NtRp3801
(dp3802
g61
(dp3803
sg70
g3788
sg63
(lp3804
g56
(g57
g58
NtRp3805
(dp3806
g61
(dp3807
g69
I4
ssg70
g3801
sg63
(lp3808
S'Sun, 18 Dec 2011 03:08:11 GMT'
p3809
asbasbasbag56
(g72
g58
NtRp3810
(dp3811
g61
(dp3812
sg70
g3740
sg63
(lp3813
g56
(g77
g58
NtRp3814
(dp3815
g61
(dp3816
g81
g82
ssg70
g3810
sg63
(lp3817
S'Pragma'
p3818
asbag56
(g77
g58
NtRp3819
(dp3820
g61
(dp3821
g88
g89
ssg70
g3810
sg63
(lp3822
S':'
asbag56
(g77
g58
NtRp3823
(dp3824
g61
(dp3825
sg70
g3810
sg63
(lp3826
g56
(g57
g58
NtRp3827
(dp3828
g61
(dp3829
g69
I4
ssg70
g3823
sg63
(lp3830
S'no-cache'
p3831
asbasbasbag56
(g72
g58
NtRp3832
(dp3833
g61
(dp3834
sg70
g3740
sg63
(lp3835
g56
(g77
g58
NtRp3836
(dp3837
g61
(dp3838
g81
g82
ssg70
g3832
sg63
(lp3839
S'X-Powered-By'
p3840
asbag56
(g77
g58
NtRp3841
(dp3842
g61
(dp3843
g88
g89
ssg70
g3832
sg63
(lp3844
S':'
asbag56
(g77
g58
NtRp3845
(dp3846
g61
(dp3847
sg70
g3832
sg63
(lp3848
g56
(g57
g58
NtRp3849
(dp3850
g61
(dp3851
g69
I4
ssg70
g3845
sg63
(lp3852
S'web2py'
p3853
asbasbasbasbasbasbasbag56
(g72
g58
NtRp3854
(dp3855
g61
(dp3856
sg70
g3401
sg63
(lp3857
g56
(g77
g58
NtRp3858
(dp3859
g61
(dp3860
g81
g82
ssg70
g3854
sg63
(lp3861
S'menu'
p3862
asbag56
(g77
g58
NtRp3863
(dp3864
g61
(dp3865
g88
g89
ssg70
g3854
sg63
(lp3866
S':'
asbag56
(g77
g58
NtRp3867
(dp3868
g61
(dp3869
sg70
g3854
sg63
(lp3870
g56
(g57
g58
NtRp3871
(dp3872
g61
(dp3873
g69
I5
ssg70
g3867
sg63
(lp3874
g56
(g65
g58
NtRp3875
(dp3876
g61
(dp3877
g69
I4
ssg70
Nsg63
(lp3878
g56
(g72
g58
NtRp3879
(dp3880
g61
(dp3881
sg70
g3875
sg63
(lp3882
g56
(g77
g58
NtRp3883
(dp3884
g61
(dp3885
sg70
g3879
sg63
(lp3886
g56
(g57
g58
NtRp3887
(dp3888
g61
(dp3889
g69
I4
ssg70
g3883
sg63
(lp3890
g56
(g65
g58
NtRp3891
(dp3892
g61
(dp3893
g69
I3
ssg70
Nsg63
(lp3894
g56
(g72
g58
NtRp3895
(dp3896
g61
(dp3897
sg70
g3891
sg63
(lp3898
g56
(g77
g58
NtRp3899
(dp3900
g61
(dp3901
sg70
g3895
sg63
(lp3902
g56
(g57
g58
NtRp3903
(dp3904
g61
(dp3905
g69
I3
ssg70
g3899
sg63
(lp3906
cgluon.languages
lazyT_unpickle
p3907
(S't\x04\x00\x00\x00Home'
tRp3908
asbasbasbag56
(g72
g58
NtRp3909
(dp3910
g61
(dp3911
sg70
g3891
sg63
(lp3912
g56
(g77
g58
NtRp3913
(dp3914
g61
(dp3915
sg70
g3909
sg63
(lp3916
g56
(g57
g58
NtRp3917
(dp3918
g61
(dp3919
g69
I3
ssg70
g3913
sg63
(lp3920
g821
asbasbasbag56
(g72
g58
NtRp3921
(dp3922
g61
(dp3923
sg70
g3891
sg63
(lp3924
g56
(g77
g58
NtRp3925
(dp3926
g61
(dp3927
sg70
g3921
sg63
(lp3928
g56
(g57
g58
NtRp3929
(dp3930
g61
(dp3931
g69
I3
ssg70
g3925
sg63
(lp3932
S'/topoi/default/index.load'
p3933
asbasbasbag56
(g72
g58
NtRp3934
(dp3935
g61
(dp3936
sg70
g3891
sg63
(lp3937
g56
(g77
g58
NtRp3938
(dp3939
g61
(dp3940
sg70
g3934
sg63
(lp3941
g56
(g57
g58
NtRp3942
(dp3943
g61
(dp3944
g69
I3
ssg70
g3938
sg63
(lp3945
g56
(g65
g58
NtRp3946
(dp3947
g61
(dp3948
g69
I2
ssg70
Nsg63
(lp3949
sbasbasbasbasbasbasbasbag56
(g72
g58
NtRp3950
(dp3951
g61
(dp3952
sg70
g3875
sg63
(lp3953
g56
(g77
g58
NtRp3954
(dp3955
g61
(dp3956
sg70
g3950
sg63
(lp3957
g56
(g57
g58
NtRp3958
(dp3959
g61
(dp3960
g69
I4
ssg70
g3954
sg63
(lp3961
g56
(g65
g58
NtRp3962
(dp3963
g61
(dp3964
g69
I3
ssg70
Nsg63
(lp3965
g56
(g72
g58
NtRp3966
(dp3967
g61
(dp3968
sg70
g3962
sg63
(lp3969
g56
(g77
g58
NtRp3970
(dp3971
g61
(dp3972
sg70
g3966
sg63
(lp3973
g56
(g57
g58
NtRp3974
(dp3975
g61
(dp3976
g69
I3
ssg70
g3970
sg63
(lp3977
g3907
(S't\x01\x00\x00\x00S'
tRp3978
asbasbasbag56
(g72
g58
NtRp3979
(dp3980
g61
(dp3981
sg70
g3962
sg63
(lp3982
g56
(g77
g58
NtRp3983
(dp3984
g61
(dp3985
sg70
g3979
sg63
(lp3986
g56
(g57
g58
NtRp3987
(dp3988
g61
(dp3989
g69
I3
ssg70
g3983
sg63
(lp3990
g821
asbasbasbag56
(g72
g58
NtRp3991
(dp3992
g61
(dp3993
sg70
g3962
sg63
(lp3994
g56
(g77
g58
NtRp3995
(dp3996
g61
(dp3997
sg70
g3991
sg63
(lp3998
g56
(g57
g58
NtRp3999
(dp4000
g61
(dp4001
g69
I3
ssg70
g3995
sg63
(lp4002
S'/admin/default/design/topoi.load'
p4003
asbasbasbag56
(g72
g58
NtRp4004
(dp4005
g61
(dp4006
sg70
g3962
sg63
(lp4007
g56
(g77
g58
NtRp4008
(dp4009
g61
(dp4010
sg70
g4004
sg63
(lp4011
g56
(g57
g58
NtRp4012
(dp4013
g61
(dp4014
g69
I3
ssg70
g4008
sg63
(lp4015
g56
(g65
g58
NtRp4016
(dp4017
g61
(dp4018
g69
I2
ssg70
Nsg63
(lp4019
g56
(g72
g58
NtRp4020
(dp4021
g61
(dp4022
sg70
g4016
sg63
(lp4023
g56
(g77
g58
NtRp4024
(dp4025
g61
(dp4026
sg70
g4020
sg63
(lp4027
g56
(g57
g58
NtRp4028
(dp4029
g61
(dp4030
g69
I2
ssg70
g4024
sg63
(lp4031
g56
(g65
g58
NtRp4032
(dp4033
g61
(dp4034
g69
I1
ssg70
Nsg63
(lp4035
g56
(g72
g58
NtRp4036
(dp4037
g61
(dp4038
sg70
g4032
sg63
(lp4039
g56
(g77
g58
NtRp4040
(dp4041
g61
(dp4042
sg70
g4036
sg63
(lp4043
g56
(g57
g58
NtRp4044
(dp4045
g61
(dp4046
g69
I1
ssg70
g4040
sg63
(lp4047
g3907
(S't\n\x00\x00\x00Controller'
tRp4048
asbasbasbag56
(g72
g58
NtRp4049
(dp4050
g61
(dp4051
sg70
g4032
sg63
(lp4052
g56
(g77
g58
NtRp4053
(dp4054
g61
(dp4055
sg70
g4049
sg63
(lp4056
g56
(g57
g58
NtRp4057
(dp4058
g61
(dp4059
g69
I1
ssg70
g4053
sg63
(lp4060
I00
asbasbasbag56
(g72
g58
NtRp4061
(dp4062
g61
(dp4063
sg70
g4032
sg63
(lp4064
g56
(g77
g58
NtRp4065
(dp4066
g61
(dp4067
sg70
g4061
sg63
(lp4068
g56
(g57
g58
NtRp4069
(dp4070
g61
(dp4071
g69
I1
ssg70
g4065
sg63
(lp4072
S'/admin/default/edit/topoi/controllers/plugin_listandedit.py'
p4073
asbasbasbasbasbasbasbag56
(g72
g58
NtRp4074
(dp4075
g61
(dp4076
sg70
g4016
sg63
(lp4077
g56
(g77
g58
NtRp4078
(dp4079
g61
(dp4080
sg70
g4074
sg63
(lp4081
g56
(g57
g58
NtRp4082
(dp4083
g61
(dp4084
g69
I2
ssg70
g4078
sg63
(lp4085
g56
(g65
g58
NtRp4086
(dp4087
g61
(dp4088
g69
I1
ssg70
Nsg63
(lp4089
g56
(g72
g58
NtRp4090
(dp4091
g61
(dp4092
sg70
g4086
sg63
(lp4093
g56
(g77
g58
NtRp4094
(dp4095
g61
(dp4096
sg70
g4090
sg63
(lp4097
g56
(g57
g58
NtRp4098
(dp4099
g61
(dp4100
g69
I1
ssg70
g4094
sg63
(lp4101
g3907
(S't\x04\x00\x00\x00View'
tRp4102
asbasbasbag56
(g72
g58
NtRp4103
(dp4104
g61
(dp4105
sg70
g4086
sg63
(lp4106
g56
(g77
g58
NtRp4107
(dp4108
g61
(dp4109
sg70
g4103
sg63
(lp4110
g56
(g57
g58
NtRp4111
(dp4112
g61
(dp4113
g69
I1
ssg70
g4107
sg63
(lp4114
I00
asbasbasbag56
(g72
g58
NtRp4115
(dp4116
g61
(dp4117
sg70
g4086
sg63
(lp4118
g56
(g77
g58
NtRp4119
(dp4120
g61
(dp4121
sg70
g4115
sg63
(lp4122
g56
(g57
g58
NtRp4123
(dp4124
g61
(dp4125
g69
I1
ssg70
g4119
sg63
(lp4126
S'/admin/default/edit/topoi/views/plugin_listandedit/edit.load'
p4127
asbasbasbasbasbasbasbag56
(g72
g58
NtRp4128
(dp4129
g61
(dp4130
sg70
g4016
sg63
(lp4131
g56
(g77
g58
NtRp4132
(dp4133
g61
(dp4134
sg70
g4128
sg63
(lp4135
g56
(g57
g58
NtRp4136
(dp4137
g61
(dp4138
g69
I2
ssg70
g4132
sg63
(lp4139
g56
(g65
g58
NtRp4140
(dp4141
g61
(dp4142
g69
I1
ssg70
Nsg63
(lp4143
g56
(g72
g58
NtRp4144
(dp4145
g61
(dp4146
sg70
g4140
sg63
(lp4147
g56
(g77
g58
NtRp4148
(dp4149
g61
(dp4150
sg70
g4144
sg63
(lp4151
g56
(g57
g58
NtRp4152
(dp4153
g61
(dp4154
g69
I1
ssg70
g4148
sg63
(lp4155
g3907
(S't\x06\x00\x00\x00Layout'
tRp4156
asbasbasbag56
(g72
g58
NtRp4157
(dp4158
g61
(dp4159
sg70
g4140
sg63
(lp4160
g56
(g77
g58
NtRp4161
(dp4162
g61
(dp4163
sg70
g4157
sg63
(lp4164
g56
(g57
g58
NtRp4165
(dp4166
g61
(dp4167
g69
I1
ssg70
g4161
sg63
(lp4168
I00
asbasbasbag56
(g72
g58
NtRp4169
(dp4170
g61
(dp4171
sg70
g4140
sg63
(lp4172
g56
(g77
g58
NtRp4173
(dp4174
g61
(dp4175
sg70
g4169
sg63
(lp4176
g56
(g57
g58
NtRp4177
(dp4178
g61
(dp4179
g69
I1
ssg70
g4173
sg63
(lp4180
S'/admin/default/edit/topoi/views/layout.html'
p4181
asbasbasbasbasbasbasbag56
(g72
g58
NtRp4182
(dp4183
g61
(dp4184
sg70
g4016
sg63
(lp4185
g56
(g77
g58
NtRp4186
(dp4187
g61
(dp4188
sg70
g4182
sg63
(lp4189
g56
(g57
g58
NtRp4190
(dp4191
g61
(dp4192
g69
I2
ssg70
g4186
sg63
(lp4193
g56
(g65
g58
NtRp4194
(dp4195
g61
(dp4196
g69
I1
ssg70
Nsg63
(lp4197
g56
(g72
g58
NtRp4198
(dp4199
g61
(dp4200
sg70
g4194
sg63
(lp4201
g56
(g77
g58
NtRp4202
(dp4203
g61
(dp4204
sg70
g4198
sg63
(lp4205
g56
(g57
g58
NtRp4206
(dp4207
g61
(dp4208
g69
I1
ssg70
g4202
sg63
(lp4209
g3907
(S't\n\x00\x00\x00Stylesheet'
tRp4210
asbasbasbag56
(g72
g58
NtRp4211
(dp4212
g61
(dp4213
sg70
g4194
sg63
(lp4214
g56
(g77
g58
NtRp4215
(dp4216
g61
(dp4217
sg70
g4211
sg63
(lp4218
g56
(g57
g58
NtRp4219
(dp4220
g61
(dp4221
g69
I1
ssg70
g4215
sg63
(lp4222
I00
asbasbasbag56
(g72
g58
NtRp4223
(dp4224
g61
(dp4225
sg70
g4194
sg63
(lp4226
g56
(g77
g58
NtRp4227
(dp4228
g61
(dp4229
sg70
g4223
sg63
(lp4230
g56
(g57
g58
NtRp4231
(dp4232
g61
(dp4233
g69
I1
ssg70
g4227
sg63
(lp4234
S'/admin/default/edit/topoi/static/base.css'
p4235
asbasbasbasbasbasbasbag56
(g72
g58
NtRp4236
(dp4237
g61
(dp4238
sg70
g4016
sg63
(lp4239
g56
(g77
g58
NtRp4240
(dp4241
g61
(dp4242
sg70
g4236
sg63
(lp4243
g56
(g57
g58
NtRp4244
(dp4245
g61
(dp4246
g69
I2
ssg70
g4240
sg63
(lp4247
g56
(g65
g58
NtRp4248
(dp4249
g61
(dp4250
g69
I1
ssg70
Nsg63
(lp4251
g56
(g72
g58
NtRp4252
(dp4253
g61
(dp4254
sg70
g4248
sg63
(lp4255
g56
(g77
g58
NtRp4256
(dp4257
g61
(dp4258
sg70
g4252
sg63
(lp4259
g56
(g57
g58
NtRp4260
(dp4261
g61
(dp4262
g69
I1
ssg70
g4256
sg63
(lp4263
g3907
(S's\x08\x00\x00\x00DB Model'
tRp4264
asbasbasbag56
(g72
g58
NtRp4265
(dp4266
g61
(dp4267
sg70
g4248
sg63
(lp4268
g56
(g77
g58
NtRp4269
(dp4270
g61
(dp4271
sg70
g4265
sg63
(lp4272
g56
(g57
g58
NtRp4273
(dp4274
g61
(dp4275
g69
I1
ssg70
g4269
sg63
(lp4276
I00
asbasbasbag56
(g72
g58
NtRp4277
(dp4278
g61
(dp4279
sg70
g4248
sg63
(lp4280
g56
(g77
g58
NtRp4281
(dp4282
g61
(dp4283
sg70
g4277
sg63
(lp4284
g56
(g57
g58
NtRp4285
(dp4286
g61
(dp4287
g69
I1
ssg70
g4281
sg63
(lp4288
S'/admin/default/edit/topoi/models/db.py'
p4289
asbasbasbasbasbasbasbag56
(g72
g58
NtRp4290
(dp4291
g61
(dp4292
sg70
g4016
sg63
(lp4293
g56
(g77
g58
NtRp4294
(dp4295
g61
(dp4296
sg70
g4290
sg63
(lp4297
g56
(g57
g58
NtRp4298
(dp4299
g61
(dp4300
g69
I2
ssg70
g4294
sg63
(lp4301
g56
(g65
g58
NtRp4302
(dp4303
g61
(dp4304
g69
I1
ssg70
Nsg63
(lp4305
g56
(g72
g58
NtRp4306
(dp4307
g61
(dp4308
sg70
g4302
sg63
(lp4309
g56
(g77
g58
NtRp4310
(dp4311
g61
(dp4312
sg70
g4306
sg63
(lp4313
g56
(g57
g58
NtRp4314
(dp4315
g61
(dp4316
g69
I1
ssg70
g4310
sg63
(lp4317
g3907
(S's\n\x00\x00\x00Menu Model'
tRp4318
asbasbasbag56
(g72
g58
NtRp4319
(dp4320
g61
(dp4321
sg70
g4302
sg63
(lp4322
g56
(g77
g58
NtRp4323
(dp4324
g61
(dp4325
sg70
g4319
sg63
(lp4326
g56
(g57
g58
NtRp4327
(dp4328
g61
(dp4329
g69
I1
ssg70
g4323
sg63
(lp4330
I00
asbasbasbag56
(g72
g58
NtRp4331
(dp4332
g61
(dp4333
sg70
g4302
sg63
(lp4334
g56
(g77
g58
NtRp4335
(dp4336
g61
(dp4337
sg70
g4331
sg63
(lp4338
g56
(g57
g58
NtRp4339
(dp4340
g61
(dp4341
g69
I1
ssg70
g4335
sg63
(lp4342
S'/admin/default/edit/topoi/models/menu.py'
p4343
asbasbasbasbasbasbasbag56
(g72
g58
NtRp4344
(dp4345
g61
(dp4346
sg70
g4016
sg63
(lp4347
g56
(g77
g58
NtRp4348
(dp4349
g61
(dp4350
sg70
g4344
sg63
(lp4351
g56
(g57
g58
NtRp4352
(dp4353
g61
(dp4354
g69
I2
ssg70
g4348
sg63
(lp4355
g56
(g65
g58
NtRp4356
(dp4357
g61
(dp4358
g69
I1
ssg70
Nsg63
(lp4359
g56
(g72
g58
NtRp4360
(dp4361
g61
(dp4362
sg70
g4356
sg63
(lp4363
g56
(g77
g58
NtRp4364
(dp4365
g61
(dp4366
sg70
g4360
sg63
(lp4367
g56
(g57
g58
NtRp4368
(dp4369
g61
(dp4370
g69
I1
ssg70
g4364
sg63
(lp4371
g3907
(S't\x08\x00\x00\x00Database'
tRp4372
asbasbasbag56
(g72
g58
NtRp4373
(dp4374
g61
(dp4375
sg70
g4356
sg63
(lp4376
g56
(g77
g58
NtRp4377
(dp4378
g61
(dp4379
sg70
g4373
sg63
(lp4380
g56
(g57
g58
NtRp4381
(dp4382
g61
(dp4383
g69
I1
ssg70
g4377
sg63
(lp4384
I00
asbasbasbag56
(g72
g58
NtRp4385
(dp4386
g61
(dp4387
sg70
g4356
sg63
(lp4388
g56
(g77
g58
NtRp4389
(dp4390
g61
(dp4391
sg70
g4385
sg63
(lp4392
g56
(g57
g58
NtRp4393
(dp4394
g61
(dp4395
g69
I1
ssg70
g4389
sg63
(lp4396
S'/topoi/appadmin/index.load'
p4397
asbasbasbasbasbasbasbag56
(g72
g58
NtRp4398
(dp4399
g61
(dp4400
sg70
g4016
sg63
(lp4401
g56
(g77
g58
NtRp4402
(dp4403
g61
(dp4404
sg70
g4398
sg63
(lp4405
g56
(g57
g58
NtRp4406
(dp4407
g61
(dp4408
g69
I2
ssg70
g4402
sg63
(lp4409
g56
(g65
g58
NtRp4410
(dp4411
g61
(dp4412
g69
I1
ssg70
Nsg63
(lp4413
g56
(g72
g58
NtRp4414
(dp4415
g61
(dp4416
sg70
g4410
sg63
(lp4417
g56
(g77
g58
NtRp4418
(dp4419
g61
(dp4420
sg70
g4414
sg63
(lp4421
g56
(g57
g58
NtRp4422
(dp4423
g61
(dp4424
g69
I1
ssg70
g4418
sg63
(lp4425
g3907
(S't\x06\x00\x00\x00Errors'
tRp4426
asbasbasbag56
(g72
g58
NtRp4427
(dp4428
g61
(dp4429
sg70
g4410
sg63
(lp4430
g56
(g77
g58
NtRp4431
(dp4432
g61
(dp4433
sg70
g4427
sg63
(lp4434
g56
(g57
g58
NtRp4435
(dp4436
g61
(dp4437
g69
I1
ssg70
g4431
sg63
(lp4438
I00
asbasbasbag56
(g72
g58
NtRp4439
(dp4440
g61
(dp4441
sg70
g4410
sg63
(lp4442
g56
(g77
g58
NtRp4443
(dp4444
g61
(dp4445
sg70
g4439
sg63
(lp4446
g56
(g57
g58
NtRp4447
(dp4448
g61
(dp4449
g69
I1
ssg70
g4443
sg63
(lp4450
S'/admin/default/errors/topoi.load'
p4451
asbasbasbasbasbasbasbag56
(g72
g58
NtRp4452
(dp4453
g61
(dp4454
sg70
g4016
sg63
(lp4455
g56
(g77
g58
NtRp4456
(dp4457
g61
(dp4458
sg70
g4452
sg63
(lp4459
g56
(g57
g58
NtRp4460
(dp4461
g61
(dp4462
g69
I2
ssg70
g4456
sg63
(lp4463
g56
(g65
g58
NtRp4464
(dp4465
g61
(dp4466
g69
I1
ssg70
Nsg63
(lp4467
g56
(g72
g58
NtRp4468
(dp4469
g61
(dp4470
sg70
g4464
sg63
(lp4471
g56
(g77
g58
NtRp4472
(dp4473
g61
(dp4474
sg70
g4468
sg63
(lp4475
g56
(g57
g58
NtRp4476
(dp4477
g61
(dp4478
g69
I1
ssg70
g4472
sg63
(lp4479
g3907
(S't\x05\x00\x00\x00About'
tRp4480
asbasbasbag56
(g72
g58
NtRp4481
(dp4482
g61
(dp4483
sg70
g4464
sg63
(lp4484
g56
(g77
g58
NtRp4485
(dp4486
g61
(dp4487
sg70
g4481
sg63
(lp4488
g56
(g57
g58
NtRp4489
(dp4490
g61
(dp4491
g69
I1
ssg70
g4485
sg63
(lp4492
I00
asbasbasbag56
(g72
g58
NtRp4493
(dp4494
g61
(dp4495
sg70
g4464
sg63
(lp4496
g56
(g77
g58
NtRp4497
(dp4498
g61
(dp4499
sg70
g4493
sg63
(lp4500
g56
(g57
g58
NtRp4501
(dp4502
g61
(dp4503
g69
I1
ssg70
g4497
sg63
(lp4504
S'/admin/default/about/topoi.load'
p4505
asbasbasbasbasbasbasbasbasbasbasbasbasbasbasbasbasbasbasbag56
(g72
g58
NtRp4506
(dp4507
g61
(dp4508
sg70
g3401
sg63
(lp4509
g56
(g77
g58
NtRp4510
(dp4511
g61
(dp4512
g81
g82
ssg70
g4506
sg63
(lp4513
S'meta'
p4514
asbag56
(g77
g58
NtRp4515
(dp4516
g61
(dp4517
g88
g89
ssg70
g4506
sg63
(lp4518
S':'
asbag56
(g77
g58
NtRp4519
(dp4520
g61
(dp4521
sg70
g4506
sg63
(lp4522
g56
(g57
g58
NtRp4523
(dp4524
g61
(dp4525
g69
I5
ssg70
g4519
sg63
(lp4526
g56
(g65
g58
NtRp4527
(dp4528
g61
(dp4529
g69
I4
ssg70
Nsg63
(lp4530
g56
(g72
g58
NtRp4531
(dp4532
g61
(dp4533
sg70
g4527
sg63
(lp4534
g56
(g77
g58
NtRp4535
(dp4536
g61
(dp4537
g81
g82
ssg70
g4531
sg63
(lp4538
S'author'
p4539
asbag56
(g77
g58
NtRp4540
(dp4541
g61
(dp4542
g88
g89
ssg70
g4531
sg63
(lp4543
S':'
asbag56
(g77
g58
NtRp4544
(dp4545
g61
(dp4546
sg70
g4531
sg63
(lp4547
g56
(g57
g58
NtRp4548
(dp4549
g61
(dp4550
g69
I4
ssg70
g4544
sg63
(lp4551
S'Ian W. Scott'
p4552
asbasbasbag56
(g72
g58
NtRp4553
(dp4554
g61
(dp4555
sg70
g4527
sg63
(lp4556
g56
(g77
g58
NtRp4557
(dp4558
g61
(dp4559
g81
g82
ssg70
g4553
sg63
(lp4560
S'copyright'
p4561
asbag56
(g77
g58
NtRp4562
(dp4563
g61
(dp4564
g88
g89
ssg70
g4553
sg63
(lp4565
S':'
asbag56
(g77
g58
NtRp4566
(dp4567
g61
(dp4568
sg70
g4553
sg63
(lp4569
g56
(g57
g58
NtRp4570
(dp4571
g61
(dp4572
g69
I4
ssg70
g4566
sg63
(lp4573
S'Copyright 2011'
p4574
asbasbasbag56
(g72
g58
NtRp4575
(dp4576
g61
(dp4577
sg70
g4527
sg63
(lp4578
g56
(g77
g58
NtRp4579
(dp4580
g61
(dp4581
g81
g82
ssg70
g4575
sg63
(lp4582
S'description'
p4583
asbag56
(g77
g58
NtRp4584
(dp4585
g61
(dp4586
g88
g89
ssg70
g4575
sg63
(lp4587
S':'
asbag56
(g77
g58
NtRp4588
(dp4589
g61
(dp4590
sg70
g4575
sg63
(lp4591
g56
(g57
g58
NtRp4592
(dp4593
g61
(dp4594
g69
I4
ssg70
g4588
sg63
(lp4595
S'A web-app for managing primary-text research in the humanities.'
p4596
asbasbasbag56
(g72
g58
NtRp4597
(dp4598
g61
(dp4599
sg70
g4527
sg63
(lp4600
g56
(g77
g58
NtRp4601
(dp4602
g61
(dp4603
g81
g82
ssg70
g4597
sg63
(lp4604
S'generator'
p4605
asbag56
(g77
g58
NtRp4606
(dp4607
g61
(dp4608
g88
g89
ssg70
g4597
sg63
(lp4609
S':'
asbag56
(g77
g58
NtRp4610
(dp4611
g61
(dp4612
sg70
g4597
sg63
(lp4613
g56
(g57
g58
NtRp4614
(dp4615
g61
(dp4616
g69
I4
ssg70
g4610
sg63
(lp4617
S'Web2py Enterprise Framework'
p4618
asbasbasbag56
(g72
g58
NtRp4619
(dp4620
g61
(dp4621
sg70
g4527
sg63
(lp4622
g56
(g77
g58
NtRp4623
(dp4624
g61
(dp4625
g81
g82
ssg70
g4619
sg63
(lp4626
S'keywords'
p4627
asbag56
(g77
g58
NtRp4628
(dp4629
g61
(dp4630
g88
g89
ssg70
g4619
sg63
(lp4631
S':'
asbag56
(g77
g58
NtRp4632
(dp4633
g61
(dp4634
sg70
g4619
sg63
(lp4635
g56
(g57
g58
NtRp4636
(dp4637
g61
(dp4638
g69
I4
ssg70
g4632
sg63
(lp4639
S'research, humanities, biblical'
p4640
asbasbasbasbasbasbasbag56
(g72
g58
NtRp4641
(dp4642
g61
(dp4643
sg70
g3401
sg63
(lp4644
g56
(g77
g58
NtRp4645
(dp4646
g61
(dp4647
g81
g82
ssg70
g4641
sg63
(lp4648
S'postprocessing'
p4649
asbag56
(g77
g58
NtRp4650
(dp4651
g61
(dp4652
g88
g89
ssg70
g4641
sg63
(lp4653
S':'
asbag56
(g77
g58
NtRp4654
(dp4655
g61
(dp4656
sg70
g4641
sg63
(lp4657
g56
(g57
g58
NtRp4658
(dp4659
g61
(dp4660
g69
I5
ssg70
g4654
sg63
(lp4661
g56
(g65
g58
NtRp4662
(dp4663
g61
(dp4664
g69
I4
ssg70
Nsg63
(lp4665
sbasbasbasbag56
(g72
g58
NtRp4666
(dp4667
g61
(dp4668
sg70
g3401
sg63
(lp4669
g56
(g77
g58
NtRp4670
(dp4671
g61
(dp4672
g81
g82
ssg70
g4666
sg63
(lp4673
S'session_file'
p4674
asbag56
(g77
g58
NtRp4675
(dp4676
g61
(dp4677
g88
g89
ssg70
g4666
sg63
(lp4678
S':'
asbag56
(g77
g58
NtRp4679
(dp4680
g61
(dp4681
sg70
g4666
sg63
(lp4682
g56
(g57
g58
NtRp4683
(dp4684
g61
(dp4685
g69
I5
ssg70
g4679
sg63
(lp4686
S"<open file '/home/ian/web2py/applications/topoi/sessions/127.0.0.1-fbfd7fa3-57f5-4d42-8f08-594178070e93', mode 'rb+' at 0x3a3ab70>"
p4687
asbasbasbag56
(g72
g58
NtRp4688
(dp4689
g61
(dp4690
sg70
g3401
sg63
(lp4691
g56
(g77
g58
NtRp4692
(dp4693
g61
(dp4694
g81
g82
ssg70
g4688
sg63
(lp4695
S'session_filename'
p4696
asbag56
(g77
g58
NtRp4697
(dp4698
g61
(dp4699
g88
g89
ssg70
g4688
sg63
(lp4700
S':'
asbag56
(g77
g58
NtRp4701
(dp4702
g61
(dp4703
sg70
g4688
sg63
(lp4704
g56
(g57
g58
NtRp4705
(dp4706
g61
(dp4707
g69
I5
ssg70
g4701
sg63
(lp4708
S'/home/ian/web2py/applications/topoi/sessions/127.0.0.1-fbfd7fa3-57f5-4d42-8f08-594178070e93'
p4709
asbasbasbag56
(g72
g58
NtRp4710
(dp4711
g61
(dp4712
sg70
g3401
sg63
(lp4713
g56
(g77
g58
NtRp4714
(dp4715
g61
(dp4716
g81
g82
ssg70
g4710
sg63
(lp4717
S'session_id'
p4718
asbag56
(g77
g58
NtRp4719
(dp4720
g61
(dp4721
g88
g89
ssg70
g4710
sg63
(lp4722
S':'
asbag56
(g77
g58
NtRp4723
(dp4724
g61
(dp4725
sg70
g4710
sg63
(lp4726
g56
(g57
g58
NtRp4727
(dp4728
g61
(dp4729
g69
I5
ssg70
g4723
sg63
(lp4730
S'127.0.0.1-fbfd7fa3-57f5-4d42-8f08-594178070e93'
p4731
asbasbasbag56
(g72
g58
NtRp4732
(dp4733
g61
(dp4734
sg70
g3401
sg63
(lp4735
g56
(g77
g58
NtRp4736
(dp4737
g61
(dp4738
g81
g82
ssg70
g4732
sg63
(lp4739
S'session_id_name'
p4740
asbag56
(g77
g58
NtRp4741
(dp4742
g61
(dp4743
g88
g89
ssg70
g4732
sg63
(lp4744
S':'
asbag56
(g77
g58
NtRp4745
(dp4746
g61
(dp4747
sg70
g4732
sg63
(lp4748
g56
(g57
g58
NtRp4749
(dp4750
g61
(dp4751
g69
I5
ssg70
g4745
sg63
(lp4752
g3458
asbasbasbag56
(g72
g58
NtRp4753
(dp4754
g61
(dp4755
sg70
g3401
sg63
(lp4756
g56
(g77
g58
NtRp4757
(dp4758
g61
(dp4759
g81
g82
ssg70
g4753
sg63
(lp4760
S'session_locked'
p4761
asbag56
(g77
g58
NtRp4762
(dp4763
g61
(dp4764
g88
g89
ssg70
g4753
sg63
(lp4765
S':'
asbag56
(g77
g58
NtRp4766
(dp4767
g61
(dp4768
sg70
g4753
sg63
(lp4769
g56
(g57
g58
NtRp4770
(dp4771
g61
(dp4772
g69
I5
ssg70
g4766
sg63
(lp4773
g99
asbasbasbag56
(g72
g58
NtRp4774
(dp4775
g61
(dp4776
sg70
g3401
sg63
(lp4777
g56
(g77
g58
NtRp4778
(dp4779
g61
(dp4780
g81
g82
ssg70
g4774
sg63
(lp4781
S'session_new'
p4782
asbag56
(g77
g58
NtRp4783
(dp4784
g61
(dp4785
g88
g89
ssg70
g4774
sg63
(lp4786
S':'
asbag56
(g77
g58
NtRp4787
(dp4788
g61
(dp4789
sg70
g4774
sg63
(lp4790
g56
(g57
g58
NtRp4791
(dp4792
g61
(dp4793
g69
I5
ssg70
g4787
sg63
(lp4794
g821
asbasbasbag56
(g72
g58
NtRp4795
(dp4796
g61
(dp4797
sg70
g3401
sg63
(lp4798
g56
(g77
g58
NtRp4799
(dp4800
g61
(dp4801
g81
g82
ssg70
g4795
sg63
(lp4802
S'status'
p4803
asbag56
(g77
g58
NtRp4804
(dp4805
g61
(dp4806
g88
g89
ssg70
g4795
sg63
(lp4807
S':'
asbag56
(g77
g58
NtRp4808
(dp4809
g61
(dp4810
sg70
g4795
sg63
(lp4811
g56
(g57
g58
NtRp4812
(dp4813
g61
(dp4814
g69
I5
ssg70
g4808
sg63
(lp4815
S'200'
p4816
asbasbasbag56
(g72
g58
NtRp4817
(dp4818
g61
(dp4819
sg70
g3401
sg63
(lp4820
g56
(g77
g58
NtRp4821
(dp4822
g61
(dp4823
g81
g82
ssg70
g4817
sg63
(lp4824
S'subtitle'
p4825
asbag56
(g77
g58
NtRp4826
(dp4827
g61
(dp4828
g88
g89
ssg70
g4817
sg63
(lp4829
S':'
asbag56
(g77
g58
NtRp4830
(dp4831
g61
(dp4832
sg70
g4817
sg63
(lp4833
g56
(g57
g58
NtRp4834
(dp4835
g61
(dp4836
g69
I5
ssg70
g4830
sg63
(lp4837
g3907
(S's;\x00\x00\x00A tool for managing primary-text research in the humanities'
tRp4838
asbasbasbag56
(g72
g58
NtRp4839
(dp4840
g61
(dp4841
sg70
g3401
sg63
(lp4842
g56
(g77
g58
NtRp4843
(dp4844
g61
(dp4845
g81
g82
ssg70
g4839
sg63
(lp4846
S'title'
p4847
asbag56
(g77
g58
NtRp4848
(dp4849
g61
(dp4850
g88
g89
ssg70
g4839
sg63
(lp4851
S':'
asbag56
(g77
g58
NtRp4852
(dp4853
g61
(dp4854
sg70
g4839
sg63
(lp4855
g56
(g57
g58
NtRp4856
(dp4857
g61
(dp4858
g69
I5
ssg70
g4852
sg63
(lp4859
g121
asbasbasbag56
(g72
g58
NtRp4860
(dp4861
g61
(dp4862
sg70
g3401
sg63
(lp4863
g56
(g77
g58
NtRp4864
(dp4865
g61
(dp4866
g81
g82
ssg70
g4860
sg63
(lp4867
g2270
asbag56
(g77
g58
NtRp4868
(dp4869
g61
(dp4870
g88
g89
ssg70
g4860
sg63
(lp4871
S':'
asbag56
(g77
g58
NtRp4872
(dp4873
g61
(dp4874
sg70
g4860
sg63
(lp4875
g56
(g57
g58
NtRp4876
(dp4877
g61
(dp4878
g69
I5
ssg70
g4872
sg63
(lp4879
g2283
asbasbasbag56
(g72
g58
NtRp4880
(dp4881
g61
(dp4882
sg70
g3401
sg63
(lp4883
g56
(g77
g58
NtRp4884
(dp4885
g61
(dp4886
g81
g82
ssg70
g4880
sg63
(lp4887
S'view'
p4888
asbag56
(g77
g58
NtRp4889
(dp4890
g61
(dp4891
g88
g89
ssg70
g4880
sg63
(lp4892
S':'
asbag56
(g77
g58
NtRp4893
(dp4894
g61
(dp4895
sg70
g4880
sg63
(lp4896
g56
(g57
g58
NtRp4897
(dp4898
g61
(dp4899
g69
I5
ssg70
g4893
sg63
(lp4900
S'plugin_listandedit/edit.load'
p4901
asbasbasbasbasbsS'locals'
p4902
(dp4903
S'tablename'
p4904
S"'notes'"
p4905
sS'form'
p4906
S'<gluon.sqlhtml.SQLFORM object>'
p4907
sS'rowid'
p4908
S"'2'"
p4909
sS'formname'
p4910
S"'notes/2'"
p4911
sssS'traceback'
p4912
S'Traceback (most recent call last):\n  File "/home/ian/web2py/gluon/restricted.py", line 194, in restricted\n    exec ccode in environment\n  File "/home/ian/web2py/applications/topoi/controllers/plugin_listandedit.py", line 45, in <module>\n  File "/home/ian/web2py/gluon/globals.py", line 149, in <lambda>\n    self._caller = lambda f: f()\n  File "/home/ian/web2py/applications/topoi/controllers/plugin_listandedit.py", line 38, in edit\n    if form.process().accepted():\nTypeError: \'bool\' object is not callable\n'
p4913
s.