(dp1
S'output'
p2
S''
sS'layer'
p3
S'/home/ian/web2py/applications/topoi/views/plugin_ajaxselect/set_widget.load'
p4
sS'code'
p5
S'response.write(widget)\nresponse.write(button)\nresponse.write("\\n\\n<!--\\n<script>\\n    //$dialog = $(\'#modal_frame\')\\n    //    .dialog({autoOpen: false});\\n\\n    //$(\'.option_add_trigger\').live(\'click\', function(event){\\n    //    $(\'#", escape=False)\n#=loadname\nresponse.write("\').append(\'", escape=False)\n#=form\nresponse.write("\');\\n\\n        //$dialog.html(the_content).dialog(\'open\');\\n        //stop the link from opening a new URL as usual\\n        //event.preventDefault();\\n\\n    });\\n</script>\\n-->", escape=False)'
p6
sS'snapshot'
p7
(dp8
S'exception'
p9
(dp10
S'__hash__'
p11
S"<method-wrapper '__hash__' of exceptions.NameError object>"
p12
sS'__setattr__'
p13
S"<method-wrapper '__setattr__' of exceptions.NameError object>"
p14
sS'__reduce_ex__'
p15
S'<built-in method __reduce_ex__ of exceptions.NameError object>'
p16
sS'__getslice__'
p17
S"<method-wrapper '__getslice__' of exceptions.NameError object>"
p18
sS'__getitem__'
p19
S"<method-wrapper '__getitem__' of exceptions.NameError object>"
p20
sS'__setstate__'
p21
S'<built-in method __setstate__ of exceptions.NameError object>'
p22
sS'args'
p23
S'("name \'button\' is not defined",)'
p24
sS'__reduce__'
p25
S'<built-in method __reduce__ of exceptions.NameError object>'
p26
sS'__str__'
p27
S"<method-wrapper '__str__' of exceptions.NameError object>"
p28
sS'__format__'
p29
S'<built-in method __format__ of exceptions.NameError object>'
p30
sS'__getattribute__'
p31
S"<method-wrapper '__getattribute__' of exceptions.NameError object>"
p32
sS'__class__'
p33
S"<type 'exceptions.NameError'>"
p34
sS'__unicode__'
p35
S'<built-in method __unicode__ of exceptions.NameError object>'
p36
sS'__delattr__'
p37
S"<method-wrapper '__delattr__' of exceptions.NameError object>"
p38
sS'__subclasshook__'
p39
S'<built-in method __subclasshook__ of type object>'
p40
sS'__repr__'
p41
S"<method-wrapper '__repr__' of exceptions.NameError object>"
p42
sS'__dict__'
p43
S'{}'
p44
sS'__sizeof__'
p45
S'<built-in method __sizeof__ of exceptions.NameError object>'
p46
sS'__doc__'
p47
S"'Name not found globally.'"
p48
sS'__init__'
p49
S"<method-wrapper '__init__' of exceptions.NameError object>"
p50
sS'__new__'
p51
S'<built-in method __new__ of type object>'
p52
ssS'evalue'
p53
S"name 'button' is not defined"
p54
sS'request'
p55
ccopy_reg
_reconstructor
p56
(cgluon.html
BEAUTIFY
p57
c__builtin__
object
p58
NtRp59
(dp60
S'attributes'
p61
(dp62
sS'components'
p63
(lp64
g56
(cgluon.html
TABLE
p65
g58
NtRp66
(dp67
g61
(dp68
S'level'
p69
I5
ssS'parent'
p70
Nsg63
(lp71
g56
(cgluon.html
TR
p72
g58
NtRp73
(dp74
g61
(dp75
sg70
g66
sg63
(lp76
g56
(cgluon.html
TD
p77
g58
NtRp78
(dp79
g61
(dp80
S'_style'
p81
S'font-weight:bold;'
p82
ssg70
g73
sg63
(lp83
S'ajax'
p84
asbag56
(g77
g58
NtRp85
(dp86
g61
(dp87
S'_valign'
p88
S'top'
p89
ssg70
g73
sg63
(lp90
S':'
asbag56
(g77
g58
NtRp91
(dp92
g61
(dp93
sg70
g73
sg63
(lp94
g56
(g57
g58
NtRp95
(dp96
g61
(dp97
g69
I5
ssg70
g91
sg63
(lp98
S'True'
p99
asbasbasbag56
(g72
g58
NtRp100
(dp101
g61
(dp102
sg70
g66
sg63
(lp103
g56
(g77
g58
NtRp104
(dp105
g61
(dp106
g81
g82
ssg70
g100
sg63
(lp107
S'application'
p108
asbag56
(g77
g58
NtRp109
(dp110
g61
(dp111
g88
g89
ssg70
g100
sg63
(lp112
S':'
asbag56
(g77
g58
NtRp113
(dp114
g61
(dp115
sg70
g100
sg63
(lp116
g56
(g57
g58
NtRp117
(dp118
g61
(dp119
g69
I5
ssg70
g113
sg63
(lp120
S'topoi'
p121
asbasbasbag56
(g72
g58
NtRp122
(dp123
g61
(dp124
sg70
g66
sg63
(lp125
g56
(g77
g58
NtRp126
(dp127
g61
(dp128
g81
g82
ssg70
g122
sg63
(lp129
g23
asbag56
(g77
g58
NtRp130
(dp131
g61
(dp132
g88
g89
ssg70
g122
sg63
(lp133
S':'
asbag56
(g77
g58
NtRp134
(dp135
g61
(dp136
sg70
g122
sg63
(lp137
g56
(g57
g58
NtRp138
(dp139
g61
(dp140
g69
I5
ssg70
g134
sg63
(lp141
g56
(g65
g58
NtRp142
(dp143
g61
(dp144
g69
I4
ssg70
Nsg63
(lp145
g56
(g72
g58
NtRp146
(dp147
g61
(dp148
sg70
g142
sg63
(lp149
g56
(g77
g58
NtRp150
(dp151
g61
(dp152
sg70
g146
sg63
(lp153
g56
(g57
g58
NtRp154
(dp155
g61
(dp156
g69
I4
ssg70
g150
sg63
(lp157
S'notes'
p158
asbasbasbag56
(g72
g58
NtRp159
(dp160
g61
(dp161
sg70
g142
sg63
(lp162
g56
(g77
g58
NtRp163
(dp164
g61
(dp165
sg70
g159
sg63
(lp166
g56
(g57
g58
NtRp167
(dp168
g61
(dp169
g69
I4
ssg70
g163
sg63
(lp170
S'author'
p171
asbasbasbag56
(g72
g58
NtRp172
(dp173
g61
(dp174
sg70
g142
sg63
(lp175
g56
(g77
g58
NtRp176
(dp177
g61
(dp178
sg70
g172
sg63
(lp179
g56
(g57
g58
NtRp180
(dp181
g61
(dp182
g69
I4
ssg70
g176
sg63
(lp183
S'10'
p184
asbasbasbag56
(g72
g58
NtRp185
(dp186
g61
(dp187
sg70
g142
sg63
(lp188
g56
(g77
g58
NtRp189
(dp190
g61
(dp191
sg70
g185
sg63
(lp192
g56
(g57
g58
NtRp193
(dp194
g61
(dp195
g69
I4
ssg70
g189
sg63
(lp196
S'authors'
p197
asbasbasbag56
(g72
g58
NtRp198
(dp199
g61
(dp200
sg70
g142
sg63
(lp201
g56
(g77
g58
NtRp202
(dp203
g61
(dp204
sg70
g198
sg63
(lp205
g56
(g57
g58
NtRp206
(dp207
g61
(dp208
g69
I4
ssg70
g202
sg63
(lp209
S'notes_author_loader'
p210
asbasbasbasbasbasbasbag56
(g72
g58
NtRp211
(dp212
g61
(dp213
sg70
g66
sg63
(lp214
g56
(g77
g58
NtRp215
(dp216
g61
(dp217
g81
g82
ssg70
g211
sg63
(lp218
S'body'
p219
asbag56
(g77
g58
NtRp220
(dp221
g61
(dp222
g88
g89
ssg70
g211
sg63
(lp223
S':'
asbag56
(g77
g58
NtRp224
(dp225
g61
(dp226
sg70
g211
sg63
(lp227
g56
(g57
g58
NtRp228
(dp229
g61
(dp230
g69
I5
ssg70
g224
sg63
(lp231
S'<cStringIO.StringO object at 0x33317d8>'
p232
asbasbasbag56
(g72
g58
NtRp233
(dp234
g61
(dp235
sg70
g66
sg63
(lp236
g56
(g77
g58
NtRp237
(dp238
g61
(dp239
g81
g82
ssg70
g233
sg63
(lp240
S'cid'
p241
asbag56
(g77
g58
NtRp242
(dp243
g61
(dp244
g88
g89
ssg70
g233
sg63
(lp245
S':'
asbag56
(g77
g58
NtRp246
(dp247
g61
(dp248
sg70
g233
sg63
(lp249
g56
(g57
g58
NtRp250
(dp251
g61
(dp252
g69
I5
ssg70
g246
sg63
(lp253
S'notes_author_loader'
p254
asbasbasbag56
(g72
g58
NtRp255
(dp256
g61
(dp257
sg70
g66
sg63
(lp258
g56
(g77
g58
NtRp259
(dp260
g61
(dp261
g81
g82
ssg70
g255
sg63
(lp262
S'client'
p263
asbag56
(g77
g58
NtRp264
(dp265
g61
(dp266
g88
g89
ssg70
g255
sg63
(lp267
S':'
asbag56
(g77
g58
NtRp268
(dp269
g61
(dp270
sg70
g255
sg63
(lp271
g56
(g57
g58
NtRp272
(dp273
g61
(dp274
g69
I5
ssg70
g268
sg63
(lp275
S'127.0.0.1'
p276
asbasbasbag56
(g72
g58
NtRp277
(dp278
g61
(dp279
sg70
g66
sg63
(lp280
g56
(g77
g58
NtRp281
(dp282
g61
(dp283
g81
g82
ssg70
g277
sg63
(lp284
S'controller'
p285
asbag56
(g77
g58
NtRp286
(dp287
g61
(dp288
g88
g89
ssg70
g277
sg63
(lp289
S':'
asbag56
(g77
g58
NtRp290
(dp291
g61
(dp292
sg70
g277
sg63
(lp293
g56
(g57
g58
NtRp294
(dp295
g61
(dp296
g69
I5
ssg70
g290
sg63
(lp297
S'plugin_ajaxselect'
p298
asbasbasbag56
(g72
g58
NtRp299
(dp300
g61
(dp301
sg70
g66
sg63
(lp302
g56
(g77
g58
NtRp303
(dp304
g61
(dp305
g81
g82
ssg70
g299
sg63
(lp306
S'cookies'
p307
asbag56
(g77
g58
NtRp308
(dp309
g61
(dp310
g88
g89
ssg70
g299
sg63
(lp311
S':'
asbag56
(g77
g58
NtRp312
(dp313
g61
(dp314
sg70
g299
sg63
(lp315
g56
(g57
g58
NtRp316
(dp317
g61
(dp318
g69
I5
ssg70
g312
sg63
(lp319
g56
(g65
g58
NtRp320
(dp321
g61
(dp322
g69
I4
ssg70
Nsg63
(lp323
g56
(g72
g58
NtRp324
(dp325
g61
(dp326
sg70
g320
sg63
(lp327
g56
(g77
g58
NtRp328
(dp329
g61
(dp330
g81
g82
ssg70
g324
sg63
(lp331
S'session_id_admin'
p332
asbag56
(g77
g58
NtRp333
(dp334
g61
(dp335
g88
g89
ssg70
g324
sg63
(lp336
S':'
asbag56
(g77
g58
NtRp337
(dp338
g61
(dp339
sg70
g324
sg63
(lp340
g56
(g57
g58
NtRp341
(dp342
g61
(dp343
g69
I4
ssg70
g337
sg63
(lp344
g56
(g65
g58
NtRp345
(dp346
g61
(dp347
g69
I3
ssg70
Nsg63
(lp348
g56
(g72
g58
NtRp349
(dp350
g61
(dp351
sg70
g345
sg63
(lp352
g56
(g77
g58
NtRp353
(dp354
g61
(dp355
g81
g82
ssg70
g349
sg63
(lp356
S'comment'
p357
asbag56
(g77
g58
NtRp358
(dp359
g61
(dp360
g88
g89
ssg70
g349
sg63
(lp361
S':'
asbag56
(g77
g58
NtRp362
(dp363
g61
(dp364
sg70
g349
sg63
(lp365
g56
(g57
g58
NtRp366
(dp367
g61
(dp368
g69
I3
ssg70
g362
sg63
(lp369
S''
asbasbasbag56
(g72
g58
NtRp370
(dp371
g61
(dp372
sg70
g345
sg63
(lp373
g56
(g77
g58
NtRp374
(dp375
g61
(dp376
g81
g82
ssg70
g370
sg63
(lp377
S'domain'
p378
asbag56
(g77
g58
NtRp379
(dp380
g61
(dp381
g88
g89
ssg70
g370
sg63
(lp382
S':'
asbag56
(g77
g58
NtRp383
(dp384
g61
(dp385
sg70
g370
sg63
(lp386
g56
(g57
g58
NtRp387
(dp388
g61
(dp389
g69
I3
ssg70
g383
sg63
(lp390
S''
asbasbasbag56
(g72
g58
NtRp391
(dp392
g61
(dp393
sg70
g345
sg63
(lp394
g56
(g77
g58
NtRp395
(dp396
g61
(dp397
g81
g82
ssg70
g391
sg63
(lp398
S'expires'
p399
asbag56
(g77
g58
NtRp400
(dp401
g61
(dp402
g88
g89
ssg70
g391
sg63
(lp403
S':'
asbag56
(g77
g58
NtRp404
(dp405
g61
(dp406
sg70
g391
sg63
(lp407
g56
(g57
g58
NtRp408
(dp409
g61
(dp410
g69
I3
ssg70
g404
sg63
(lp411
S''
asbasbasbag56
(g72
g58
NtRp412
(dp413
g61
(dp414
sg70
g345
sg63
(lp415
g56
(g77
g58
NtRp416
(dp417
g61
(dp418
g81
g82
ssg70
g412
sg63
(lp419
S'httponly'
p420
asbag56
(g77
g58
NtRp421
(dp422
g61
(dp423
g88
g89
ssg70
g412
sg63
(lp424
S':'
asbag56
(g77
g58
NtRp425
(dp426
g61
(dp427
sg70
g412
sg63
(lp428
g56
(g57
g58
NtRp429
(dp430
g61
(dp431
g69
I3
ssg70
g425
sg63
(lp432
S''
asbasbasbag56
(g72
g58
NtRp433
(dp434
g61
(dp435
sg70
g345
sg63
(lp436
g56
(g77
g58
NtRp437
(dp438
g61
(dp439
g81
g82
ssg70
g433
sg63
(lp440
S'max-age'
p441
asbag56
(g77
g58
NtRp442
(dp443
g61
(dp444
g88
g89
ssg70
g433
sg63
(lp445
S':'
asbag56
(g77
g58
NtRp446
(dp447
g61
(dp448
sg70
g433
sg63
(lp449
g56
(g57
g58
NtRp450
(dp451
g61
(dp452
g69
I3
ssg70
g446
sg63
(lp453
S''
asbasbasbag56
(g72
g58
NtRp454
(dp455
g61
(dp456
sg70
g345
sg63
(lp457
g56
(g77
g58
NtRp458
(dp459
g61
(dp460
g81
g82
ssg70
g454
sg63
(lp461
S'path'
p462
asbag56
(g77
g58
NtRp463
(dp464
g61
(dp465
g88
g89
ssg70
g454
sg63
(lp466
S':'
asbag56
(g77
g58
NtRp467
(dp468
g61
(dp469
sg70
g454
sg63
(lp470
g56
(g57
g58
NtRp471
(dp472
g61
(dp473
g69
I3
ssg70
g467
sg63
(lp474
S''
asbasbasbag56
(g72
g58
NtRp475
(dp476
g61
(dp477
sg70
g345
sg63
(lp478
g56
(g77
g58
NtRp479
(dp480
g61
(dp481
g81
g82
ssg70
g475
sg63
(lp482
S'secure'
p483
asbag56
(g77
g58
NtRp484
(dp485
g61
(dp486
g88
g89
ssg70
g475
sg63
(lp487
S':'
asbag56
(g77
g58
NtRp488
(dp489
g61
(dp490
sg70
g475
sg63
(lp491
g56
(g57
g58
NtRp492
(dp493
g61
(dp494
g69
I3
ssg70
g488
sg63
(lp495
S''
asbasbasbag56
(g72
g58
NtRp496
(dp497
g61
(dp498
sg70
g345
sg63
(lp499
g56
(g77
g58
NtRp500
(dp501
g61
(dp502
g81
g82
ssg70
g496
sg63
(lp503
S'version'
p504
asbag56
(g77
g58
NtRp505
(dp506
g61
(dp507
g88
g89
ssg70
g496
sg63
(lp508
S':'
asbag56
(g77
g58
NtRp509
(dp510
g61
(dp511
sg70
g496
sg63
(lp512
g56
(g57
g58
NtRp513
(dp514
g61
(dp515
g69
I3
ssg70
g509
sg63
(lp516
S''
asbasbasbasbasbasbasbag56
(g72
g58
NtRp517
(dp518
g61
(dp519
sg70
g320
sg63
(lp520
g56
(g77
g58
NtRp521
(dp522
g61
(dp523
g81
g82
ssg70
g517
sg63
(lp524
S'session_id_topoi'
p525
asbag56
(g77
g58
NtRp526
(dp527
g61
(dp528
g88
g89
ssg70
g517
sg63
(lp529
S':'
asbag56
(g77
g58
NtRp530
(dp531
g61
(dp532
sg70
g517
sg63
(lp533
g56
(g57
g58
NtRp534
(dp535
g61
(dp536
g69
I4
ssg70
g530
sg63
(lp537
g56
(g65
g58
NtRp538
(dp539
g61
(dp540
g69
I3
ssg70
Nsg63
(lp541
g56
(g72
g58
NtRp542
(dp543
g61
(dp544
sg70
g538
sg63
(lp545
g56
(g77
g58
NtRp546
(dp547
g61
(dp548
g81
g82
ssg70
g542
sg63
(lp549
g357
asbag56
(g77
g58
NtRp550
(dp551
g61
(dp552
g88
g89
ssg70
g542
sg63
(lp553
S':'
asbag56
(g77
g58
NtRp554
(dp555
g61
(dp556
sg70
g542
sg63
(lp557
g56
(g57
g58
NtRp558
(dp559
g61
(dp560
g69
I3
ssg70
g554
sg63
(lp561
S''
asbasbasbag56
(g72
g58
NtRp562
(dp563
g61
(dp564
sg70
g538
sg63
(lp565
g56
(g77
g58
NtRp566
(dp567
g61
(dp568
g81
g82
ssg70
g562
sg63
(lp569
g378
asbag56
(g77
g58
NtRp570
(dp571
g61
(dp572
g88
g89
ssg70
g562
sg63
(lp573
S':'
asbag56
(g77
g58
NtRp574
(dp575
g61
(dp576
sg70
g562
sg63
(lp577
g56
(g57
g58
NtRp578
(dp579
g61
(dp580
g69
I3
ssg70
g574
sg63
(lp581
S''
asbasbasbag56
(g72
g58
NtRp582
(dp583
g61
(dp584
sg70
g538
sg63
(lp585
g56
(g77
g58
NtRp586
(dp587
g61
(dp588
g81
g82
ssg70
g582
sg63
(lp589
g399
asbag56
(g77
g58
NtRp590
(dp591
g61
(dp592
g88
g89
ssg70
g582
sg63
(lp593
S':'
asbag56
(g77
g58
NtRp594
(dp595
g61
(dp596
sg70
g582
sg63
(lp597
g56
(g57
g58
NtRp598
(dp599
g61
(dp600
g69
I3
ssg70
g594
sg63
(lp601
S''
asbasbasbag56
(g72
g58
NtRp602
(dp603
g61
(dp604
sg70
g538
sg63
(lp605
g56
(g77
g58
NtRp606
(dp607
g61
(dp608
g81
g82
ssg70
g602
sg63
(lp609
g420
asbag56
(g77
g58
NtRp610
(dp611
g61
(dp612
g88
g89
ssg70
g602
sg63
(lp613
S':'
asbag56
(g77
g58
NtRp614
(dp615
g61
(dp616
sg70
g602
sg63
(lp617
g56
(g57
g58
NtRp618
(dp619
g61
(dp620
g69
I3
ssg70
g614
sg63
(lp621
S''
asbasbasbag56
(g72
g58
NtRp622
(dp623
g61
(dp624
sg70
g538
sg63
(lp625
g56
(g77
g58
NtRp626
(dp627
g61
(dp628
g81
g82
ssg70
g622
sg63
(lp629
g441
asbag56
(g77
g58
NtRp630
(dp631
g61
(dp632
g88
g89
ssg70
g622
sg63
(lp633
S':'
asbag56
(g77
g58
NtRp634
(dp635
g61
(dp636
sg70
g622
sg63
(lp637
g56
(g57
g58
NtRp638
(dp639
g61
(dp640
g69
I3
ssg70
g634
sg63
(lp641
S''
asbasbasbag56
(g72
g58
NtRp642
(dp643
g61
(dp644
sg70
g538
sg63
(lp645
g56
(g77
g58
NtRp646
(dp647
g61
(dp648
g81
g82
ssg70
g642
sg63
(lp649
g462
asbag56
(g77
g58
NtRp650
(dp651
g61
(dp652
g88
g89
ssg70
g642
sg63
(lp653
S':'
asbag56
(g77
g58
NtRp654
(dp655
g61
(dp656
sg70
g642
sg63
(lp657
g56
(g57
g58
NtRp658
(dp659
g61
(dp660
g69
I3
ssg70
g654
sg63
(lp661
S''
asbasbasbag56
(g72
g58
NtRp662
(dp663
g61
(dp664
sg70
g538
sg63
(lp665
g56
(g77
g58
NtRp666
(dp667
g61
(dp668
g81
g82
ssg70
g662
sg63
(lp669
g483
asbag56
(g77
g58
NtRp670
(dp671
g61
(dp672
g88
g89
ssg70
g662
sg63
(lp673
S':'
asbag56
(g77
g58
NtRp674
(dp675
g61
(dp676
sg70
g662
sg63
(lp677
g56
(g57
g58
NtRp678
(dp679
g61
(dp680
g69
I3
ssg70
g674
sg63
(lp681
S''
asbasbasbag56
(g72
g58
NtRp682
(dp683
g61
(dp684
sg70
g538
sg63
(lp685
g56
(g77
g58
NtRp686
(dp687
g61
(dp688
g81
g82
ssg70
g682
sg63
(lp689
g504
asbag56
(g77
g58
NtRp690
(dp691
g61
(dp692
g88
g89
ssg70
g682
sg63
(lp693
S':'
asbag56
(g77
g58
NtRp694
(dp695
g61
(dp696
sg70
g682
sg63
(lp697
g56
(g57
g58
NtRp698
(dp699
g61
(dp700
g69
I3
ssg70
g694
sg63
(lp701
S''
asbasbasbasbasbasbasbasbasbasbasbag56
(g72
g58
NtRp702
(dp703
g61
(dp704
sg70
g66
sg63
(lp705
g56
(g77
g58
NtRp706
(dp707
g61
(dp708
g81
g82
ssg70
g702
sg63
(lp709
S'env'
p710
asbag56
(g77
g58
NtRp711
(dp712
g61
(dp713
g88
g89
ssg70
g702
sg63
(lp714
S':'
asbag56
(g77
g58
NtRp715
(dp716
g61
(dp717
sg70
g702
sg63
(lp718
g56
(g57
g58
NtRp719
(dp720
g61
(dp721
g69
I5
ssg70
g715
sg63
(lp722
g56
(g65
g58
NtRp723
(dp724
g61
(dp725
g69
I4
ssg70
Nsg63
(lp726
g56
(g72
g58
NtRp727
(dp728
g61
(dp729
sg70
g723
sg63
(lp730
g56
(g77
g58
NtRp731
(dp732
g61
(dp733
g81
g82
ssg70
g727
sg63
(lp734
S'app_folders'
p735
asbag56
(g77
g58
NtRp736
(dp737
g61
(dp738
g88
g89
ssg70
g727
sg63
(lp739
S':'
asbag56
(g77
g58
NtRp740
(dp741
g61
(dp742
sg70
g727
sg63
(lp743
g56
(g57
g58
NtRp744
(dp745
g61
(dp746
g69
I4
ssg70
g740
sg63
(lp747
S"set(['/home/ian/web2py/applications/topoi/', '/home/ian/web2py/applications/welcome/', '/home/ian/web2py/applications/admin/'])"
p748
asbasbasbag56
(g72
g58
NtRp749
(dp750
g61
(dp751
sg70
g723
sg63
(lp752
g56
(g77
g58
NtRp753
(dp754
g61
(dp755
g81
g82
ssg70
g749
sg63
(lp756
S'applications_parent'
p757
asbag56
(g77
g58
NtRp758
(dp759
g61
(dp760
g88
g89
ssg70
g749
sg63
(lp761
S':'
asbag56
(g77
g58
NtRp762
(dp763
g61
(dp764
sg70
g749
sg63
(lp765
g56
(g57
g58
NtRp766
(dp767
g61
(dp768
g69
I4
ssg70
g762
sg63
(lp769
S'/home/ian/web2py'
p770
asbasbasbag56
(g72
g58
NtRp771
(dp772
g61
(dp773
sg70
g723
sg63
(lp774
g56
(g77
g58
NtRp775
(dp776
g61
(dp777
g81
g82
ssg70
g771
sg63
(lp778
S'cmd_args'
p779
asbag56
(g77
g58
NtRp780
(dp781
g61
(dp782
g88
g89
ssg70
g771
sg63
(lp783
S':'
asbag56
(g77
g58
NtRp784
(dp785
g61
(dp786
sg70
g771
sg63
(lp787
g56
(g57
g58
NtRp788
(dp789
g61
(dp790
g69
I4
ssg70
g784
sg63
(lp791
g56
(g65
g58
NtRp792
(dp793
g61
(dp794
g69
I3
ssg70
Nsg63
(lp795
sbasbasbasbag56
(g72
g58
NtRp796
(dp797
g61
(dp798
sg70
g723
sg63
(lp799
g56
(g77
g58
NtRp800
(dp801
g61
(dp802
g81
g82
ssg70
g796
sg63
(lp803
S'cmd_options'
p804
asbag56
(g77
g58
NtRp805
(dp806
g61
(dp807
g88
g89
ssg70
g796
sg63
(lp808
S':'
asbag56
(g77
g58
NtRp809
(dp810
g61
(dp811
sg70
g796
sg63
(lp812
g56
(g57
g58
NtRp813
(dp814
g61
(dp815
g69
I4
ssg70
g809
sg63
(lp816
S"<Values at 0x2246758: {'verbose': False, 'ip': '127.0.0.1', 'shutdown_timeout': 5, 'taskbar': False, 'nocron': False, 'pid_filename': 'httpserver.pid', 'maxthreads': None, 'softcron': False, 'server_name': 'uriel', 'bpython': False, 'nogui': False, 'port': 8000, 'extcron': False, 'debuglevel': 30, 'test': None, 'folder': '/home/ian/web2py', 'config': '', 'import_models': False, 'winservice': '', 'shell': None, 'run': '', 'log_filename': 'httpserver.log', 'args': [''], 'ssl_ca_certificate': None, 'scheduler': None, 'profiler_filename': None, 'ssl_private_key': '', 'password': '<ask>', 'request_queue_size': 5, 'ssl_certificate': '', 'cronjob': False, 'plain': False, 'quiet': False, 'interfaces': None, 'minthreads': None, 'timeout': 10, 'numthreads': None, 'nobanner': False}>"
p817
asbasbasbag56
(g72
g58
NtRp818
(dp819
g61
(dp820
sg70
g723
sg63
(lp821
g56
(g77
g58
NtRp822
(dp823
g61
(dp824
g81
g82
ssg70
g818
sg63
(lp825
S'db_sessions'
p826
asbag56
(g77
g58
NtRp827
(dp828
g61
(dp829
g88
g89
ssg70
g818
sg63
(lp830
S':'
asbag56
(g77
g58
NtRp831
(dp832
g61
(dp833
sg70
g818
sg63
(lp834
g56
(g57
g58
NtRp835
(dp836
g61
(dp837
g69
I4
ssg70
g831
sg63
(lp838
S'set([])'
p839
asbasbasbag56
(g72
g58
NtRp840
(dp841
g61
(dp842
sg70
g723
sg63
(lp843
g56
(g77
g58
NtRp844
(dp845
g61
(dp846
g81
g82
ssg70
g840
sg63
(lp847
S'debugging'
p848
asbag56
(g77
g58
NtRp849
(dp850
g61
(dp851
g88
g89
ssg70
g840
sg63
(lp852
S':'
asbag56
(g77
g58
NtRp853
(dp854
g61
(dp855
sg70
g840
sg63
(lp856
g56
(g57
g58
NtRp857
(dp858
g61
(dp859
g69
I4
ssg70
g853
sg63
(lp860
S'False'
p861
asbasbasbag56
(g72
g58
NtRp862
(dp863
g61
(dp864
sg70
g723
sg63
(lp865
g56
(g77
g58
NtRp866
(dp867
g61
(dp868
g81
g82
ssg70
g862
sg63
(lp869
S'gluon_parent'
p870
asbag56
(g77
g58
NtRp871
(dp872
g61
(dp873
g88
g89
ssg70
g862
sg63
(lp874
S':'
asbag56
(g77
g58
NtRp875
(dp876
g61
(dp877
sg70
g862
sg63
(lp878
g56
(g57
g58
NtRp879
(dp880
g61
(dp881
g69
I4
ssg70
g875
sg63
(lp882
S'/home/ian/web2py'
p883
asbasbasbag56
(g72
g58
NtRp884
(dp885
g61
(dp886
sg70
g723
sg63
(lp887
g56
(g77
g58
NtRp888
(dp889
g61
(dp890
g81
g82
ssg70
g884
sg63
(lp891
S'http_accept'
p892
asbag56
(g77
g58
NtRp893
(dp894
g61
(dp895
g88
g89
ssg70
g884
sg63
(lp896
S':'
asbag56
(g77
g58
NtRp897
(dp898
g61
(dp899
sg70
g884
sg63
(lp900
g56
(g57
g58
NtRp901
(dp902
g61
(dp903
g69
I4
ssg70
g897
sg63
(lp904
S'*/*'
p905
asbasbasbag56
(g72
g58
NtRp906
(dp907
g61
(dp908
sg70
g723
sg63
(lp909
g56
(g77
g58
NtRp910
(dp911
g61
(dp912
g81
g82
ssg70
g906
sg63
(lp913
S'http_accept_charset'
p914
asbag56
(g77
g58
NtRp915
(dp916
g61
(dp917
g88
g89
ssg70
g906
sg63
(lp918
S':'
asbag56
(g77
g58
NtRp919
(dp920
g61
(dp921
sg70
g906
sg63
(lp922
g56
(g57
g58
NtRp923
(dp924
g61
(dp925
g69
I4
ssg70
g919
sg63
(lp926
S'UTF-8,*'
p927
asbasbasbag56
(g72
g58
NtRp928
(dp929
g61
(dp930
sg70
g723
sg63
(lp931
g56
(g77
g58
NtRp932
(dp933
g61
(dp934
g81
g82
ssg70
g928
sg63
(lp935
S'http_accept_encoding'
p936
asbag56
(g77
g58
NtRp937
(dp938
g61
(dp939
g88
g89
ssg70
g928
sg63
(lp940
S':'
asbag56
(g77
g58
NtRp941
(dp942
g61
(dp943
sg70
g928
sg63
(lp944
g56
(g57
g58
NtRp945
(dp946
g61
(dp947
g69
I4
ssg70
g941
sg63
(lp948
S'gzip, deflate'
p949
asbasbasbag56
(g72
g58
NtRp950
(dp951
g61
(dp952
sg70
g723
sg63
(lp953
g56
(g77
g58
NtRp954
(dp955
g61
(dp956
g81
g82
ssg70
g950
sg63
(lp957
S'http_accept_language'
p958
asbag56
(g77
g58
NtRp959
(dp960
g61
(dp961
g88
g89
ssg70
g950
sg63
(lp962
S':'
asbag56
(g77
g58
NtRp963
(dp964
g61
(dp965
sg70
g950
sg63
(lp966
g56
(g57
g58
NtRp967
(dp968
g61
(dp969
g69
I4
ssg70
g963
sg63
(lp970
S'en-us,en;q=0.5'
p971
asbasbasbag56
(g72
g58
NtRp972
(dp973
g61
(dp974
sg70
g723
sg63
(lp975
g56
(g77
g58
NtRp976
(dp977
g61
(dp978
g81
g82
ssg70
g972
sg63
(lp979
S'http_connection'
p980
asbag56
(g77
g58
NtRp981
(dp982
g61
(dp983
g88
g89
ssg70
g972
sg63
(lp984
S':'
asbag56
(g77
g58
NtRp985
(dp986
g61
(dp987
sg70
g972
sg63
(lp988
g56
(g57
g58
NtRp989
(dp990
g61
(dp991
g69
I4
ssg70
g985
sg63
(lp992
S'keep-alive'
p993
asbasbasbag56
(g72
g58
NtRp994
(dp995
g61
(dp996
sg70
g723
sg63
(lp997
g56
(g77
g58
NtRp998
(dp999
g61
(dp1000
g81
g82
ssg70
g994
sg63
(lp1001
S'http_cookie'
p1002
asbag56
(g77
g58
NtRp1003
(dp1004
g61
(dp1005
g88
g89
ssg70
g994
sg63
(lp1006
S':'
asbag56
(g77
g58
NtRp1007
(dp1008
g61
(dp1009
sg70
g994
sg63
(lp1010
g56
(g57
g58
NtRp1011
(dp1012
g61
(dp1013
g69
I4
ssg70
g1007
sg63
(lp1014
S'session_id_topoi=127.0.0.1-fbfd7fa3-57f5-4d42-8f08-594178070e93; session_id_admin=127.0.0.1-d7c37b6e-5c02-4001-ac4d-6ba36c6ca1e8'
p1015
asbasbasbag56
(g72
g58
NtRp1016
(dp1017
g61
(dp1018
sg70
g723
sg63
(lp1019
g56
(g77
g58
NtRp1020
(dp1021
g61
(dp1022
g81
g82
ssg70
g1016
sg63
(lp1023
S'http_host'
p1024
asbag56
(g77
g58
NtRp1025
(dp1026
g61
(dp1027
g88
g89
ssg70
g1016
sg63
(lp1028
S':'
asbag56
(g77
g58
NtRp1029
(dp1030
g61
(dp1031
sg70
g1016
sg63
(lp1032
g56
(g57
g58
NtRp1033
(dp1034
g61
(dp1035
g69
I4
ssg70
g1029
sg63
(lp1036
S'127.0.0.1:8000'
p1037
asbasbasbag56
(g72
g58
NtRp1038
(dp1039
g61
(dp1040
sg70
g723
sg63
(lp1041
g56
(g77
g58
NtRp1042
(dp1043
g61
(dp1044
g81
g82
ssg70
g1038
sg63
(lp1045
S'http_referer'
p1046
asbag56
(g77
g58
NtRp1047
(dp1048
g61
(dp1049
g88
g89
ssg70
g1038
sg63
(lp1050
S':'
asbag56
(g77
g58
NtRp1051
(dp1052
g61
(dp1053
sg70
g1038
sg63
(lp1054
g56
(g57
g58
NtRp1055
(dp1056
g61
(dp1057
g69
I4
ssg70
g1051
sg63
(lp1058
S'http://127.0.0.1:8000/topoi/plugin_listandedit/list/notes/1?fields=author&fields=work&fields=reference'
p1059
asbasbasbag56
(g72
g58
NtRp1060
(dp1061
g61
(dp1062
sg70
g723
sg63
(lp1063
g56
(g77
g58
NtRp1064
(dp1065
g61
(dp1066
g81
g82
ssg70
g1060
sg63
(lp1067
S'http_user_agent'
p1068
asbag56
(g77
g58
NtRp1069
(dp1070
g61
(dp1071
g88
g89
ssg70
g1060
sg63
(lp1072
S':'
asbag56
(g77
g58
NtRp1073
(dp1074
g61
(dp1075
sg70
g1060
sg63
(lp1076
g56
(g57
g58
NtRp1077
(dp1078
g61
(dp1079
g69
I4
ssg70
g1073
sg63
(lp1080
S'Mozilla/5.0 (Ubuntu; X11; Linux x86_64; rv:8.0) Gecko/20100101 Firefox/8.0'
p1081
asbasbasbag56
(g72
g58
NtRp1082
(dp1083
g61
(dp1084
sg70
g723
sg63
(lp1085
g56
(g77
g58
NtRp1086
(dp1087
g61
(dp1088
g81
g82
ssg70
g1082
sg63
(lp1089
S'http_web2py_component_element'
p1090
asbag56
(g77
g58
NtRp1091
(dp1092
g61
(dp1093
g88
g89
ssg70
g1082
sg63
(lp1094
S':'
asbag56
(g77
g58
NtRp1095
(dp1096
g61
(dp1097
sg70
g1082
sg63
(lp1098
g56
(g57
g58
NtRp1099
(dp1100
g61
(dp1101
g69
I4
ssg70
g1095
sg63
(lp1102
g254
asbasbasbag56
(g72
g58
NtRp1103
(dp1104
g61
(dp1105
sg70
g723
sg63
(lp1106
g56
(g77
g58
NtRp1107
(dp1108
g61
(dp1109
g81
g82
ssg70
g1103
sg63
(lp1110
S'http_web2py_component_location'
p1111
asbag56
(g77
g58
NtRp1112
(dp1113
g61
(dp1114
g88
g89
ssg70
g1103
sg63
(lp1115
S':'
asbag56
(g77
g58
NtRp1116
(dp1117
g61
(dp1118
sg70
g1103
sg63
(lp1119
g56
(g57
g58
NtRp1120
(dp1121
g61
(dp1122
g69
I4
ssg70
g1116
sg63
(lp1123
S'http://127.0.0.1:8000/topoi/plugin_listandedit/list/notes/1?fields=author&fields=work&fields=reference'
p1124
asbasbasbag56
(g72
g58
NtRp1125
(dp1126
g61
(dp1127
sg70
g723
sg63
(lp1128
g56
(g77
g58
NtRp1129
(dp1130
g61
(dp1131
g81
g82
ssg70
g1125
sg63
(lp1132
S'http_x_requested_with'
p1133
asbag56
(g77
g58
NtRp1134
(dp1135
g61
(dp1136
g88
g89
ssg70
g1125
sg63
(lp1137
S':'
asbag56
(g77
g58
NtRp1138
(dp1139
g61
(dp1140
sg70
g1125
sg63
(lp1141
g56
(g57
g58
NtRp1142
(dp1143
g61
(dp1144
g69
I4
ssg70
g1138
sg63
(lp1145
S'XMLHttpRequest'
p1146
asbasbasbag56
(g72
g58
NtRp1147
(dp1148
g61
(dp1149
sg70
g723
sg63
(lp1150
g56
(g77
g58
NtRp1151
(dp1152
g61
(dp1153
g81
g82
ssg70
g1147
sg63
(lp1154
S'is_jython'
p1155
asbag56
(g77
g58
NtRp1156
(dp1157
g61
(dp1158
g88
g89
ssg70
g1147
sg63
(lp1159
S':'
asbag56
(g77
g58
NtRp1160
(dp1161
g61
(dp1162
sg70
g1147
sg63
(lp1163
g56
(g57
g58
NtRp1164
(dp1165
g61
(dp1166
g69
I4
ssg70
g1160
sg63
(lp1167
g861
asbasbasbag56
(g72
g58
NtRp1168
(dp1169
g61
(dp1170
sg70
g723
sg63
(lp1171
g56
(g77
g58
NtRp1172
(dp1173
g61
(dp1174
g81
g82
ssg70
g1168
sg63
(lp1175
S'path_info'
p1176
asbag56
(g77
g58
NtRp1177
(dp1178
g61
(dp1179
g88
g89
ssg70
g1168
sg63
(lp1180
S':'
asbag56
(g77
g58
NtRp1181
(dp1182
g61
(dp1183
sg70
g1168
sg63
(lp1184
g56
(g57
g58
NtRp1185
(dp1186
g61
(dp1187
g69
I4
ssg70
g1181
sg63
(lp1188
S'/topoi/plugin_ajaxselect/set_widget.load/notes/author/10/authors/notes_author_loader'
p1189
asbasbasbag56
(g72
g58
NtRp1190
(dp1191
g61
(dp1192
sg70
g723
sg63
(lp1193
g56
(g77
g58
NtRp1194
(dp1195
g61
(dp1196
g81
g82
ssg70
g1190
sg63
(lp1197
S'query_string'
p1198
asbag56
(g77
g58
NtRp1199
(dp1200
g61
(dp1201
g88
g89
ssg70
g1190
sg63
(lp1202
S':'
asbag56
(g77
g58
NtRp1203
(dp1204
g61
(dp1205
sg70
g1190
sg63
(lp1206
g56
(g57
g58
NtRp1207
(dp1208
g61
(dp1209
g69
I4
ssg70
g1203
sg63
(lp1210
S''
asbasbasbag56
(g72
g58
NtRp1211
(dp1212
g61
(dp1213
sg70
g723
sg63
(lp1214
g56
(g77
g58
NtRp1215
(dp1216
g61
(dp1217
g81
g82
ssg70
g1211
sg63
(lp1218
S'remote_addr'
p1219
asbag56
(g77
g58
NtRp1220
(dp1221
g61
(dp1222
g88
g89
ssg70
g1211
sg63
(lp1223
S':'
asbag56
(g77
g58
NtRp1224
(dp1225
g61
(dp1226
sg70
g1211
sg63
(lp1227
g56
(g57
g58
NtRp1228
(dp1229
g61
(dp1230
g69
I4
ssg70
g1224
sg63
(lp1231
g276
asbasbasbag56
(g72
g58
NtRp1232
(dp1233
g61
(dp1234
sg70
g723
sg63
(lp1235
g56
(g77
g58
NtRp1236
(dp1237
g61
(dp1238
g81
g82
ssg70
g1232
sg63
(lp1239
S'remote_port'
p1240
asbag56
(g77
g58
NtRp1241
(dp1242
g61
(dp1243
g88
g89
ssg70
g1232
sg63
(lp1244
S':'
asbag56
(g77
g58
NtRp1245
(dp1246
g61
(dp1247
sg70
g1232
sg63
(lp1248
g56
(g57
g58
NtRp1249
(dp1250
g61
(dp1251
g69
I4
ssg70
g1245
sg63
(lp1252
S'59444'
p1253
asbasbasbag56
(g72
g58
NtRp1254
(dp1255
g61
(dp1256
sg70
g723
sg63
(lp1257
g56
(g77
g58
NtRp1258
(dp1259
g61
(dp1260
g81
g82
ssg70
g1254
sg63
(lp1261
S'request_method'
p1262
asbag56
(g77
g58
NtRp1263
(dp1264
g61
(dp1265
g88
g89
ssg70
g1254
sg63
(lp1266
S':'
asbag56
(g77
g58
NtRp1267
(dp1268
g61
(dp1269
sg70
g1254
sg63
(lp1270
g56
(g57
g58
NtRp1271
(dp1272
g61
(dp1273
g69
I4
ssg70
g1267
sg63
(lp1274
S'GET'
p1275
asbasbasbag56
(g72
g58
NtRp1276
(dp1277
g61
(dp1278
sg70
g723
sg63
(lp1279
g56
(g77
g58
NtRp1280
(dp1281
g61
(dp1282
g81
g82
ssg70
g1276
sg63
(lp1283
S'script_name'
p1284
asbag56
(g77
g58
NtRp1285
(dp1286
g61
(dp1287
g88
g89
ssg70
g1276
sg63
(lp1288
S':'
asbag56
(g77
g58
NtRp1289
(dp1290
g61
(dp1291
sg70
g1276
sg63
(lp1292
g56
(g57
g58
NtRp1293
(dp1294
g61
(dp1295
g69
I4
ssg70
g1289
sg63
(lp1296
S''
asbasbasbag56
(g72
g58
NtRp1297
(dp1298
g61
(dp1299
sg70
g723
sg63
(lp1300
g56
(g77
g58
NtRp1301
(dp1302
g61
(dp1303
g81
g82
ssg70
g1297
sg63
(lp1304
S'server_name'
p1305
asbag56
(g77
g58
NtRp1306
(dp1307
g61
(dp1308
g88
g89
ssg70
g1297
sg63
(lp1309
S':'
asbag56
(g77
g58
NtRp1310
(dp1311
g61
(dp1312
sg70
g1297
sg63
(lp1313
g56
(g57
g58
NtRp1314
(dp1315
g61
(dp1316
g69
I4
ssg70
g1310
sg63
(lp1317
S'uriel'
p1318
asbasbasbag56
(g72
g58
NtRp1319
(dp1320
g61
(dp1321
sg70
g723
sg63
(lp1322
g56
(g77
g58
NtRp1323
(dp1324
g61
(dp1325
g81
g82
ssg70
g1319
sg63
(lp1326
S'server_port'
p1327
asbag56
(g77
g58
NtRp1328
(dp1329
g61
(dp1330
g88
g89
ssg70
g1319
sg63
(lp1331
S':'
asbag56
(g77
g58
NtRp1332
(dp1333
g61
(dp1334
sg70
g1319
sg63
(lp1335
g56
(g57
g58
NtRp1336
(dp1337
g61
(dp1338
g69
I4
ssg70
g1332
sg63
(lp1339
S'8000'
p1340
asbasbasbag56
(g72
g58
NtRp1341
(dp1342
g61
(dp1343
sg70
g723
sg63
(lp1344
g56
(g77
g58
NtRp1345
(dp1346
g61
(dp1347
g81
g82
ssg70
g1341
sg63
(lp1348
S'server_protocol'
p1349
asbag56
(g77
g58
NtRp1350
(dp1351
g61
(dp1352
g88
g89
ssg70
g1341
sg63
(lp1353
S':'
asbag56
(g77
g58
NtRp1354
(dp1355
g61
(dp1356
sg70
g1341
sg63
(lp1357
g56
(g57
g58
NtRp1358
(dp1359
g61
(dp1360
g69
I4
ssg70
g1354
sg63
(lp1361
S'HTTP/1.1'
p1362
asbasbasbag56
(g72
g58
NtRp1363
(dp1364
g61
(dp1365
sg70
g723
sg63
(lp1366
g56
(g77
g58
NtRp1367
(dp1368
g61
(dp1369
g81
g82
ssg70
g1363
sg63
(lp1370
S'server_software'
p1371
asbag56
(g77
g58
NtRp1372
(dp1373
g61
(dp1374
g88
g89
ssg70
g1363
sg63
(lp1375
S':'
asbag56
(g77
g58
NtRp1376
(dp1377
g61
(dp1378
sg70
g1363
sg63
(lp1379
g56
(g57
g58
NtRp1380
(dp1381
g61
(dp1382
g69
I4
ssg70
g1376
sg63
(lp1383
S'Rocket 1.2.4'
p1384
asbasbasbag56
(g72
g58
NtRp1385
(dp1386
g61
(dp1387
sg70
g723
sg63
(lp1388
g56
(g77
g58
NtRp1389
(dp1390
g61
(dp1391
g81
g82
ssg70
g1385
sg63
(lp1392
S'web2py_crontype'
p1393
asbag56
(g77
g58
NtRp1394
(dp1395
g61
(dp1396
g88
g89
ssg70
g1385
sg63
(lp1397
S':'
asbag56
(g77
g58
NtRp1398
(dp1399
g61
(dp1400
sg70
g1385
sg63
(lp1401
g56
(g57
g58
NtRp1402
(dp1403
g61
(dp1404
g69
I4
ssg70
g1398
sg63
(lp1405
S'hard'
p1406
asbasbasbag56
(g72
g58
NtRp1407
(dp1408
g61
(dp1409
sg70
g723
sg63
(lp1410
g56
(g77
g58
NtRp1411
(dp1412
g61
(dp1413
g81
g82
ssg70
g1407
sg63
(lp1414
S'web2py_path'
p1415
asbag56
(g77
g58
NtRp1416
(dp1417
g61
(dp1418
g88
g89
ssg70
g1407
sg63
(lp1419
S':'
asbag56
(g77
g58
NtRp1420
(dp1421
g61
(dp1422
sg70
g1407
sg63
(lp1423
g56
(g57
g58
NtRp1424
(dp1425
g61
(dp1426
g69
I4
ssg70
g1420
sg63
(lp1427
g770
asbasbasbag56
(g72
g58
NtRp1428
(dp1429
g61
(dp1430
sg70
g723
sg63
(lp1431
g56
(g77
g58
NtRp1432
(dp1433
g61
(dp1434
g81
g82
ssg70
g1428
sg63
(lp1435
S'web2py_version'
p1436
asbag56
(g77
g58
NtRp1437
(dp1438
g61
(dp1439
g88
g89
ssg70
g1428
sg63
(lp1440
S':'
asbag56
(g77
g58
NtRp1441
(dp1442
g61
(dp1443
sg70
g1428
sg63
(lp1444
g56
(g57
g58
NtRp1445
(dp1446
g61
(dp1447
g69
I4
ssg70
g1441
sg63
(lp1448
g56
(g65
g58
NtRp1449
(dp1450
g61
(dp1451
g69
I3
ssg70
Nsg63
(lp1452
g56
(g72
g58
NtRp1453
(dp1454
g61
(dp1455
sg70
g1449
sg63
(lp1456
g56
(g77
g58
NtRp1457
(dp1458
g61
(dp1459
sg70
g1453
sg63
(lp1460
g56
(g57
g58
NtRp1461
(dp1462
g61
(dp1463
g69
I3
ssg70
g1457
sg63
(lp1464
S'1'
asbasbasbag56
(g72
g58
NtRp1465
(dp1466
g61
(dp1467
sg70
g1449
sg63
(lp1468
g56
(g77
g58
NtRp1469
(dp1470
g61
(dp1471
sg70
g1465
sg63
(lp1472
g56
(g57
g58
NtRp1473
(dp1474
g61
(dp1475
g69
I3
ssg70
g1469
sg63
(lp1476
S'99'
p1477
asbasbasbag56
(g72
g58
NtRp1478
(dp1479
g61
(dp1480
sg70
g1449
sg63
(lp1481
g56
(g77
g58
NtRp1482
(dp1483
g61
(dp1484
sg70
g1478
sg63
(lp1485
g56
(g57
g58
NtRp1486
(dp1487
g61
(dp1488
g69
I3
ssg70
g1482
sg63
(lp1489
S'2'
asbasbasbag56
(g72
g58
NtRp1490
(dp1491
g61
(dp1492
sg70
g1449
sg63
(lp1493
g56
(g77
g58
NtRp1494
(dp1495
g61
(dp1496
sg70
g1490
sg63
(lp1497
g56
(g57
g58
NtRp1498
(dp1499
g61
(dp1500
g69
I3
ssg70
g1494
sg63
(lp1501
S'datetime.datetime(2011, 9, 26, 6, 55, 33)'
p1502
asbasbasbag56
(g72
g58
NtRp1503
(dp1504
g61
(dp1505
sg70
g1449
sg63
(lp1506
g56
(g77
g58
NtRp1507
(dp1508
g61
(dp1509
sg70
g1503
sg63
(lp1510
g56
(g57
g58
NtRp1511
(dp1512
g61
(dp1513
g69
I3
ssg70
g1507
sg63
(lp1514
S'stable'
p1515
asbasbasbasbasbasbasbag56
(g72
g58
NtRp1516
(dp1517
g61
(dp1518
sg70
g723
sg63
(lp1519
g56
(g77
g58
NtRp1520
(dp1521
g61
(dp1522
g81
g82
ssg70
g1516
sg63
(lp1523
S'wsgi_errors'
p1524
asbag56
(g77
g58
NtRp1525
(dp1526
g61
(dp1527
g88
g89
ssg70
g1516
sg63
(lp1528
S':'
asbag56
(g77
g58
NtRp1529
(dp1530
g61
(dp1531
sg70
g1516
sg63
(lp1532
g56
(g57
g58
NtRp1533
(dp1534
g61
(dp1535
g69
I4
ssg70
g1529
sg63
(lp1536
S"<open file '<stderr>', mode 'w' at 0x7f9de9e5a270>"
p1537
asbasbasbag56
(g72
g58
NtRp1538
(dp1539
g61
(dp1540
sg70
g723
sg63
(lp1541
g56
(g77
g58
NtRp1542
(dp1543
g61
(dp1544
g81
g82
ssg70
g1538
sg63
(lp1545
S'wsgi_file_wrapper'
p1546
asbag56
(g77
g58
NtRp1547
(dp1548
g61
(dp1549
g88
g89
ssg70
g1538
sg63
(lp1550
S':'
asbag56
(g77
g58
NtRp1551
(dp1552
g61
(dp1553
sg70
g1538
sg63
(lp1554
g56
(g57
g58
NtRp1555
(dp1556
g61
(dp1557
g69
I4
ssg70
g1551
sg63
(lp1558
S'<class wsgiref.util.FileWrapper at 0x2111870>'
p1559
asbasbasbag56
(g72
g58
NtRp1560
(dp1561
g61
(dp1562
sg70
g723
sg63
(lp1563
g56
(g77
g58
NtRp1564
(dp1565
g61
(dp1566
g81
g82
ssg70
g1560
sg63
(lp1567
S'wsgi_input'
p1568
asbag56
(g77
g58
NtRp1569
(dp1570
g61
(dp1571
g88
g89
ssg70
g1560
sg63
(lp1572
S':'
asbag56
(g77
g58
NtRp1573
(dp1574
g61
(dp1575
sg70
g1560
sg63
(lp1576
g56
(g57
g58
NtRp1577
(dp1578
g61
(dp1579
g69
I4
ssg70
g1573
sg63
(lp1580
S'<socket._fileobject object at 0x7f9dd8146ad0>'
p1581
asbasbasbag56
(g72
g58
NtRp1582
(dp1583
g61
(dp1584
sg70
g723
sg63
(lp1585
g56
(g77
g58
NtRp1586
(dp1587
g61
(dp1588
g81
g82
ssg70
g1582
sg63
(lp1589
S'wsgi_multiprocess'
p1590
asbag56
(g77
g58
NtRp1591
(dp1592
g61
(dp1593
g88
g89
ssg70
g1582
sg63
(lp1594
S':'
asbag56
(g77
g58
NtRp1595
(dp1596
g61
(dp1597
sg70
g1582
sg63
(lp1598
g56
(g57
g58
NtRp1599
(dp1600
g61
(dp1601
g69
I4
ssg70
g1595
sg63
(lp1602
g861
asbasbasbag56
(g72
g58
NtRp1603
(dp1604
g61
(dp1605
sg70
g723
sg63
(lp1606
g56
(g77
g58
NtRp1607
(dp1608
g61
(dp1609
g81
g82
ssg70
g1603
sg63
(lp1610
S'wsgi_multithread'
p1611
asbag56
(g77
g58
NtRp1612
(dp1613
g61
(dp1614
g88
g89
ssg70
g1603
sg63
(lp1615
S':'
asbag56
(g77
g58
NtRp1616
(dp1617
g61
(dp1618
sg70
g1603
sg63
(lp1619
g56
(g57
g58
NtRp1620
(dp1621
g61
(dp1622
g69
I4
ssg70
g1616
sg63
(lp1623
g99
asbasbasbag56
(g72
g58
NtRp1624
(dp1625
g61
(dp1626
sg70
g723
sg63
(lp1627
g56
(g77
g58
NtRp1628
(dp1629
g61
(dp1630
g81
g82
ssg70
g1624
sg63
(lp1631
S'wsgi_run_once'
p1632
asbag56
(g77
g58
NtRp1633
(dp1634
g61
(dp1635
g88
g89
ssg70
g1624
sg63
(lp1636
S':'
asbag56
(g77
g58
NtRp1637
(dp1638
g61
(dp1639
sg70
g1624
sg63
(lp1640
g56
(g57
g58
NtRp1641
(dp1642
g61
(dp1643
g69
I4
ssg70
g1637
sg63
(lp1644
g861
asbasbasbag56
(g72
g58
NtRp1645
(dp1646
g61
(dp1647
sg70
g723
sg63
(lp1648
g56
(g77
g58
NtRp1649
(dp1650
g61
(dp1651
g81
g82
ssg70
g1645
sg63
(lp1652
S'wsgi_url_scheme'
p1653
asbag56
(g77
g58
NtRp1654
(dp1655
g61
(dp1656
g88
g89
ssg70
g1645
sg63
(lp1657
S':'
asbag56
(g77
g58
NtRp1658
(dp1659
g61
(dp1660
sg70
g1645
sg63
(lp1661
g56
(g57
g58
NtRp1662
(dp1663
g61
(dp1664
g69
I4
ssg70
g1658
sg63
(lp1665
S'http'
p1666
asbasbasbag56
(g72
g58
NtRp1667
(dp1668
g61
(dp1669
sg70
g723
sg63
(lp1670
g56
(g77
g58
NtRp1671
(dp1672
g61
(dp1673
g81
g82
ssg70
g1667
sg63
(lp1674
S'wsgi_version'
p1675
asbag56
(g77
g58
NtRp1676
(dp1677
g61
(dp1678
g88
g89
ssg70
g1667
sg63
(lp1679
S':'
asbag56
(g77
g58
NtRp1680
(dp1681
g61
(dp1682
sg70
g1667
sg63
(lp1683
g56
(g57
g58
NtRp1684
(dp1685
g61
(dp1686
g69
I4
ssg70
g1680
sg63
(lp1687
g56
(g65
g58
NtRp1688
(dp1689
g61
(dp1690
g69
I3
ssg70
Nsg63
(lp1691
g56
(g72
g58
NtRp1692
(dp1693
g61
(dp1694
sg70
g1688
sg63
(lp1695
g56
(g77
g58
NtRp1696
(dp1697
g61
(dp1698
sg70
g1692
sg63
(lp1699
g56
(g57
g58
NtRp1700
(dp1701
g61
(dp1702
g69
I3
ssg70
g1696
sg63
(lp1703
S'1'
asbasbasbag56
(g72
g58
NtRp1704
(dp1705
g61
(dp1706
sg70
g1688
sg63
(lp1707
g56
(g77
g58
NtRp1708
(dp1709
g61
(dp1710
sg70
g1704
sg63
(lp1711
g56
(g57
g58
NtRp1712
(dp1713
g61
(dp1714
g69
I3
ssg70
g1708
sg63
(lp1715
S'0'
asbasbasbasbasbasbasbasbasbasbasbag56
(g72
g58
NtRp1716
(dp1717
g61
(dp1718
sg70
g66
sg63
(lp1719
g56
(g77
g58
NtRp1720
(dp1721
g61
(dp1722
g81
g82
ssg70
g1716
sg63
(lp1723
S'extension'
p1724
asbag56
(g77
g58
NtRp1725
(dp1726
g61
(dp1727
g88
g89
ssg70
g1716
sg63
(lp1728
S':'
asbag56
(g77
g58
NtRp1729
(dp1730
g61
(dp1731
sg70
g1716
sg63
(lp1732
g56
(g57
g58
NtRp1733
(dp1734
g61
(dp1735
g69
I5
ssg70
g1729
sg63
(lp1736
S'load'
p1737
asbasbasbag56
(g72
g58
NtRp1738
(dp1739
g61
(dp1740
sg70
g66
sg63
(lp1741
g56
(g77
g58
NtRp1742
(dp1743
g61
(dp1744
g81
g82
ssg70
g1738
sg63
(lp1745
S'folder'
p1746
asbag56
(g77
g58
NtRp1747
(dp1748
g61
(dp1749
g88
g89
ssg70
g1738
sg63
(lp1750
S':'
asbag56
(g77
g58
NtRp1751
(dp1752
g61
(dp1753
sg70
g1738
sg63
(lp1754
g56
(g57
g58
NtRp1755
(dp1756
g61
(dp1757
g69
I5
ssg70
g1751
sg63
(lp1758
S'/home/ian/web2py/applications/topoi/'
p1759
asbasbasbag56
(g72
g58
NtRp1760
(dp1761
g61
(dp1762
sg70
g66
sg63
(lp1763
g56
(g77
g58
NtRp1764
(dp1765
g61
(dp1766
g81
g82
ssg70
g1760
sg63
(lp1767
S'function'
p1768
asbag56
(g77
g58
NtRp1769
(dp1770
g61
(dp1771
g88
g89
ssg70
g1760
sg63
(lp1772
S':'
asbag56
(g77
g58
NtRp1773
(dp1774
g61
(dp1775
sg70
g1760
sg63
(lp1776
g56
(g57
g58
NtRp1777
(dp1778
g61
(dp1779
g69
I5
ssg70
g1773
sg63
(lp1780
S'set_widget'
p1781
asbasbasbag56
(g72
g58
NtRp1782
(dp1783
g61
(dp1784
sg70
g66
sg63
(lp1785
g56
(g77
g58
NtRp1786
(dp1787
g61
(dp1788
g81
g82
ssg70
g1782
sg63
(lp1789
S'get_vars'
p1790
asbag56
(g77
g58
NtRp1791
(dp1792
g61
(dp1793
g88
g89
ssg70
g1782
sg63
(lp1794
S':'
asbag56
(g77
g58
NtRp1795
(dp1796
g61
(dp1797
sg70
g1782
sg63
(lp1798
g56
(g57
g58
NtRp1799
(dp1800
g61
(dp1801
g69
I5
ssg70
g1795
sg63
(lp1802
g56
(g65
g58
NtRp1803
(dp1804
g61
(dp1805
g69
I4
ssg70
Nsg63
(lp1806
sbasbasbasbag56
(g72
g58
NtRp1807
(dp1808
g61
(dp1809
sg70
g66
sg63
(lp1810
g56
(g77
g58
NtRp1811
(dp1812
g61
(dp1813
g81
g82
ssg70
g1807
sg63
(lp1814
S'global_settings'
p1815
asbag56
(g77
g58
NtRp1816
(dp1817
g61
(dp1818
g88
g89
ssg70
g1807
sg63
(lp1819
S':'
asbag56
(g77
g58
NtRp1820
(dp1821
g61
(dp1822
sg70
g1807
sg63
(lp1823
g56
(g57
g58
NtRp1824
(dp1825
g61
(dp1826
g69
I5
ssg70
g1820
sg63
(lp1827
g56
(g65
g58
NtRp1828
(dp1829
g61
(dp1830
g69
I4
ssg70
Nsg63
(lp1831
g56
(g72
g58
NtRp1832
(dp1833
g61
(dp1834
sg70
g1828
sg63
(lp1835
g56
(g77
g58
NtRp1836
(dp1837
g61
(dp1838
g81
g82
ssg70
g1832
sg63
(lp1839
g735
asbag56
(g77
g58
NtRp1840
(dp1841
g61
(dp1842
g88
g89
ssg70
g1832
sg63
(lp1843
S':'
asbag56
(g77
g58
NtRp1844
(dp1845
g61
(dp1846
sg70
g1832
sg63
(lp1847
g56
(g57
g58
NtRp1848
(dp1849
g61
(dp1850
g69
I4
ssg70
g1844
sg63
(lp1851
S"set(['/home/ian/web2py/applications/topoi/', '/home/ian/web2py/applications/welcome/', '/home/ian/web2py/applications/admin/'])"
p1852
asbasbasbag56
(g72
g58
NtRp1853
(dp1854
g61
(dp1855
sg70
g1828
sg63
(lp1856
g56
(g77
g58
NtRp1857
(dp1858
g61
(dp1859
g81
g82
ssg70
g1853
sg63
(lp1860
g757
asbag56
(g77
g58
NtRp1861
(dp1862
g61
(dp1863
g88
g89
ssg70
g1853
sg63
(lp1864
S':'
asbag56
(g77
g58
NtRp1865
(dp1866
g61
(dp1867
sg70
g1853
sg63
(lp1868
g56
(g57
g58
NtRp1869
(dp1870
g61
(dp1871
g69
I4
ssg70
g1865
sg63
(lp1872
g770
asbasbasbag56
(g72
g58
NtRp1873
(dp1874
g61
(dp1875
sg70
g1828
sg63
(lp1876
g56
(g77
g58
NtRp1877
(dp1878
g61
(dp1879
g81
g82
ssg70
g1873
sg63
(lp1880
g779
asbag56
(g77
g58
NtRp1881
(dp1882
g61
(dp1883
g88
g89
ssg70
g1873
sg63
(lp1884
S':'
asbag56
(g77
g58
NtRp1885
(dp1886
g61
(dp1887
sg70
g1873
sg63
(lp1888
g56
(g57
g58
NtRp1889
(dp1890
g61
(dp1891
g69
I4
ssg70
g1885
sg63
(lp1892
g56
(g65
g58
NtRp1893
(dp1894
g61
(dp1895
g69
I3
ssg70
Nsg63
(lp1896
sbasbasbasbag56
(g72
g58
NtRp1897
(dp1898
g61
(dp1899
sg70
g1828
sg63
(lp1900
g56
(g77
g58
NtRp1901
(dp1902
g61
(dp1903
g81
g82
ssg70
g1897
sg63
(lp1904
g804
asbag56
(g77
g58
NtRp1905
(dp1906
g61
(dp1907
g88
g89
ssg70
g1897
sg63
(lp1908
S':'
asbag56
(g77
g58
NtRp1909
(dp1910
g61
(dp1911
sg70
g1897
sg63
(lp1912
g56
(g57
g58
NtRp1913
(dp1914
g61
(dp1915
g69
I4
ssg70
g1909
sg63
(lp1916
S"<Values at 0x2246758: {'verbose': False, 'ip': '127.0.0.1', 'shutdown_timeout': 5, 'taskbar': False, 'nocron': False, 'pid_filename': 'httpserver.pid', 'maxthreads': None, 'softcron': False, 'server_name': 'uriel', 'bpython': False, 'nogui': False, 'port': 8000, 'extcron': False, 'debuglevel': 30, 'test': None, 'folder': '/home/ian/web2py', 'config': '', 'import_models': False, 'winservice': '', 'shell': None, 'run': '', 'log_filename': 'httpserver.log', 'args': [''], 'ssl_ca_certificate': None, 'scheduler': None, 'profiler_filename': None, 'ssl_private_key': '', 'password': '<ask>', 'request_queue_size': 5, 'ssl_certificate': '', 'cronjob': False, 'plain': False, 'quiet': False, 'interfaces': None, 'minthreads': None, 'timeout': 10, 'numthreads': None, 'nobanner': False}>"
p1917
asbasbasbag56
(g72
g58
NtRp1918
(dp1919
g61
(dp1920
sg70
g1828
sg63
(lp1921
g56
(g77
g58
NtRp1922
(dp1923
g61
(dp1924
g81
g82
ssg70
g1918
sg63
(lp1925
g826
asbag56
(g77
g58
NtRp1926
(dp1927
g61
(dp1928
g88
g89
ssg70
g1918
sg63
(lp1929
S':'
asbag56
(g77
g58
NtRp1930
(dp1931
g61
(dp1932
sg70
g1918
sg63
(lp1933
g56
(g57
g58
NtRp1934
(dp1935
g61
(dp1936
g69
I4
ssg70
g1930
sg63
(lp1937
S'set([])'
p1938
asbasbasbag56
(g72
g58
NtRp1939
(dp1940
g61
(dp1941
sg70
g1828
sg63
(lp1942
g56
(g77
g58
NtRp1943
(dp1944
g61
(dp1945
g81
g82
ssg70
g1939
sg63
(lp1946
g848
asbag56
(g77
g58
NtRp1947
(dp1948
g61
(dp1949
g88
g89
ssg70
g1939
sg63
(lp1950
S':'
asbag56
(g77
g58
NtRp1951
(dp1952
g61
(dp1953
sg70
g1939
sg63
(lp1954
g56
(g57
g58
NtRp1955
(dp1956
g61
(dp1957
g69
I4
ssg70
g1951
sg63
(lp1958
g861
asbasbasbag56
(g72
g58
NtRp1959
(dp1960
g61
(dp1961
sg70
g1828
sg63
(lp1962
g56
(g77
g58
NtRp1963
(dp1964
g61
(dp1965
g81
g82
ssg70
g1959
sg63
(lp1966
g870
asbag56
(g77
g58
NtRp1967
(dp1968
g61
(dp1969
g88
g89
ssg70
g1959
sg63
(lp1970
S':'
asbag56
(g77
g58
NtRp1971
(dp1972
g61
(dp1973
sg70
g1959
sg63
(lp1974
g56
(g57
g58
NtRp1975
(dp1976
g61
(dp1977
g69
I4
ssg70
g1971
sg63
(lp1978
g883
asbasbasbag56
(g72
g58
NtRp1979
(dp1980
g61
(dp1981
sg70
g1828
sg63
(lp1982
g56
(g77
g58
NtRp1983
(dp1984
g61
(dp1985
g81
g82
ssg70
g1979
sg63
(lp1986
g1155
asbag56
(g77
g58
NtRp1987
(dp1988
g61
(dp1989
g88
g89
ssg70
g1979
sg63
(lp1990
S':'
asbag56
(g77
g58
NtRp1991
(dp1992
g61
(dp1993
sg70
g1979
sg63
(lp1994
g56
(g57
g58
NtRp1995
(dp1996
g61
(dp1997
g69
I4
ssg70
g1991
sg63
(lp1998
g861
asbasbasbag56
(g72
g58
NtRp1999
(dp2000
g61
(dp2001
sg70
g1828
sg63
(lp2002
g56
(g77
g58
NtRp2003
(dp2004
g61
(dp2005
g81
g82
ssg70
g1999
sg63
(lp2006
g1393
asbag56
(g77
g58
NtRp2007
(dp2008
g61
(dp2009
g88
g89
ssg70
g1999
sg63
(lp2010
S':'
asbag56
(g77
g58
NtRp2011
(dp2012
g61
(dp2013
sg70
g1999
sg63
(lp2014
g56
(g57
g58
NtRp2015
(dp2016
g61
(dp2017
g69
I4
ssg70
g2011
sg63
(lp2018
g1406
asbasbasbag56
(g72
g58
NtRp2019
(dp2020
g61
(dp2021
sg70
g1828
sg63
(lp2022
g56
(g77
g58
NtRp2023
(dp2024
g61
(dp2025
g81
g82
ssg70
g2019
sg63
(lp2026
g1436
asbag56
(g77
g58
NtRp2027
(dp2028
g61
(dp2029
g88
g89
ssg70
g2019
sg63
(lp2030
S':'
asbag56
(g77
g58
NtRp2031
(dp2032
g61
(dp2033
sg70
g2019
sg63
(lp2034
g56
(g57
g58
NtRp2035
(dp2036
g61
(dp2037
g69
I4
ssg70
g2031
sg63
(lp2038
g56
(g65
g58
NtRp2039
(dp2040
g61
(dp2041
g69
I3
ssg70
Nsg63
(lp2042
g56
(g72
g58
NtRp2043
(dp2044
g61
(dp2045
sg70
g2039
sg63
(lp2046
g56
(g77
g58
NtRp2047
(dp2048
g61
(dp2049
sg70
g2043
sg63
(lp2050
g56
(g57
g58
NtRp2051
(dp2052
g61
(dp2053
g69
I3
ssg70
g2047
sg63
(lp2054
S'1'
asbasbasbag56
(g72
g58
NtRp2055
(dp2056
g61
(dp2057
sg70
g2039
sg63
(lp2058
g56
(g77
g58
NtRp2059
(dp2060
g61
(dp2061
sg70
g2055
sg63
(lp2062
g56
(g57
g58
NtRp2063
(dp2064
g61
(dp2065
g69
I3
ssg70
g2059
sg63
(lp2066
S'99'
p2067
asbasbasbag56
(g72
g58
NtRp2068
(dp2069
g61
(dp2070
sg70
g2039
sg63
(lp2071
g56
(g77
g58
NtRp2072
(dp2073
g61
(dp2074
sg70
g2068
sg63
(lp2075
g56
(g57
g58
NtRp2076
(dp2077
g61
(dp2078
g69
I3
ssg70
g2072
sg63
(lp2079
S'2'
asbasbasbag56
(g72
g58
NtRp2080
(dp2081
g61
(dp2082
sg70
g2039
sg63
(lp2083
g56
(g77
g58
NtRp2084
(dp2085
g61
(dp2086
sg70
g2080
sg63
(lp2087
g56
(g57
g58
NtRp2088
(dp2089
g61
(dp2090
g69
I3
ssg70
g2084
sg63
(lp2091
S'datetime.datetime(2011, 9, 26, 6, 55, 33)'
p2092
asbasbasbag56
(g72
g58
NtRp2093
(dp2094
g61
(dp2095
sg70
g2039
sg63
(lp2096
g56
(g77
g58
NtRp2097
(dp2098
g61
(dp2099
sg70
g2093
sg63
(lp2100
g56
(g57
g58
NtRp2101
(dp2102
g61
(dp2103
g69
I3
ssg70
g2097
sg63
(lp2104
g1515
asbasbasbasbasbasbasbasbasbasbasbag56
(g72
g58
NtRp2105
(dp2106
g61
(dp2107
sg70
g66
sg63
(lp2108
g56
(g77
g58
NtRp2109
(dp2110
g61
(dp2111
g81
g82
ssg70
g2105
sg63
(lp2112
S'is_https'
p2113
asbag56
(g77
g58
NtRp2114
(dp2115
g61
(dp2116
g88
g89
ssg70
g2105
sg63
(lp2117
S':'
asbag56
(g77
g58
NtRp2118
(dp2119
g61
(dp2120
sg70
g2105
sg63
(lp2121
g56
(g57
g58
NtRp2122
(dp2123
g61
(dp2124
g69
I5
ssg70
g2118
sg63
(lp2125
g861
asbasbasbag56
(g72
g58
NtRp2126
(dp2127
g61
(dp2128
sg70
g66
sg63
(lp2129
g56
(g77
g58
NtRp2130
(dp2131
g61
(dp2132
g81
g82
ssg70
g2126
sg63
(lp2133
S'is_local'
p2134
asbag56
(g77
g58
NtRp2135
(dp2136
g61
(dp2137
g88
g89
ssg70
g2126
sg63
(lp2138
S':'
asbag56
(g77
g58
NtRp2139
(dp2140
g61
(dp2141
sg70
g2126
sg63
(lp2142
g56
(g57
g58
NtRp2143
(dp2144
g61
(dp2145
g69
I5
ssg70
g2139
sg63
(lp2146
g99
asbasbasbag56
(g72
g58
NtRp2147
(dp2148
g61
(dp2149
sg70
g66
sg63
(lp2150
g56
(g77
g58
NtRp2151
(dp2152
g61
(dp2153
g81
g82
ssg70
g2147
sg63
(lp2154
S'is_restful'
p2155
asbag56
(g77
g58
NtRp2156
(dp2157
g61
(dp2158
g88
g89
ssg70
g2147
sg63
(lp2159
S':'
asbag56
(g77
g58
NtRp2160
(dp2161
g61
(dp2162
sg70
g2147
sg63
(lp2163
g56
(g57
g58
NtRp2164
(dp2165
g61
(dp2166
g69
I5
ssg70
g2160
sg63
(lp2167
g861
asbasbasbag56
(g72
g58
NtRp2168
(dp2169
g61
(dp2170
sg70
g66
sg63
(lp2171
g56
(g77
g58
NtRp2172
(dp2173
g61
(dp2174
g81
g82
ssg70
g2168
sg63
(lp2175
S'now'
p2176
asbag56
(g77
g58
NtRp2177
(dp2178
g61
(dp2179
g88
g89
ssg70
g2168
sg63
(lp2180
S':'
asbag56
(g77
g58
NtRp2181
(dp2182
g61
(dp2183
sg70
g2168
sg63
(lp2184
g56
(g57
g58
NtRp2185
(dp2186
g61
(dp2187
g69
I5
ssg70
g2181
sg63
(lp2188
S'datetime.datetime(2011, 12, 18, 17, 5, 14, 327491)'
p2189
asbasbasbag56
(g72
g58
NtRp2190
(dp2191
g61
(dp2192
sg70
g66
sg63
(lp2193
g56
(g77
g58
NtRp2194
(dp2195
g61
(dp2196
g81
g82
ssg70
g2190
sg63
(lp2197
S'post_vars'
p2198
asbag56
(g77
g58
NtRp2199
(dp2200
g61
(dp2201
g88
g89
ssg70
g2190
sg63
(lp2202
S':'
asbag56
(g77
g58
NtRp2203
(dp2204
g61
(dp2205
sg70
g2190
sg63
(lp2206
g56
(g57
g58
NtRp2207
(dp2208
g61
(dp2209
g69
I5
ssg70
g2203
sg63
(lp2210
g56
(g65
g58
NtRp2211
(dp2212
g61
(dp2213
g69
I4
ssg70
Nsg63
(lp2214
sbasbasbasbag56
(g72
g58
NtRp2215
(dp2216
g61
(dp2217
sg70
g66
sg63
(lp2218
g56
(g77
g58
NtRp2219
(dp2220
g61
(dp2221
g81
g82
ssg70
g2215
sg63
(lp2222
S'raw_args'
p2223
asbag56
(g77
g58
NtRp2224
(dp2225
g61
(dp2226
g88
g89
ssg70
g2215
sg63
(lp2227
S':'
asbag56
(g77
g58
NtRp2228
(dp2229
g61
(dp2230
sg70
g2215
sg63
(lp2231
g56
(g57
g58
NtRp2232
(dp2233
g61
(dp2234
g69
I5
ssg70
g2228
sg63
(lp2235
S'notes/author/10/authors/notes_author_loader'
p2236
asbasbasbag56
(g72
g58
NtRp2237
(dp2238
g61
(dp2239
sg70
g66
sg63
(lp2240
g56
(g77
g58
NtRp2241
(dp2242
g61
(dp2243
g81
g82
ssg70
g2237
sg63
(lp2244
S'raw_extension'
p2245
asbag56
(g77
g58
NtRp2246
(dp2247
g61
(dp2248
g88
g89
ssg70
g2237
sg63
(lp2249
S':'
asbag56
(g77
g58
NtRp2250
(dp2251
g61
(dp2252
sg70
g2237
sg63
(lp2253
g56
(g57
g58
NtRp2254
(dp2255
g61
(dp2256
g69
I5
ssg70
g2250
sg63
(lp2257
g1737
asbasbasbag56
(g72
g58
NtRp2258
(dp2259
g61
(dp2260
sg70
g66
sg63
(lp2261
g56
(g77
g58
NtRp2262
(dp2263
g61
(dp2264
g81
g82
ssg70
g2258
sg63
(lp2265
S'url'
p2266
asbag56
(g77
g58
NtRp2267
(dp2268
g61
(dp2269
g88
g89
ssg70
g2258
sg63
(lp2270
S':'
asbag56
(g77
g58
NtRp2271
(dp2272
g61
(dp2273
sg70
g2258
sg63
(lp2274
g56
(g57
g58
NtRp2275
(dp2276
g61
(dp2277
g69
I5
ssg70
g2271
sg63
(lp2278
S'/topoi/plugin_ajaxselect/set_widget.load/notes/author/10/authors/notes_author_loader'
p2279
asbasbasbag56
(g72
g58
NtRp2280
(dp2281
g61
(dp2282
sg70
g66
sg63
(lp2283
g56
(g77
g58
NtRp2284
(dp2285
g61
(dp2286
g81
g82
ssg70
g2280
sg63
(lp2287
S'utcnow'
p2288
asbag56
(g77
g58
NtRp2289
(dp2290
g61
(dp2291
g88
g89
ssg70
g2280
sg63
(lp2292
S':'
asbag56
(g77
g58
NtRp2293
(dp2294
g61
(dp2295
sg70
g2280
sg63
(lp2296
g56
(g57
g58
NtRp2297
(dp2298
g61
(dp2299
g69
I5
ssg70
g2293
sg63
(lp2300
S'datetime.datetime(2011, 12, 18, 22, 5, 14, 327547)'
p2301
asbasbasbag56
(g72
g58
NtRp2302
(dp2303
g61
(dp2304
sg70
g66
sg63
(lp2305
g56
(g77
g58
NtRp2306
(dp2307
g61
(dp2308
g81
g82
ssg70
g2302
sg63
(lp2309
S'uuid'
p2310
asbag56
(g77
g58
NtRp2311
(dp2312
g61
(dp2313
g88
g89
ssg70
g2302
sg63
(lp2314
S':'
asbag56
(g77
g58
NtRp2315
(dp2316
g61
(dp2317
sg70
g2302
sg63
(lp2318
g56
(g57
g58
NtRp2319
(dp2320
g61
(dp2321
g69
I5
ssg70
g2315
sg63
(lp2322
S'topoi/127.0.0.1.2011-12-18.17-05-14.6a850c5f-20be-4f3b-9c25-85ddae4cd166'
p2323
asbasbasbag56
(g72
g58
NtRp2324
(dp2325
g61
(dp2326
sg70
g66
sg63
(lp2327
g56
(g77
g58
NtRp2328
(dp2329
g61
(dp2330
g81
g82
ssg70
g2324
sg63
(lp2331
S'vars'
p2332
asbag56
(g77
g58
NtRp2333
(dp2334
g61
(dp2335
g88
g89
ssg70
g2324
sg63
(lp2336
S':'
asbag56
(g77
g58
NtRp2337
(dp2338
g61
(dp2339
sg70
g2324
sg63
(lp2340
g56
(g57
g58
NtRp2341
(dp2342
g61
(dp2343
g69
I5
ssg70
g2337
sg63
(lp2344
g56
(g65
g58
NtRp2345
(dp2346
g61
(dp2347
g69
I4
ssg70
Nsg63
(lp2348
sbasbasbasbag56
(g72
g58
NtRp2349
(dp2350
g61
(dp2351
sg70
g66
sg63
(lp2352
g56
(g77
g58
NtRp2353
(dp2354
g61
(dp2355
g81
g82
ssg70
g2349
sg63
(lp2356
S'wsgi'
p2357
asbag56
(g77
g58
NtRp2358
(dp2359
g61
(dp2360
g88
g89
ssg70
g2349
sg63
(lp2361
S':'
asbag56
(g77
g58
NtRp2362
(dp2363
g61
(dp2364
sg70
g2349
sg63
(lp2365
g56
(g57
g58
NtRp2366
(dp2367
g61
(dp2368
g69
I5
ssg70
g2362
sg63
(lp2369
g56
(g65
g58
NtRp2370
(dp2371
g61
(dp2372
g69
I4
ssg70
Nsg63
(lp2373
g56
(g72
g58
NtRp2374
(dp2375
g61
(dp2376
sg70
g2370
sg63
(lp2377
g56
(g77
g58
NtRp2378
(dp2379
g61
(dp2380
g81
g82
ssg70
g2374
sg63
(lp2381
S'environ'
p2382
asbag56
(g77
g58
NtRp2383
(dp2384
g61
(dp2385
g88
g89
ssg70
g2374
sg63
(lp2386
S':'
asbag56
(g77
g58
NtRp2387
(dp2388
g61
(dp2389
sg70
g2374
sg63
(lp2390
g56
(g57
g58
NtRp2391
(dp2392
g61
(dp2393
g69
I4
ssg70
g2387
sg63
(lp2394
g56
(g65
g58
NtRp2395
(dp2396
g61
(dp2397
g69
I3
ssg70
Nsg63
(lp2398
g56
(g72
g58
NtRp2399
(dp2400
g61
(dp2401
sg70
g2395
sg63
(lp2402
g56
(g77
g58
NtRp2403
(dp2404
g61
(dp2405
g81
g82
ssg70
g2399
sg63
(lp2406
S'HTTP_ACCEPT'
p2407
asbag56
(g77
g58
NtRp2408
(dp2409
g61
(dp2410
g88
g89
ssg70
g2399
sg63
(lp2411
S':'
asbag56
(g77
g58
NtRp2412
(dp2413
g61
(dp2414
sg70
g2399
sg63
(lp2415
g56
(g57
g58
NtRp2416
(dp2417
g61
(dp2418
g69
I3
ssg70
g2412
sg63
(lp2419
g905
asbasbasbag56
(g72
g58
NtRp2420
(dp2421
g61
(dp2422
sg70
g2395
sg63
(lp2423
g56
(g77
g58
NtRp2424
(dp2425
g61
(dp2426
g81
g82
ssg70
g2420
sg63
(lp2427
S'HTTP_ACCEPT_CHARSET'
p2428
asbag56
(g77
g58
NtRp2429
(dp2430
g61
(dp2431
g88
g89
ssg70
g2420
sg63
(lp2432
S':'
asbag56
(g77
g58
NtRp2433
(dp2434
g61
(dp2435
sg70
g2420
sg63
(lp2436
g56
(g57
g58
NtRp2437
(dp2438
g61
(dp2439
g69
I3
ssg70
g2433
sg63
(lp2440
g927
asbasbasbag56
(g72
g58
NtRp2441
(dp2442
g61
(dp2443
sg70
g2395
sg63
(lp2444
g56
(g77
g58
NtRp2445
(dp2446
g61
(dp2447
g81
g82
ssg70
g2441
sg63
(lp2448
S'HTTP_ACCEPT_ENCODING'
p2449
asbag56
(g77
g58
NtRp2450
(dp2451
g61
(dp2452
g88
g89
ssg70
g2441
sg63
(lp2453
S':'
asbag56
(g77
g58
NtRp2454
(dp2455
g61
(dp2456
sg70
g2441
sg63
(lp2457
g56
(g57
g58
NtRp2458
(dp2459
g61
(dp2460
g69
I3
ssg70
g2454
sg63
(lp2461
g949
asbasbasbag56
(g72
g58
NtRp2462
(dp2463
g61
(dp2464
sg70
g2395
sg63
(lp2465
g56
(g77
g58
NtRp2466
(dp2467
g61
(dp2468
g81
g82
ssg70
g2462
sg63
(lp2469
S'HTTP_ACCEPT_LANGUAGE'
p2470
asbag56
(g77
g58
NtRp2471
(dp2472
g61
(dp2473
g88
g89
ssg70
g2462
sg63
(lp2474
S':'
asbag56
(g77
g58
NtRp2475
(dp2476
g61
(dp2477
sg70
g2462
sg63
(lp2478
g56
(g57
g58
NtRp2479
(dp2480
g61
(dp2481
g69
I3
ssg70
g2475
sg63
(lp2482
g971
asbasbasbag56
(g72
g58
NtRp2483
(dp2484
g61
(dp2485
sg70
g2395
sg63
(lp2486
g56
(g77
g58
NtRp2487
(dp2488
g61
(dp2489
g81
g82
ssg70
g2483
sg63
(lp2490
S'HTTP_CONNECTION'
p2491
asbag56
(g77
g58
NtRp2492
(dp2493
g61
(dp2494
g88
g89
ssg70
g2483
sg63
(lp2495
S':'
asbag56
(g77
g58
NtRp2496
(dp2497
g61
(dp2498
sg70
g2483
sg63
(lp2499
g56
(g57
g58
NtRp2500
(dp2501
g61
(dp2502
g69
I3
ssg70
g2496
sg63
(lp2503
g993
asbasbasbag56
(g72
g58
NtRp2504
(dp2505
g61
(dp2506
sg70
g2395
sg63
(lp2507
g56
(g77
g58
NtRp2508
(dp2509
g61
(dp2510
g81
g82
ssg70
g2504
sg63
(lp2511
S'HTTP_COOKIE'
p2512
asbag56
(g77
g58
NtRp2513
(dp2514
g61
(dp2515
g88
g89
ssg70
g2504
sg63
(lp2516
S':'
asbag56
(g77
g58
NtRp2517
(dp2518
g61
(dp2519
sg70
g2504
sg63
(lp2520
g56
(g57
g58
NtRp2521
(dp2522
g61
(dp2523
g69
I3
ssg70
g2517
sg63
(lp2524
g1015
asbasbasbag56
(g72
g58
NtRp2525
(dp2526
g61
(dp2527
sg70
g2395
sg63
(lp2528
g56
(g77
g58
NtRp2529
(dp2530
g61
(dp2531
g81
g82
ssg70
g2525
sg63
(lp2532
S'HTTP_HOST'
p2533
asbag56
(g77
g58
NtRp2534
(dp2535
g61
(dp2536
g88
g89
ssg70
g2525
sg63
(lp2537
S':'
asbag56
(g77
g58
NtRp2538
(dp2539
g61
(dp2540
sg70
g2525
sg63
(lp2541
g56
(g57
g58
NtRp2542
(dp2543
g61
(dp2544
g69
I3
ssg70
g2538
sg63
(lp2545
g1037
asbasbasbag56
(g72
g58
NtRp2546
(dp2547
g61
(dp2548
sg70
g2395
sg63
(lp2549
g56
(g77
g58
NtRp2550
(dp2551
g61
(dp2552
g81
g82
ssg70
g2546
sg63
(lp2553
S'HTTP_REFERER'
p2554
asbag56
(g77
g58
NtRp2555
(dp2556
g61
(dp2557
g88
g89
ssg70
g2546
sg63
(lp2558
S':'
asbag56
(g77
g58
NtRp2559
(dp2560
g61
(dp2561
sg70
g2546
sg63
(lp2562
g56
(g57
g58
NtRp2563
(dp2564
g61
(dp2565
g69
I3
ssg70
g2559
sg63
(lp2566
g1059
asbasbasbag56
(g72
g58
NtRp2567
(dp2568
g61
(dp2569
sg70
g2395
sg63
(lp2570
g56
(g77
g58
NtRp2571
(dp2572
g61
(dp2573
g81
g82
ssg70
g2567
sg63
(lp2574
S'HTTP_USER_AGENT'
p2575
asbag56
(g77
g58
NtRp2576
(dp2577
g61
(dp2578
g88
g89
ssg70
g2567
sg63
(lp2579
S':'
asbag56
(g77
g58
NtRp2580
(dp2581
g61
(dp2582
sg70
g2567
sg63
(lp2583
g56
(g57
g58
NtRp2584
(dp2585
g61
(dp2586
g69
I3
ssg70
g2580
sg63
(lp2587
g1081
asbasbasbag56
(g72
g58
NtRp2588
(dp2589
g61
(dp2590
sg70
g2395
sg63
(lp2591
g56
(g77
g58
NtRp2592
(dp2593
g61
(dp2594
g81
g82
ssg70
g2588
sg63
(lp2595
S'HTTP_WEB2PY_COMPONENT_ELEMENT'
p2596
asbag56
(g77
g58
NtRp2597
(dp2598
g61
(dp2599
g88
g89
ssg70
g2588
sg63
(lp2600
S':'
asbag56
(g77
g58
NtRp2601
(dp2602
g61
(dp2603
sg70
g2588
sg63
(lp2604
g56
(g57
g58
NtRp2605
(dp2606
g61
(dp2607
g69
I3
ssg70
g2601
sg63
(lp2608
g254
asbasbasbag56
(g72
g58
NtRp2609
(dp2610
g61
(dp2611
sg70
g2395
sg63
(lp2612
g56
(g77
g58
NtRp2613
(dp2614
g61
(dp2615
g81
g82
ssg70
g2609
sg63
(lp2616
S'HTTP_WEB2PY_COMPONENT_LOCATION'
p2617
asbag56
(g77
g58
NtRp2618
(dp2619
g61
(dp2620
g88
g89
ssg70
g2609
sg63
(lp2621
S':'
asbag56
(g77
g58
NtRp2622
(dp2623
g61
(dp2624
sg70
g2609
sg63
(lp2625
g56
(g57
g58
NtRp2626
(dp2627
g61
(dp2628
g69
I3
ssg70
g2622
sg63
(lp2629
g1124
asbasbasbag56
(g72
g58
NtRp2630
(dp2631
g61
(dp2632
sg70
g2395
sg63
(lp2633
g56
(g77
g58
NtRp2634
(dp2635
g61
(dp2636
g81
g82
ssg70
g2630
sg63
(lp2637
S'HTTP_X_REQUESTED_WITH'
p2638
asbag56
(g77
g58
NtRp2639
(dp2640
g61
(dp2641
g88
g89
ssg70
g2630
sg63
(lp2642
S':'
asbag56
(g77
g58
NtRp2643
(dp2644
g61
(dp2645
sg70
g2630
sg63
(lp2646
g56
(g57
g58
NtRp2647
(dp2648
g61
(dp2649
g69
I3
ssg70
g2643
sg63
(lp2650
g1146
asbasbasbag56
(g72
g58
NtRp2651
(dp2652
g61
(dp2653
sg70
g2395
sg63
(lp2654
g56
(g77
g58
NtRp2655
(dp2656
g61
(dp2657
g81
g82
ssg70
g2651
sg63
(lp2658
S'PATH_INFO'
p2659
asbag56
(g77
g58
NtRp2660
(dp2661
g61
(dp2662
g88
g89
ssg70
g2651
sg63
(lp2663
S':'
asbag56
(g77
g58
NtRp2664
(dp2665
g61
(dp2666
sg70
g2651
sg63
(lp2667
g56
(g57
g58
NtRp2668
(dp2669
g61
(dp2670
g69
I3
ssg70
g2664
sg63
(lp2671
g1189
asbasbasbag56
(g72
g58
NtRp2672
(dp2673
g61
(dp2674
sg70
g2395
sg63
(lp2675
g56
(g77
g58
NtRp2676
(dp2677
g61
(dp2678
g81
g82
ssg70
g2672
sg63
(lp2679
S'QUERY_STRING'
p2680
asbag56
(g77
g58
NtRp2681
(dp2682
g61
(dp2683
g88
g89
ssg70
g2672
sg63
(lp2684
S':'
asbag56
(g77
g58
NtRp2685
(dp2686
g61
(dp2687
sg70
g2672
sg63
(lp2688
g56
(g57
g58
NtRp2689
(dp2690
g61
(dp2691
g69
I3
ssg70
g2685
sg63
(lp2692
S''
asbasbasbag56
(g72
g58
NtRp2693
(dp2694
g61
(dp2695
sg70
g2395
sg63
(lp2696
g56
(g77
g58
NtRp2697
(dp2698
g61
(dp2699
g81
g82
ssg70
g2693
sg63
(lp2700
S'REMOTE_ADDR'
p2701
asbag56
(g77
g58
NtRp2702
(dp2703
g61
(dp2704
g88
g89
ssg70
g2693
sg63
(lp2705
S':'
asbag56
(g77
g58
NtRp2706
(dp2707
g61
(dp2708
sg70
g2693
sg63
(lp2709
g56
(g57
g58
NtRp2710
(dp2711
g61
(dp2712
g69
I3
ssg70
g2706
sg63
(lp2713
g276
asbasbasbag56
(g72
g58
NtRp2714
(dp2715
g61
(dp2716
sg70
g2395
sg63
(lp2717
g56
(g77
g58
NtRp2718
(dp2719
g61
(dp2720
g81
g82
ssg70
g2714
sg63
(lp2721
S'REMOTE_PORT'
p2722
asbag56
(g77
g58
NtRp2723
(dp2724
g61
(dp2725
g88
g89
ssg70
g2714
sg63
(lp2726
S':'
asbag56
(g77
g58
NtRp2727
(dp2728
g61
(dp2729
sg70
g2714
sg63
(lp2730
g56
(g57
g58
NtRp2731
(dp2732
g61
(dp2733
g69
I3
ssg70
g2727
sg63
(lp2734
g1253
asbasbasbag56
(g72
g58
NtRp2735
(dp2736
g61
(dp2737
sg70
g2395
sg63
(lp2738
g56
(g77
g58
NtRp2739
(dp2740
g61
(dp2741
g81
g82
ssg70
g2735
sg63
(lp2742
S'REQUEST_METHOD'
p2743
asbag56
(g77
g58
NtRp2744
(dp2745
g61
(dp2746
g88
g89
ssg70
g2735
sg63
(lp2747
S':'
asbag56
(g77
g58
NtRp2748
(dp2749
g61
(dp2750
sg70
g2735
sg63
(lp2751
g56
(g57
g58
NtRp2752
(dp2753
g61
(dp2754
g69
I3
ssg70
g2748
sg63
(lp2755
g1275
asbasbasbag56
(g72
g58
NtRp2756
(dp2757
g61
(dp2758
sg70
g2395
sg63
(lp2759
g56
(g77
g58
NtRp2760
(dp2761
g61
(dp2762
g81
g82
ssg70
g2756
sg63
(lp2763
S'SCRIPT_NAME'
p2764
asbag56
(g77
g58
NtRp2765
(dp2766
g61
(dp2767
g88
g89
ssg70
g2756
sg63
(lp2768
S':'
asbag56
(g77
g58
NtRp2769
(dp2770
g61
(dp2771
sg70
g2756
sg63
(lp2772
g56
(g57
g58
NtRp2773
(dp2774
g61
(dp2775
g69
I3
ssg70
g2769
sg63
(lp2776
S''
asbasbasbag56
(g72
g58
NtRp2777
(dp2778
g61
(dp2779
sg70
g2395
sg63
(lp2780
g56
(g77
g58
NtRp2781
(dp2782
g61
(dp2783
g81
g82
ssg70
g2777
sg63
(lp2784
S'SERVER_NAME'
p2785
asbag56
(g77
g58
NtRp2786
(dp2787
g61
(dp2788
g88
g89
ssg70
g2777
sg63
(lp2789
S':'
asbag56
(g77
g58
NtRp2790
(dp2791
g61
(dp2792
sg70
g2777
sg63
(lp2793
g56
(g57
g58
NtRp2794
(dp2795
g61
(dp2796
g69
I3
ssg70
g2790
sg63
(lp2797
g1318
asbasbasbag56
(g72
g58
NtRp2798
(dp2799
g61
(dp2800
sg70
g2395
sg63
(lp2801
g56
(g77
g58
NtRp2802
(dp2803
g61
(dp2804
g81
g82
ssg70
g2798
sg63
(lp2805
S'SERVER_PORT'
p2806
asbag56
(g77
g58
NtRp2807
(dp2808
g61
(dp2809
g88
g89
ssg70
g2798
sg63
(lp2810
S':'
asbag56
(g77
g58
NtRp2811
(dp2812
g61
(dp2813
sg70
g2798
sg63
(lp2814
g56
(g57
g58
NtRp2815
(dp2816
g61
(dp2817
g69
I3
ssg70
g2811
sg63
(lp2818
g1340
asbasbasbag56
(g72
g58
NtRp2819
(dp2820
g61
(dp2821
sg70
g2395
sg63
(lp2822
g56
(g77
g58
NtRp2823
(dp2824
g61
(dp2825
g81
g82
ssg70
g2819
sg63
(lp2826
S'SERVER_PROTOCOL'
p2827
asbag56
(g77
g58
NtRp2828
(dp2829
g61
(dp2830
g88
g89
ssg70
g2819
sg63
(lp2831
S':'
asbag56
(g77
g58
NtRp2832
(dp2833
g61
(dp2834
sg70
g2819
sg63
(lp2835
g56
(g57
g58
NtRp2836
(dp2837
g61
(dp2838
g69
I3
ssg70
g2832
sg63
(lp2839
g1362
asbasbasbag56
(g72
g58
NtRp2840
(dp2841
g61
(dp2842
sg70
g2395
sg63
(lp2843
g56
(g77
g58
NtRp2844
(dp2845
g61
(dp2846
g81
g82
ssg70
g2840
sg63
(lp2847
S'SERVER_SOFTWARE'
p2848
asbag56
(g77
g58
NtRp2849
(dp2850
g61
(dp2851
g88
g89
ssg70
g2840
sg63
(lp2852
S':'
asbag56
(g77
g58
NtRp2853
(dp2854
g61
(dp2855
sg70
g2840
sg63
(lp2856
g56
(g57
g58
NtRp2857
(dp2858
g61
(dp2859
g69
I3
ssg70
g2853
sg63
(lp2860
g1384
asbasbasbag56
(g72
g58
NtRp2861
(dp2862
g61
(dp2863
sg70
g2395
sg63
(lp2864
g56
(g77
g58
NtRp2865
(dp2866
g61
(dp2867
g81
g82
ssg70
g2861
sg63
(lp2868
S'wsgi.errors'
p2869
asbag56
(g77
g58
NtRp2870
(dp2871
g61
(dp2872
g88
g89
ssg70
g2861
sg63
(lp2873
S':'
asbag56
(g77
g58
NtRp2874
(dp2875
g61
(dp2876
sg70
g2861
sg63
(lp2877
g56
(g57
g58
NtRp2878
(dp2879
g61
(dp2880
g69
I3
ssg70
g2874
sg63
(lp2881
S"<open file '<stderr>', mode 'w' at 0x7f9de9e5a270>"
p2882
asbasbasbag56
(g72
g58
NtRp2883
(dp2884
g61
(dp2885
sg70
g2395
sg63
(lp2886
g56
(g77
g58
NtRp2887
(dp2888
g61
(dp2889
g81
g82
ssg70
g2883
sg63
(lp2890
S'wsgi.file_wrapper'
p2891
asbag56
(g77
g58
NtRp2892
(dp2893
g61
(dp2894
g88
g89
ssg70
g2883
sg63
(lp2895
S':'
asbag56
(g77
g58
NtRp2896
(dp2897
g61
(dp2898
sg70
g2883
sg63
(lp2899
g56
(g57
g58
NtRp2900
(dp2901
g61
(dp2902
g69
I3
ssg70
g2896
sg63
(lp2903
S'<class wsgiref.util.FileWrapper at 0x2111870>'
p2904
asbasbasbag56
(g72
g58
NtRp2905
(dp2906
g61
(dp2907
sg70
g2395
sg63
(lp2908
g56
(g77
g58
NtRp2909
(dp2910
g61
(dp2911
g81
g82
ssg70
g2905
sg63
(lp2912
S'wsgi.input'
p2913
asbag56
(g77
g58
NtRp2914
(dp2915
g61
(dp2916
g88
g89
ssg70
g2905
sg63
(lp2917
S':'
asbag56
(g77
g58
NtRp2918
(dp2919
g61
(dp2920
sg70
g2905
sg63
(lp2921
g56
(g57
g58
NtRp2922
(dp2923
g61
(dp2924
g69
I3
ssg70
g2918
sg63
(lp2925
S'<cStringIO.StringO object at 0x33317d8>'
p2926
asbasbasbag56
(g72
g58
NtRp2927
(dp2928
g61
(dp2929
sg70
g2395
sg63
(lp2930
g56
(g77
g58
NtRp2931
(dp2932
g61
(dp2933
g81
g82
ssg70
g2927
sg63
(lp2934
S'wsgi.multiprocess'
p2935
asbag56
(g77
g58
NtRp2936
(dp2937
g61
(dp2938
g88
g89
ssg70
g2927
sg63
(lp2939
S':'
asbag56
(g77
g58
NtRp2940
(dp2941
g61
(dp2942
sg70
g2927
sg63
(lp2943
g56
(g57
g58
NtRp2944
(dp2945
g61
(dp2946
g69
I3
ssg70
g2940
sg63
(lp2947
g861
asbasbasbag56
(g72
g58
NtRp2948
(dp2949
g61
(dp2950
sg70
g2395
sg63
(lp2951
g56
(g77
g58
NtRp2952
(dp2953
g61
(dp2954
g81
g82
ssg70
g2948
sg63
(lp2955
S'wsgi.multithread'
p2956
asbag56
(g77
g58
NtRp2957
(dp2958
g61
(dp2959
g88
g89
ssg70
g2948
sg63
(lp2960
S':'
asbag56
(g77
g58
NtRp2961
(dp2962
g61
(dp2963
sg70
g2948
sg63
(lp2964
g56
(g57
g58
NtRp2965
(dp2966
g61
(dp2967
g69
I3
ssg70
g2961
sg63
(lp2968
g99
asbasbasbag56
(g72
g58
NtRp2969
(dp2970
g61
(dp2971
sg70
g2395
sg63
(lp2972
g56
(g77
g58
NtRp2973
(dp2974
g61
(dp2975
g81
g82
ssg70
g2969
sg63
(lp2976
S'wsgi.run_once'
p2977
asbag56
(g77
g58
NtRp2978
(dp2979
g61
(dp2980
g88
g89
ssg70
g2969
sg63
(lp2981
S':'
asbag56
(g77
g58
NtRp2982
(dp2983
g61
(dp2984
sg70
g2969
sg63
(lp2985
g56
(g57
g58
NtRp2986
(dp2987
g61
(dp2988
g69
I3
ssg70
g2982
sg63
(lp2989
g861
asbasbasbag56
(g72
g58
NtRp2990
(dp2991
g61
(dp2992
sg70
g2395
sg63
(lp2993
g56
(g77
g58
NtRp2994
(dp2995
g61
(dp2996
g81
g82
ssg70
g2990
sg63
(lp2997
S'wsgi.url_scheme'
p2998
asbag56
(g77
g58
NtRp2999
(dp3000
g61
(dp3001
g88
g89
ssg70
g2990
sg63
(lp3002
S':'
asbag56
(g77
g58
NtRp3003
(dp3004
g61
(dp3005
sg70
g2990
sg63
(lp3006
g56
(g57
g58
NtRp3007
(dp3008
g61
(dp3009
g69
I3
ssg70
g3003
sg63
(lp3010
g1666
asbasbasbag56
(g72
g58
NtRp3011
(dp3012
g61
(dp3013
sg70
g2395
sg63
(lp3014
g56
(g77
g58
NtRp3015
(dp3016
g61
(dp3017
g81
g82
ssg70
g3011
sg63
(lp3018
S'wsgi.version'
p3019
asbag56
(g77
g58
NtRp3020
(dp3021
g61
(dp3022
g88
g89
ssg70
g3011
sg63
(lp3023
S':'
asbag56
(g77
g58
NtRp3024
(dp3025
g61
(dp3026
sg70
g3011
sg63
(lp3027
g56
(g57
g58
NtRp3028
(dp3029
g61
(dp3030
g69
I3
ssg70
g3024
sg63
(lp3031
S'1'
asbasbasbasbasbasbasbasbasbasbasbasbasbsS'frames'
p3032
(lp3033
(dp3034
S'file'
p3035
S'/home/ian/web2py/gluon/restricted.py'
p3036
sS'dump'
p3037
(dp3038
S'environment'
p3039
S"{'A': <class 'gluon.html.A'>, 'AjaxSelect': <class applications.topoi.modules.plugin_ajaxselect.AjaxSelect>, 'Auth': <class 'gluon.tools.Auth'>, 'B': <class 'gluon.html.B'>, 'BEAUTIFY': <class 'gluon.html.BEAUTIFY'>, 'BODY': <class 'gluon.html.BODY'>, 'BR': <class 'gluon.html.BR'>, 'BUTTON': <class 'gluon.html.BUTTON'>, 'CAT': <class 'gluon.html.CAT'>, 'CENTER': <class 'gluon.html.CENTER'>, ...}"
p3040
sS'ccode'
p3041
S'<code object <module> at 0x21ffbb0, file "/home/...views/plugin_ajaxselect/set_widget.load", line 1>'
p3042
ssS'lnum'
p3043
I194
sS'lines'
p3044
(dp3045
I192
S'        else:'
p3046
sI193
S'            ccode = compile2(code,layer)'
p3047
sI194
S'        exec ccode in environment'
p3048
sI195
S'    except HTTP:'
p3049
sI196
S'        raise'
p3050
sI197
S'    except Exception, error:'
p3051
sI198
S'        # XXX Show exception in Wing IDE if running in debugger'
p3052
sI189
S'    try:'
p3053
sI190
S'        if type(code) == types.CodeType:'
p3054
sI191
S'            ccode = code'
p3055
ssS'call'
p3056
S'(code=\'response.write(widget)\\nresponse.write(button)\\nre...ult();\\\\n\\\\n    });\\\\n</script>\\\\n-->", escape=False)\', environment={\'A\': <class \'gluon.html.A\'>, \'AjaxSelect\': <class applications.topoi.modules.plugin_ajaxselect.AjaxSelect>, \'Auth\': <class \'gluon.tools.Auth\'>, \'B\': <class \'gluon.html.B\'>, \'BEAUTIFY\': <class \'gluon.html.BEAUTIFY\'>, \'BODY\': <class \'gluon.html.BODY\'>, \'BR\': <class \'gluon.html.BR\'>, \'BUTTON\': <class \'gluon.html.BUTTON\'>, \'CAT\': <class \'gluon.html.CAT\'>, \'CENTER\': <class \'gluon.html.CENTER\'>, ...}, layer=\'/home/ian/web2py/applications/topoi/views/plugin_ajaxselect/set_widget.load\')'
p3057
sS'func'
p3058
S'restricted'
p3059
sa(dp3060
g3035
S'/home/ian/web2py/applications/topoi/views/plugin_ajaxselect/set_widget.load'
p3061
sg3037
(dp3062
sg3043
I2
sg3044
(dp3063
I2
S''
sI3
S'<!--'
p3064
sI4
S'<script>'
p3065
sI5
S"    //$dialog = $('#modal_frame')"
p3066
sI6
S'    //    .dialog({autoOpen: false});'
p3067
sI7
S''
sI8
S"    //$('.option_add_trigger').live('click', function(event){"
p3068
sI9
S"    //    $('#{{#=loadname}}').append('{{#=form}}');"
p3069
sI10
S''
sI11
S"        //$dialog.html(the_content).dialog('open');"
p3070
ssg3056
S'()'
p3071
sg3058
S'<module>'
p3072
sasS'pyver'
p3073
S'Python 2.7.2+: /usr/bin/python2.7'
p3074
sS'session'
p3075
g56
(g57
g58
NtRp3076
(dp3077
g61
(dp3078
sg63
(lp3079
g56
(g65
g58
NtRp3080
(dp3081
g61
(dp3082
g69
I5
ssg70
Nsg63
(lp3083
g56
(g72
g58
NtRp3084
(dp3085
g61
(dp3086
sg70
g3080
sg63
(lp3087
g56
(g77
g58
NtRp3088
(dp3089
g61
(dp3090
g81
g82
ssg70
g3084
sg63
(lp3091
S'auth'
p3092
asbag56
(g77
g58
NtRp3093
(dp3094
g61
(dp3095
g88
g89
ssg70
g3084
sg63
(lp3096
S':'
asbag56
(g77
g58
NtRp3097
(dp3098
g61
(dp3099
sg70
g3084
sg63
(lp3100
g56
(g57
g58
NtRp3101
(dp3102
g61
(dp3103
g69
I5
ssg70
g3097
sg63
(lp3104
g56
(g65
g58
NtRp3105
(dp3106
g61
(dp3107
g69
I4
ssg70
Nsg63
(lp3108
g56
(g72
g58
NtRp3109
(dp3110
g61
(dp3111
sg70
g3105
sg63
(lp3112
g56
(g77
g58
NtRp3113
(dp3114
g61
(dp3115
g81
g82
ssg70
g3109
sg63
(lp3116
S'expiration'
p3117
asbag56
(g77
g58
NtRp3118
(dp3119
g61
(dp3120
g88
g89
ssg70
g3109
sg63
(lp3121
S':'
asbag56
(g77
g58
NtRp3122
(dp3123
g61
(dp3124
sg70
g3109
sg63
(lp3125
g56
(g57
g58
NtRp3126
(dp3127
g61
(dp3128
g69
I4
ssg70
g3122
sg63
(lp3129
S'2592000'
p3130
asbasbasbag56
(g72
g58
NtRp3131
(dp3132
g61
(dp3133
sg70
g3105
sg63
(lp3134
g56
(g77
g58
NtRp3135
(dp3136
g61
(dp3137
g81
g82
ssg70
g3131
sg63
(lp3138
S'hmac_key'
p3139
asbag56
(g77
g58
NtRp3140
(dp3141
g61
(dp3142
g88
g89
ssg70
g3131
sg63
(lp3143
S':'
asbag56
(g77
g58
NtRp3144
(dp3145
g61
(dp3146
sg70
g3131
sg63
(lp3147
g56
(g57
g58
NtRp3148
(dp3149
g61
(dp3150
g69
I4
ssg70
g3144
sg63
(lp3151
S'20c8192d-156c-406c-9f7b-eade4cd34288'
p3152
asbasbasbag56
(g72
g58
NtRp3153
(dp3154
g61
(dp3155
sg70
g3105
sg63
(lp3156
g56
(g77
g58
NtRp3157
(dp3158
g61
(dp3159
g81
g82
ssg70
g3153
sg63
(lp3160
S'last_visit'
p3161
asbag56
(g77
g58
NtRp3162
(dp3163
g61
(dp3164
g88
g89
ssg70
g3153
sg63
(lp3165
S':'
asbag56
(g77
g58
NtRp3166
(dp3167
g61
(dp3168
sg70
g3153
sg63
(lp3169
g56
(g57
g58
NtRp3170
(dp3171
g61
(dp3172
g69
I4
ssg70
g3166
sg63
(lp3173
S'datetime.datetime(2011, 12, 15, 14, 27, 18, 112795)'
p3174
asbasbasbag56
(g72
g58
NtRp3175
(dp3176
g61
(dp3177
sg70
g3105
sg63
(lp3178
g56
(g77
g58
NtRp3179
(dp3180
g61
(dp3181
g81
g82
ssg70
g3175
sg63
(lp3182
S'remember'
p3183
asbag56
(g77
g58
NtRp3184
(dp3185
g61
(dp3186
g88
g89
ssg70
g3175
sg63
(lp3187
S':'
asbag56
(g77
g58
NtRp3188
(dp3189
g61
(dp3190
sg70
g3175
sg63
(lp3191
g56
(g57
g58
NtRp3192
(dp3193
g61
(dp3194
g69
I4
ssg70
g3188
sg63
(lp3195
g99
asbasbasbag56
(g72
g58
NtRp3196
(dp3197
g61
(dp3198
sg70
g3105
sg63
(lp3199
g56
(g77
g58
NtRp3200
(dp3201
g61
(dp3202
g81
g82
ssg70
g3196
sg63
(lp3203
S'user'
p3204
asbag56
(g77
g58
NtRp3205
(dp3206
g61
(dp3207
g88
g89
ssg70
g3196
sg63
(lp3208
S':'
asbag56
(g77
g58
NtRp3209
(dp3210
g61
(dp3211
sg70
g3196
sg63
(lp3212
g56
(g57
g58
NtRp3213
(dp3214
g61
(dp3215
g69
I4
ssg70
g3209
sg63
(lp3216
g56
(g65
g58
NtRp3217
(dp3218
g61
(dp3219
g69
I3
ssg70
Nsg63
(lp3220
g56
(g72
g58
NtRp3221
(dp3222
g61
(dp3223
sg70
g3217
sg63
(lp3224
g56
(g77
g58
NtRp3225
(dp3226
g61
(dp3227
g81
g82
ssg70
g3221
sg63
(lp3228
S'email'
p3229
asbag56
(g77
g58
NtRp3230
(dp3231
g61
(dp3232
g88
g89
ssg70
g3221
sg63
(lp3233
S':'
asbag56
(g77
g58
NtRp3234
(dp3235
g61
(dp3236
sg70
g3221
sg63
(lp3237
g56
(g57
g58
NtRp3238
(dp3239
g61
(dp3240
g69
I3
ssg70
g3234
sg63
(lp3241
S'scottianw@gmail.com'
p3242
asbasbasbag56
(g72
g58
NtRp3243
(dp3244
g61
(dp3245
sg70
g3217
sg63
(lp3246
g56
(g77
g58
NtRp3247
(dp3248
g61
(dp3249
g81
g82
ssg70
g3243
sg63
(lp3250
S'first_name'
p3251
asbag56
(g77
g58
NtRp3252
(dp3253
g61
(dp3254
g88
g89
ssg70
g3243
sg63
(lp3255
S':'
asbag56
(g77
g58
NtRp3256
(dp3257
g61
(dp3258
sg70
g3243
sg63
(lp3259
g56
(g57
g58
NtRp3260
(dp3261
g61
(dp3262
g69
I3
ssg70
g3256
sg63
(lp3263
S'Ian'
p3264
asbasbasbag56
(g72
g58
NtRp3265
(dp3266
g61
(dp3267
sg70
g3217
sg63
(lp3268
g56
(g77
g58
NtRp3269
(dp3270
g61
(dp3271
g81
g82
ssg70
g3265
sg63
(lp3272
S'id'
p3273
asbag56
(g77
g58
NtRp3274
(dp3275
g61
(dp3276
g88
g89
ssg70
g3265
sg63
(lp3277
S':'
asbag56
(g77
g58
NtRp3278
(dp3279
g61
(dp3280
sg70
g3265
sg63
(lp3281
g56
(g57
g58
NtRp3282
(dp3283
g61
(dp3284
g69
I3
ssg70
g3278
sg63
(lp3285
S'1'
asbasbasbag56
(g72
g58
NtRp3286
(dp3287
g61
(dp3288
sg70
g3217
sg63
(lp3289
g56
(g77
g58
NtRp3290
(dp3291
g61
(dp3292
g81
g82
ssg70
g3286
sg63
(lp3293
S'last_name'
p3294
asbag56
(g77
g58
NtRp3295
(dp3296
g61
(dp3297
g88
g89
ssg70
g3286
sg63
(lp3298
S':'
asbag56
(g77
g58
NtRp3299
(dp3300
g61
(dp3301
sg70
g3286
sg63
(lp3302
g56
(g57
g58
NtRp3303
(dp3304
g61
(dp3305
g69
I3
ssg70
g3299
sg63
(lp3306
S'Scott'
p3307
asbasbasbag56
(g72
g58
NtRp3308
(dp3309
g61
(dp3310
sg70
g3217
sg63
(lp3311
g56
(g77
g58
NtRp3312
(dp3313
g61
(dp3314
g81
g82
ssg70
g3308
sg63
(lp3315
S'password'
p3316
asbag56
(g77
g58
NtRp3317
(dp3318
g61
(dp3319
g88
g89
ssg70
g3308
sg63
(lp3320
S':'
asbag56
(g77
g58
NtRp3321
(dp3322
g61
(dp3323
sg70
g3308
sg63
(lp3324
g56
(g57
g58
NtRp3325
(dp3326
g61
(dp3327
g69
I3
ssg70
g3321
sg63
(lp3328
S'6fb48d01a3959846ba0fe062b1789f17d9cf3d34d3ec5aa948f598bbf4387cb10eb60c797988f41dfea97ee691b338dd77413d430229e401cf7c84e6cd9c4458'
p3329
asbasbasbag56
(g72
g58
NtRp3330
(dp3331
g61
(dp3332
sg70
g3217
sg63
(lp3333
g56
(g77
g58
NtRp3334
(dp3335
g61
(dp3336
g81
g82
ssg70
g3330
sg63
(lp3337
S'registration_key'
p3338
asbag56
(g77
g58
NtRp3339
(dp3340
g61
(dp3341
g88
g89
ssg70
g3330
sg63
(lp3342
S':'
asbag56
(g77
g58
NtRp3343
(dp3344
g61
(dp3345
sg70
g3330
sg63
(lp3346
g56
(g57
g58
NtRp3347
(dp3348
g61
(dp3349
g69
I3
ssg70
g3343
sg63
(lp3350
S''
asbasbasbag56
(g72
g58
NtRp3351
(dp3352
g61
(dp3353
sg70
g3217
sg63
(lp3354
g56
(g77
g58
NtRp3355
(dp3356
g61
(dp3357
g81
g82
ssg70
g3351
sg63
(lp3358
S'reset_password_key'
p3359
asbag56
(g77
g58
NtRp3360
(dp3361
g61
(dp3362
g88
g89
ssg70
g3351
sg63
(lp3363
S':'
asbag56
(g77
g58
NtRp3364
(dp3365
g61
(dp3366
sg70
g3351
sg63
(lp3367
g56
(g57
g58
NtRp3368
(dp3369
g61
(dp3370
g69
I3
ssg70
g3364
sg63
(lp3371
S''
asbasbasbasbasbasbasbasbasbasbasbag56
(g72
g58
NtRp3372
(dp3373
g61
(dp3374
sg70
g3080
sg63
(lp3375
g56
(g77
g58
NtRp3376
(dp3377
g61
(dp3378
g81
g82
ssg70
g3372
sg63
(lp3379
S'last_query'
p3380
asbag56
(g77
g58
NtRp3381
(dp3382
g61
(dp3383
g88
g89
ssg70
g3372
sg63
(lp3384
S':'
asbag56
(g77
g58
NtRp3385
(dp3386
g61
(dp3387
sg70
g3372
sg63
(lp3388
g56
(g57
g58
NtRp3389
(dp3390
g61
(dp3391
g69
I5
ssg70
g3385
sg63
(lp3392
S'db.auth_user.id>0'
p3393
asbasbasbasbasbsS'etype'
p3394
S"<type 'exceptions.NameError'>"
p3395
sS'date'
p3396
S'Sun Dec 18 17:05:14 2011'
p3397
sS'response'
p3398
g56
(g57
g58
NtRp3399
(dp3400
g61
(dp3401
sg63
(lp3402
g56
(g65
g58
NtRp3403
(dp3404
g61
(dp3405
g69
I5
ssg70
Nsg63
(lp3406
g56
(g72
g58
NtRp3407
(dp3408
g61
(dp3409
sg70
g3403
sg63
(lp3410
g56
(g77
g58
NtRp3411
(dp3412
g61
(dp3413
g81
g82
ssg70
g3407
sg63
(lp3414
g219
asbag56
(g77
g58
NtRp3415
(dp3416
g61
(dp3417
g88
g89
ssg70
g3407
sg63
(lp3418
S':'
asbag56
(g77
g58
NtRp3419
(dp3420
g61
(dp3421
sg70
g3407
sg63
(lp3422
g56
(g57
g58
NtRp3423
(dp3424
g61
(dp3425
g69
I5
ssg70
g3419
sg63
(lp3426
S'<cStringIO.StringO object at 0x33313e8>'
p3427
asbasbasbag56
(g72
g58
NtRp3428
(dp3429
g61
(dp3430
sg70
g3403
sg63
(lp3431
g56
(g77
g58
NtRp3432
(dp3433
g61
(dp3434
g81
g82
ssg70
g3428
sg63
(lp3435
g307
asbag56
(g77
g58
NtRp3436
(dp3437
g61
(dp3438
g88
g89
ssg70
g3428
sg63
(lp3439
S':'
asbag56
(g77
g58
NtRp3440
(dp3441
g61
(dp3442
sg70
g3428
sg63
(lp3443
g56
(g57
g58
NtRp3444
(dp3445
g61
(dp3446
g69
I5
ssg70
g3440
sg63
(lp3447
g56
(g65
g58
NtRp3448
(dp3449
g61
(dp3450
g69
I4
ssg70
Nsg63
(lp3451
g56
(g72
g58
NtRp3452
(dp3453
g61
(dp3454
sg70
g3448
sg63
(lp3455
g56
(g77
g58
NtRp3456
(dp3457
g61
(dp3458
g81
g82
ssg70
g3452
sg63
(lp3459
S'session_id_topoi'
p3460
asbag56
(g77
g58
NtRp3461
(dp3462
g61
(dp3463
g88
g89
ssg70
g3452
sg63
(lp3464
S':'
asbag56
(g77
g58
NtRp3465
(dp3466
g61
(dp3467
sg70
g3452
sg63
(lp3468
g56
(g57
g58
NtRp3469
(dp3470
g61
(dp3471
g69
I4
ssg70
g3465
sg63
(lp3472
g56
(g65
g58
NtRp3473
(dp3474
g61
(dp3475
g69
I3
ssg70
Nsg63
(lp3476
g56
(g72
g58
NtRp3477
(dp3478
g61
(dp3479
sg70
g3473
sg63
(lp3480
g56
(g77
g58
NtRp3481
(dp3482
g61
(dp3483
g81
g82
ssg70
g3477
sg63
(lp3484
g357
asbag56
(g77
g58
NtRp3485
(dp3486
g61
(dp3487
g88
g89
ssg70
g3477
sg63
(lp3488
S':'
asbag56
(g77
g58
NtRp3489
(dp3490
g61
(dp3491
sg70
g3477
sg63
(lp3492
g56
(g57
g58
NtRp3493
(dp3494
g61
(dp3495
g69
I3
ssg70
g3489
sg63
(lp3496
S''
asbasbasbag56
(g72
g58
NtRp3497
(dp3498
g61
(dp3499
sg70
g3473
sg63
(lp3500
g56
(g77
g58
NtRp3501
(dp3502
g61
(dp3503
g81
g82
ssg70
g3497
sg63
(lp3504
g378
asbag56
(g77
g58
NtRp3505
(dp3506
g61
(dp3507
g88
g89
ssg70
g3497
sg63
(lp3508
S':'
asbag56
(g77
g58
NtRp3509
(dp3510
g61
(dp3511
sg70
g3497
sg63
(lp3512
g56
(g57
g58
NtRp3513
(dp3514
g61
(dp3515
g69
I3
ssg70
g3509
sg63
(lp3516
S''
asbasbasbag56
(g72
g58
NtRp3517
(dp3518
g61
(dp3519
sg70
g3473
sg63
(lp3520
g56
(g77
g58
NtRp3521
(dp3522
g61
(dp3523
g81
g82
ssg70
g3517
sg63
(lp3524
g399
asbag56
(g77
g58
NtRp3525
(dp3526
g61
(dp3527
g88
g89
ssg70
g3517
sg63
(lp3528
S':'
asbag56
(g77
g58
NtRp3529
(dp3530
g61
(dp3531
sg70
g3517
sg63
(lp3532
g56
(g57
g58
NtRp3533
(dp3534
g61
(dp3535
g69
I3
ssg70
g3529
sg63
(lp3536
S'2592000'
p3537
asbasbasbag56
(g72
g58
NtRp3538
(dp3539
g61
(dp3540
sg70
g3473
sg63
(lp3541
g56
(g77
g58
NtRp3542
(dp3543
g61
(dp3544
g81
g82
ssg70
g3538
sg63
(lp3545
g420
asbag56
(g77
g58
NtRp3546
(dp3547
g61
(dp3548
g88
g89
ssg70
g3538
sg63
(lp3549
S':'
asbag56
(g77
g58
NtRp3550
(dp3551
g61
(dp3552
sg70
g3538
sg63
(lp3553
g56
(g57
g58
NtRp3554
(dp3555
g61
(dp3556
g69
I3
ssg70
g3550
sg63
(lp3557
S''
asbasbasbag56
(g72
g58
NtRp3558
(dp3559
g61
(dp3560
sg70
g3473
sg63
(lp3561
g56
(g77
g58
NtRp3562
(dp3563
g61
(dp3564
g81
g82
ssg70
g3558
sg63
(lp3565
g441
asbag56
(g77
g58
NtRp3566
(dp3567
g61
(dp3568
g88
g89
ssg70
g3558
sg63
(lp3569
S':'
asbag56
(g77
g58
NtRp3570
(dp3571
g61
(dp3572
sg70
g3558
sg63
(lp3573
g56
(g57
g58
NtRp3574
(dp3575
g61
(dp3576
g69
I3
ssg70
g3570
sg63
(lp3577
S''
asbasbasbag56
(g72
g58
NtRp3578
(dp3579
g61
(dp3580
sg70
g3473
sg63
(lp3581
g56
(g77
g58
NtRp3582
(dp3583
g61
(dp3584
g81
g82
ssg70
g3578
sg63
(lp3585
g462
asbag56
(g77
g58
NtRp3586
(dp3587
g61
(dp3588
g88
g89
ssg70
g3578
sg63
(lp3589
S':'
asbag56
(g77
g58
NtRp3590
(dp3591
g61
(dp3592
sg70
g3578
sg63
(lp3593
g56
(g57
g58
NtRp3594
(dp3595
g61
(dp3596
g69
I3
ssg70
g3590
sg63
(lp3597
S'/'
asbasbasbag56
(g72
g58
NtRp3598
(dp3599
g61
(dp3600
sg70
g3473
sg63
(lp3601
g56
(g77
g58
NtRp3602
(dp3603
g61
(dp3604
g81
g82
ssg70
g3598
sg63
(lp3605
g483
asbag56
(g77
g58
NtRp3606
(dp3607
g61
(dp3608
g88
g89
ssg70
g3598
sg63
(lp3609
S':'
asbag56
(g77
g58
NtRp3610
(dp3611
g61
(dp3612
sg70
g3598
sg63
(lp3613
g56
(g57
g58
NtRp3614
(dp3615
g61
(dp3616
g69
I3
ssg70
g3610
sg63
(lp3617
S''
asbasbasbag56
(g72
g58
NtRp3618
(dp3619
g61
(dp3620
sg70
g3473
sg63
(lp3621
g56
(g77
g58
NtRp3622
(dp3623
g61
(dp3624
g81
g82
ssg70
g3618
sg63
(lp3625
g504
asbag56
(g77
g58
NtRp3626
(dp3627
g61
(dp3628
g88
g89
ssg70
g3618
sg63
(lp3629
S':'
asbag56
(g77
g58
NtRp3630
(dp3631
g61
(dp3632
sg70
g3618
sg63
(lp3633
g56
(g57
g58
NtRp3634
(dp3635
g61
(dp3636
g69
I3
ssg70
g3630
sg63
(lp3637
S''
asbasbasbasbasbasbasbasbasbasbasbag56
(g72
g58
NtRp3638
(dp3639
g61
(dp3640
sg70
g3403
sg63
(lp3641
g56
(g77
g58
NtRp3642
(dp3643
g61
(dp3644
g81
g82
ssg70
g3638
sg63
(lp3645
S'files'
p3646
asbag56
(g77
g58
NtRp3647
(dp3648
g61
(dp3649
g88
g89
ssg70
g3638
sg63
(lp3650
S':'
asbag56
(g77
g58
NtRp3651
(dp3652
g61
(dp3653
sg70
g3638
sg63
(lp3654
g56
(g57
g58
NtRp3655
(dp3656
g61
(dp3657
g69
I5
ssg70
g3651
sg63
(lp3658
g56
(g65
g58
NtRp3659
(dp3660
g61
(dp3661
g69
I4
ssg70
Nsg63
(lp3662
sbasbasbasbag56
(g72
g58
NtRp3663
(dp3664
g61
(dp3665
sg70
g3403
sg63
(lp3666
g56
(g77
g58
NtRp3667
(dp3668
g61
(dp3669
g81
g82
ssg70
g3663
sg63
(lp3670
S'flash'
p3671
asbag56
(g77
g58
NtRp3672
(dp3673
g61
(dp3674
g88
g89
ssg70
g3663
sg63
(lp3675
S':'
asbag56
(g77
g58
NtRp3676
(dp3677
g61
(dp3678
sg70
g3663
sg63
(lp3679
g56
(g57
g58
NtRp3680
(dp3681
g61
(dp3682
g69
I5
ssg70
g3676
sg63
(lp3683
S''
asbasbasbag56
(g72
g58
NtRp3684
(dp3685
g61
(dp3686
sg70
g3403
sg63
(lp3687
g56
(g77
g58
NtRp3688
(dp3689
g61
(dp3690
g81
g82
ssg70
g3684
sg63
(lp3691
S'generic_patterns'
p3692
asbag56
(g77
g58
NtRp3693
(dp3694
g61
(dp3695
g88
g89
ssg70
g3684
sg63
(lp3696
S':'
asbag56
(g77
g58
NtRp3697
(dp3698
g61
(dp3699
sg70
g3684
sg63
(lp3700
g56
(g57
g58
NtRp3701
(dp3702
g61
(dp3703
g69
I5
ssg70
g3697
sg63
(lp3704
g56
(g65
g58
NtRp3705
(dp3706
g61
(dp3707
g69
I4
ssg70
Nsg63
(lp3708
g56
(g72
g58
NtRp3709
(dp3710
g61
(dp3711
sg70
g3705
sg63
(lp3712
g56
(g77
g58
NtRp3713
(dp3714
g61
(dp3715
sg70
g3709
sg63
(lp3716
g56
(g57
g58
NtRp3717
(dp3718
g61
(dp3719
g69
I4
ssg70
g3713
sg63
(lp3720
S'*'
asbasbasbasbasbasbasbag56
(g72
g58
NtRp3721
(dp3722
g61
(dp3723
sg70
g3403
sg63
(lp3724
g56
(g77
g58
NtRp3725
(dp3726
g61
(dp3727
g81
g82
ssg70
g3721
sg63
(lp3728
S'headers'
p3729
asbag56
(g77
g58
NtRp3730
(dp3731
g61
(dp3732
g88
g89
ssg70
g3721
sg63
(lp3733
S':'
asbag56
(g77
g58
NtRp3734
(dp3735
g61
(dp3736
sg70
g3721
sg63
(lp3737
g56
(g57
g58
NtRp3738
(dp3739
g61
(dp3740
g69
I5
ssg70
g3734
sg63
(lp3741
g56
(g65
g58
NtRp3742
(dp3743
g61
(dp3744
g69
I4
ssg70
Nsg63
(lp3745
g56
(g72
g58
NtRp3746
(dp3747
g61
(dp3748
sg70
g3742
sg63
(lp3749
g56
(g77
g58
NtRp3750
(dp3751
g61
(dp3752
g81
g82
ssg70
g3746
sg63
(lp3753
S'Cache-Control'
p3754
asbag56
(g77
g58
NtRp3755
(dp3756
g61
(dp3757
g88
g89
ssg70
g3746
sg63
(lp3758
S':'
asbag56
(g77
g58
NtRp3759
(dp3760
g61
(dp3761
sg70
g3746
sg63
(lp3762
g56
(g57
g58
NtRp3763
(dp3764
g61
(dp3765
g69
I4
ssg70
g3759
sg63
(lp3766
S'no-store, no-cache, must-revalidate, post-check=0, pre-check=0'
p3767
asbasbasbag56
(g72
g58
NtRp3768
(dp3769
g61
(dp3770
sg70
g3742
sg63
(lp3771
g56
(g77
g58
NtRp3772
(dp3773
g61
(dp3774
g81
g82
ssg70
g3768
sg63
(lp3775
S'Content-Type'
p3776
asbag56
(g77
g58
NtRp3777
(dp3778
g61
(dp3779
g88
g89
ssg70
g3768
sg63
(lp3780
S':'
asbag56
(g77
g58
NtRp3781
(dp3782
g61
(dp3783
sg70
g3768
sg63
(lp3784
g56
(g57
g58
NtRp3785
(dp3786
g61
(dp3787
g69
I4
ssg70
g3781
sg63
(lp3788
S'text/html; charset=utf-8'
p3789
asbasbasbag56
(g72
g58
NtRp3790
(dp3791
g61
(dp3792
sg70
g3742
sg63
(lp3793
g56
(g77
g58
NtRp3794
(dp3795
g61
(dp3796
g81
g82
ssg70
g3790
sg63
(lp3797
S'Expires'
p3798
asbag56
(g77
g58
NtRp3799
(dp3800
g61
(dp3801
g88
g89
ssg70
g3790
sg63
(lp3802
S':'
asbag56
(g77
g58
NtRp3803
(dp3804
g61
(dp3805
sg70
g3790
sg63
(lp3806
g56
(g57
g58
NtRp3807
(dp3808
g61
(dp3809
g69
I4
ssg70
g3803
sg63
(lp3810
S'Sun, 18 Dec 2011 22:05:14 GMT'
p3811
asbasbasbag56
(g72
g58
NtRp3812
(dp3813
g61
(dp3814
sg70
g3742
sg63
(lp3815
g56
(g77
g58
NtRp3816
(dp3817
g61
(dp3818
g81
g82
ssg70
g3812
sg63
(lp3819
S'Pragma'
p3820
asbag56
(g77
g58
NtRp3821
(dp3822
g61
(dp3823
g88
g89
ssg70
g3812
sg63
(lp3824
S':'
asbag56
(g77
g58
NtRp3825
(dp3826
g61
(dp3827
sg70
g3812
sg63
(lp3828
g56
(g57
g58
NtRp3829
(dp3830
g61
(dp3831
g69
I4
ssg70
g3825
sg63
(lp3832
S'no-cache'
p3833
asbasbasbag56
(g72
g58
NtRp3834
(dp3835
g61
(dp3836
sg70
g3742
sg63
(lp3837
g56
(g77
g58
NtRp3838
(dp3839
g61
(dp3840
g81
g82
ssg70
g3834
sg63
(lp3841
S'X-Powered-By'
p3842
asbag56
(g77
g58
NtRp3843
(dp3844
g61
(dp3845
g88
g89
ssg70
g3834
sg63
(lp3846
S':'
asbag56
(g77
g58
NtRp3847
(dp3848
g61
(dp3849
sg70
g3834
sg63
(lp3850
g56
(g57
g58
NtRp3851
(dp3852
g61
(dp3853
g69
I4
ssg70
g3847
sg63
(lp3854
S'web2py'
p3855
asbasbasbasbasbasbasbag56
(g72
g58
NtRp3856
(dp3857
g61
(dp3858
sg70
g3403
sg63
(lp3859
g56
(g77
g58
NtRp3860
(dp3861
g61
(dp3862
g81
g82
ssg70
g3856
sg63
(lp3863
S'menu'
p3864
asbag56
(g77
g58
NtRp3865
(dp3866
g61
(dp3867
g88
g89
ssg70
g3856
sg63
(lp3868
S':'
asbag56
(g77
g58
NtRp3869
(dp3870
g61
(dp3871
sg70
g3856
sg63
(lp3872
g56
(g57
g58
NtRp3873
(dp3874
g61
(dp3875
g69
I5
ssg70
g3869
sg63
(lp3876
g56
(g65
g58
NtRp3877
(dp3878
g61
(dp3879
g69
I4
ssg70
Nsg63
(lp3880
g56
(g72
g58
NtRp3881
(dp3882
g61
(dp3883
sg70
g3877
sg63
(lp3884
g56
(g77
g58
NtRp3885
(dp3886
g61
(dp3887
sg70
g3881
sg63
(lp3888
g56
(g57
g58
NtRp3889
(dp3890
g61
(dp3891
g69
I4
ssg70
g3885
sg63
(lp3892
g56
(g65
g58
NtRp3893
(dp3894
g61
(dp3895
g69
I3
ssg70
Nsg63
(lp3896
g56
(g72
g58
NtRp3897
(dp3898
g61
(dp3899
sg70
g3893
sg63
(lp3900
g56
(g77
g58
NtRp3901
(dp3902
g61
(dp3903
sg70
g3897
sg63
(lp3904
g56
(g57
g58
NtRp3905
(dp3906
g61
(dp3907
g69
I3
ssg70
g3901
sg63
(lp3908
cgluon.languages
lazyT_unpickle
p3909
(S't\x04\x00\x00\x00Home'
tRp3910
asbasbasbag56
(g72
g58
NtRp3911
(dp3912
g61
(dp3913
sg70
g3893
sg63
(lp3914
g56
(g77
g58
NtRp3915
(dp3916
g61
(dp3917
sg70
g3911
sg63
(lp3918
g56
(g57
g58
NtRp3919
(dp3920
g61
(dp3921
g69
I3
ssg70
g3915
sg63
(lp3922
g861
asbasbasbag56
(g72
g58
NtRp3923
(dp3924
g61
(dp3925
sg70
g3893
sg63
(lp3926
g56
(g77
g58
NtRp3927
(dp3928
g61
(dp3929
sg70
g3923
sg63
(lp3930
g56
(g57
g58
NtRp3931
(dp3932
g61
(dp3933
g69
I3
ssg70
g3927
sg63
(lp3934
S'/topoi/default/index.load'
p3935
asbasbasbag56
(g72
g58
NtRp3936
(dp3937
g61
(dp3938
sg70
g3893
sg63
(lp3939
g56
(g77
g58
NtRp3940
(dp3941
g61
(dp3942
sg70
g3936
sg63
(lp3943
g56
(g57
g58
NtRp3944
(dp3945
g61
(dp3946
g69
I3
ssg70
g3940
sg63
(lp3947
g56
(g65
g58
NtRp3948
(dp3949
g61
(dp3950
g69
I2
ssg70
Nsg63
(lp3951
sbasbasbasbasbasbasbasbag56
(g72
g58
NtRp3952
(dp3953
g61
(dp3954
sg70
g3877
sg63
(lp3955
g56
(g77
g58
NtRp3956
(dp3957
g61
(dp3958
sg70
g3952
sg63
(lp3959
g56
(g57
g58
NtRp3960
(dp3961
g61
(dp3962
g69
I4
ssg70
g3956
sg63
(lp3963
g56
(g65
g58
NtRp3964
(dp3965
g61
(dp3966
g69
I3
ssg70
Nsg63
(lp3967
g56
(g72
g58
NtRp3968
(dp3969
g61
(dp3970
sg70
g3964
sg63
(lp3971
g56
(g77
g58
NtRp3972
(dp3973
g61
(dp3974
sg70
g3968
sg63
(lp3975
g56
(g57
g58
NtRp3976
(dp3977
g61
(dp3978
g69
I3
ssg70
g3972
sg63
(lp3979
g3909
(S't\x01\x00\x00\x00S'
tRp3980
asbasbasbag56
(g72
g58
NtRp3981
(dp3982
g61
(dp3983
sg70
g3964
sg63
(lp3984
g56
(g77
g58
NtRp3985
(dp3986
g61
(dp3987
sg70
g3981
sg63
(lp3988
g56
(g57
g58
NtRp3989
(dp3990
g61
(dp3991
g69
I3
ssg70
g3985
sg63
(lp3992
g861
asbasbasbag56
(g72
g58
NtRp3993
(dp3994
g61
(dp3995
sg70
g3964
sg63
(lp3996
g56
(g77
g58
NtRp3997
(dp3998
g61
(dp3999
sg70
g3993
sg63
(lp4000
g56
(g57
g58
NtRp4001
(dp4002
g61
(dp4003
g69
I3
ssg70
g3997
sg63
(lp4004
S'/admin/default/design/topoi.load'
p4005
asbasbasbag56
(g72
g58
NtRp4006
(dp4007
g61
(dp4008
sg70
g3964
sg63
(lp4009
g56
(g77
g58
NtRp4010
(dp4011
g61
(dp4012
sg70
g4006
sg63
(lp4013
g56
(g57
g58
NtRp4014
(dp4015
g61
(dp4016
g69
I3
ssg70
g4010
sg63
(lp4017
g56
(g65
g58
NtRp4018
(dp4019
g61
(dp4020
g69
I2
ssg70
Nsg63
(lp4021
g56
(g72
g58
NtRp4022
(dp4023
g61
(dp4024
sg70
g4018
sg63
(lp4025
g56
(g77
g58
NtRp4026
(dp4027
g61
(dp4028
sg70
g4022
sg63
(lp4029
g56
(g57
g58
NtRp4030
(dp4031
g61
(dp4032
g69
I2
ssg70
g4026
sg63
(lp4033
g56
(g65
g58
NtRp4034
(dp4035
g61
(dp4036
g69
I1
ssg70
Nsg63
(lp4037
g56
(g72
g58
NtRp4038
(dp4039
g61
(dp4040
sg70
g4034
sg63
(lp4041
g56
(g77
g58
NtRp4042
(dp4043
g61
(dp4044
sg70
g4038
sg63
(lp4045
g56
(g57
g58
NtRp4046
(dp4047
g61
(dp4048
g69
I1
ssg70
g4042
sg63
(lp4049
g3909
(S't\n\x00\x00\x00Controller'
tRp4050
asbasbasbag56
(g72
g58
NtRp4051
(dp4052
g61
(dp4053
sg70
g4034
sg63
(lp4054
g56
(g77
g58
NtRp4055
(dp4056
g61
(dp4057
sg70
g4051
sg63
(lp4058
g56
(g57
g58
NtRp4059
(dp4060
g61
(dp4061
g69
I1
ssg70
g4055
sg63
(lp4062
I00
asbasbasbag56
(g72
g58
NtRp4063
(dp4064
g61
(dp4065
sg70
g4034
sg63
(lp4066
g56
(g77
g58
NtRp4067
(dp4068
g61
(dp4069
sg70
g4063
sg63
(lp4070
g56
(g57
g58
NtRp4071
(dp4072
g61
(dp4073
g69
I1
ssg70
g4067
sg63
(lp4074
S'/admin/default/edit/topoi/controllers/plugin_ajaxselect.py'
p4075
asbasbasbasbasbasbasbag56
(g72
g58
NtRp4076
(dp4077
g61
(dp4078
sg70
g4018
sg63
(lp4079
g56
(g77
g58
NtRp4080
(dp4081
g61
(dp4082
sg70
g4076
sg63
(lp4083
g56
(g57
g58
NtRp4084
(dp4085
g61
(dp4086
g69
I2
ssg70
g4080
sg63
(lp4087
g56
(g65
g58
NtRp4088
(dp4089
g61
(dp4090
g69
I1
ssg70
Nsg63
(lp4091
g56
(g72
g58
NtRp4092
(dp4093
g61
(dp4094
sg70
g4088
sg63
(lp4095
g56
(g77
g58
NtRp4096
(dp4097
g61
(dp4098
sg70
g4092
sg63
(lp4099
g56
(g57
g58
NtRp4100
(dp4101
g61
(dp4102
g69
I1
ssg70
g4096
sg63
(lp4103
g3909
(S't\x04\x00\x00\x00View'
tRp4104
asbasbasbag56
(g72
g58
NtRp4105
(dp4106
g61
(dp4107
sg70
g4088
sg63
(lp4108
g56
(g77
g58
NtRp4109
(dp4110
g61
(dp4111
sg70
g4105
sg63
(lp4112
g56
(g57
g58
NtRp4113
(dp4114
g61
(dp4115
g69
I1
ssg70
g4109
sg63
(lp4116
I00
asbasbasbag56
(g72
g58
NtRp4117
(dp4118
g61
(dp4119
sg70
g4088
sg63
(lp4120
g56
(g77
g58
NtRp4121
(dp4122
g61
(dp4123
sg70
g4117
sg63
(lp4124
g56
(g57
g58
NtRp4125
(dp4126
g61
(dp4127
g69
I1
ssg70
g4121
sg63
(lp4128
S'/admin/default/edit/topoi/views/plugin_ajaxselect/set_widget.load'
p4129
asbasbasbasbasbasbasbag56
(g72
g58
NtRp4130
(dp4131
g61
(dp4132
sg70
g4018
sg63
(lp4133
g56
(g77
g58
NtRp4134
(dp4135
g61
(dp4136
sg70
g4130
sg63
(lp4137
g56
(g57
g58
NtRp4138
(dp4139
g61
(dp4140
g69
I2
ssg70
g4134
sg63
(lp4141
g56
(g65
g58
NtRp4142
(dp4143
g61
(dp4144
g69
I1
ssg70
Nsg63
(lp4145
g56
(g72
g58
NtRp4146
(dp4147
g61
(dp4148
sg70
g4142
sg63
(lp4149
g56
(g77
g58
NtRp4150
(dp4151
g61
(dp4152
sg70
g4146
sg63
(lp4153
g56
(g57
g58
NtRp4154
(dp4155
g61
(dp4156
g69
I1
ssg70
g4150
sg63
(lp4157
g3909
(S't\x06\x00\x00\x00Layout'
tRp4158
asbasbasbag56
(g72
g58
NtRp4159
(dp4160
g61
(dp4161
sg70
g4142
sg63
(lp4162
g56
(g77
g58
NtRp4163
(dp4164
g61
(dp4165
sg70
g4159
sg63
(lp4166
g56
(g57
g58
NtRp4167
(dp4168
g61
(dp4169
g69
I1
ssg70
g4163
sg63
(lp4170
I00
asbasbasbag56
(g72
g58
NtRp4171
(dp4172
g61
(dp4173
sg70
g4142
sg63
(lp4174
g56
(g77
g58
NtRp4175
(dp4176
g61
(dp4177
sg70
g4171
sg63
(lp4178
g56
(g57
g58
NtRp4179
(dp4180
g61
(dp4181
g69
I1
ssg70
g4175
sg63
(lp4182
S'/admin/default/edit/topoi/views/layout.html'
p4183
asbasbasbasbasbasbasbag56
(g72
g58
NtRp4184
(dp4185
g61
(dp4186
sg70
g4018
sg63
(lp4187
g56
(g77
g58
NtRp4188
(dp4189
g61
(dp4190
sg70
g4184
sg63
(lp4191
g56
(g57
g58
NtRp4192
(dp4193
g61
(dp4194
g69
I2
ssg70
g4188
sg63
(lp4195
g56
(g65
g58
NtRp4196
(dp4197
g61
(dp4198
g69
I1
ssg70
Nsg63
(lp4199
g56
(g72
g58
NtRp4200
(dp4201
g61
(dp4202
sg70
g4196
sg63
(lp4203
g56
(g77
g58
NtRp4204
(dp4205
g61
(dp4206
sg70
g4200
sg63
(lp4207
g56
(g57
g58
NtRp4208
(dp4209
g61
(dp4210
g69
I1
ssg70
g4204
sg63
(lp4211
g3909
(S't\n\x00\x00\x00Stylesheet'
tRp4212
asbasbasbag56
(g72
g58
NtRp4213
(dp4214
g61
(dp4215
sg70
g4196
sg63
(lp4216
g56
(g77
g58
NtRp4217
(dp4218
g61
(dp4219
sg70
g4213
sg63
(lp4220
g56
(g57
g58
NtRp4221
(dp4222
g61
(dp4223
g69
I1
ssg70
g4217
sg63
(lp4224
I00
asbasbasbag56
(g72
g58
NtRp4225
(dp4226
g61
(dp4227
sg70
g4196
sg63
(lp4228
g56
(g77
g58
NtRp4229
(dp4230
g61
(dp4231
sg70
g4225
sg63
(lp4232
g56
(g57
g58
NtRp4233
(dp4234
g61
(dp4235
g69
I1
ssg70
g4229
sg63
(lp4236
S'/admin/default/edit/topoi/static/base.css'
p4237
asbasbasbasbasbasbasbag56
(g72
g58
NtRp4238
(dp4239
g61
(dp4240
sg70
g4018
sg63
(lp4241
g56
(g77
g58
NtRp4242
(dp4243
g61
(dp4244
sg70
g4238
sg63
(lp4245
g56
(g57
g58
NtRp4246
(dp4247
g61
(dp4248
g69
I2
ssg70
g4242
sg63
(lp4249
g56
(g65
g58
NtRp4250
(dp4251
g61
(dp4252
g69
I1
ssg70
Nsg63
(lp4253
g56
(g72
g58
NtRp4254
(dp4255
g61
(dp4256
sg70
g4250
sg63
(lp4257
g56
(g77
g58
NtRp4258
(dp4259
g61
(dp4260
sg70
g4254
sg63
(lp4261
g56
(g57
g58
NtRp4262
(dp4263
g61
(dp4264
g69
I1
ssg70
g4258
sg63
(lp4265
g3909
(S's\x08\x00\x00\x00DB Model'
tRp4266
asbasbasbag56
(g72
g58
NtRp4267
(dp4268
g61
(dp4269
sg70
g4250
sg63
(lp4270
g56
(g77
g58
NtRp4271
(dp4272
g61
(dp4273
sg70
g4267
sg63
(lp4274
g56
(g57
g58
NtRp4275
(dp4276
g61
(dp4277
g69
I1
ssg70
g4271
sg63
(lp4278
I00
asbasbasbag56
(g72
g58
NtRp4279
(dp4280
g61
(dp4281
sg70
g4250
sg63
(lp4282
g56
(g77
g58
NtRp4283
(dp4284
g61
(dp4285
sg70
g4279
sg63
(lp4286
g56
(g57
g58
NtRp4287
(dp4288
g61
(dp4289
g69
I1
ssg70
g4283
sg63
(lp4290
S'/admin/default/edit/topoi/models/db.py'
p4291
asbasbasbasbasbasbasbag56
(g72
g58
NtRp4292
(dp4293
g61
(dp4294
sg70
g4018
sg63
(lp4295
g56
(g77
g58
NtRp4296
(dp4297
g61
(dp4298
sg70
g4292
sg63
(lp4299
g56
(g57
g58
NtRp4300
(dp4301
g61
(dp4302
g69
I2
ssg70
g4296
sg63
(lp4303
g56
(g65
g58
NtRp4304
(dp4305
g61
(dp4306
g69
I1
ssg70
Nsg63
(lp4307
g56
(g72
g58
NtRp4308
(dp4309
g61
(dp4310
sg70
g4304
sg63
(lp4311
g56
(g77
g58
NtRp4312
(dp4313
g61
(dp4314
sg70
g4308
sg63
(lp4315
g56
(g57
g58
NtRp4316
(dp4317
g61
(dp4318
g69
I1
ssg70
g4312
sg63
(lp4319
g3909
(S's\n\x00\x00\x00Menu Model'
tRp4320
asbasbasbag56
(g72
g58
NtRp4321
(dp4322
g61
(dp4323
sg70
g4304
sg63
(lp4324
g56
(g77
g58
NtRp4325
(dp4326
g61
(dp4327
sg70
g4321
sg63
(lp4328
g56
(g57
g58
NtRp4329
(dp4330
g61
(dp4331
g69
I1
ssg70
g4325
sg63
(lp4332
I00
asbasbasbag56
(g72
g58
NtRp4333
(dp4334
g61
(dp4335
sg70
g4304
sg63
(lp4336
g56
(g77
g58
NtRp4337
(dp4338
g61
(dp4339
sg70
g4333
sg63
(lp4340
g56
(g57
g58
NtRp4341
(dp4342
g61
(dp4343
g69
I1
ssg70
g4337
sg63
(lp4344
S'/admin/default/edit/topoi/models/menu.py'
p4345
asbasbasbasbasbasbasbag56
(g72
g58
NtRp4346
(dp4347
g61
(dp4348
sg70
g4018
sg63
(lp4349
g56
(g77
g58
NtRp4350
(dp4351
g61
(dp4352
sg70
g4346
sg63
(lp4353
g56
(g57
g58
NtRp4354
(dp4355
g61
(dp4356
g69
I2
ssg70
g4350
sg63
(lp4357
g56
(g65
g58
NtRp4358
(dp4359
g61
(dp4360
g69
I1
ssg70
Nsg63
(lp4361
g56
(g72
g58
NtRp4362
(dp4363
g61
(dp4364
sg70
g4358
sg63
(lp4365
g56
(g77
g58
NtRp4366
(dp4367
g61
(dp4368
sg70
g4362
sg63
(lp4369
g56
(g57
g58
NtRp4370
(dp4371
g61
(dp4372
g69
I1
ssg70
g4366
sg63
(lp4373
g3909
(S't\x08\x00\x00\x00Database'
tRp4374
asbasbasbag56
(g72
g58
NtRp4375
(dp4376
g61
(dp4377
sg70
g4358
sg63
(lp4378
g56
(g77
g58
NtRp4379
(dp4380
g61
(dp4381
sg70
g4375
sg63
(lp4382
g56
(g57
g58
NtRp4383
(dp4384
g61
(dp4385
g69
I1
ssg70
g4379
sg63
(lp4386
I00
asbasbasbag56
(g72
g58
NtRp4387
(dp4388
g61
(dp4389
sg70
g4358
sg63
(lp4390
g56
(g77
g58
NtRp4391
(dp4392
g61
(dp4393
sg70
g4387
sg63
(lp4394
g56
(g57
g58
NtRp4395
(dp4396
g61
(dp4397
g69
I1
ssg70
g4391
sg63
(lp4398
S'/topoi/appadmin/index.load'
p4399
asbasbasbasbasbasbasbag56
(g72
g58
NtRp4400
(dp4401
g61
(dp4402
sg70
g4018
sg63
(lp4403
g56
(g77
g58
NtRp4404
(dp4405
g61
(dp4406
sg70
g4400
sg63
(lp4407
g56
(g57
g58
NtRp4408
(dp4409
g61
(dp4410
g69
I2
ssg70
g4404
sg63
(lp4411
g56
(g65
g58
NtRp4412
(dp4413
g61
(dp4414
g69
I1
ssg70
Nsg63
(lp4415
g56
(g72
g58
NtRp4416
(dp4417
g61
(dp4418
sg70
g4412
sg63
(lp4419
g56
(g77
g58
NtRp4420
(dp4421
g61
(dp4422
sg70
g4416
sg63
(lp4423
g56
(g57
g58
NtRp4424
(dp4425
g61
(dp4426
g69
I1
ssg70
g4420
sg63
(lp4427
g3909
(S't\x06\x00\x00\x00Errors'
tRp4428
asbasbasbag56
(g72
g58
NtRp4429
(dp4430
g61
(dp4431
sg70
g4412
sg63
(lp4432
g56
(g77
g58
NtRp4433
(dp4434
g61
(dp4435
sg70
g4429
sg63
(lp4436
g56
(g57
g58
NtRp4437
(dp4438
g61
(dp4439
g69
I1
ssg70
g4433
sg63
(lp4440
I00
asbasbasbag56
(g72
g58
NtRp4441
(dp4442
g61
(dp4443
sg70
g4412
sg63
(lp4444
g56
(g77
g58
NtRp4445
(dp4446
g61
(dp4447
sg70
g4441
sg63
(lp4448
g56
(g57
g58
NtRp4449
(dp4450
g61
(dp4451
g69
I1
ssg70
g4445
sg63
(lp4452
S'/admin/default/errors/topoi.load'
p4453
asbasbasbasbasbasbasbag56
(g72
g58
NtRp4454
(dp4455
g61
(dp4456
sg70
g4018
sg63
(lp4457
g56
(g77
g58
NtRp4458
(dp4459
g61
(dp4460
sg70
g4454
sg63
(lp4461
g56
(g57
g58
NtRp4462
(dp4463
g61
(dp4464
g69
I2
ssg70
g4458
sg63
(lp4465
g56
(g65
g58
NtRp4466
(dp4467
g61
(dp4468
g69
I1
ssg70
Nsg63
(lp4469
g56
(g72
g58
NtRp4470
(dp4471
g61
(dp4472
sg70
g4466
sg63
(lp4473
g56
(g77
g58
NtRp4474
(dp4475
g61
(dp4476
sg70
g4470
sg63
(lp4477
g56
(g57
g58
NtRp4478
(dp4479
g61
(dp4480
g69
I1
ssg70
g4474
sg63
(lp4481
g3909
(S't\x05\x00\x00\x00About'
tRp4482
asbasbasbag56
(g72
g58
NtRp4483
(dp4484
g61
(dp4485
sg70
g4466
sg63
(lp4486
g56
(g77
g58
NtRp4487
(dp4488
g61
(dp4489
sg70
g4483
sg63
(lp4490
g56
(g57
g58
NtRp4491
(dp4492
g61
(dp4493
g69
I1
ssg70
g4487
sg63
(lp4494
I00
asbasbasbag56
(g72
g58
NtRp4495
(dp4496
g61
(dp4497
sg70
g4466
sg63
(lp4498
g56
(g77
g58
NtRp4499
(dp4500
g61
(dp4501
sg70
g4495
sg63
(lp4502
g56
(g57
g58
NtRp4503
(dp4504
g61
(dp4505
g69
I1
ssg70
g4499
sg63
(lp4506
S'/admin/default/about/topoi.load'
p4507
asbasbasbasbasbasbasbasbasbasbasbasbasbasbasbasbasbasbasbag56
(g72
g58
NtRp4508
(dp4509
g61
(dp4510
sg70
g3403
sg63
(lp4511
g56
(g77
g58
NtRp4512
(dp4513
g61
(dp4514
g81
g82
ssg70
g4508
sg63
(lp4515
S'meta'
p4516
asbag56
(g77
g58
NtRp4517
(dp4518
g61
(dp4519
g88
g89
ssg70
g4508
sg63
(lp4520
S':'
asbag56
(g77
g58
NtRp4521
(dp4522
g61
(dp4523
sg70
g4508
sg63
(lp4524
g56
(g57
g58
NtRp4525
(dp4526
g61
(dp4527
g69
I5
ssg70
g4521
sg63
(lp4528
g56
(g65
g58
NtRp4529
(dp4530
g61
(dp4531
g69
I4
ssg70
Nsg63
(lp4532
g56
(g72
g58
NtRp4533
(dp4534
g61
(dp4535
sg70
g4529
sg63
(lp4536
g56
(g77
g58
NtRp4537
(dp4538
g61
(dp4539
g81
g82
ssg70
g4533
sg63
(lp4540
S'author'
p4541
asbag56
(g77
g58
NtRp4542
(dp4543
g61
(dp4544
g88
g89
ssg70
g4533
sg63
(lp4545
S':'
asbag56
(g77
g58
NtRp4546
(dp4547
g61
(dp4548
sg70
g4533
sg63
(lp4549
g56
(g57
g58
NtRp4550
(dp4551
g61
(dp4552
g69
I4
ssg70
g4546
sg63
(lp4553
S'Ian W. Scott'
p4554
asbasbasbag56
(g72
g58
NtRp4555
(dp4556
g61
(dp4557
sg70
g4529
sg63
(lp4558
g56
(g77
g58
NtRp4559
(dp4560
g61
(dp4561
g81
g82
ssg70
g4555
sg63
(lp4562
S'copyright'
p4563
asbag56
(g77
g58
NtRp4564
(dp4565
g61
(dp4566
g88
g89
ssg70
g4555
sg63
(lp4567
S':'
asbag56
(g77
g58
NtRp4568
(dp4569
g61
(dp4570
sg70
g4555
sg63
(lp4571
g56
(g57
g58
NtRp4572
(dp4573
g61
(dp4574
g69
I4
ssg70
g4568
sg63
(lp4575
S'Copyright 2011'
p4576
asbasbasbag56
(g72
g58
NtRp4577
(dp4578
g61
(dp4579
sg70
g4529
sg63
(lp4580
g56
(g77
g58
NtRp4581
(dp4582
g61
(dp4583
g81
g82
ssg70
g4577
sg63
(lp4584
S'description'
p4585
asbag56
(g77
g58
NtRp4586
(dp4587
g61
(dp4588
g88
g89
ssg70
g4577
sg63
(lp4589
S':'
asbag56
(g77
g58
NtRp4590
(dp4591
g61
(dp4592
sg70
g4577
sg63
(lp4593
g56
(g57
g58
NtRp4594
(dp4595
g61
(dp4596
g69
I4
ssg70
g4590
sg63
(lp4597
S'A web-app for managing primary-text research in the humanities.'
p4598
asbasbasbag56
(g72
g58
NtRp4599
(dp4600
g61
(dp4601
sg70
g4529
sg63
(lp4602
g56
(g77
g58
NtRp4603
(dp4604
g61
(dp4605
g81
g82
ssg70
g4599
sg63
(lp4606
S'generator'
p4607
asbag56
(g77
g58
NtRp4608
(dp4609
g61
(dp4610
g88
g89
ssg70
g4599
sg63
(lp4611
S':'
asbag56
(g77
g58
NtRp4612
(dp4613
g61
(dp4614
sg70
g4599
sg63
(lp4615
g56
(g57
g58
NtRp4616
(dp4617
g61
(dp4618
g69
I4
ssg70
g4612
sg63
(lp4619
S'Web2py Enterprise Framework'
p4620
asbasbasbag56
(g72
g58
NtRp4621
(dp4622
g61
(dp4623
sg70
g4529
sg63
(lp4624
g56
(g77
g58
NtRp4625
(dp4626
g61
(dp4627
g81
g82
ssg70
g4621
sg63
(lp4628
S'keywords'
p4629
asbag56
(g77
g58
NtRp4630
(dp4631
g61
(dp4632
g88
g89
ssg70
g4621
sg63
(lp4633
S':'
asbag56
(g77
g58
NtRp4634
(dp4635
g61
(dp4636
sg70
g4621
sg63
(lp4637
g56
(g57
g58
NtRp4638
(dp4639
g61
(dp4640
g69
I4
ssg70
g4634
sg63
(lp4641
S'research, humanities, biblical'
p4642
asbasbasbasbasbasbasbag56
(g72
g58
NtRp4643
(dp4644
g61
(dp4645
sg70
g3403
sg63
(lp4646
g56
(g77
g58
NtRp4647
(dp4648
g61
(dp4649
g81
g82
ssg70
g4643
sg63
(lp4650
S'postprocessing'
p4651
asbag56
(g77
g58
NtRp4652
(dp4653
g61
(dp4654
g88
g89
ssg70
g4643
sg63
(lp4655
S':'
asbag56
(g77
g58
NtRp4656
(dp4657
g61
(dp4658
sg70
g4643
sg63
(lp4659
g56
(g57
g58
NtRp4660
(dp4661
g61
(dp4662
g69
I5
ssg70
g4656
sg63
(lp4663
g56
(g65
g58
NtRp4664
(dp4665
g61
(dp4666
g69
I4
ssg70
Nsg63
(lp4667
sbasbasbasbag56
(g72
g58
NtRp4668
(dp4669
g61
(dp4670
sg70
g3403
sg63
(lp4671
g56
(g77
g58
NtRp4672
(dp4673
g61
(dp4674
g81
g82
ssg70
g4668
sg63
(lp4675
S'session_file'
p4676
asbag56
(g77
g58
NtRp4677
(dp4678
g61
(dp4679
g88
g89
ssg70
g4668
sg63
(lp4680
S':'
asbag56
(g77
g58
NtRp4681
(dp4682
g61
(dp4683
sg70
g4668
sg63
(lp4684
g56
(g57
g58
NtRp4685
(dp4686
g61
(dp4687
g69
I5
ssg70
g4681
sg63
(lp4688
S"<open file '/home/ian/web2py/applications/topoi/sessions/127.0.0.1-fbfd7fa3-57f5-4d42-8f08-594178070e93', mode 'rb+' at 0x278ef60>"
p4689
asbasbasbag56
(g72
g58
NtRp4690
(dp4691
g61
(dp4692
sg70
g3403
sg63
(lp4693
g56
(g77
g58
NtRp4694
(dp4695
g61
(dp4696
g81
g82
ssg70
g4690
sg63
(lp4697
S'session_filename'
p4698
asbag56
(g77
g58
NtRp4699
(dp4700
g61
(dp4701
g88
g89
ssg70
g4690
sg63
(lp4702
S':'
asbag56
(g77
g58
NtRp4703
(dp4704
g61
(dp4705
sg70
g4690
sg63
(lp4706
g56
(g57
g58
NtRp4707
(dp4708
g61
(dp4709
g69
I5
ssg70
g4703
sg63
(lp4710
S'/home/ian/web2py/applications/topoi/sessions/127.0.0.1-fbfd7fa3-57f5-4d42-8f08-594178070e93'
p4711
asbasbasbag56
(g72
g58
NtRp4712
(dp4713
g61
(dp4714
sg70
g3403
sg63
(lp4715
g56
(g77
g58
NtRp4716
(dp4717
g61
(dp4718
g81
g82
ssg70
g4712
sg63
(lp4719
S'session_id'
p4720
asbag56
(g77
g58
NtRp4721
(dp4722
g61
(dp4723
g88
g89
ssg70
g4712
sg63
(lp4724
S':'
asbag56
(g77
g58
NtRp4725
(dp4726
g61
(dp4727
sg70
g4712
sg63
(lp4728
g56
(g57
g58
NtRp4729
(dp4730
g61
(dp4731
g69
I5
ssg70
g4725
sg63
(lp4732
S'127.0.0.1-fbfd7fa3-57f5-4d42-8f08-594178070e93'
p4733
asbasbasbag56
(g72
g58
NtRp4734
(dp4735
g61
(dp4736
sg70
g3403
sg63
(lp4737
g56
(g77
g58
NtRp4738
(dp4739
g61
(dp4740
g81
g82
ssg70
g4734
sg63
(lp4741
S'session_id_name'
p4742
asbag56
(g77
g58
NtRp4743
(dp4744
g61
(dp4745
g88
g89
ssg70
g4734
sg63
(lp4746
S':'
asbag56
(g77
g58
NtRp4747
(dp4748
g61
(dp4749
sg70
g4734
sg63
(lp4750
g56
(g57
g58
NtRp4751
(dp4752
g61
(dp4753
g69
I5
ssg70
g4747
sg63
(lp4754
g3460
asbasbasbag56
(g72
g58
NtRp4755
(dp4756
g61
(dp4757
sg70
g3403
sg63
(lp4758
g56
(g77
g58
NtRp4759
(dp4760
g61
(dp4761
g81
g82
ssg70
g4755
sg63
(lp4762
S'session_locked'
p4763
asbag56
(g77
g58
NtRp4764
(dp4765
g61
(dp4766
g88
g89
ssg70
g4755
sg63
(lp4767
S':'
asbag56
(g77
g58
NtRp4768
(dp4769
g61
(dp4770
sg70
g4755
sg63
(lp4771
g56
(g57
g58
NtRp4772
(dp4773
g61
(dp4774
g69
I5
ssg70
g4768
sg63
(lp4775
g99
asbasbasbag56
(g72
g58
NtRp4776
(dp4777
g61
(dp4778
sg70
g3403
sg63
(lp4779
g56
(g77
g58
NtRp4780
(dp4781
g61
(dp4782
g81
g82
ssg70
g4776
sg63
(lp4783
S'session_new'
p4784
asbag56
(g77
g58
NtRp4785
(dp4786
g61
(dp4787
g88
g89
ssg70
g4776
sg63
(lp4788
S':'
asbag56
(g77
g58
NtRp4789
(dp4790
g61
(dp4791
sg70
g4776
sg63
(lp4792
g56
(g57
g58
NtRp4793
(dp4794
g61
(dp4795
g69
I5
ssg70
g4789
sg63
(lp4796
g861
asbasbasbag56
(g72
g58
NtRp4797
(dp4798
g61
(dp4799
sg70
g3403
sg63
(lp4800
g56
(g77
g58
NtRp4801
(dp4802
g61
(dp4803
g81
g82
ssg70
g4797
sg63
(lp4804
S'status'
p4805
asbag56
(g77
g58
NtRp4806
(dp4807
g61
(dp4808
g88
g89
ssg70
g4797
sg63
(lp4809
S':'
asbag56
(g77
g58
NtRp4810
(dp4811
g61
(dp4812
sg70
g4797
sg63
(lp4813
g56
(g57
g58
NtRp4814
(dp4815
g61
(dp4816
g69
I5
ssg70
g4810
sg63
(lp4817
S'200'
p4818
asbasbasbag56
(g72
g58
NtRp4819
(dp4820
g61
(dp4821
sg70
g3403
sg63
(lp4822
g56
(g77
g58
NtRp4823
(dp4824
g61
(dp4825
g81
g82
ssg70
g4819
sg63
(lp4826
S'subtitle'
p4827
asbag56
(g77
g58
NtRp4828
(dp4829
g61
(dp4830
g88
g89
ssg70
g4819
sg63
(lp4831
S':'
asbag56
(g77
g58
NtRp4832
(dp4833
g61
(dp4834
sg70
g4819
sg63
(lp4835
g56
(g57
g58
NtRp4836
(dp4837
g61
(dp4838
g69
I5
ssg70
g4832
sg63
(lp4839
g3909
(S's;\x00\x00\x00A tool for managing primary-text research in the humanities'
tRp4840
asbasbasbag56
(g72
g58
NtRp4841
(dp4842
g61
(dp4843
sg70
g3403
sg63
(lp4844
g56
(g77
g58
NtRp4845
(dp4846
g61
(dp4847
g81
g82
ssg70
g4841
sg63
(lp4848
S'title'
p4849
asbag56
(g77
g58
NtRp4850
(dp4851
g61
(dp4852
g88
g89
ssg70
g4841
sg63
(lp4853
S':'
asbag56
(g77
g58
NtRp4854
(dp4855
g61
(dp4856
sg70
g4841
sg63
(lp4857
g56
(g57
g58
NtRp4858
(dp4859
g61
(dp4860
g69
I5
ssg70
g4854
sg63
(lp4861
g121
asbasbasbag56
(g72
g58
NtRp4862
(dp4863
g61
(dp4864
sg70
g3403
sg63
(lp4865
g56
(g77
g58
NtRp4866
(dp4867
g61
(dp4868
g81
g82
ssg70
g4862
sg63
(lp4869
g2310
asbag56
(g77
g58
NtRp4870
(dp4871
g61
(dp4872
g88
g89
ssg70
g4862
sg63
(lp4873
S':'
asbag56
(g77
g58
NtRp4874
(dp4875
g61
(dp4876
sg70
g4862
sg63
(lp4877
g56
(g57
g58
NtRp4878
(dp4879
g61
(dp4880
g69
I5
ssg70
g4874
sg63
(lp4881
g2323
asbasbasbag56
(g72
g58
NtRp4882
(dp4883
g61
(dp4884
sg70
g3403
sg63
(lp4885
g56
(g77
g58
NtRp4886
(dp4887
g61
(dp4888
g81
g82
ssg70
g4882
sg63
(lp4889
S'view'
p4890
asbag56
(g77
g58
NtRp4891
(dp4892
g61
(dp4893
g88
g89
ssg70
g4882
sg63
(lp4894
S':'
asbag56
(g77
g58
NtRp4895
(dp4896
g61
(dp4897
sg70
g4882
sg63
(lp4898
g56
(g57
g58
NtRp4899
(dp4900
g61
(dp4901
g69
I5
ssg70
g4895
sg63
(lp4902
S'plugin_ajaxselect/set_widget.load'
p4903
asbasbasbasbasbsS'locals'
p4904
(dp4905
S'Service'
p4906
S"<class 'gluon.tools.Service'>"
p4907
sS'OBJECT'
p4908
S"<class 'gluon.html.OBJECT'>"
p4909
sS'SQLDB'
p4910
S"<class 'gluon.dal.DAL'>"
p4911
sg3075
S"<Storage {'_formkey[notes/3]': 'd7b21698-f3c3-47...login]': '1e2fd93c-80c7-4bf4-a2bb-f0f9665db015'}>"
p4912
sS'LINK'
p4913
S"<class 'gluon.html.LINK'>"
p4914
sS'hmultiselect_widget'
p4915
S'<function hmultiselect_widget>'
p4916
sS'BR'
p4917
S"<class 'gluon.html.BR'>"
p4918
sS'local_import'
p4919
S'<function <lambda>>'
p4920
sS'OPTGROUP'
p4921
S"<class 'gluon.html.OPTGROUP'>"
p4922
sS'PRE'
p4923
S"<class 'gluon.html.PRE'>"
p4924
sS'IS_INT_IN_RANGE'
p4925
S"<class 'gluon.validators.IS_INT_IN_RANGE'>"
p4926
sS'IS_LOWER'
p4927
S"<class 'gluon.validators.IS_LOWER'>"
p4928
sS'IS_STRONG'
p4929
S"<class 'gluon.validators.IS_STRONG'>"
p4930
sS'cache'
p4931
S'<gluon.cache.Cache object>'
p4932
sS'IS_IN_DB'
p4933
S"<class 'gluon.validators.IS_IN_DB'>"
p4934
sS'TAG'
p4935
S'<gluon.html.__TAG__ object>'
p4936
sS'SQLField'
p4937
S"<class 'gluon.dal.Field'>"
p4938
sS'mail'
p4939
S'<gluon.tools.Mail object>'
p4940
sS'BODY'
p4941
S"<class 'gluon.html.BODY'>"
p4942
sS'IS_DATE_IN_RANGE'
p4943
S"<class 'gluon.validators.IS_DATE_IN_RANGE'>"
p4944
sS'TH'
p4945
S"<class 'gluon.html.TH'>"
p4946
sS'URL'
p4947
S'<function URL>'
p4948
sS'__file__'
p4949
S"'/home/ian/web2py/applications/topoi/views/plugin_ajaxselect/set_widget.load'"
p4950
sS'db'
p4951
S"<DAL {'auth_event': <Table {'origin': <gluon.dal.../web2py/applications/topoi/databases/sql.log'}>}>"
p4952
sS'auth'
p4953
S'<gluon.tools.Auth object>'
p4954
sS'P'
S"<class 'gluon.html.P'>"
p4955
sS'TFOOT'
p4956
S"<class 'gluon.html.TFOOT'>"
p4957
sS'XHTML'
p4958
S"<class 'gluon.html.XHTML'>"
p4959
sS'datetime'
p4960
S"<module 'datetime' from '/usr/lib/python2.7/lib-dynload/datetime.so'>"
p4961
sS'ON'
p4962
g99
sS'OL'
p4963
S"<class 'gluon.html.OL'>"
p4964
sS'TEXTAREA'
p4965
S"<class 'gluon.html.TEXTAREA'>"
p4966
sS'MENU'
p4967
S"<class 'gluon.html.MENU'>"
p4968
sS'IS_IMAGE'
p4969
S"<class 'gluon.validators.IS_IMAGE'>"
p4970
sS'LOAD'
p4971
S'<gluon.compileapp.LoadFactory object>'
p4972
sS'CODE'
p4973
S"<class 'gluon.html.CODE'>"
p4974
sS'HTTP'
p4975
S"<class 'gluon.http.HTTP'>"
p4976
sS'HR'
p4977
S"<class 'gluon.html.HR'>"
p4978
sS'IS_DATETIME'
p4979
S"<class 'gluon.validators.IS_DATETIME'>"
p4980
sS'HEAD'
p4981
S"<class 'gluon.html.HEAD'>"
p4982
sS'LABEL'
p4983
S"<class 'gluon.html.LABEL'>"
p4984
sS'META'
p4985
S"<class 'gluon.html.META'>"
p4986
sS'plugins'
p4987
S'<gluon.tools.PluginManager object>'
p4988
sS'SELECT'
p4989
S"<class 'gluon.html.SELECT'>"
p4990
sS'CENTER'
p4991
S"<class 'gluon.html.CENTER'>"
p4992
sS'prettydate'
p4993
S'<function prettydate>'
p4994
sS'Crud'
p4995
S"<class 'gluon.tools.Crud'>"
p4996
sS'Auth'
p4997
S"<class 'gluon.tools.Auth'>"
p4998
sS'IS_EQUAL_TO'
p4999
S"<class 'gluon.validators.IS_EQUAL_TO'>"
p5000
sS'HTML'
p5001
S"<class 'gluon.html.HTML'>"
p5002
sS'SQLFORM'
p5003
S"<class 'gluon.sqlhtml.SQLFORM'>"
p5004
sS'EM'
p5005
S"<class 'gluon.html.EM'>"
p5006
sS'redirect'
p5007
S'<function redirect>'
p5008
sS'widget'
p5009
S'<gluon.html.SELECT object>'
p5010
sS'FIELDSET'
p5011
S"<class 'gluon.html.FIELDSET'>"
p5012
sS'__builtins__'
p5013
S"{'ArithmeticError': <type 'exceptions.ArithmeticError'>, 'AssertionError': <type 'exceptions.AssertionError'>, 'AttributeError': <type 'exceptions.AttributeError'>, 'BaseException': <type 'exceptions.BaseException'>, 'BufferError': <type 'exceptions.BufferError'>, 'BytesWarning': <type 'exceptions.BytesWarning'>, 'DeprecationWarning': <type 'exceptions.DeprecationWarning'>, 'EOFError': <type 'exceptions.EOFError'>, 'Ellipsis': Ellipsis, 'EnvironmentError': <type 'exceptions.EnvironmentError'>, ...}"
p5014
sS'embed64'
p5015
S'<function embed64>'
p5016
sS'IS_LIST_OF'
p5017
S"<class 'gluon.validators.IS_LIST_OF'>"
p5018
sS'INPUT'
p5019
S"<class 'gluon.html.INPUT'>"
p5020
sS'EMBED'
p5021
S"<class 'gluon.html.EMBED'>"
p5022
sS'H2'
p5023
S"<class 'gluon.html.H2'>"
p5024
sS'H3'
p5025
S"<class 'gluon.html.H3'>"
p5026
sS'BUTTON'
p5027
S"<class 'gluon.html.BUTTON'>"
p5028
sS'H1'
p5029
S"<class 'gluon.html.H1'>"
p5030
sS'H6'
p5031
S"<class 'gluon.html.H6'>"
p5032
sS'H4'
p5033
S"<class 'gluon.html.H4'>"
p5034
sS'H5'
p5035
S"<class 'gluon.html.H5'>"
p5036
sS'UL'
p5037
S"<class 'gluon.html.UL'>"
p5038
sS'IS_UPPER'
p5039
S"<class 'gluon.validators.IS_UPPER'>"
p5040
sS'xmlescape'
p5041
S'<function xmlescape>'
p5042
sS'IS_TIME'
p5043
S"<class 'gluon.validators.IS_TIME'>"
p5044
sS'MULTISELECT_OR_ADD_OPTION'
p5045
S"<class 'applications.topoi.modules.plugin_selectoradd.MULTISELECT_OR_ADD_OPTION'>"
p5046
sS'OPTION'
p5047
S"<class 'gluon.html.OPTION'>"
p5048
sS'TITLE'
p5049
S"<class 'gluon.html.TITLE'>"
p5050
sS'CRYPT'
p5051
S"<class 'gluon.validators.CRYPT'>"
p5052
sS'IS_EMPTY_OR'
p5053
S"<class 'gluon.validators.IS_EMPTY_OR'>"
p5054
sS'MARKMIN'
p5055
S"<class 'gluon.html.MARKMIN'>"
p5056
sS'AjaxSelect'
p5057
S'<class applications.topoi.modules.plugin_ajaxselect.AjaxSelect>'
p5058
sS'vmultiselect_widget'
p5059
S'<function vmultiselect_widget>'
p5060
sS'COL'
p5061
S"<class 'gluon.html.COL'>"
p5062
sS'service'
p5063
S'<gluon.tools.Service object>'
p5064
sS'SCRIPT'
p5065
S"<class 'gluon.html.SCRIPT'>"
p5066
sS'TABLE'
p5067
S"<class 'gluon.html.TABLE'>"
p5068
sS'IS_IPV4'
p5069
S"<class 'gluon.validators.IS_IPV4'>"
p5070
sS'IS_LENGTH'
p5071
S"<class 'gluon.validators.IS_LENGTH'>"
p5072
sS'XML'
p5073
S"<class 'gluon.html.XML'>"
p5074
sS'B'
S"<class 'gluon.html.B'>"
p5075
sS'IMG'
p5076
S"<class 'gluon.html.IMG'>"
p5077
sS'SQLTABLE'
p5078
S"<class 'gluon.sqlhtml.SQLTABLE'>"
p5079
sS'multi_add_option'
p5080
S'<applications.topoi.modules.plugin_selectoradd.MULTISELECT_OR_ADD_OPTION object>'
p5081
sS'IS_MATCH'
p5082
S"<class 'gluon.validators.IS_MATCH'>"
p5083
sS'IS_ALPHANUMERIC'
p5084
S"<class 'gluon.validators.IS_ALPHANUMERIC'>"
p5085
sS'SPAN'
p5086
S"<class 'gluon.html.SPAN'>"
p5087
sS'IS_SLUG'
p5088
S"<class 'gluon.validators.IS_SLUG'>"
p5089
sS'CLEANUP'
p5090
S"<class 'gluon.validators.CLEANUP'>"
p5091
sS'IS_DATE'
p5092
S"<class 'gluon.validators.IS_DATE'>"
p5093
sS'IS_EMAIL'
p5094
S"<class 'gluon.validators.IS_EMAIL'>"
p5095
sS'IS_NOT_EMPTY'
p5096
S"<class 'gluon.validators.IS_NOT_EMPTY'>"
p5097
sg55
S"<Storage {'body': <cStringIO.StringO object at 0..._vars': <Storage {}>, 'post_vars': <Storage {}>}>"
p5098
sS'BEAUTIFY'
p5099
S"<class 'gluon.html.BEAUTIFY'>"
p5100
sS'TBODY'
p5101
S"<class 'gluon.html.TBODY'>"
p5102
sS'CAT'
p5103
S"<class 'gluon.html.CAT'>"
p5104
sS'Field'
p5105
S"<class 'gluon.dal.Field'>"
p5106
sS'SelectOrAddOption'
p5107
S"<class 'applications.topoi.modules.plugin_selectoradd.SelectOrAddOption'>"
p5108
sS'Mail'
p5109
S"<class 'gluon.tools.Mail'>"
p5110
sS'DIV'
p5111
S"<class 'gluon.html.DIV'>"
p5112
sS'LEGEND'
p5113
S"<class 'gluon.html.LEGEND'>"
p5114
sS'COLGROUP'
p5115
S"<class 'gluon.html.COLGROUP'>"
p5116
sS'DAL'
p5117
S"<class 'gluon.dal.DAL'>"
p5118
sS'TT'
p5119
S"<class 'gluon.html.TT'>"
p5120
sS'TR'
p5121
S"<class 'gluon.html.TR'>"
p5122
sS'LI'
p5123
S"<class 'gluon.html.LI'>"
p5124
sS'IFRAME'
p5125
S"<class 'gluon.html.IFRAME'>"
p5126
sS'TD'
p5127
S"<class 'gluon.html.TD'>"
p5128
sS'PluginManager'
p5129
S"<class 'gluon.tools.PluginManager'>"
p5130
sS'IS_URL'
p5131
S"<class 'gluon.validators.IS_URL'>"
p5132
sS'A'
S"<class 'gluon.html.A'>"
p5133
sS'STYLE'
p5134
S"<class 'gluon.html.STYLE'>"
p5135
sS'IS_DATETIME_IN_RANGE'
p5136
S"<class 'gluon.validators.IS_DATETIME_IN_RANGE'>"
p5137
sS'FORM'
p5138
S"<class 'gluon.html.FORM'>"
p5139
sS'I'
S"<class 'gluon.html.I'>"
p5140
sS'crud'
p5141
S'<gluon.tools.Crud object>'
p5142
sS'IS_NOT_IN_DB'
p5143
S"<class 'gluon.validators.IS_NOT_IN_DB'>"
p5144
sg3398
S"<Storage {'body': <cStringIO.StringO object at 0...0>, 'view': 'plugin_ajaxselect/set_widget.load'}>"
p5145
sS'THEAD'
p5146
S"<class 'gluon.html.THEAD'>"
p5147
sS'IS_NULL_OR'
p5148
S"<class 'gluon.validators.IS_EMPTY_OR'>"
p5149
sS'IS_FLOAT_IN_RANGE'
p5150
S"<class 'gluon.validators.IS_FLOAT_IN_RANGE'>"
p5151
sS'IS_EXPR'
p5152
S"<class 'gluon.validators.IS_EXPR'>"
p5153
sS'T'
S'<gluon.languages.translator object>'
p5154
sS'IS_IN_SET'
p5155
S"<class 'gluon.validators.IS_IN_SET'>"
p5156
sS'add_option'
p5157
S'<applications.topoi.modules.plugin_selectoradd.SelectOrAddOption object>'
p5158
sS'IS_UPLOAD_FILENAME'
p5159
S"<class 'gluon.validators.IS_UPLOAD_FILENAME'>"
p5160
sS'IS_DECIMAL_IN_RANGE'
p5161
S"<class 'gluon.validators.IS_DECIMAL_IN_RANGE'>"
p5162
sssS'traceback'
p5163
S'Traceback (most recent call last):\n  File "/home/ian/web2py/gluon/restricted.py", line 194, in restricted\n    exec ccode in environment\n  File "/home/ian/web2py/applications/topoi/views/plugin_ajaxselect/set_widget.load", line 2, in <module>\nNameError: name \'button\' is not defined\n'
p5164
s.