(dp1
S'output'
p2
S''
sS'layer'
p3
S'/home/ian/web2py/applications/topoi/controllers/plugin_listandedit.py'
p4
sS'code'
p5
S"# coding: utf8\n# try something like\ndef list(): \n    response.files.append(URL('static', 'plugin_listandedit/plugin_listandedit.css'))\n    response.files.append(URL('static', 'plugin_listandedit/plugin_listandedit.js'))\n    #settings    \n    displayfield = ''\n    \n    tablename = request.args[0]\n    #FIXME: Hack here to solve problem of field name not being identical to table name\n    tablename = tablename + 's'\n    \n    fieldname = db[tablename].fields[1]    \n    print tablename\n        \n    rowlist = ''    \n    if not tablename in db.tables():\n        response.flash = 'error'\n    else:\n        tb = db[tablename]\n        rowlist = db(tb).select()\n    \n    listset = []\n    for r in rowlist:\n        i = A(r[fieldname], _href=URL('plugin_listandedit', 'edit.load', args=[tablename, r.id]), _class='plugin_listandedit_list', cid='viewpane')    \n        listset.append(i)\n                \n    return dict(listset = listset)\n\ndef edit():\n    tablename = request.args[0]\n    rowid = request.args[1]\n    form = crud.update(db[tablename], rowid)\n    \n    return dict(form = form)\n\nresponse._vars=response._caller(list)\n"
p6
sS'snapshot'
p7
(dp8
S'exception'
p9
(dp10
S'__hash__'
p11
S"<method-wrapper '__hash__' of exceptions.KeyError object>"
p12
sS'__setattr__'
p13
S"<method-wrapper '__setattr__' of exceptions.KeyError object>"
p14
sS'__reduce_ex__'
p15
S'<built-in method __reduce_ex__ of exceptions.KeyError object>'
p16
sS'__getslice__'
p17
S"<method-wrapper '__getslice__' of exceptions.KeyError object>"
p18
sS'__getitem__'
p19
S"<method-wrapper '__getitem__' of exceptions.KeyError object>"
p20
sS'__setstate__'
p21
S'<built-in method __setstate__ of exceptions.KeyError object>'
p22
sS'args'
p23
S"('statics',)"
p24
sS'__reduce__'
p25
S'<built-in method __reduce__ of exceptions.KeyError object>'
p26
sS'__str__'
p27
S"<method-wrapper '__str__' of exceptions.KeyError object>"
p28
sS'__format__'
p29
S'<built-in method __format__ of exceptions.KeyError object>'
p30
sS'__getattribute__'
p31
S"<method-wrapper '__getattribute__' of exceptions.KeyError object>"
p32
sS'__class__'
p33
S"<type 'exceptions.KeyError'>"
p34
sS'__unicode__'
p35
S'<built-in method __unicode__ of exceptions.KeyError object>'
p36
sS'__delattr__'
p37
S"<method-wrapper '__delattr__' of exceptions.KeyError object>"
p38
sS'__subclasshook__'
p39
S'<built-in method __subclasshook__ of type object>'
p40
sS'__repr__'
p41
S"<method-wrapper '__repr__' of exceptions.KeyError object>"
p42
sS'__dict__'
p43
S'{}'
p44
sS'__sizeof__'
p45
S'<built-in method __sizeof__ of exceptions.KeyError object>'
p46
sS'__doc__'
p47
S"'Mapping key not found.'"
p48
sS'__init__'
p49
S"<method-wrapper '__init__' of exceptions.KeyError object>"
p50
sS'__new__'
p51
S'<built-in method __new__ of type object>'
p52
ssS'evalue'
p53
S"'statics'"
p54
sS'request'
p55
ccopy_reg
_reconstructor
p56
(cgluon.html
BEAUTIFY
p57
c__builtin__
object
p58
NtRp59
(dp60
S'attributes'
p61
(dp62
sS'components'
p63
(lp64
g56
(cgluon.html
TABLE
p65
g58
NtRp66
(dp67
g61
(dp68
S'level'
p69
I5
ssS'parent'
p70
Nsg63
(lp71
g56
(cgluon.html
TR
p72
g58
NtRp73
(dp74
g61
(dp75
sg70
g66
sg63
(lp76
g56
(cgluon.html
TD
p77
g58
NtRp78
(dp79
g61
(dp80
S'_style'
p81
S'font-weight:bold;'
p82
ssg70
g73
sg63
(lp83
S'ajax'
p84
asbag56
(g77
g58
NtRp85
(dp86
g61
(dp87
S'_valign'
p88
S'top'
p89
ssg70
g73
sg63
(lp90
S':'
asbag56
(g77
g58
NtRp91
(dp92
g61
(dp93
sg70
g73
sg63
(lp94
g56
(g57
g58
NtRp95
(dp96
g61
(dp97
g69
I5
ssg70
g91
sg63
(lp98
S'False'
p99
asbasbasbag56
(g72
g58
NtRp100
(dp101
g61
(dp102
sg70
g66
sg63
(lp103
g56
(g77
g58
NtRp104
(dp105
g61
(dp106
g81
g82
ssg70
g100
sg63
(lp107
S'application'
p108
asbag56
(g77
g58
NtRp109
(dp110
g61
(dp111
g88
g89
ssg70
g100
sg63
(lp112
S':'
asbag56
(g77
g58
NtRp113
(dp114
g61
(dp115
sg70
g100
sg63
(lp116
g56
(g57
g58
NtRp117
(dp118
g61
(dp119
g69
I5
ssg70
g113
sg63
(lp120
S'topoi'
p121
asbasbasbag56
(g72
g58
NtRp122
(dp123
g61
(dp124
sg70
g66
sg63
(lp125
g56
(g77
g58
NtRp126
(dp127
g61
(dp128
g81
g82
ssg70
g122
sg63
(lp129
g23
asbag56
(g77
g58
NtRp130
(dp131
g61
(dp132
g88
g89
ssg70
g122
sg63
(lp133
S':'
asbag56
(g77
g58
NtRp134
(dp135
g61
(dp136
sg70
g122
sg63
(lp137
g56
(g57
g58
NtRp138
(dp139
g61
(dp140
g69
I5
ssg70
g134
sg63
(lp141
g56
(g65
g58
NtRp142
(dp143
g61
(dp144
g69
I4
ssg70
Nsg63
(lp145
g56
(g72
g58
NtRp146
(dp147
g61
(dp148
sg70
g142
sg63
(lp149
g56
(g77
g58
NtRp150
(dp151
g61
(dp152
sg70
g146
sg63
(lp153
g56
(g57
g58
NtRp154
(dp155
g61
(dp156
g69
I4
ssg70
g150
sg63
(lp157
S'static'
p158
asbasbasbag56
(g72
g58
NtRp159
(dp160
g61
(dp161
sg70
g142
sg63
(lp162
g56
(g77
g58
NtRp163
(dp164
g61
(dp165
sg70
g159
sg63
(lp166
g56
(g57
g58
NtRp167
(dp168
g61
(dp169
g69
I4
ssg70
g163
sg63
(lp170
S'plugin_framework'
p171
asbasbasbag56
(g72
g58
NtRp172
(dp173
g61
(dp174
sg70
g142
sg63
(lp175
g56
(g77
g58
NtRp176
(dp177
g61
(dp178
sg70
g172
sg63
(lp179
g56
(g57
g58
NtRp180
(dp181
g61
(dp182
g69
I4
ssg70
g176
sg63
(lp183
S'static'
p184
asbasbasbag56
(g72
g58
NtRp185
(dp186
g61
(dp187
sg70
g142
sg63
(lp188
g56
(g77
g58
NtRp189
(dp190
g61
(dp191
sg70
g185
sg63
(lp192
g56
(g57
g58
NtRp193
(dp194
g61
(dp195
g69
I4
ssg70
g189
sg63
(lp196
S'plugin_framework'
p197
asbasbasbag56
(g72
g58
NtRp198
(dp199
g61
(dp200
sg70
g142
sg63
(lp201
g56
(g77
g58
NtRp202
(dp203
g61
(dp204
sg70
g198
sg63
(lp205
g56
(g57
g58
NtRp206
(dp207
g61
(dp208
g69
I4
ssg70
g202
sg63
(lp209
S'fonts'
p210
asbasbasbag56
(g72
g58
NtRp211
(dp212
g61
(dp213
sg70
g142
sg63
(lp214
g56
(g77
g58
NtRp215
(dp216
g61
(dp217
sg70
g211
sg63
(lp218
g56
(g57
g58
NtRp219
(dp220
g61
(dp221
g69
I4
ssg70
g215
sg63
(lp222
S'websymbols-regular-webfont.ttf'
p223
asbasbasbasbasbasbasbag56
(g72
g58
NtRp224
(dp225
g61
(dp226
sg70
g66
sg63
(lp227
g56
(g77
g58
NtRp228
(dp229
g61
(dp230
g81
g82
ssg70
g224
sg63
(lp231
S'body'
p232
asbag56
(g77
g58
NtRp233
(dp234
g61
(dp235
g88
g89
ssg70
g224
sg63
(lp236
S':'
asbag56
(g77
g58
NtRp237
(dp238
g61
(dp239
sg70
g224
sg63
(lp240
g56
(g57
g58
NtRp241
(dp242
g61
(dp243
g69
I5
ssg70
g237
sg63
(lp244
S'<cStringIO.StringO object at 0x2b6dd88>'
p245
asbasbasbag56
(g72
g58
NtRp246
(dp247
g61
(dp248
sg70
g66
sg63
(lp249
g56
(g77
g58
NtRp250
(dp251
g61
(dp252
g81
g82
ssg70
g246
sg63
(lp253
S'client'
p254
asbag56
(g77
g58
NtRp255
(dp256
g61
(dp257
g88
g89
ssg70
g246
sg63
(lp258
S':'
asbag56
(g77
g58
NtRp259
(dp260
g61
(dp261
sg70
g246
sg63
(lp262
g56
(g57
g58
NtRp263
(dp264
g61
(dp265
g69
I5
ssg70
g259
sg63
(lp266
S'127.0.0.1'
p267
asbasbasbag56
(g72
g58
NtRp268
(dp269
g61
(dp270
sg70
g66
sg63
(lp271
g56
(g77
g58
NtRp272
(dp273
g61
(dp274
g81
g82
ssg70
g268
sg63
(lp275
S'controller'
p276
asbag56
(g77
g58
NtRp277
(dp278
g61
(dp279
g88
g89
ssg70
g268
sg63
(lp280
S':'
asbag56
(g77
g58
NtRp281
(dp282
g61
(dp283
sg70
g268
sg63
(lp284
g56
(g57
g58
NtRp285
(dp286
g61
(dp287
g69
I5
ssg70
g281
sg63
(lp288
S'plugin_listandedit'
p289
asbasbasbag56
(g72
g58
NtRp290
(dp291
g61
(dp292
sg70
g66
sg63
(lp293
g56
(g77
g58
NtRp294
(dp295
g61
(dp296
g81
g82
ssg70
g290
sg63
(lp297
S'cookies'
p298
asbag56
(g77
g58
NtRp299
(dp300
g61
(dp301
g88
g89
ssg70
g290
sg63
(lp302
S':'
asbag56
(g77
g58
NtRp303
(dp304
g61
(dp305
sg70
g290
sg63
(lp306
g56
(g57
g58
NtRp307
(dp308
g61
(dp309
g69
I5
ssg70
g303
sg63
(lp310
g56
(g65
g58
NtRp311
(dp312
g61
(dp313
g69
I4
ssg70
Nsg63
(lp314
g56
(g72
g58
NtRp315
(dp316
g61
(dp317
sg70
g311
sg63
(lp318
g56
(g77
g58
NtRp319
(dp320
g61
(dp321
g81
g82
ssg70
g315
sg63
(lp322
S'session_id_admin'
p323
asbag56
(g77
g58
NtRp324
(dp325
g61
(dp326
g88
g89
ssg70
g315
sg63
(lp327
S':'
asbag56
(g77
g58
NtRp328
(dp329
g61
(dp330
sg70
g315
sg63
(lp331
g56
(g57
g58
NtRp332
(dp333
g61
(dp334
g69
I4
ssg70
g328
sg63
(lp335
g56
(g65
g58
NtRp336
(dp337
g61
(dp338
g69
I3
ssg70
Nsg63
(lp339
g56
(g72
g58
NtRp340
(dp341
g61
(dp342
sg70
g336
sg63
(lp343
g56
(g77
g58
NtRp344
(dp345
g61
(dp346
g81
g82
ssg70
g340
sg63
(lp347
S'comment'
p348
asbag56
(g77
g58
NtRp349
(dp350
g61
(dp351
g88
g89
ssg70
g340
sg63
(lp352
S':'
asbag56
(g77
g58
NtRp353
(dp354
g61
(dp355
sg70
g340
sg63
(lp356
g56
(g57
g58
NtRp357
(dp358
g61
(dp359
g69
I3
ssg70
g353
sg63
(lp360
S''
asbasbasbag56
(g72
g58
NtRp361
(dp362
g61
(dp363
sg70
g336
sg63
(lp364
g56
(g77
g58
NtRp365
(dp366
g61
(dp367
g81
g82
ssg70
g361
sg63
(lp368
S'domain'
p369
asbag56
(g77
g58
NtRp370
(dp371
g61
(dp372
g88
g89
ssg70
g361
sg63
(lp373
S':'
asbag56
(g77
g58
NtRp374
(dp375
g61
(dp376
sg70
g361
sg63
(lp377
g56
(g57
g58
NtRp378
(dp379
g61
(dp380
g69
I3
ssg70
g374
sg63
(lp381
S''
asbasbasbag56
(g72
g58
NtRp382
(dp383
g61
(dp384
sg70
g336
sg63
(lp385
g56
(g77
g58
NtRp386
(dp387
g61
(dp388
g81
g82
ssg70
g382
sg63
(lp389
S'expires'
p390
asbag56
(g77
g58
NtRp391
(dp392
g61
(dp393
g88
g89
ssg70
g382
sg63
(lp394
S':'
asbag56
(g77
g58
NtRp395
(dp396
g61
(dp397
sg70
g382
sg63
(lp398
g56
(g57
g58
NtRp399
(dp400
g61
(dp401
g69
I3
ssg70
g395
sg63
(lp402
S''
asbasbasbag56
(g72
g58
NtRp403
(dp404
g61
(dp405
sg70
g336
sg63
(lp406
g56
(g77
g58
NtRp407
(dp408
g61
(dp409
g81
g82
ssg70
g403
sg63
(lp410
S'httponly'
p411
asbag56
(g77
g58
NtRp412
(dp413
g61
(dp414
g88
g89
ssg70
g403
sg63
(lp415
S':'
asbag56
(g77
g58
NtRp416
(dp417
g61
(dp418
sg70
g403
sg63
(lp419
g56
(g57
g58
NtRp420
(dp421
g61
(dp422
g69
I3
ssg70
g416
sg63
(lp423
S''
asbasbasbag56
(g72
g58
NtRp424
(dp425
g61
(dp426
sg70
g336
sg63
(lp427
g56
(g77
g58
NtRp428
(dp429
g61
(dp430
g81
g82
ssg70
g424
sg63
(lp431
S'max-age'
p432
asbag56
(g77
g58
NtRp433
(dp434
g61
(dp435
g88
g89
ssg70
g424
sg63
(lp436
S':'
asbag56
(g77
g58
NtRp437
(dp438
g61
(dp439
sg70
g424
sg63
(lp440
g56
(g57
g58
NtRp441
(dp442
g61
(dp443
g69
I3
ssg70
g437
sg63
(lp444
S''
asbasbasbag56
(g72
g58
NtRp445
(dp446
g61
(dp447
sg70
g336
sg63
(lp448
g56
(g77
g58
NtRp449
(dp450
g61
(dp451
g81
g82
ssg70
g445
sg63
(lp452
S'path'
p453
asbag56
(g77
g58
NtRp454
(dp455
g61
(dp456
g88
g89
ssg70
g445
sg63
(lp457
S':'
asbag56
(g77
g58
NtRp458
(dp459
g61
(dp460
sg70
g445
sg63
(lp461
g56
(g57
g58
NtRp462
(dp463
g61
(dp464
g69
I3
ssg70
g458
sg63
(lp465
S''
asbasbasbag56
(g72
g58
NtRp466
(dp467
g61
(dp468
sg70
g336
sg63
(lp469
g56
(g77
g58
NtRp470
(dp471
g61
(dp472
g81
g82
ssg70
g466
sg63
(lp473
S'secure'
p474
asbag56
(g77
g58
NtRp475
(dp476
g61
(dp477
g88
g89
ssg70
g466
sg63
(lp478
S':'
asbag56
(g77
g58
NtRp479
(dp480
g61
(dp481
sg70
g466
sg63
(lp482
g56
(g57
g58
NtRp483
(dp484
g61
(dp485
g69
I3
ssg70
g479
sg63
(lp486
S''
asbasbasbag56
(g72
g58
NtRp487
(dp488
g61
(dp489
sg70
g336
sg63
(lp490
g56
(g77
g58
NtRp491
(dp492
g61
(dp493
g81
g82
ssg70
g487
sg63
(lp494
S'version'
p495
asbag56
(g77
g58
NtRp496
(dp497
g61
(dp498
g88
g89
ssg70
g487
sg63
(lp499
S':'
asbag56
(g77
g58
NtRp500
(dp501
g61
(dp502
sg70
g487
sg63
(lp503
g56
(g57
g58
NtRp504
(dp505
g61
(dp506
g69
I3
ssg70
g500
sg63
(lp507
S''
asbasbasbasbasbasbasbag56
(g72
g58
NtRp508
(dp509
g61
(dp510
sg70
g311
sg63
(lp511
g56
(g77
g58
NtRp512
(dp513
g61
(dp514
g81
g82
ssg70
g508
sg63
(lp515
S'session_id_peergrades'
p516
asbag56
(g77
g58
NtRp517
(dp518
g61
(dp519
g88
g89
ssg70
g508
sg63
(lp520
S':'
asbag56
(g77
g58
NtRp521
(dp522
g61
(dp523
sg70
g508
sg63
(lp524
g56
(g57
g58
NtRp525
(dp526
g61
(dp527
g69
I4
ssg70
g521
sg63
(lp528
g56
(g65
g58
NtRp529
(dp530
g61
(dp531
g69
I3
ssg70
Nsg63
(lp532
g56
(g72
g58
NtRp533
(dp534
g61
(dp535
sg70
g529
sg63
(lp536
g56
(g77
g58
NtRp537
(dp538
g61
(dp539
g81
g82
ssg70
g533
sg63
(lp540
g348
asbag56
(g77
g58
NtRp541
(dp542
g61
(dp543
g88
g89
ssg70
g533
sg63
(lp544
S':'
asbag56
(g77
g58
NtRp545
(dp546
g61
(dp547
sg70
g533
sg63
(lp548
g56
(g57
g58
NtRp549
(dp550
g61
(dp551
g69
I3
ssg70
g545
sg63
(lp552
S''
asbasbasbag56
(g72
g58
NtRp553
(dp554
g61
(dp555
sg70
g529
sg63
(lp556
g56
(g77
g58
NtRp557
(dp558
g61
(dp559
g81
g82
ssg70
g553
sg63
(lp560
g369
asbag56
(g77
g58
NtRp561
(dp562
g61
(dp563
g88
g89
ssg70
g553
sg63
(lp564
S':'
asbag56
(g77
g58
NtRp565
(dp566
g61
(dp567
sg70
g553
sg63
(lp568
g56
(g57
g58
NtRp569
(dp570
g61
(dp571
g69
I3
ssg70
g565
sg63
(lp572
S''
asbasbasbag56
(g72
g58
NtRp573
(dp574
g61
(dp575
sg70
g529
sg63
(lp576
g56
(g77
g58
NtRp577
(dp578
g61
(dp579
g81
g82
ssg70
g573
sg63
(lp580
g390
asbag56
(g77
g58
NtRp581
(dp582
g61
(dp583
g88
g89
ssg70
g573
sg63
(lp584
S':'
asbag56
(g77
g58
NtRp585
(dp586
g61
(dp587
sg70
g573
sg63
(lp588
g56
(g57
g58
NtRp589
(dp590
g61
(dp591
g69
I3
ssg70
g585
sg63
(lp592
S''
asbasbasbag56
(g72
g58
NtRp593
(dp594
g61
(dp595
sg70
g529
sg63
(lp596
g56
(g77
g58
NtRp597
(dp598
g61
(dp599
g81
g82
ssg70
g593
sg63
(lp600
g411
asbag56
(g77
g58
NtRp601
(dp602
g61
(dp603
g88
g89
ssg70
g593
sg63
(lp604
S':'
asbag56
(g77
g58
NtRp605
(dp606
g61
(dp607
sg70
g593
sg63
(lp608
g56
(g57
g58
NtRp609
(dp610
g61
(dp611
g69
I3
ssg70
g605
sg63
(lp612
S''
asbasbasbag56
(g72
g58
NtRp613
(dp614
g61
(dp615
sg70
g529
sg63
(lp616
g56
(g77
g58
NtRp617
(dp618
g61
(dp619
g81
g82
ssg70
g613
sg63
(lp620
g432
asbag56
(g77
g58
NtRp621
(dp622
g61
(dp623
g88
g89
ssg70
g613
sg63
(lp624
S':'
asbag56
(g77
g58
NtRp625
(dp626
g61
(dp627
sg70
g613
sg63
(lp628
g56
(g57
g58
NtRp629
(dp630
g61
(dp631
g69
I3
ssg70
g625
sg63
(lp632
S''
asbasbasbag56
(g72
g58
NtRp633
(dp634
g61
(dp635
sg70
g529
sg63
(lp636
g56
(g77
g58
NtRp637
(dp638
g61
(dp639
g81
g82
ssg70
g633
sg63
(lp640
g453
asbag56
(g77
g58
NtRp641
(dp642
g61
(dp643
g88
g89
ssg70
g633
sg63
(lp644
S':'
asbag56
(g77
g58
NtRp645
(dp646
g61
(dp647
sg70
g633
sg63
(lp648
g56
(g57
g58
NtRp649
(dp650
g61
(dp651
g69
I3
ssg70
g645
sg63
(lp652
S''
asbasbasbag56
(g72
g58
NtRp653
(dp654
g61
(dp655
sg70
g529
sg63
(lp656
g56
(g77
g58
NtRp657
(dp658
g61
(dp659
g81
g82
ssg70
g653
sg63
(lp660
g474
asbag56
(g77
g58
NtRp661
(dp662
g61
(dp663
g88
g89
ssg70
g653
sg63
(lp664
S':'
asbag56
(g77
g58
NtRp665
(dp666
g61
(dp667
sg70
g653
sg63
(lp668
g56
(g57
g58
NtRp669
(dp670
g61
(dp671
g69
I3
ssg70
g665
sg63
(lp672
S''
asbasbasbag56
(g72
g58
NtRp673
(dp674
g61
(dp675
sg70
g529
sg63
(lp676
g56
(g77
g58
NtRp677
(dp678
g61
(dp679
g81
g82
ssg70
g673
sg63
(lp680
g495
asbag56
(g77
g58
NtRp681
(dp682
g61
(dp683
g88
g89
ssg70
g673
sg63
(lp684
S':'
asbag56
(g77
g58
NtRp685
(dp686
g61
(dp687
sg70
g673
sg63
(lp688
g56
(g57
g58
NtRp689
(dp690
g61
(dp691
g69
I3
ssg70
g685
sg63
(lp692
S''
asbasbasbasbasbasbasbag56
(g72
g58
NtRp693
(dp694
g61
(dp695
sg70
g311
sg63
(lp696
g56
(g77
g58
NtRp697
(dp698
g61
(dp699
g81
g82
ssg70
g693
sg63
(lp700
S'session_id_places'
p701
asbag56
(g77
g58
NtRp702
(dp703
g61
(dp704
g88
g89
ssg70
g693
sg63
(lp705
S':'
asbag56
(g77
g58
NtRp706
(dp707
g61
(dp708
sg70
g693
sg63
(lp709
g56
(g57
g58
NtRp710
(dp711
g61
(dp712
g69
I4
ssg70
g706
sg63
(lp713
g56
(g65
g58
NtRp714
(dp715
g61
(dp716
g69
I3
ssg70
Nsg63
(lp717
g56
(g72
g58
NtRp718
(dp719
g61
(dp720
sg70
g714
sg63
(lp721
g56
(g77
g58
NtRp722
(dp723
g61
(dp724
g81
g82
ssg70
g718
sg63
(lp725
g348
asbag56
(g77
g58
NtRp726
(dp727
g61
(dp728
g88
g89
ssg70
g718
sg63
(lp729
S':'
asbag56
(g77
g58
NtRp730
(dp731
g61
(dp732
sg70
g718
sg63
(lp733
g56
(g57
g58
NtRp734
(dp735
g61
(dp736
g69
I3
ssg70
g730
sg63
(lp737
S''
asbasbasbag56
(g72
g58
NtRp738
(dp739
g61
(dp740
sg70
g714
sg63
(lp741
g56
(g77
g58
NtRp742
(dp743
g61
(dp744
g81
g82
ssg70
g738
sg63
(lp745
g369
asbag56
(g77
g58
NtRp746
(dp747
g61
(dp748
g88
g89
ssg70
g738
sg63
(lp749
S':'
asbag56
(g77
g58
NtRp750
(dp751
g61
(dp752
sg70
g738
sg63
(lp753
g56
(g57
g58
NtRp754
(dp755
g61
(dp756
g69
I3
ssg70
g750
sg63
(lp757
S''
asbasbasbag56
(g72
g58
NtRp758
(dp759
g61
(dp760
sg70
g714
sg63
(lp761
g56
(g77
g58
NtRp762
(dp763
g61
(dp764
g81
g82
ssg70
g758
sg63
(lp765
g390
asbag56
(g77
g58
NtRp766
(dp767
g61
(dp768
g88
g89
ssg70
g758
sg63
(lp769
S':'
asbag56
(g77
g58
NtRp770
(dp771
g61
(dp772
sg70
g758
sg63
(lp773
g56
(g57
g58
NtRp774
(dp775
g61
(dp776
g69
I3
ssg70
g770
sg63
(lp777
S''
asbasbasbag56
(g72
g58
NtRp778
(dp779
g61
(dp780
sg70
g714
sg63
(lp781
g56
(g77
g58
NtRp782
(dp783
g61
(dp784
g81
g82
ssg70
g778
sg63
(lp785
g411
asbag56
(g77
g58
NtRp786
(dp787
g61
(dp788
g88
g89
ssg70
g778
sg63
(lp789
S':'
asbag56
(g77
g58
NtRp790
(dp791
g61
(dp792
sg70
g778
sg63
(lp793
g56
(g57
g58
NtRp794
(dp795
g61
(dp796
g69
I3
ssg70
g790
sg63
(lp797
S''
asbasbasbag56
(g72
g58
NtRp798
(dp799
g61
(dp800
sg70
g714
sg63
(lp801
g56
(g77
g58
NtRp802
(dp803
g61
(dp804
g81
g82
ssg70
g798
sg63
(lp805
g432
asbag56
(g77
g58
NtRp806
(dp807
g61
(dp808
g88
g89
ssg70
g798
sg63
(lp809
S':'
asbag56
(g77
g58
NtRp810
(dp811
g61
(dp812
sg70
g798
sg63
(lp813
g56
(g57
g58
NtRp814
(dp815
g61
(dp816
g69
I3
ssg70
g810
sg63
(lp817
S''
asbasbasbag56
(g72
g58
NtRp818
(dp819
g61
(dp820
sg70
g714
sg63
(lp821
g56
(g77
g58
NtRp822
(dp823
g61
(dp824
g81
g82
ssg70
g818
sg63
(lp825
g453
asbag56
(g77
g58
NtRp826
(dp827
g61
(dp828
g88
g89
ssg70
g818
sg63
(lp829
S':'
asbag56
(g77
g58
NtRp830
(dp831
g61
(dp832
sg70
g818
sg63
(lp833
g56
(g57
g58
NtRp834
(dp835
g61
(dp836
g69
I3
ssg70
g830
sg63
(lp837
S''
asbasbasbag56
(g72
g58
NtRp838
(dp839
g61
(dp840
sg70
g714
sg63
(lp841
g56
(g77
g58
NtRp842
(dp843
g61
(dp844
g81
g82
ssg70
g838
sg63
(lp845
g474
asbag56
(g77
g58
NtRp846
(dp847
g61
(dp848
g88
g89
ssg70
g838
sg63
(lp849
S':'
asbag56
(g77
g58
NtRp850
(dp851
g61
(dp852
sg70
g838
sg63
(lp853
g56
(g57
g58
NtRp854
(dp855
g61
(dp856
g69
I3
ssg70
g850
sg63
(lp857
S''
asbasbasbag56
(g72
g58
NtRp858
(dp859
g61
(dp860
sg70
g714
sg63
(lp861
g56
(g77
g58
NtRp862
(dp863
g61
(dp864
g81
g82
ssg70
g858
sg63
(lp865
g495
asbag56
(g77
g58
NtRp866
(dp867
g61
(dp868
g88
g89
ssg70
g858
sg63
(lp869
S':'
asbag56
(g77
g58
NtRp870
(dp871
g61
(dp872
sg70
g858
sg63
(lp873
g56
(g57
g58
NtRp874
(dp875
g61
(dp876
g69
I3
ssg70
g870
sg63
(lp877
S''
asbasbasbasbasbasbasbag56
(g72
g58
NtRp878
(dp879
g61
(dp880
sg70
g311
sg63
(lp881
g56
(g77
g58
NtRp882
(dp883
g61
(dp884
g81
g82
ssg70
g878
sg63
(lp885
S'session_id_topoi'
p886
asbag56
(g77
g58
NtRp887
(dp888
g61
(dp889
g88
g89
ssg70
g878
sg63
(lp890
S':'
asbag56
(g77
g58
NtRp891
(dp892
g61
(dp893
sg70
g878
sg63
(lp894
g56
(g57
g58
NtRp895
(dp896
g61
(dp897
g69
I4
ssg70
g891
sg63
(lp898
g56
(g65
g58
NtRp899
(dp900
g61
(dp901
g69
I3
ssg70
Nsg63
(lp902
g56
(g72
g58
NtRp903
(dp904
g61
(dp905
sg70
g899
sg63
(lp906
g56
(g77
g58
NtRp907
(dp908
g61
(dp909
g81
g82
ssg70
g903
sg63
(lp910
g348
asbag56
(g77
g58
NtRp911
(dp912
g61
(dp913
g88
g89
ssg70
g903
sg63
(lp914
S':'
asbag56
(g77
g58
NtRp915
(dp916
g61
(dp917
sg70
g903
sg63
(lp918
g56
(g57
g58
NtRp919
(dp920
g61
(dp921
g69
I3
ssg70
g915
sg63
(lp922
S''
asbasbasbag56
(g72
g58
NtRp923
(dp924
g61
(dp925
sg70
g899
sg63
(lp926
g56
(g77
g58
NtRp927
(dp928
g61
(dp929
g81
g82
ssg70
g923
sg63
(lp930
g369
asbag56
(g77
g58
NtRp931
(dp932
g61
(dp933
g88
g89
ssg70
g923
sg63
(lp934
S':'
asbag56
(g77
g58
NtRp935
(dp936
g61
(dp937
sg70
g923
sg63
(lp938
g56
(g57
g58
NtRp939
(dp940
g61
(dp941
g69
I3
ssg70
g935
sg63
(lp942
S''
asbasbasbag56
(g72
g58
NtRp943
(dp944
g61
(dp945
sg70
g899
sg63
(lp946
g56
(g77
g58
NtRp947
(dp948
g61
(dp949
g81
g82
ssg70
g943
sg63
(lp950
g390
asbag56
(g77
g58
NtRp951
(dp952
g61
(dp953
g88
g89
ssg70
g943
sg63
(lp954
S':'
asbag56
(g77
g58
NtRp955
(dp956
g61
(dp957
sg70
g943
sg63
(lp958
g56
(g57
g58
NtRp959
(dp960
g61
(dp961
g69
I3
ssg70
g955
sg63
(lp962
S''
asbasbasbag56
(g72
g58
NtRp963
(dp964
g61
(dp965
sg70
g899
sg63
(lp966
g56
(g77
g58
NtRp967
(dp968
g61
(dp969
g81
g82
ssg70
g963
sg63
(lp970
g411
asbag56
(g77
g58
NtRp971
(dp972
g61
(dp973
g88
g89
ssg70
g963
sg63
(lp974
S':'
asbag56
(g77
g58
NtRp975
(dp976
g61
(dp977
sg70
g963
sg63
(lp978
g56
(g57
g58
NtRp979
(dp980
g61
(dp981
g69
I3
ssg70
g975
sg63
(lp982
S''
asbasbasbag56
(g72
g58
NtRp983
(dp984
g61
(dp985
sg70
g899
sg63
(lp986
g56
(g77
g58
NtRp987
(dp988
g61
(dp989
g81
g82
ssg70
g983
sg63
(lp990
g432
asbag56
(g77
g58
NtRp991
(dp992
g61
(dp993
g88
g89
ssg70
g983
sg63
(lp994
S':'
asbag56
(g77
g58
NtRp995
(dp996
g61
(dp997
sg70
g983
sg63
(lp998
g56
(g57
g58
NtRp999
(dp1000
g61
(dp1001
g69
I3
ssg70
g995
sg63
(lp1002
S''
asbasbasbag56
(g72
g58
NtRp1003
(dp1004
g61
(dp1005
sg70
g899
sg63
(lp1006
g56
(g77
g58
NtRp1007
(dp1008
g61
(dp1009
g81
g82
ssg70
g1003
sg63
(lp1010
g453
asbag56
(g77
g58
NtRp1011
(dp1012
g61
(dp1013
g88
g89
ssg70
g1003
sg63
(lp1014
S':'
asbag56
(g77
g58
NtRp1015
(dp1016
g61
(dp1017
sg70
g1003
sg63
(lp1018
g56
(g57
g58
NtRp1019
(dp1020
g61
(dp1021
g69
I3
ssg70
g1015
sg63
(lp1022
S''
asbasbasbag56
(g72
g58
NtRp1023
(dp1024
g61
(dp1025
sg70
g899
sg63
(lp1026
g56
(g77
g58
NtRp1027
(dp1028
g61
(dp1029
g81
g82
ssg70
g1023
sg63
(lp1030
g474
asbag56
(g77
g58
NtRp1031
(dp1032
g61
(dp1033
g88
g89
ssg70
g1023
sg63
(lp1034
S':'
asbag56
(g77
g58
NtRp1035
(dp1036
g61
(dp1037
sg70
g1023
sg63
(lp1038
g56
(g57
g58
NtRp1039
(dp1040
g61
(dp1041
g69
I3
ssg70
g1035
sg63
(lp1042
S''
asbasbasbag56
(g72
g58
NtRp1043
(dp1044
g61
(dp1045
sg70
g899
sg63
(lp1046
g56
(g77
g58
NtRp1047
(dp1048
g61
(dp1049
g81
g82
ssg70
g1043
sg63
(lp1050
g495
asbag56
(g77
g58
NtRp1051
(dp1052
g61
(dp1053
g88
g89
ssg70
g1043
sg63
(lp1054
S':'
asbag56
(g77
g58
NtRp1055
(dp1056
g61
(dp1057
sg70
g1043
sg63
(lp1058
g56
(g57
g58
NtRp1059
(dp1060
g61
(dp1061
g69
I3
ssg70
g1055
sg63
(lp1062
S''
asbasbasbasbasbasbasbag56
(g72
g58
NtRp1063
(dp1064
g61
(dp1065
sg70
g311
sg63
(lp1066
g56
(g77
g58
NtRp1067
(dp1068
g61
(dp1069
g81
g82
ssg70
g1063
sg63
(lp1070
S'session_id_welcome'
p1071
asbag56
(g77
g58
NtRp1072
(dp1073
g61
(dp1074
g88
g89
ssg70
g1063
sg63
(lp1075
S':'
asbag56
(g77
g58
NtRp1076
(dp1077
g61
(dp1078
sg70
g1063
sg63
(lp1079
g56
(g57
g58
NtRp1080
(dp1081
g61
(dp1082
g69
I4
ssg70
g1076
sg63
(lp1083
g56
(g65
g58
NtRp1084
(dp1085
g61
(dp1086
g69
I3
ssg70
Nsg63
(lp1087
g56
(g72
g58
NtRp1088
(dp1089
g61
(dp1090
sg70
g1084
sg63
(lp1091
g56
(g77
g58
NtRp1092
(dp1093
g61
(dp1094
g81
g82
ssg70
g1088
sg63
(lp1095
g348
asbag56
(g77
g58
NtRp1096
(dp1097
g61
(dp1098
g88
g89
ssg70
g1088
sg63
(lp1099
S':'
asbag56
(g77
g58
NtRp1100
(dp1101
g61
(dp1102
sg70
g1088
sg63
(lp1103
g56
(g57
g58
NtRp1104
(dp1105
g61
(dp1106
g69
I3
ssg70
g1100
sg63
(lp1107
S''
asbasbasbag56
(g72
g58
NtRp1108
(dp1109
g61
(dp1110
sg70
g1084
sg63
(lp1111
g56
(g77
g58
NtRp1112
(dp1113
g61
(dp1114
g81
g82
ssg70
g1108
sg63
(lp1115
g369
asbag56
(g77
g58
NtRp1116
(dp1117
g61
(dp1118
g88
g89
ssg70
g1108
sg63
(lp1119
S':'
asbag56
(g77
g58
NtRp1120
(dp1121
g61
(dp1122
sg70
g1108
sg63
(lp1123
g56
(g57
g58
NtRp1124
(dp1125
g61
(dp1126
g69
I3
ssg70
g1120
sg63
(lp1127
S''
asbasbasbag56
(g72
g58
NtRp1128
(dp1129
g61
(dp1130
sg70
g1084
sg63
(lp1131
g56
(g77
g58
NtRp1132
(dp1133
g61
(dp1134
g81
g82
ssg70
g1128
sg63
(lp1135
g390
asbag56
(g77
g58
NtRp1136
(dp1137
g61
(dp1138
g88
g89
ssg70
g1128
sg63
(lp1139
S':'
asbag56
(g77
g58
NtRp1140
(dp1141
g61
(dp1142
sg70
g1128
sg63
(lp1143
g56
(g57
g58
NtRp1144
(dp1145
g61
(dp1146
g69
I3
ssg70
g1140
sg63
(lp1147
S''
asbasbasbag56
(g72
g58
NtRp1148
(dp1149
g61
(dp1150
sg70
g1084
sg63
(lp1151
g56
(g77
g58
NtRp1152
(dp1153
g61
(dp1154
g81
g82
ssg70
g1148
sg63
(lp1155
g411
asbag56
(g77
g58
NtRp1156
(dp1157
g61
(dp1158
g88
g89
ssg70
g1148
sg63
(lp1159
S':'
asbag56
(g77
g58
NtRp1160
(dp1161
g61
(dp1162
sg70
g1148
sg63
(lp1163
g56
(g57
g58
NtRp1164
(dp1165
g61
(dp1166
g69
I3
ssg70
g1160
sg63
(lp1167
S''
asbasbasbag56
(g72
g58
NtRp1168
(dp1169
g61
(dp1170
sg70
g1084
sg63
(lp1171
g56
(g77
g58
NtRp1172
(dp1173
g61
(dp1174
g81
g82
ssg70
g1168
sg63
(lp1175
g432
asbag56
(g77
g58
NtRp1176
(dp1177
g61
(dp1178
g88
g89
ssg70
g1168
sg63
(lp1179
S':'
asbag56
(g77
g58
NtRp1180
(dp1181
g61
(dp1182
sg70
g1168
sg63
(lp1183
g56
(g57
g58
NtRp1184
(dp1185
g61
(dp1186
g69
I3
ssg70
g1180
sg63
(lp1187
S''
asbasbasbag56
(g72
g58
NtRp1188
(dp1189
g61
(dp1190
sg70
g1084
sg63
(lp1191
g56
(g77
g58
NtRp1192
(dp1193
g61
(dp1194
g81
g82
ssg70
g1188
sg63
(lp1195
g453
asbag56
(g77
g58
NtRp1196
(dp1197
g61
(dp1198
g88
g89
ssg70
g1188
sg63
(lp1199
S':'
asbag56
(g77
g58
NtRp1200
(dp1201
g61
(dp1202
sg70
g1188
sg63
(lp1203
g56
(g57
g58
NtRp1204
(dp1205
g61
(dp1206
g69
I3
ssg70
g1200
sg63
(lp1207
S''
asbasbasbag56
(g72
g58
NtRp1208
(dp1209
g61
(dp1210
sg70
g1084
sg63
(lp1211
g56
(g77
g58
NtRp1212
(dp1213
g61
(dp1214
g81
g82
ssg70
g1208
sg63
(lp1215
g474
asbag56
(g77
g58
NtRp1216
(dp1217
g61
(dp1218
g88
g89
ssg70
g1208
sg63
(lp1219
S':'
asbag56
(g77
g58
NtRp1220
(dp1221
g61
(dp1222
sg70
g1208
sg63
(lp1223
g56
(g57
g58
NtRp1224
(dp1225
g61
(dp1226
g69
I3
ssg70
g1220
sg63
(lp1227
S''
asbasbasbag56
(g72
g58
NtRp1228
(dp1229
g61
(dp1230
sg70
g1084
sg63
(lp1231
g56
(g77
g58
NtRp1232
(dp1233
g61
(dp1234
g81
g82
ssg70
g1228
sg63
(lp1235
g495
asbag56
(g77
g58
NtRp1236
(dp1237
g61
(dp1238
g88
g89
ssg70
g1228
sg63
(lp1239
S':'
asbag56
(g77
g58
NtRp1240
(dp1241
g61
(dp1242
sg70
g1228
sg63
(lp1243
g56
(g57
g58
NtRp1244
(dp1245
g61
(dp1246
g69
I3
ssg70
g1240
sg63
(lp1247
S''
asbasbasbasbasbasbasbasbasbasbasbag56
(g72
g58
NtRp1248
(dp1249
g61
(dp1250
sg70
g66
sg63
(lp1251
g56
(g77
g58
NtRp1252
(dp1253
g61
(dp1254
g81
g82
ssg70
g1248
sg63
(lp1255
S'env'
p1256
asbag56
(g77
g58
NtRp1257
(dp1258
g61
(dp1259
g88
g89
ssg70
g1248
sg63
(lp1260
S':'
asbag56
(g77
g58
NtRp1261
(dp1262
g61
(dp1263
sg70
g1248
sg63
(lp1264
g56
(g57
g58
NtRp1265
(dp1266
g61
(dp1267
g69
I5
ssg70
g1261
sg63
(lp1268
g56
(g65
g58
NtRp1269
(dp1270
g61
(dp1271
g69
I4
ssg70
Nsg63
(lp1272
g56
(g72
g58
NtRp1273
(dp1274
g61
(dp1275
sg70
g1269
sg63
(lp1276
g56
(g77
g58
NtRp1277
(dp1278
g61
(dp1279
g81
g82
ssg70
g1273
sg63
(lp1280
S'app_folders'
p1281
asbag56
(g77
g58
NtRp1282
(dp1283
g61
(dp1284
g88
g89
ssg70
g1273
sg63
(lp1285
S':'
asbag56
(g77
g58
NtRp1286
(dp1287
g61
(dp1288
sg70
g1273
sg63
(lp1289
g56
(g57
g58
NtRp1290
(dp1291
g61
(dp1292
g69
I4
ssg70
g1286
sg63
(lp1293
S"set(['/home/ian/web2py/applications/topoi/', '/home/ian/web2py/applications/welcome/'])"
p1294
asbasbasbag56
(g72
g58
NtRp1295
(dp1296
g61
(dp1297
sg70
g1269
sg63
(lp1298
g56
(g77
g58
NtRp1299
(dp1300
g61
(dp1301
g81
g82
ssg70
g1295
sg63
(lp1302
S'applications_parent'
p1303
asbag56
(g77
g58
NtRp1304
(dp1305
g61
(dp1306
g88
g89
ssg70
g1295
sg63
(lp1307
S':'
asbag56
(g77
g58
NtRp1308
(dp1309
g61
(dp1310
sg70
g1295
sg63
(lp1311
g56
(g57
g58
NtRp1312
(dp1313
g61
(dp1314
g69
I4
ssg70
g1308
sg63
(lp1315
S'/home/ian/web2py'
p1316
asbasbasbag56
(g72
g58
NtRp1317
(dp1318
g61
(dp1319
sg70
g1269
sg63
(lp1320
g56
(g77
g58
NtRp1321
(dp1322
g61
(dp1323
g81
g82
ssg70
g1317
sg63
(lp1324
S'cmd_args'
p1325
asbag56
(g77
g58
NtRp1326
(dp1327
g61
(dp1328
g88
g89
ssg70
g1317
sg63
(lp1329
S':'
asbag56
(g77
g58
NtRp1330
(dp1331
g61
(dp1332
sg70
g1317
sg63
(lp1333
g56
(g57
g58
NtRp1334
(dp1335
g61
(dp1336
g69
I4
ssg70
g1330
sg63
(lp1337
g56
(g65
g58
NtRp1338
(dp1339
g61
(dp1340
g69
I3
ssg70
Nsg63
(lp1341
sbasbasbasbag56
(g72
g58
NtRp1342
(dp1343
g61
(dp1344
sg70
g1269
sg63
(lp1345
g56
(g77
g58
NtRp1346
(dp1347
g61
(dp1348
g81
g82
ssg70
g1342
sg63
(lp1349
S'cmd_options'
p1350
asbag56
(g77
g58
NtRp1351
(dp1352
g61
(dp1353
g88
g89
ssg70
g1342
sg63
(lp1354
S':'
asbag56
(g77
g58
NtRp1355
(dp1356
g61
(dp1357
sg70
g1342
sg63
(lp1358
g56
(g57
g58
NtRp1359
(dp1360
g61
(dp1361
g69
I4
ssg70
g1355
sg63
(lp1362
S"<Values at 0x1fc77e8: {'verbose': False, 'ip': '127.0.0.1', 'shutdown_timeout': 5, 'taskbar': False, 'nocron': False, 'pid_filename': 'httpserver.pid', 'maxthreads': None, 'softcron': False, 'server_name': 'Ariel-ubuntu', 'bpython': False, 'nogui': False, 'port': 8000, 'extcron': False, 'debuglevel': 30, 'test': None, 'folder': '/home/ian/web2py', 'config': '', 'import_models': False, 'winservice': '', 'shell': None, 'run': '', 'log_filename': 'httpserver.log', 'args': [''], 'ssl_ca_certificate': None, 'scheduler': None, 'profiler_filename': None, 'ssl_private_key': '', 'password': '<ask>', 'request_queue_size': 5, 'ssl_certificate': '', 'cronjob': False, 'plain': False, 'quiet': False, 'interfaces': None, 'minthreads': None, 'timeout': 10, 'numthreads': None, 'nobanner': False}>"
p1363
asbasbasbag56
(g72
g58
NtRp1364
(dp1365
g61
(dp1366
sg70
g1269
sg63
(lp1367
g56
(g77
g58
NtRp1368
(dp1369
g61
(dp1370
g81
g82
ssg70
g1364
sg63
(lp1371
S'db_sessions'
p1372
asbag56
(g77
g58
NtRp1373
(dp1374
g61
(dp1375
g88
g89
ssg70
g1364
sg63
(lp1376
S':'
asbag56
(g77
g58
NtRp1377
(dp1378
g61
(dp1379
sg70
g1364
sg63
(lp1380
g56
(g57
g58
NtRp1381
(dp1382
g61
(dp1383
g69
I4
ssg70
g1377
sg63
(lp1384
S'set([])'
p1385
asbasbasbag56
(g72
g58
NtRp1386
(dp1387
g61
(dp1388
sg70
g1269
sg63
(lp1389
g56
(g77
g58
NtRp1390
(dp1391
g61
(dp1392
g81
g82
ssg70
g1386
sg63
(lp1393
S'debugging'
p1394
asbag56
(g77
g58
NtRp1395
(dp1396
g61
(dp1397
g88
g89
ssg70
g1386
sg63
(lp1398
S':'
asbag56
(g77
g58
NtRp1399
(dp1400
g61
(dp1401
sg70
g1386
sg63
(lp1402
g56
(g57
g58
NtRp1403
(dp1404
g61
(dp1405
g69
I4
ssg70
g1399
sg63
(lp1406
g99
asbasbasbag56
(g72
g58
NtRp1407
(dp1408
g61
(dp1409
sg70
g1269
sg63
(lp1410
g56
(g77
g58
NtRp1411
(dp1412
g61
(dp1413
g81
g82
ssg70
g1407
sg63
(lp1414
S'gluon_parent'
p1415
asbag56
(g77
g58
NtRp1416
(dp1417
g61
(dp1418
g88
g89
ssg70
g1407
sg63
(lp1419
S':'
asbag56
(g77
g58
NtRp1420
(dp1421
g61
(dp1422
sg70
g1407
sg63
(lp1423
g56
(g57
g58
NtRp1424
(dp1425
g61
(dp1426
g69
I4
ssg70
g1420
sg63
(lp1427
S'/home/ian/web2py'
p1428
asbasbasbag56
(g72
g58
NtRp1429
(dp1430
g61
(dp1431
sg70
g1269
sg63
(lp1432
g56
(g77
g58
NtRp1433
(dp1434
g61
(dp1435
g81
g82
ssg70
g1429
sg63
(lp1436
S'http_accept'
p1437
asbag56
(g77
g58
NtRp1438
(dp1439
g61
(dp1440
g88
g89
ssg70
g1429
sg63
(lp1441
S':'
asbag56
(g77
g58
NtRp1442
(dp1443
g61
(dp1444
sg70
g1429
sg63
(lp1445
g56
(g57
g58
NtRp1446
(dp1447
g61
(dp1448
g69
I4
ssg70
g1442
sg63
(lp1449
S'text/html,application/xhtml+xml,application/xml;q=0.9,*/*;q=0.8'
p1450
asbasbasbag56
(g72
g58
NtRp1451
(dp1452
g61
(dp1453
sg70
g1269
sg63
(lp1454
g56
(g77
g58
NtRp1455
(dp1456
g61
(dp1457
g81
g82
ssg70
g1451
sg63
(lp1458
S'http_accept_charset'
p1459
asbag56
(g77
g58
NtRp1460
(dp1461
g61
(dp1462
g88
g89
ssg70
g1451
sg63
(lp1463
S':'
asbag56
(g77
g58
NtRp1464
(dp1465
g61
(dp1466
sg70
g1451
sg63
(lp1467
g56
(g57
g58
NtRp1468
(dp1469
g61
(dp1470
g69
I4
ssg70
g1464
sg63
(lp1471
S'ISO-8859-1,utf-8;q=0.7,*;q=0.7'
p1472
asbasbasbag56
(g72
g58
NtRp1473
(dp1474
g61
(dp1475
sg70
g1269
sg63
(lp1476
g56
(g77
g58
NtRp1477
(dp1478
g61
(dp1479
g81
g82
ssg70
g1473
sg63
(lp1480
S'http_accept_encoding'
p1481
asbag56
(g77
g58
NtRp1482
(dp1483
g61
(dp1484
g88
g89
ssg70
g1473
sg63
(lp1485
S':'
asbag56
(g77
g58
NtRp1486
(dp1487
g61
(dp1488
sg70
g1473
sg63
(lp1489
g56
(g57
g58
NtRp1490
(dp1491
g61
(dp1492
g69
I4
ssg70
g1486
sg63
(lp1493
S'gzip, deflate'
p1494
asbasbasbag56
(g72
g58
NtRp1495
(dp1496
g61
(dp1497
sg70
g1269
sg63
(lp1498
g56
(g77
g58
NtRp1499
(dp1500
g61
(dp1501
g81
g82
ssg70
g1495
sg63
(lp1502
S'http_accept_language'
p1503
asbag56
(g77
g58
NtRp1504
(dp1505
g61
(dp1506
g88
g89
ssg70
g1495
sg63
(lp1507
S':'
asbag56
(g77
g58
NtRp1508
(dp1509
g61
(dp1510
sg70
g1495
sg63
(lp1511
g56
(g57
g58
NtRp1512
(dp1513
g61
(dp1514
g69
I4
ssg70
g1508
sg63
(lp1515
S'en-us,en;q=0.5'
p1516
asbasbasbag56
(g72
g58
NtRp1517
(dp1518
g61
(dp1519
sg70
g1269
sg63
(lp1520
g56
(g77
g58
NtRp1521
(dp1522
g61
(dp1523
g81
g82
ssg70
g1517
sg63
(lp1524
S'http_cache_control'
p1525
asbag56
(g77
g58
NtRp1526
(dp1527
g61
(dp1528
g88
g89
ssg70
g1517
sg63
(lp1529
S':'
asbag56
(g77
g58
NtRp1530
(dp1531
g61
(dp1532
sg70
g1517
sg63
(lp1533
g56
(g57
g58
NtRp1534
(dp1535
g61
(dp1536
g69
I4
ssg70
g1530
sg63
(lp1537
S'max-age=0'
p1538
asbasbasbag56
(g72
g58
NtRp1539
(dp1540
g61
(dp1541
sg70
g1269
sg63
(lp1542
g56
(g77
g58
NtRp1543
(dp1544
g61
(dp1545
g81
g82
ssg70
g1539
sg63
(lp1546
S'http_connection'
p1547
asbag56
(g77
g58
NtRp1548
(dp1549
g61
(dp1550
g88
g89
ssg70
g1539
sg63
(lp1551
S':'
asbag56
(g77
g58
NtRp1552
(dp1553
g61
(dp1554
sg70
g1539
sg63
(lp1555
g56
(g57
g58
NtRp1556
(dp1557
g61
(dp1558
g69
I4
ssg70
g1552
sg63
(lp1559
S'keep-alive'
p1560
asbasbasbag56
(g72
g58
NtRp1561
(dp1562
g61
(dp1563
sg70
g1269
sg63
(lp1564
g56
(g77
g58
NtRp1565
(dp1566
g61
(dp1567
g81
g82
ssg70
g1561
sg63
(lp1568
S'http_cookie'
p1569
asbag56
(g77
g58
NtRp1570
(dp1571
g61
(dp1572
g88
g89
ssg70
g1561
sg63
(lp1573
S':'
asbag56
(g77
g58
NtRp1574
(dp1575
g61
(dp1576
sg70
g1561
sg63
(lp1577
g56
(g57
g58
NtRp1578
(dp1579
g61
(dp1580
g69
I4
ssg70
g1574
sg63
(lp1581
S'__utma_a2a=9789918665.1351576430.1320019504.1320019504.1320019504.1; session_id_topoi=127.0.0.1-af13e654-cdbc-4583-8d75-e46cda6f6e34; session_id_welcome=127.0.0.1-e74c5557-09f3-46f2-b889-0b51ebe68d04; session_id_places=127.0.0.1-5fd0edf6-257b-4b64-8f30-f06317d985b4; session_id_admin=127.0.0.1-0f12f5c5-7875-466e-9d4b-61a07f7e8aa0; session_id_peergrades=127.0.0.1-45d2d609-6b75-44fb-bde8-1a83b480bc98'
p1582
asbasbasbag56
(g72
g58
NtRp1583
(dp1584
g61
(dp1585
sg70
g1269
sg63
(lp1586
g56
(g77
g58
NtRp1587
(dp1588
g61
(dp1589
g81
g82
ssg70
g1583
sg63
(lp1590
S'http_host'
p1591
asbag56
(g77
g58
NtRp1592
(dp1593
g61
(dp1594
g88
g89
ssg70
g1583
sg63
(lp1595
S':'
asbag56
(g77
g58
NtRp1596
(dp1597
g61
(dp1598
sg70
g1583
sg63
(lp1599
g56
(g57
g58
NtRp1600
(dp1601
g61
(dp1602
g69
I4
ssg70
g1596
sg63
(lp1603
S'127.0.0.1:8000'
p1604
asbasbasbag56
(g72
g58
NtRp1605
(dp1606
g61
(dp1607
sg70
g1269
sg63
(lp1608
g56
(g77
g58
NtRp1609
(dp1610
g61
(dp1611
g81
g82
ssg70
g1605
sg63
(lp1612
S'http_referer'
p1613
asbag56
(g77
g58
NtRp1614
(dp1615
g61
(dp1616
g88
g89
ssg70
g1605
sg63
(lp1617
S':'
asbag56
(g77
g58
NtRp1618
(dp1619
g61
(dp1620
sg70
g1605
sg63
(lp1621
g56
(g57
g58
NtRp1622
(dp1623
g61
(dp1624
g69
I4
ssg70
g1618
sg63
(lp1625
S'http://127.0.0.1:8000/topoi/plugin_listandedit/list/note/1'
p1626
asbasbasbag56
(g72
g58
NtRp1627
(dp1628
g61
(dp1629
sg70
g1269
sg63
(lp1630
g56
(g77
g58
NtRp1631
(dp1632
g61
(dp1633
g81
g82
ssg70
g1627
sg63
(lp1634
S'http_user_agent'
p1635
asbag56
(g77
g58
NtRp1636
(dp1637
g61
(dp1638
g88
g89
ssg70
g1627
sg63
(lp1639
S':'
asbag56
(g77
g58
NtRp1640
(dp1641
g61
(dp1642
sg70
g1627
sg63
(lp1643
g56
(g57
g58
NtRp1644
(dp1645
g61
(dp1646
g69
I4
ssg70
g1640
sg63
(lp1647
S'Mozilla/5.0 (Ubuntu; X11; Linux x86_64; rv:8.0) Gecko/20100101 Firefox/8.0'
p1648
asbasbasbag56
(g72
g58
NtRp1649
(dp1650
g61
(dp1651
sg70
g1269
sg63
(lp1652
g56
(g77
g58
NtRp1653
(dp1654
g61
(dp1655
g81
g82
ssg70
g1649
sg63
(lp1656
S'is_jython'
p1657
asbag56
(g77
g58
NtRp1658
(dp1659
g61
(dp1660
g88
g89
ssg70
g1649
sg63
(lp1661
S':'
asbag56
(g77
g58
NtRp1662
(dp1663
g61
(dp1664
sg70
g1649
sg63
(lp1665
g56
(g57
g58
NtRp1666
(dp1667
g61
(dp1668
g69
I4
ssg70
g1662
sg63
(lp1669
g99
asbasbasbag56
(g72
g58
NtRp1670
(dp1671
g61
(dp1672
sg70
g1269
sg63
(lp1673
g56
(g77
g58
NtRp1674
(dp1675
g61
(dp1676
g81
g82
ssg70
g1670
sg63
(lp1677
S'path_info'
p1678
asbag56
(g77
g58
NtRp1679
(dp1680
g61
(dp1681
g88
g89
ssg70
g1670
sg63
(lp1682
S':'
asbag56
(g77
g58
NtRp1683
(dp1684
g61
(dp1685
sg70
g1670
sg63
(lp1686
g56
(g57
g58
NtRp1687
(dp1688
g61
(dp1689
g69
I4
ssg70
g1683
sg63
(lp1690
S'/topoi/plugin_listandedit/list/static/plugin_framework/static/plugin_framework/fonts/websymbols-regular-webfont.ttf'
p1691
asbasbasbag56
(g72
g58
NtRp1692
(dp1693
g61
(dp1694
sg70
g1269
sg63
(lp1695
g56
(g77
g58
NtRp1696
(dp1697
g61
(dp1698
g81
g82
ssg70
g1692
sg63
(lp1699
S'query_string'
p1700
asbag56
(g77
g58
NtRp1701
(dp1702
g61
(dp1703
g88
g89
ssg70
g1692
sg63
(lp1704
S':'
asbag56
(g77
g58
NtRp1705
(dp1706
g61
(dp1707
sg70
g1692
sg63
(lp1708
g56
(g57
g58
NtRp1709
(dp1710
g61
(dp1711
g69
I4
ssg70
g1705
sg63
(lp1712
S''
asbasbasbag56
(g72
g58
NtRp1713
(dp1714
g61
(dp1715
sg70
g1269
sg63
(lp1716
g56
(g77
g58
NtRp1717
(dp1718
g61
(dp1719
g81
g82
ssg70
g1713
sg63
(lp1720
S'remote_addr'
p1721
asbag56
(g77
g58
NtRp1722
(dp1723
g61
(dp1724
g88
g89
ssg70
g1713
sg63
(lp1725
S':'
asbag56
(g77
g58
NtRp1726
(dp1727
g61
(dp1728
sg70
g1713
sg63
(lp1729
g56
(g57
g58
NtRp1730
(dp1731
g61
(dp1732
g69
I4
ssg70
g1726
sg63
(lp1733
g267
asbasbasbag56
(g72
g58
NtRp1734
(dp1735
g61
(dp1736
sg70
g1269
sg63
(lp1737
g56
(g77
g58
NtRp1738
(dp1739
g61
(dp1740
g81
g82
ssg70
g1734
sg63
(lp1741
S'remote_port'
p1742
asbag56
(g77
g58
NtRp1743
(dp1744
g61
(dp1745
g88
g89
ssg70
g1734
sg63
(lp1746
S':'
asbag56
(g77
g58
NtRp1747
(dp1748
g61
(dp1749
sg70
g1734
sg63
(lp1750
g56
(g57
g58
NtRp1751
(dp1752
g61
(dp1753
g69
I4
ssg70
g1747
sg63
(lp1754
S'52094'
p1755
asbasbasbag56
(g72
g58
NtRp1756
(dp1757
g61
(dp1758
sg70
g1269
sg63
(lp1759
g56
(g77
g58
NtRp1760
(dp1761
g61
(dp1762
g81
g82
ssg70
g1756
sg63
(lp1763
S'request_method'
p1764
asbag56
(g77
g58
NtRp1765
(dp1766
g61
(dp1767
g88
g89
ssg70
g1756
sg63
(lp1768
S':'
asbag56
(g77
g58
NtRp1769
(dp1770
g61
(dp1771
sg70
g1756
sg63
(lp1772
g56
(g57
g58
NtRp1773
(dp1774
g61
(dp1775
g69
I4
ssg70
g1769
sg63
(lp1776
S'GET'
p1777
asbasbasbag56
(g72
g58
NtRp1778
(dp1779
g61
(dp1780
sg70
g1269
sg63
(lp1781
g56
(g77
g58
NtRp1782
(dp1783
g61
(dp1784
g81
g82
ssg70
g1778
sg63
(lp1785
S'script_name'
p1786
asbag56
(g77
g58
NtRp1787
(dp1788
g61
(dp1789
g88
g89
ssg70
g1778
sg63
(lp1790
S':'
asbag56
(g77
g58
NtRp1791
(dp1792
g61
(dp1793
sg70
g1778
sg63
(lp1794
g56
(g57
g58
NtRp1795
(dp1796
g61
(dp1797
g69
I4
ssg70
g1791
sg63
(lp1798
S''
asbasbasbag56
(g72
g58
NtRp1799
(dp1800
g61
(dp1801
sg70
g1269
sg63
(lp1802
g56
(g77
g58
NtRp1803
(dp1804
g61
(dp1805
g81
g82
ssg70
g1799
sg63
(lp1806
S'server_name'
p1807
asbag56
(g77
g58
NtRp1808
(dp1809
g61
(dp1810
g88
g89
ssg70
g1799
sg63
(lp1811
S':'
asbag56
(g77
g58
NtRp1812
(dp1813
g61
(dp1814
sg70
g1799
sg63
(lp1815
g56
(g57
g58
NtRp1816
(dp1817
g61
(dp1818
g69
I4
ssg70
g1812
sg63
(lp1819
S'Ariel-ubuntu'
p1820
asbasbasbag56
(g72
g58
NtRp1821
(dp1822
g61
(dp1823
sg70
g1269
sg63
(lp1824
g56
(g77
g58
NtRp1825
(dp1826
g61
(dp1827
g81
g82
ssg70
g1821
sg63
(lp1828
S'server_port'
p1829
asbag56
(g77
g58
NtRp1830
(dp1831
g61
(dp1832
g88
g89
ssg70
g1821
sg63
(lp1833
S':'
asbag56
(g77
g58
NtRp1834
(dp1835
g61
(dp1836
sg70
g1821
sg63
(lp1837
g56
(g57
g58
NtRp1838
(dp1839
g61
(dp1840
g69
I4
ssg70
g1834
sg63
(lp1841
S'8000'
p1842
asbasbasbag56
(g72
g58
NtRp1843
(dp1844
g61
(dp1845
sg70
g1269
sg63
(lp1846
g56
(g77
g58
NtRp1847
(dp1848
g61
(dp1849
g81
g82
ssg70
g1843
sg63
(lp1850
S'server_protocol'
p1851
asbag56
(g77
g58
NtRp1852
(dp1853
g61
(dp1854
g88
g89
ssg70
g1843
sg63
(lp1855
S':'
asbag56
(g77
g58
NtRp1856
(dp1857
g61
(dp1858
sg70
g1843
sg63
(lp1859
g56
(g57
g58
NtRp1860
(dp1861
g61
(dp1862
g69
I4
ssg70
g1856
sg63
(lp1863
S'HTTP/1.1'
p1864
asbasbasbag56
(g72
g58
NtRp1865
(dp1866
g61
(dp1867
sg70
g1269
sg63
(lp1868
g56
(g77
g58
NtRp1869
(dp1870
g61
(dp1871
g81
g82
ssg70
g1865
sg63
(lp1872
S'server_software'
p1873
asbag56
(g77
g58
NtRp1874
(dp1875
g61
(dp1876
g88
g89
ssg70
g1865
sg63
(lp1877
S':'
asbag56
(g77
g58
NtRp1878
(dp1879
g61
(dp1880
sg70
g1865
sg63
(lp1881
g56
(g57
g58
NtRp1882
(dp1883
g61
(dp1884
g69
I4
ssg70
g1878
sg63
(lp1885
S'Rocket 1.2.4'
p1886
asbasbasbag56
(g72
g58
NtRp1887
(dp1888
g61
(dp1889
sg70
g1269
sg63
(lp1890
g56
(g77
g58
NtRp1891
(dp1892
g61
(dp1893
g81
g82
ssg70
g1887
sg63
(lp1894
S'web2py_crontype'
p1895
asbag56
(g77
g58
NtRp1896
(dp1897
g61
(dp1898
g88
g89
ssg70
g1887
sg63
(lp1899
S':'
asbag56
(g77
g58
NtRp1900
(dp1901
g61
(dp1902
sg70
g1887
sg63
(lp1903
g56
(g57
g58
NtRp1904
(dp1905
g61
(dp1906
g69
I4
ssg70
g1900
sg63
(lp1907
S'hard'
p1908
asbasbasbag56
(g72
g58
NtRp1909
(dp1910
g61
(dp1911
sg70
g1269
sg63
(lp1912
g56
(g77
g58
NtRp1913
(dp1914
g61
(dp1915
g81
g82
ssg70
g1909
sg63
(lp1916
S'web2py_path'
p1917
asbag56
(g77
g58
NtRp1918
(dp1919
g61
(dp1920
g88
g89
ssg70
g1909
sg63
(lp1921
S':'
asbag56
(g77
g58
NtRp1922
(dp1923
g61
(dp1924
sg70
g1909
sg63
(lp1925
g56
(g57
g58
NtRp1926
(dp1927
g61
(dp1928
g69
I4
ssg70
g1922
sg63
(lp1929
g1316
asbasbasbag56
(g72
g58
NtRp1930
(dp1931
g61
(dp1932
sg70
g1269
sg63
(lp1933
g56
(g77
g58
NtRp1934
(dp1935
g61
(dp1936
g81
g82
ssg70
g1930
sg63
(lp1937
S'web2py_version'
p1938
asbag56
(g77
g58
NtRp1939
(dp1940
g61
(dp1941
g88
g89
ssg70
g1930
sg63
(lp1942
S':'
asbag56
(g77
g58
NtRp1943
(dp1944
g61
(dp1945
sg70
g1930
sg63
(lp1946
g56
(g57
g58
NtRp1947
(dp1948
g61
(dp1949
g69
I4
ssg70
g1943
sg63
(lp1950
g56
(g65
g58
NtRp1951
(dp1952
g61
(dp1953
g69
I3
ssg70
Nsg63
(lp1954
g56
(g72
g58
NtRp1955
(dp1956
g61
(dp1957
sg70
g1951
sg63
(lp1958
g56
(g77
g58
NtRp1959
(dp1960
g61
(dp1961
sg70
g1955
sg63
(lp1962
g56
(g57
g58
NtRp1963
(dp1964
g61
(dp1965
g69
I3
ssg70
g1959
sg63
(lp1966
S'1'
asbasbasbag56
(g72
g58
NtRp1967
(dp1968
g61
(dp1969
sg70
g1951
sg63
(lp1970
g56
(g77
g58
NtRp1971
(dp1972
g61
(dp1973
sg70
g1967
sg63
(lp1974
g56
(g57
g58
NtRp1975
(dp1976
g61
(dp1977
g69
I3
ssg70
g1971
sg63
(lp1978
S'99'
p1979
asbasbasbag56
(g72
g58
NtRp1980
(dp1981
g61
(dp1982
sg70
g1951
sg63
(lp1983
g56
(g77
g58
NtRp1984
(dp1985
g61
(dp1986
sg70
g1980
sg63
(lp1987
g56
(g57
g58
NtRp1988
(dp1989
g61
(dp1990
g69
I3
ssg70
g1984
sg63
(lp1991
S'2'
asbasbasbag56
(g72
g58
NtRp1992
(dp1993
g61
(dp1994
sg70
g1951
sg63
(lp1995
g56
(g77
g58
NtRp1996
(dp1997
g61
(dp1998
sg70
g1992
sg63
(lp1999
g56
(g57
g58
NtRp2000
(dp2001
g61
(dp2002
g69
I3
ssg70
g1996
sg63
(lp2003
S'datetime.datetime(2011, 9, 26, 6, 55, 33)'
p2004
asbasbasbag56
(g72
g58
NtRp2005
(dp2006
g61
(dp2007
sg70
g1951
sg63
(lp2008
g56
(g77
g58
NtRp2009
(dp2010
g61
(dp2011
sg70
g2005
sg63
(lp2012
g56
(g57
g58
NtRp2013
(dp2014
g61
(dp2015
g69
I3
ssg70
g2009
sg63
(lp2016
S'stable'
p2017
asbasbasbasbasbasbasbag56
(g72
g58
NtRp2018
(dp2019
g61
(dp2020
sg70
g1269
sg63
(lp2021
g56
(g77
g58
NtRp2022
(dp2023
g61
(dp2024
g81
g82
ssg70
g2018
sg63
(lp2025
S'wsgi_errors'
p2026
asbag56
(g77
g58
NtRp2027
(dp2028
g61
(dp2029
g88
g89
ssg70
g2018
sg63
(lp2030
S':'
asbag56
(g77
g58
NtRp2031
(dp2032
g61
(dp2033
sg70
g2018
sg63
(lp2034
g56
(g57
g58
NtRp2035
(dp2036
g61
(dp2037
g69
I4
ssg70
g2031
sg63
(lp2038
S"<open file '<stderr>', mode 'w' at 0x7fc3682ea270>"
p2039
asbasbasbag56
(g72
g58
NtRp2040
(dp2041
g61
(dp2042
sg70
g1269
sg63
(lp2043
g56
(g77
g58
NtRp2044
(dp2045
g61
(dp2046
g81
g82
ssg70
g2040
sg63
(lp2047
S'wsgi_file_wrapper'
p2048
asbag56
(g77
g58
NtRp2049
(dp2050
g61
(dp2051
g88
g89
ssg70
g2040
sg63
(lp2052
S':'
asbag56
(g77
g58
NtRp2053
(dp2054
g61
(dp2055
sg70
g2040
sg63
(lp2056
g56
(g57
g58
NtRp2057
(dp2058
g61
(dp2059
g69
I4
ssg70
g2053
sg63
(lp2060
S'<class wsgiref.util.FileWrapper at 0x1e90808>'
p2061
asbasbasbag56
(g72
g58
NtRp2062
(dp2063
g61
(dp2064
sg70
g1269
sg63
(lp2065
g56
(g77
g58
NtRp2066
(dp2067
g61
(dp2068
g81
g82
ssg70
g2062
sg63
(lp2069
S'wsgi_input'
p2070
asbag56
(g77
g58
NtRp2071
(dp2072
g61
(dp2073
g88
g89
ssg70
g2062
sg63
(lp2074
S':'
asbag56
(g77
g58
NtRp2075
(dp2076
g61
(dp2077
sg70
g2062
sg63
(lp2078
g56
(g57
g58
NtRp2079
(dp2080
g61
(dp2081
g69
I4
ssg70
g2075
sg63
(lp2082
S'<socket._fileobject object at 0x26c3c50>'
p2083
asbasbasbag56
(g72
g58
NtRp2084
(dp2085
g61
(dp2086
sg70
g1269
sg63
(lp2087
g56
(g77
g58
NtRp2088
(dp2089
g61
(dp2090
g81
g82
ssg70
g2084
sg63
(lp2091
S'wsgi_multiprocess'
p2092
asbag56
(g77
g58
NtRp2093
(dp2094
g61
(dp2095
g88
g89
ssg70
g2084
sg63
(lp2096
S':'
asbag56
(g77
g58
NtRp2097
(dp2098
g61
(dp2099
sg70
g2084
sg63
(lp2100
g56
(g57
g58
NtRp2101
(dp2102
g61
(dp2103
g69
I4
ssg70
g2097
sg63
(lp2104
g99
asbasbasbag56
(g72
g58
NtRp2105
(dp2106
g61
(dp2107
sg70
g1269
sg63
(lp2108
g56
(g77
g58
NtRp2109
(dp2110
g61
(dp2111
g81
g82
ssg70
g2105
sg63
(lp2112
S'wsgi_multithread'
p2113
asbag56
(g77
g58
NtRp2114
(dp2115
g61
(dp2116
g88
g89
ssg70
g2105
sg63
(lp2117
S':'
asbag56
(g77
g58
NtRp2118
(dp2119
g61
(dp2120
sg70
g2105
sg63
(lp2121
g56
(g57
g58
NtRp2122
(dp2123
g61
(dp2124
g69
I4
ssg70
g2118
sg63
(lp2125
S'True'
p2126
asbasbasbag56
(g72
g58
NtRp2127
(dp2128
g61
(dp2129
sg70
g1269
sg63
(lp2130
g56
(g77
g58
NtRp2131
(dp2132
g61
(dp2133
g81
g82
ssg70
g2127
sg63
(lp2134
S'wsgi_run_once'
p2135
asbag56
(g77
g58
NtRp2136
(dp2137
g61
(dp2138
g88
g89
ssg70
g2127
sg63
(lp2139
S':'
asbag56
(g77
g58
NtRp2140
(dp2141
g61
(dp2142
sg70
g2127
sg63
(lp2143
g56
(g57
g58
NtRp2144
(dp2145
g61
(dp2146
g69
I4
ssg70
g2140
sg63
(lp2147
g99
asbasbasbag56
(g72
g58
NtRp2148
(dp2149
g61
(dp2150
sg70
g1269
sg63
(lp2151
g56
(g77
g58
NtRp2152
(dp2153
g61
(dp2154
g81
g82
ssg70
g2148
sg63
(lp2155
S'wsgi_url_scheme'
p2156
asbag56
(g77
g58
NtRp2157
(dp2158
g61
(dp2159
g88
g89
ssg70
g2148
sg63
(lp2160
S':'
asbag56
(g77
g58
NtRp2161
(dp2162
g61
(dp2163
sg70
g2148
sg63
(lp2164
g56
(g57
g58
NtRp2165
(dp2166
g61
(dp2167
g69
I4
ssg70
g2161
sg63
(lp2168
S'http'
p2169
asbasbasbag56
(g72
g58
NtRp2170
(dp2171
g61
(dp2172
sg70
g1269
sg63
(lp2173
g56
(g77
g58
NtRp2174
(dp2175
g61
(dp2176
g81
g82
ssg70
g2170
sg63
(lp2177
S'wsgi_version'
p2178
asbag56
(g77
g58
NtRp2179
(dp2180
g61
(dp2181
g88
g89
ssg70
g2170
sg63
(lp2182
S':'
asbag56
(g77
g58
NtRp2183
(dp2184
g61
(dp2185
sg70
g2170
sg63
(lp2186
g56
(g57
g58
NtRp2187
(dp2188
g61
(dp2189
g69
I4
ssg70
g2183
sg63
(lp2190
g56
(g65
g58
NtRp2191
(dp2192
g61
(dp2193
g69
I3
ssg70
Nsg63
(lp2194
g56
(g72
g58
NtRp2195
(dp2196
g61
(dp2197
sg70
g2191
sg63
(lp2198
g56
(g77
g58
NtRp2199
(dp2200
g61
(dp2201
sg70
g2195
sg63
(lp2202
g56
(g57
g58
NtRp2203
(dp2204
g61
(dp2205
g69
I3
ssg70
g2199
sg63
(lp2206
S'1'
asbasbasbag56
(g72
g58
NtRp2207
(dp2208
g61
(dp2209
sg70
g2191
sg63
(lp2210
g56
(g77
g58
NtRp2211
(dp2212
g61
(dp2213
sg70
g2207
sg63
(lp2214
g56
(g57
g58
NtRp2215
(dp2216
g61
(dp2217
g69
I3
ssg70
g2211
sg63
(lp2218
S'0'
asbasbasbasbasbasbasbasbasbasbasbag56
(g72
g58
NtRp2219
(dp2220
g61
(dp2221
sg70
g66
sg63
(lp2222
g56
(g77
g58
NtRp2223
(dp2224
g61
(dp2225
g81
g82
ssg70
g2219
sg63
(lp2226
S'extension'
p2227
asbag56
(g77
g58
NtRp2228
(dp2229
g61
(dp2230
g88
g89
ssg70
g2219
sg63
(lp2231
S':'
asbag56
(g77
g58
NtRp2232
(dp2233
g61
(dp2234
sg70
g2219
sg63
(lp2235
g56
(g57
g58
NtRp2236
(dp2237
g61
(dp2238
g69
I5
ssg70
g2232
sg63
(lp2239
S'html'
p2240
asbasbasbag56
(g72
g58
NtRp2241
(dp2242
g61
(dp2243
sg70
g66
sg63
(lp2244
g56
(g77
g58
NtRp2245
(dp2246
g61
(dp2247
g81
g82
ssg70
g2241
sg63
(lp2248
S'folder'
p2249
asbag56
(g77
g58
NtRp2250
(dp2251
g61
(dp2252
g88
g89
ssg70
g2241
sg63
(lp2253
S':'
asbag56
(g77
g58
NtRp2254
(dp2255
g61
(dp2256
sg70
g2241
sg63
(lp2257
g56
(g57
g58
NtRp2258
(dp2259
g61
(dp2260
g69
I5
ssg70
g2254
sg63
(lp2261
S'/home/ian/web2py/applications/topoi/'
p2262
asbasbasbag56
(g72
g58
NtRp2263
(dp2264
g61
(dp2265
sg70
g66
sg63
(lp2266
g56
(g77
g58
NtRp2267
(dp2268
g61
(dp2269
g81
g82
ssg70
g2263
sg63
(lp2270
S'function'
p2271
asbag56
(g77
g58
NtRp2272
(dp2273
g61
(dp2274
g88
g89
ssg70
g2263
sg63
(lp2275
S':'
asbag56
(g77
g58
NtRp2276
(dp2277
g61
(dp2278
sg70
g2263
sg63
(lp2279
g56
(g57
g58
NtRp2280
(dp2281
g61
(dp2282
g69
I5
ssg70
g2276
sg63
(lp2283
S'list'
p2284
asbasbasbag56
(g72
g58
NtRp2285
(dp2286
g61
(dp2287
sg70
g66
sg63
(lp2288
g56
(g77
g58
NtRp2289
(dp2290
g61
(dp2291
g81
g82
ssg70
g2285
sg63
(lp2292
S'get_vars'
p2293
asbag56
(g77
g58
NtRp2294
(dp2295
g61
(dp2296
g88
g89
ssg70
g2285
sg63
(lp2297
S':'
asbag56
(g77
g58
NtRp2298
(dp2299
g61
(dp2300
sg70
g2285
sg63
(lp2301
g56
(g57
g58
NtRp2302
(dp2303
g61
(dp2304
g69
I5
ssg70
g2298
sg63
(lp2305
g56
(g65
g58
NtRp2306
(dp2307
g61
(dp2308
g69
I4
ssg70
Nsg63
(lp2309
sbasbasbasbag56
(g72
g58
NtRp2310
(dp2311
g61
(dp2312
sg70
g66
sg63
(lp2313
g56
(g77
g58
NtRp2314
(dp2315
g61
(dp2316
g81
g82
ssg70
g2310
sg63
(lp2317
S'global_settings'
p2318
asbag56
(g77
g58
NtRp2319
(dp2320
g61
(dp2321
g88
g89
ssg70
g2310
sg63
(lp2322
S':'
asbag56
(g77
g58
NtRp2323
(dp2324
g61
(dp2325
sg70
g2310
sg63
(lp2326
g56
(g57
g58
NtRp2327
(dp2328
g61
(dp2329
g69
I5
ssg70
g2323
sg63
(lp2330
g56
(g65
g58
NtRp2331
(dp2332
g61
(dp2333
g69
I4
ssg70
Nsg63
(lp2334
g56
(g72
g58
NtRp2335
(dp2336
g61
(dp2337
sg70
g2331
sg63
(lp2338
g56
(g77
g58
NtRp2339
(dp2340
g61
(dp2341
g81
g82
ssg70
g2335
sg63
(lp2342
g1281
asbag56
(g77
g58
NtRp2343
(dp2344
g61
(dp2345
g88
g89
ssg70
g2335
sg63
(lp2346
S':'
asbag56
(g77
g58
NtRp2347
(dp2348
g61
(dp2349
sg70
g2335
sg63
(lp2350
g56
(g57
g58
NtRp2351
(dp2352
g61
(dp2353
g69
I4
ssg70
g2347
sg63
(lp2354
S"set(['/home/ian/web2py/applications/topoi/', '/home/ian/web2py/applications/welcome/'])"
p2355
asbasbasbag56
(g72
g58
NtRp2356
(dp2357
g61
(dp2358
sg70
g2331
sg63
(lp2359
g56
(g77
g58
NtRp2360
(dp2361
g61
(dp2362
g81
g82
ssg70
g2356
sg63
(lp2363
g1303
asbag56
(g77
g58
NtRp2364
(dp2365
g61
(dp2366
g88
g89
ssg70
g2356
sg63
(lp2367
S':'
asbag56
(g77
g58
NtRp2368
(dp2369
g61
(dp2370
sg70
g2356
sg63
(lp2371
g56
(g57
g58
NtRp2372
(dp2373
g61
(dp2374
g69
I4
ssg70
g2368
sg63
(lp2375
g1316
asbasbasbag56
(g72
g58
NtRp2376
(dp2377
g61
(dp2378
sg70
g2331
sg63
(lp2379
g56
(g77
g58
NtRp2380
(dp2381
g61
(dp2382
g81
g82
ssg70
g2376
sg63
(lp2383
g1325
asbag56
(g77
g58
NtRp2384
(dp2385
g61
(dp2386
g88
g89
ssg70
g2376
sg63
(lp2387
S':'
asbag56
(g77
g58
NtRp2388
(dp2389
g61
(dp2390
sg70
g2376
sg63
(lp2391
g56
(g57
g58
NtRp2392
(dp2393
g61
(dp2394
g69
I4
ssg70
g2388
sg63
(lp2395
g56
(g65
g58
NtRp2396
(dp2397
g61
(dp2398
g69
I3
ssg70
Nsg63
(lp2399
sbasbasbasbag56
(g72
g58
NtRp2400
(dp2401
g61
(dp2402
sg70
g2331
sg63
(lp2403
g56
(g77
g58
NtRp2404
(dp2405
g61
(dp2406
g81
g82
ssg70
g2400
sg63
(lp2407
g1350
asbag56
(g77
g58
NtRp2408
(dp2409
g61
(dp2410
g88
g89
ssg70
g2400
sg63
(lp2411
S':'
asbag56
(g77
g58
NtRp2412
(dp2413
g61
(dp2414
sg70
g2400
sg63
(lp2415
g56
(g57
g58
NtRp2416
(dp2417
g61
(dp2418
g69
I4
ssg70
g2412
sg63
(lp2419
S"<Values at 0x1fc77e8: {'verbose': False, 'ip': '127.0.0.1', 'shutdown_timeout': 5, 'taskbar': False, 'nocron': False, 'pid_filename': 'httpserver.pid', 'maxthreads': None, 'softcron': False, 'server_name': 'Ariel-ubuntu', 'bpython': False, 'nogui': False, 'port': 8000, 'extcron': False, 'debuglevel': 30, 'test': None, 'folder': '/home/ian/web2py', 'config': '', 'import_models': False, 'winservice': '', 'shell': None, 'run': '', 'log_filename': 'httpserver.log', 'args': [''], 'ssl_ca_certificate': None, 'scheduler': None, 'profiler_filename': None, 'ssl_private_key': '', 'password': '<ask>', 'request_queue_size': 5, 'ssl_certificate': '', 'cronjob': False, 'plain': False, 'quiet': False, 'interfaces': None, 'minthreads': None, 'timeout': 10, 'numthreads': None, 'nobanner': False}>"
p2420
asbasbasbag56
(g72
g58
NtRp2421
(dp2422
g61
(dp2423
sg70
g2331
sg63
(lp2424
g56
(g77
g58
NtRp2425
(dp2426
g61
(dp2427
g81
g82
ssg70
g2421
sg63
(lp2428
g1372
asbag56
(g77
g58
NtRp2429
(dp2430
g61
(dp2431
g88
g89
ssg70
g2421
sg63
(lp2432
S':'
asbag56
(g77
g58
NtRp2433
(dp2434
g61
(dp2435
sg70
g2421
sg63
(lp2436
g56
(g57
g58
NtRp2437
(dp2438
g61
(dp2439
g69
I4
ssg70
g2433
sg63
(lp2440
S'set([])'
p2441
asbasbasbag56
(g72
g58
NtRp2442
(dp2443
g61
(dp2444
sg70
g2331
sg63
(lp2445
g56
(g77
g58
NtRp2446
(dp2447
g61
(dp2448
g81
g82
ssg70
g2442
sg63
(lp2449
g1394
asbag56
(g77
g58
NtRp2450
(dp2451
g61
(dp2452
g88
g89
ssg70
g2442
sg63
(lp2453
S':'
asbag56
(g77
g58
NtRp2454
(dp2455
g61
(dp2456
sg70
g2442
sg63
(lp2457
g56
(g57
g58
NtRp2458
(dp2459
g61
(dp2460
g69
I4
ssg70
g2454
sg63
(lp2461
g99
asbasbasbag56
(g72
g58
NtRp2462
(dp2463
g61
(dp2464
sg70
g2331
sg63
(lp2465
g56
(g77
g58
NtRp2466
(dp2467
g61
(dp2468
g81
g82
ssg70
g2462
sg63
(lp2469
g1415
asbag56
(g77
g58
NtRp2470
(dp2471
g61
(dp2472
g88
g89
ssg70
g2462
sg63
(lp2473
S':'
asbag56
(g77
g58
NtRp2474
(dp2475
g61
(dp2476
sg70
g2462
sg63
(lp2477
g56
(g57
g58
NtRp2478
(dp2479
g61
(dp2480
g69
I4
ssg70
g2474
sg63
(lp2481
g1428
asbasbasbag56
(g72
g58
NtRp2482
(dp2483
g61
(dp2484
sg70
g2331
sg63
(lp2485
g56
(g77
g58
NtRp2486
(dp2487
g61
(dp2488
g81
g82
ssg70
g2482
sg63
(lp2489
g1657
asbag56
(g77
g58
NtRp2490
(dp2491
g61
(dp2492
g88
g89
ssg70
g2482
sg63
(lp2493
S':'
asbag56
(g77
g58
NtRp2494
(dp2495
g61
(dp2496
sg70
g2482
sg63
(lp2497
g56
(g57
g58
NtRp2498
(dp2499
g61
(dp2500
g69
I4
ssg70
g2494
sg63
(lp2501
g99
asbasbasbag56
(g72
g58
NtRp2502
(dp2503
g61
(dp2504
sg70
g2331
sg63
(lp2505
g56
(g77
g58
NtRp2506
(dp2507
g61
(dp2508
g81
g82
ssg70
g2502
sg63
(lp2509
g1895
asbag56
(g77
g58
NtRp2510
(dp2511
g61
(dp2512
g88
g89
ssg70
g2502
sg63
(lp2513
S':'
asbag56
(g77
g58
NtRp2514
(dp2515
g61
(dp2516
sg70
g2502
sg63
(lp2517
g56
(g57
g58
NtRp2518
(dp2519
g61
(dp2520
g69
I4
ssg70
g2514
sg63
(lp2521
g1908
asbasbasbag56
(g72
g58
NtRp2522
(dp2523
g61
(dp2524
sg70
g2331
sg63
(lp2525
g56
(g77
g58
NtRp2526
(dp2527
g61
(dp2528
g81
g82
ssg70
g2522
sg63
(lp2529
g1938
asbag56
(g77
g58
NtRp2530
(dp2531
g61
(dp2532
g88
g89
ssg70
g2522
sg63
(lp2533
S':'
asbag56
(g77
g58
NtRp2534
(dp2535
g61
(dp2536
sg70
g2522
sg63
(lp2537
g56
(g57
g58
NtRp2538
(dp2539
g61
(dp2540
g69
I4
ssg70
g2534
sg63
(lp2541
g56
(g65
g58
NtRp2542
(dp2543
g61
(dp2544
g69
I3
ssg70
Nsg63
(lp2545
g56
(g72
g58
NtRp2546
(dp2547
g61
(dp2548
sg70
g2542
sg63
(lp2549
g56
(g77
g58
NtRp2550
(dp2551
g61
(dp2552
sg70
g2546
sg63
(lp2553
g56
(g57
g58
NtRp2554
(dp2555
g61
(dp2556
g69
I3
ssg70
g2550
sg63
(lp2557
S'1'
asbasbasbag56
(g72
g58
NtRp2558
(dp2559
g61
(dp2560
sg70
g2542
sg63
(lp2561
g56
(g77
g58
NtRp2562
(dp2563
g61
(dp2564
sg70
g2558
sg63
(lp2565
g56
(g57
g58
NtRp2566
(dp2567
g61
(dp2568
g69
I3
ssg70
g2562
sg63
(lp2569
S'99'
p2570
asbasbasbag56
(g72
g58
NtRp2571
(dp2572
g61
(dp2573
sg70
g2542
sg63
(lp2574
g56
(g77
g58
NtRp2575
(dp2576
g61
(dp2577
sg70
g2571
sg63
(lp2578
g56
(g57
g58
NtRp2579
(dp2580
g61
(dp2581
g69
I3
ssg70
g2575
sg63
(lp2582
S'2'
asbasbasbag56
(g72
g58
NtRp2583
(dp2584
g61
(dp2585
sg70
g2542
sg63
(lp2586
g56
(g77
g58
NtRp2587
(dp2588
g61
(dp2589
sg70
g2583
sg63
(lp2590
g56
(g57
g58
NtRp2591
(dp2592
g61
(dp2593
g69
I3
ssg70
g2587
sg63
(lp2594
S'datetime.datetime(2011, 9, 26, 6, 55, 33)'
p2595
asbasbasbag56
(g72
g58
NtRp2596
(dp2597
g61
(dp2598
sg70
g2542
sg63
(lp2599
g56
(g77
g58
NtRp2600
(dp2601
g61
(dp2602
sg70
g2596
sg63
(lp2603
g56
(g57
g58
NtRp2604
(dp2605
g61
(dp2606
g69
I3
ssg70
g2600
sg63
(lp2607
g2017
asbasbasbasbasbasbasbasbasbasbasbag56
(g72
g58
NtRp2608
(dp2609
g61
(dp2610
sg70
g66
sg63
(lp2611
g56
(g77
g58
NtRp2612
(dp2613
g61
(dp2614
g81
g82
ssg70
g2608
sg63
(lp2615
S'is_https'
p2616
asbag56
(g77
g58
NtRp2617
(dp2618
g61
(dp2619
g88
g89
ssg70
g2608
sg63
(lp2620
S':'
asbag56
(g77
g58
NtRp2621
(dp2622
g61
(dp2623
sg70
g2608
sg63
(lp2624
g56
(g57
g58
NtRp2625
(dp2626
g61
(dp2627
g69
I5
ssg70
g2621
sg63
(lp2628
g99
asbasbasbag56
(g72
g58
NtRp2629
(dp2630
g61
(dp2631
sg70
g66
sg63
(lp2632
g56
(g77
g58
NtRp2633
(dp2634
g61
(dp2635
g81
g82
ssg70
g2629
sg63
(lp2636
S'is_local'
p2637
asbag56
(g77
g58
NtRp2638
(dp2639
g61
(dp2640
g88
g89
ssg70
g2629
sg63
(lp2641
S':'
asbag56
(g77
g58
NtRp2642
(dp2643
g61
(dp2644
sg70
g2629
sg63
(lp2645
g56
(g57
g58
NtRp2646
(dp2647
g61
(dp2648
g69
I5
ssg70
g2642
sg63
(lp2649
g2126
asbasbasbag56
(g72
g58
NtRp2650
(dp2651
g61
(dp2652
sg70
g66
sg63
(lp2653
g56
(g77
g58
NtRp2654
(dp2655
g61
(dp2656
g81
g82
ssg70
g2650
sg63
(lp2657
S'is_restful'
p2658
asbag56
(g77
g58
NtRp2659
(dp2660
g61
(dp2661
g88
g89
ssg70
g2650
sg63
(lp2662
S':'
asbag56
(g77
g58
NtRp2663
(dp2664
g61
(dp2665
sg70
g2650
sg63
(lp2666
g56
(g57
g58
NtRp2667
(dp2668
g61
(dp2669
g69
I5
ssg70
g2663
sg63
(lp2670
g99
asbasbasbag56
(g72
g58
NtRp2671
(dp2672
g61
(dp2673
sg70
g66
sg63
(lp2674
g56
(g77
g58
NtRp2675
(dp2676
g61
(dp2677
g81
g82
ssg70
g2671
sg63
(lp2678
S'now'
p2679
asbag56
(g77
g58
NtRp2680
(dp2681
g61
(dp2682
g88
g89
ssg70
g2671
sg63
(lp2683
S':'
asbag56
(g77
g58
NtRp2684
(dp2685
g61
(dp2686
sg70
g2671
sg63
(lp2687
g56
(g57
g58
NtRp2688
(dp2689
g61
(dp2690
g69
I5
ssg70
g2684
sg63
(lp2691
S'datetime.datetime(2011, 11, 29, 22, 22, 10, 966140)'
p2692
asbasbasbag56
(g72
g58
NtRp2693
(dp2694
g61
(dp2695
sg70
g66
sg63
(lp2696
g56
(g77
g58
NtRp2697
(dp2698
g61
(dp2699
g81
g82
ssg70
g2693
sg63
(lp2700
S'post_vars'
p2701
asbag56
(g77
g58
NtRp2702
(dp2703
g61
(dp2704
g88
g89
ssg70
g2693
sg63
(lp2705
S':'
asbag56
(g77
g58
NtRp2706
(dp2707
g61
(dp2708
sg70
g2693
sg63
(lp2709
g56
(g57
g58
NtRp2710
(dp2711
g61
(dp2712
g69
I5
ssg70
g2706
sg63
(lp2713
g56
(g65
g58
NtRp2714
(dp2715
g61
(dp2716
g69
I4
ssg70
Nsg63
(lp2717
sbasbasbasbag56
(g72
g58
NtRp2718
(dp2719
g61
(dp2720
sg70
g66
sg63
(lp2721
g56
(g77
g58
NtRp2722
(dp2723
g61
(dp2724
g81
g82
ssg70
g2718
sg63
(lp2725
S'raw_args'
p2726
asbag56
(g77
g58
NtRp2727
(dp2728
g61
(dp2729
g88
g89
ssg70
g2718
sg63
(lp2730
S':'
asbag56
(g77
g58
NtRp2731
(dp2732
g61
(dp2733
sg70
g2718
sg63
(lp2734
g56
(g57
g58
NtRp2735
(dp2736
g61
(dp2737
g69
I5
ssg70
g2731
sg63
(lp2738
S'static/plugin_framework/static/plugin_framework/fonts/websymbols-regular-webfont.ttf'
p2739
asbasbasbag56
(g72
g58
NtRp2740
(dp2741
g61
(dp2742
sg70
g66
sg63
(lp2743
g56
(g77
g58
NtRp2744
(dp2745
g61
(dp2746
g81
g82
ssg70
g2740
sg63
(lp2747
S'url'
p2748
asbag56
(g77
g58
NtRp2749
(dp2750
g61
(dp2751
g88
g89
ssg70
g2740
sg63
(lp2752
S':'
asbag56
(g77
g58
NtRp2753
(dp2754
g61
(dp2755
sg70
g2740
sg63
(lp2756
g56
(g57
g58
NtRp2757
(dp2758
g61
(dp2759
g69
I5
ssg70
g2753
sg63
(lp2760
S'/topoi/plugin_listandedit/list/static/plugin_framework/static/plugin_framework/fonts/websymbols-regular-webfont.ttf'
p2761
asbasbasbag56
(g72
g58
NtRp2762
(dp2763
g61
(dp2764
sg70
g66
sg63
(lp2765
g56
(g77
g58
NtRp2766
(dp2767
g61
(dp2768
g81
g82
ssg70
g2762
sg63
(lp2769
S'utcnow'
p2770
asbag56
(g77
g58
NtRp2771
(dp2772
g61
(dp2773
g88
g89
ssg70
g2762
sg63
(lp2774
S':'
asbag56
(g77
g58
NtRp2775
(dp2776
g61
(dp2777
sg70
g2762
sg63
(lp2778
g56
(g57
g58
NtRp2779
(dp2780
g61
(dp2781
g69
I5
ssg70
g2775
sg63
(lp2782
S'datetime.datetime(2011, 11, 30, 3, 22, 10, 966180)'
p2783
asbasbasbag56
(g72
g58
NtRp2784
(dp2785
g61
(dp2786
sg70
g66
sg63
(lp2787
g56
(g77
g58
NtRp2788
(dp2789
g61
(dp2790
g81
g82
ssg70
g2784
sg63
(lp2791
S'uuid'
p2792
asbag56
(g77
g58
NtRp2793
(dp2794
g61
(dp2795
g88
g89
ssg70
g2784
sg63
(lp2796
S':'
asbag56
(g77
g58
NtRp2797
(dp2798
g61
(dp2799
sg70
g2784
sg63
(lp2800
g56
(g57
g58
NtRp2801
(dp2802
g61
(dp2803
g69
I5
ssg70
g2797
sg63
(lp2804
S'topoi/127.0.0.1.2011-11-29.22-22-10.020939ab-126f-45d7-80dc-04ad594df83a'
p2805
asbasbasbag56
(g72
g58
NtRp2806
(dp2807
g61
(dp2808
sg70
g66
sg63
(lp2809
g56
(g77
g58
NtRp2810
(dp2811
g61
(dp2812
g81
g82
ssg70
g2806
sg63
(lp2813
S'vars'
p2814
asbag56
(g77
g58
NtRp2815
(dp2816
g61
(dp2817
g88
g89
ssg70
g2806
sg63
(lp2818
S':'
asbag56
(g77
g58
NtRp2819
(dp2820
g61
(dp2821
sg70
g2806
sg63
(lp2822
g56
(g57
g58
NtRp2823
(dp2824
g61
(dp2825
g69
I5
ssg70
g2819
sg63
(lp2826
g56
(g65
g58
NtRp2827
(dp2828
g61
(dp2829
g69
I4
ssg70
Nsg63
(lp2830
sbasbasbasbag56
(g72
g58
NtRp2831
(dp2832
g61
(dp2833
sg70
g66
sg63
(lp2834
g56
(g77
g58
NtRp2835
(dp2836
g61
(dp2837
g81
g82
ssg70
g2831
sg63
(lp2838
S'wsgi'
p2839
asbag56
(g77
g58
NtRp2840
(dp2841
g61
(dp2842
g88
g89
ssg70
g2831
sg63
(lp2843
S':'
asbag56
(g77
g58
NtRp2844
(dp2845
g61
(dp2846
sg70
g2831
sg63
(lp2847
g56
(g57
g58
NtRp2848
(dp2849
g61
(dp2850
g69
I5
ssg70
g2844
sg63
(lp2851
g56
(g65
g58
NtRp2852
(dp2853
g61
(dp2854
g69
I4
ssg70
Nsg63
(lp2855
g56
(g72
g58
NtRp2856
(dp2857
g61
(dp2858
sg70
g2852
sg63
(lp2859
g56
(g77
g58
NtRp2860
(dp2861
g61
(dp2862
g81
g82
ssg70
g2856
sg63
(lp2863
S'environ'
p2864
asbag56
(g77
g58
NtRp2865
(dp2866
g61
(dp2867
g88
g89
ssg70
g2856
sg63
(lp2868
S':'
asbag56
(g77
g58
NtRp2869
(dp2870
g61
(dp2871
sg70
g2856
sg63
(lp2872
g56
(g57
g58
NtRp2873
(dp2874
g61
(dp2875
g69
I4
ssg70
g2869
sg63
(lp2876
g56
(g65
g58
NtRp2877
(dp2878
g61
(dp2879
g69
I3
ssg70
Nsg63
(lp2880
g56
(g72
g58
NtRp2881
(dp2882
g61
(dp2883
sg70
g2877
sg63
(lp2884
g56
(g77
g58
NtRp2885
(dp2886
g61
(dp2887
g81
g82
ssg70
g2881
sg63
(lp2888
S'HTTP_ACCEPT'
p2889
asbag56
(g77
g58
NtRp2890
(dp2891
g61
(dp2892
g88
g89
ssg70
g2881
sg63
(lp2893
S':'
asbag56
(g77
g58
NtRp2894
(dp2895
g61
(dp2896
sg70
g2881
sg63
(lp2897
g56
(g57
g58
NtRp2898
(dp2899
g61
(dp2900
g69
I3
ssg70
g2894
sg63
(lp2901
g1450
asbasbasbag56
(g72
g58
NtRp2902
(dp2903
g61
(dp2904
sg70
g2877
sg63
(lp2905
g56
(g77
g58
NtRp2906
(dp2907
g61
(dp2908
g81
g82
ssg70
g2902
sg63
(lp2909
S'HTTP_ACCEPT_CHARSET'
p2910
asbag56
(g77
g58
NtRp2911
(dp2912
g61
(dp2913
g88
g89
ssg70
g2902
sg63
(lp2914
S':'
asbag56
(g77
g58
NtRp2915
(dp2916
g61
(dp2917
sg70
g2902
sg63
(lp2918
g56
(g57
g58
NtRp2919
(dp2920
g61
(dp2921
g69
I3
ssg70
g2915
sg63
(lp2922
g1472
asbasbasbag56
(g72
g58
NtRp2923
(dp2924
g61
(dp2925
sg70
g2877
sg63
(lp2926
g56
(g77
g58
NtRp2927
(dp2928
g61
(dp2929
g81
g82
ssg70
g2923
sg63
(lp2930
S'HTTP_ACCEPT_ENCODING'
p2931
asbag56
(g77
g58
NtRp2932
(dp2933
g61
(dp2934
g88
g89
ssg70
g2923
sg63
(lp2935
S':'
asbag56
(g77
g58
NtRp2936
(dp2937
g61
(dp2938
sg70
g2923
sg63
(lp2939
g56
(g57
g58
NtRp2940
(dp2941
g61
(dp2942
g69
I3
ssg70
g2936
sg63
(lp2943
g1494
asbasbasbag56
(g72
g58
NtRp2944
(dp2945
g61
(dp2946
sg70
g2877
sg63
(lp2947
g56
(g77
g58
NtRp2948
(dp2949
g61
(dp2950
g81
g82
ssg70
g2944
sg63
(lp2951
S'HTTP_ACCEPT_LANGUAGE'
p2952
asbag56
(g77
g58
NtRp2953
(dp2954
g61
(dp2955
g88
g89
ssg70
g2944
sg63
(lp2956
S':'
asbag56
(g77
g58
NtRp2957
(dp2958
g61
(dp2959
sg70
g2944
sg63
(lp2960
g56
(g57
g58
NtRp2961
(dp2962
g61
(dp2963
g69
I3
ssg70
g2957
sg63
(lp2964
g1516
asbasbasbag56
(g72
g58
NtRp2965
(dp2966
g61
(dp2967
sg70
g2877
sg63
(lp2968
g56
(g77
g58
NtRp2969
(dp2970
g61
(dp2971
g81
g82
ssg70
g2965
sg63
(lp2972
S'HTTP_CACHE_CONTROL'
p2973
asbag56
(g77
g58
NtRp2974
(dp2975
g61
(dp2976
g88
g89
ssg70
g2965
sg63
(lp2977
S':'
asbag56
(g77
g58
NtRp2978
(dp2979
g61
(dp2980
sg70
g2965
sg63
(lp2981
g56
(g57
g58
NtRp2982
(dp2983
g61
(dp2984
g69
I3
ssg70
g2978
sg63
(lp2985
g1538
asbasbasbag56
(g72
g58
NtRp2986
(dp2987
g61
(dp2988
sg70
g2877
sg63
(lp2989
g56
(g77
g58
NtRp2990
(dp2991
g61
(dp2992
g81
g82
ssg70
g2986
sg63
(lp2993
S'HTTP_CONNECTION'
p2994
asbag56
(g77
g58
NtRp2995
(dp2996
g61
(dp2997
g88
g89
ssg70
g2986
sg63
(lp2998
S':'
asbag56
(g77
g58
NtRp2999
(dp3000
g61
(dp3001
sg70
g2986
sg63
(lp3002
g56
(g57
g58
NtRp3003
(dp3004
g61
(dp3005
g69
I3
ssg70
g2999
sg63
(lp3006
g1560
asbasbasbag56
(g72
g58
NtRp3007
(dp3008
g61
(dp3009
sg70
g2877
sg63
(lp3010
g56
(g77
g58
NtRp3011
(dp3012
g61
(dp3013
g81
g82
ssg70
g3007
sg63
(lp3014
S'HTTP_COOKIE'
p3015
asbag56
(g77
g58
NtRp3016
(dp3017
g61
(dp3018
g88
g89
ssg70
g3007
sg63
(lp3019
S':'
asbag56
(g77
g58
NtRp3020
(dp3021
g61
(dp3022
sg70
g3007
sg63
(lp3023
g56
(g57
g58
NtRp3024
(dp3025
g61
(dp3026
g69
I3
ssg70
g3020
sg63
(lp3027
g1582
asbasbasbag56
(g72
g58
NtRp3028
(dp3029
g61
(dp3030
sg70
g2877
sg63
(lp3031
g56
(g77
g58
NtRp3032
(dp3033
g61
(dp3034
g81
g82
ssg70
g3028
sg63
(lp3035
S'HTTP_HOST'
p3036
asbag56
(g77
g58
NtRp3037
(dp3038
g61
(dp3039
g88
g89
ssg70
g3028
sg63
(lp3040
S':'
asbag56
(g77
g58
NtRp3041
(dp3042
g61
(dp3043
sg70
g3028
sg63
(lp3044
g56
(g57
g58
NtRp3045
(dp3046
g61
(dp3047
g69
I3
ssg70
g3041
sg63
(lp3048
g1604
asbasbasbag56
(g72
g58
NtRp3049
(dp3050
g61
(dp3051
sg70
g2877
sg63
(lp3052
g56
(g77
g58
NtRp3053
(dp3054
g61
(dp3055
g81
g82
ssg70
g3049
sg63
(lp3056
S'HTTP_REFERER'
p3057
asbag56
(g77
g58
NtRp3058
(dp3059
g61
(dp3060
g88
g89
ssg70
g3049
sg63
(lp3061
S':'
asbag56
(g77
g58
NtRp3062
(dp3063
g61
(dp3064
sg70
g3049
sg63
(lp3065
g56
(g57
g58
NtRp3066
(dp3067
g61
(dp3068
g69
I3
ssg70
g3062
sg63
(lp3069
g1626
asbasbasbag56
(g72
g58
NtRp3070
(dp3071
g61
(dp3072
sg70
g2877
sg63
(lp3073
g56
(g77
g58
NtRp3074
(dp3075
g61
(dp3076
g81
g82
ssg70
g3070
sg63
(lp3077
S'HTTP_USER_AGENT'
p3078
asbag56
(g77
g58
NtRp3079
(dp3080
g61
(dp3081
g88
g89
ssg70
g3070
sg63
(lp3082
S':'
asbag56
(g77
g58
NtRp3083
(dp3084
g61
(dp3085
sg70
g3070
sg63
(lp3086
g56
(g57
g58
NtRp3087
(dp3088
g61
(dp3089
g69
I3
ssg70
g3083
sg63
(lp3090
g1648
asbasbasbag56
(g72
g58
NtRp3091
(dp3092
g61
(dp3093
sg70
g2877
sg63
(lp3094
g56
(g77
g58
NtRp3095
(dp3096
g61
(dp3097
g81
g82
ssg70
g3091
sg63
(lp3098
S'PATH_INFO'
p3099
asbag56
(g77
g58
NtRp3100
(dp3101
g61
(dp3102
g88
g89
ssg70
g3091
sg63
(lp3103
S':'
asbag56
(g77
g58
NtRp3104
(dp3105
g61
(dp3106
sg70
g3091
sg63
(lp3107
g56
(g57
g58
NtRp3108
(dp3109
g61
(dp3110
g69
I3
ssg70
g3104
sg63
(lp3111
g1691
asbasbasbag56
(g72
g58
NtRp3112
(dp3113
g61
(dp3114
sg70
g2877
sg63
(lp3115
g56
(g77
g58
NtRp3116
(dp3117
g61
(dp3118
g81
g82
ssg70
g3112
sg63
(lp3119
S'QUERY_STRING'
p3120
asbag56
(g77
g58
NtRp3121
(dp3122
g61
(dp3123
g88
g89
ssg70
g3112
sg63
(lp3124
S':'
asbag56
(g77
g58
NtRp3125
(dp3126
g61
(dp3127
sg70
g3112
sg63
(lp3128
g56
(g57
g58
NtRp3129
(dp3130
g61
(dp3131
g69
I3
ssg70
g3125
sg63
(lp3132
S''
asbasbasbag56
(g72
g58
NtRp3133
(dp3134
g61
(dp3135
sg70
g2877
sg63
(lp3136
g56
(g77
g58
NtRp3137
(dp3138
g61
(dp3139
g81
g82
ssg70
g3133
sg63
(lp3140
S'REMOTE_ADDR'
p3141
asbag56
(g77
g58
NtRp3142
(dp3143
g61
(dp3144
g88
g89
ssg70
g3133
sg63
(lp3145
S':'
asbag56
(g77
g58
NtRp3146
(dp3147
g61
(dp3148
sg70
g3133
sg63
(lp3149
g56
(g57
g58
NtRp3150
(dp3151
g61
(dp3152
g69
I3
ssg70
g3146
sg63
(lp3153
g267
asbasbasbag56
(g72
g58
NtRp3154
(dp3155
g61
(dp3156
sg70
g2877
sg63
(lp3157
g56
(g77
g58
NtRp3158
(dp3159
g61
(dp3160
g81
g82
ssg70
g3154
sg63
(lp3161
S'REMOTE_PORT'
p3162
asbag56
(g77
g58
NtRp3163
(dp3164
g61
(dp3165
g88
g89
ssg70
g3154
sg63
(lp3166
S':'
asbag56
(g77
g58
NtRp3167
(dp3168
g61
(dp3169
sg70
g3154
sg63
(lp3170
g56
(g57
g58
NtRp3171
(dp3172
g61
(dp3173
g69
I3
ssg70
g3167
sg63
(lp3174
g1755
asbasbasbag56
(g72
g58
NtRp3175
(dp3176
g61
(dp3177
sg70
g2877
sg63
(lp3178
g56
(g77
g58
NtRp3179
(dp3180
g61
(dp3181
g81
g82
ssg70
g3175
sg63
(lp3182
S'REQUEST_METHOD'
p3183
asbag56
(g77
g58
NtRp3184
(dp3185
g61
(dp3186
g88
g89
ssg70
g3175
sg63
(lp3187
S':'
asbag56
(g77
g58
NtRp3188
(dp3189
g61
(dp3190
sg70
g3175
sg63
(lp3191
g56
(g57
g58
NtRp3192
(dp3193
g61
(dp3194
g69
I3
ssg70
g3188
sg63
(lp3195
g1777
asbasbasbag56
(g72
g58
NtRp3196
(dp3197
g61
(dp3198
sg70
g2877
sg63
(lp3199
g56
(g77
g58
NtRp3200
(dp3201
g61
(dp3202
g81
g82
ssg70
g3196
sg63
(lp3203
S'SCRIPT_NAME'
p3204
asbag56
(g77
g58
NtRp3205
(dp3206
g61
(dp3207
g88
g89
ssg70
g3196
sg63
(lp3208
S':'
asbag56
(g77
g58
NtRp3209
(dp3210
g61
(dp3211
sg70
g3196
sg63
(lp3212
g56
(g57
g58
NtRp3213
(dp3214
g61
(dp3215
g69
I3
ssg70
g3209
sg63
(lp3216
S''
asbasbasbag56
(g72
g58
NtRp3217
(dp3218
g61
(dp3219
sg70
g2877
sg63
(lp3220
g56
(g77
g58
NtRp3221
(dp3222
g61
(dp3223
g81
g82
ssg70
g3217
sg63
(lp3224
S'SERVER_NAME'
p3225
asbag56
(g77
g58
NtRp3226
(dp3227
g61
(dp3228
g88
g89
ssg70
g3217
sg63
(lp3229
S':'
asbag56
(g77
g58
NtRp3230
(dp3231
g61
(dp3232
sg70
g3217
sg63
(lp3233
g56
(g57
g58
NtRp3234
(dp3235
g61
(dp3236
g69
I3
ssg70
g3230
sg63
(lp3237
g1820
asbasbasbag56
(g72
g58
NtRp3238
(dp3239
g61
(dp3240
sg70
g2877
sg63
(lp3241
g56
(g77
g58
NtRp3242
(dp3243
g61
(dp3244
g81
g82
ssg70
g3238
sg63
(lp3245
S'SERVER_PORT'
p3246
asbag56
(g77
g58
NtRp3247
(dp3248
g61
(dp3249
g88
g89
ssg70
g3238
sg63
(lp3250
S':'
asbag56
(g77
g58
NtRp3251
(dp3252
g61
(dp3253
sg70
g3238
sg63
(lp3254
g56
(g57
g58
NtRp3255
(dp3256
g61
(dp3257
g69
I3
ssg70
g3251
sg63
(lp3258
g1842
asbasbasbag56
(g72
g58
NtRp3259
(dp3260
g61
(dp3261
sg70
g2877
sg63
(lp3262
g56
(g77
g58
NtRp3263
(dp3264
g61
(dp3265
g81
g82
ssg70
g3259
sg63
(lp3266
S'SERVER_PROTOCOL'
p3267
asbag56
(g77
g58
NtRp3268
(dp3269
g61
(dp3270
g88
g89
ssg70
g3259
sg63
(lp3271
S':'
asbag56
(g77
g58
NtRp3272
(dp3273
g61
(dp3274
sg70
g3259
sg63
(lp3275
g56
(g57
g58
NtRp3276
(dp3277
g61
(dp3278
g69
I3
ssg70
g3272
sg63
(lp3279
g1864
asbasbasbag56
(g72
g58
NtRp3280
(dp3281
g61
(dp3282
sg70
g2877
sg63
(lp3283
g56
(g77
g58
NtRp3284
(dp3285
g61
(dp3286
g81
g82
ssg70
g3280
sg63
(lp3287
S'SERVER_SOFTWARE'
p3288
asbag56
(g77
g58
NtRp3289
(dp3290
g61
(dp3291
g88
g89
ssg70
g3280
sg63
(lp3292
S':'
asbag56
(g77
g58
NtRp3293
(dp3294
g61
(dp3295
sg70
g3280
sg63
(lp3296
g56
(g57
g58
NtRp3297
(dp3298
g61
(dp3299
g69
I3
ssg70
g3293
sg63
(lp3300
g1886
asbasbasbag56
(g72
g58
NtRp3301
(dp3302
g61
(dp3303
sg70
g2877
sg63
(lp3304
g56
(g77
g58
NtRp3305
(dp3306
g61
(dp3307
g81
g82
ssg70
g3301
sg63
(lp3308
S'wsgi.errors'
p3309
asbag56
(g77
g58
NtRp3310
(dp3311
g61
(dp3312
g88
g89
ssg70
g3301
sg63
(lp3313
S':'
asbag56
(g77
g58
NtRp3314
(dp3315
g61
(dp3316
sg70
g3301
sg63
(lp3317
g56
(g57
g58
NtRp3318
(dp3319
g61
(dp3320
g69
I3
ssg70
g3314
sg63
(lp3321
S"<open file '<stderr>', mode 'w' at 0x7fc3682ea270>"
p3322
asbasbasbag56
(g72
g58
NtRp3323
(dp3324
g61
(dp3325
sg70
g2877
sg63
(lp3326
g56
(g77
g58
NtRp3327
(dp3328
g61
(dp3329
g81
g82
ssg70
g3323
sg63
(lp3330
S'wsgi.file_wrapper'
p3331
asbag56
(g77
g58
NtRp3332
(dp3333
g61
(dp3334
g88
g89
ssg70
g3323
sg63
(lp3335
S':'
asbag56
(g77
g58
NtRp3336
(dp3337
g61
(dp3338
sg70
g3323
sg63
(lp3339
g56
(g57
g58
NtRp3340
(dp3341
g61
(dp3342
g69
I3
ssg70
g3336
sg63
(lp3343
S'<class wsgiref.util.FileWrapper at 0x1e90808>'
p3344
asbasbasbag56
(g72
g58
NtRp3345
(dp3346
g61
(dp3347
sg70
g2877
sg63
(lp3348
g56
(g77
g58
NtRp3349
(dp3350
g61
(dp3351
g81
g82
ssg70
g3345
sg63
(lp3352
S'wsgi.input'
p3353
asbag56
(g77
g58
NtRp3354
(dp3355
g61
(dp3356
g88
g89
ssg70
g3345
sg63
(lp3357
S':'
asbag56
(g77
g58
NtRp3358
(dp3359
g61
(dp3360
sg70
g3345
sg63
(lp3361
g56
(g57
g58
NtRp3362
(dp3363
g61
(dp3364
g69
I3
ssg70
g3358
sg63
(lp3365
S'<cStringIO.StringO object at 0x2b6dd88>'
p3366
asbasbasbag56
(g72
g58
NtRp3367
(dp3368
g61
(dp3369
sg70
g2877
sg63
(lp3370
g56
(g77
g58
NtRp3371
(dp3372
g61
(dp3373
g81
g82
ssg70
g3367
sg63
(lp3374
S'wsgi.multiprocess'
p3375
asbag56
(g77
g58
NtRp3376
(dp3377
g61
(dp3378
g88
g89
ssg70
g3367
sg63
(lp3379
S':'
asbag56
(g77
g58
NtRp3380
(dp3381
g61
(dp3382
sg70
g3367
sg63
(lp3383
g56
(g57
g58
NtRp3384
(dp3385
g61
(dp3386
g69
I3
ssg70
g3380
sg63
(lp3387
g99
asbasbasbag56
(g72
g58
NtRp3388
(dp3389
g61
(dp3390
sg70
g2877
sg63
(lp3391
g56
(g77
g58
NtRp3392
(dp3393
g61
(dp3394
g81
g82
ssg70
g3388
sg63
(lp3395
S'wsgi.multithread'
p3396
asbag56
(g77
g58
NtRp3397
(dp3398
g61
(dp3399
g88
g89
ssg70
g3388
sg63
(lp3400
S':'
asbag56
(g77
g58
NtRp3401
(dp3402
g61
(dp3403
sg70
g3388
sg63
(lp3404
g56
(g57
g58
NtRp3405
(dp3406
g61
(dp3407
g69
I3
ssg70
g3401
sg63
(lp3408
g2126
asbasbasbag56
(g72
g58
NtRp3409
(dp3410
g61
(dp3411
sg70
g2877
sg63
(lp3412
g56
(g77
g58
NtRp3413
(dp3414
g61
(dp3415
g81
g82
ssg70
g3409
sg63
(lp3416
S'wsgi.run_once'
p3417
asbag56
(g77
g58
NtRp3418
(dp3419
g61
(dp3420
g88
g89
ssg70
g3409
sg63
(lp3421
S':'
asbag56
(g77
g58
NtRp3422
(dp3423
g61
(dp3424
sg70
g3409
sg63
(lp3425
g56
(g57
g58
NtRp3426
(dp3427
g61
(dp3428
g69
I3
ssg70
g3422
sg63
(lp3429
g99
asbasbasbag56
(g72
g58
NtRp3430
(dp3431
g61
(dp3432
sg70
g2877
sg63
(lp3433
g56
(g77
g58
NtRp3434
(dp3435
g61
(dp3436
g81
g82
ssg70
g3430
sg63
(lp3437
S'wsgi.url_scheme'
p3438
asbag56
(g77
g58
NtRp3439
(dp3440
g61
(dp3441
g88
g89
ssg70
g3430
sg63
(lp3442
S':'
asbag56
(g77
g58
NtRp3443
(dp3444
g61
(dp3445
sg70
g3430
sg63
(lp3446
g56
(g57
g58
NtRp3447
(dp3448
g61
(dp3449
g69
I3
ssg70
g3443
sg63
(lp3450
g2169
asbasbasbag56
(g72
g58
NtRp3451
(dp3452
g61
(dp3453
sg70
g2877
sg63
(lp3454
g56
(g77
g58
NtRp3455
(dp3456
g61
(dp3457
g81
g82
ssg70
g3451
sg63
(lp3458
S'wsgi.version'
p3459
asbag56
(g77
g58
NtRp3460
(dp3461
g61
(dp3462
g88
g89
ssg70
g3451
sg63
(lp3463
S':'
asbag56
(g77
g58
NtRp3464
(dp3465
g61
(dp3466
sg70
g3451
sg63
(lp3467
g56
(g57
g58
NtRp3468
(dp3469
g61
(dp3470
g69
I3
ssg70
g3464
sg63
(lp3471
S'1'
asbasbasbasbasbasbasbasbasbasbasbasbasbsS'frames'
p3472
(lp3473
(dp3474
S'file'
p3475
S'/home/ian/web2py/gluon/restricted.py'
p3476
sS'dump'
p3477
(dp3478
S'environment'
p3479
S"{'A': <class 'gluon.html.A'>, 'Auth': <class 'gluon.tools.Auth'>, 'B': <class 'gluon.html.B'>, 'BEAUTIFY': <class 'gluon.html.BEAUTIFY'>, 'BODY': <class 'gluon.html.BODY'>, 'BR': <class 'gluon.html.BR'>, 'BUTTON': <class 'gluon.html.BUTTON'>, 'CAT': <class 'gluon.html.CAT'>, 'CENTER': <class 'gluon.html.CENTER'>, 'CLEANUP': <class 'gluon.validators.CLEANUP'>, ...}"
p3480
sS'ccode'
p3481
S'<code object <module> at 0x29aaab0, file "/home/...topoi/controllers/plugin_listandedit.py", line 3>'
p3482
ssS'lnum'
p3483
I194
sS'lines'
p3484
(dp3485
I192
S'        else:'
p3486
sI193
S'            ccode = compile2(code,layer)'
p3487
sI194
S'        exec ccode in environment'
p3488
sI195
S'    except HTTP:'
p3489
sI196
S'        raise'
p3490
sI197
S'    except Exception, error:'
p3491
sI198
S'        # XXX Show exception in Wing IDE if running in debugger'
p3492
sI189
S'    try:'
p3493
sI190
S'        if type(code) == types.CodeType:'
p3494
sI191
S'            ccode = code'
p3495
ssS'call'
p3496
S"(code='# coding: utf8\\n# try something like\\ndef list(): ...m = form)\\n\\nresponse._vars=response._caller(list)\\n', environment={'A': <class 'gluon.html.A'>, 'Auth': <class 'gluon.tools.Auth'>, 'B': <class 'gluon.html.B'>, 'BEAUTIFY': <class 'gluon.html.BEAUTIFY'>, 'BODY': <class 'gluon.html.BODY'>, 'BR': <class 'gluon.html.BR'>, 'BUTTON': <class 'gluon.html.BUTTON'>, 'CAT': <class 'gluon.html.CAT'>, 'CENTER': <class 'gluon.html.CENTER'>, 'CLEANUP': <class 'gluon.validators.CLEANUP'>, ...}, layer='/home/ian/web2py/applications/topoi/controllers/plugin_listandedit.py')"
p3497
sS'func'
p3498
S'restricted'
p3499
sa(dp3500
g3475
S'/home/ian/web2py/applications/topoi/controllers/plugin_listandedit.py'
p3501
sg3477
(dp3502
sg3483
I37
sg3484
(dp3503
I32
S'    rowid = request.args[1]'
p3504
sI33
S'    form = crud.update(db[tablename], rowid)'
p3505
sI34
S''
sI35
S'    return dict(form = form)'
p3506
sI26
S'        listset.append(i)'
p3507
sI27
S''
sI28
S'    return dict(listset = listset)'
p3508
sI29
S''
sI30
S'def edit():'
p3509
sI31
S'    tablename = request.args[0]'
p3510
ssg3496
S'()'
p3511
sg3498
S'<module>'
p3512
sa(dp3513
g3475
S'/home/ian/web2py/gluon/globals.py'
p3514
sg3477
(dp3515
S'self'
p3516
S'undefined'
p3517
sS'f'
S'<function list>'
p3518
ssg3483
I149
sg3484
(dp3519
I144
S'        self.meta = Storage()      # used by web2py_ajax.html'
p3520
sI145
S'        self.menu = []             # used by the default view layout'
p3521
sI146
S'        self.files = []            # used by web2py_ajax.html'
p3522
sI147
S'        self.generic_patterns = [] # patterns to allow generic views'
p3523
sI148
S'        self._vars = None'
p3524
sI149
S'        self._caller = lambda f: f()'
p3525
sI150
S'        self._view_environment = None'
p3526
sI151
S'        self._custom_commit = None'
p3527
sI152
S'        self._custom_rollback = None'
p3528
sI153
S''
ssg3496
S'(f=<function list>)'
p3529
sg3498
S'<lambda>'
p3530
sa(dp3531
g3475
S'/home/ian/web2py/applications/topoi/controllers/plugin_listandedit.py'
p3532
sg3477
(dp3533
S'global db'
p3534
S"<DAL {'auth_event': <Table {'origin': <gluon.dal.../web2py/applications/topoi/databases/sql.log'}>}>"
p3535
sS'tablename'
p3536
S"'statics'"
p3537
sS'fieldname'
p3538
g3517
sS'].fields'
p3539
g3517
ssg3483
I13
sg3484
(dp3540
I8
S''
sI9
S'    tablename = request.args[0]'
p3541
sI10
S'    #FIXME: Hack here to solve problem of field name not being identical to table name'
p3542
sI11
S"    tablename = tablename + 's'"
p3543
sI12
S''
sI13
S'    fieldname = db[tablename].fields[1]'
p3544
sI14
S'    print tablename'
p3545
sI15
S''
sI16
S"    rowlist = ''"
p3546
sI17
S'    if not tablename in db.tables():'
p3547
ssg3496
S'()'
p3548
sg3498
S'list'
p3549
sa(dp3550
g3475
S'/home/ian/web2py/gluon/dal.py'
p3551
sg3477
(dp3552
S'builtinstr'
p3553
S"<type 'str'>"
p3554
sS'self'
p3555
S"<DAL {'auth_event': <Table {'origin': <gluon.dal.../web2py/applications/topoi/databases/sql.log'}>}>"
p3556
sS'dict.__getitem__'
p3557
S"<method '__getitem__' of 'dict' objects>"
p3558
sS'key'
p3559
S"'statics'"
p3560
sS'builtindict'
p3561
S"<type 'dict'>"
p3562
ssg3483
I4505
sg3484
(dp3563
I4500
S'    def __iter__(self):'
p3564
sI4501
S'        for tablename in self.tables:'
p3565
sI4502
S'            yield self[tablename]'
p3566
sI4503
S''
sI4504
S'    def __getitem__(self, key):'
p3567
sI4505
S'        return dict.__getitem__(self, str(key))'
p3568
sI4506
S''
sI4507
S'    def __setitem__(self, key, value):'
p3569
sI4508
S'        dict.__setitem__(self, str(key), value)'
p3570
sI4509
S''
ssg3496
S"(self=<DAL {'auth_event': <Table {'origin': <gluon.dal.../web2py/applications/topoi/databases/sql.log'}>}>, key='statics')"
p3571
sg3498
g19
sasS'pyver'
p3572
S'Python 2.7.2+: /usr/bin/python2.7'
p3573
sS'session'
p3574
g56
(g57
g58
NtRp3575
(dp3576
g61
(dp3577
sg63
(lp3578
g56
(g65
g58
NtRp3579
(dp3580
g61
(dp3581
g69
I5
ssg70
Nsg63
(lp3582
g56
(g72
g58
NtRp3583
(dp3584
g61
(dp3585
sg70
g3579
sg63
(lp3586
g56
(g77
g58
NtRp3587
(dp3588
g61
(dp3589
g81
g82
ssg70
g3583
sg63
(lp3590
S'auth'
p3591
asbag56
(g77
g58
NtRp3592
(dp3593
g61
(dp3594
g88
g89
ssg70
g3583
sg63
(lp3595
S':'
asbag56
(g77
g58
NtRp3596
(dp3597
g61
(dp3598
sg70
g3583
sg63
(lp3599
g56
(g57
g58
NtRp3600
(dp3601
g61
(dp3602
g69
I5
ssg70
g3596
sg63
(lp3603
g56
(g65
g58
NtRp3604
(dp3605
g61
(dp3606
g69
I4
ssg70
Nsg63
(lp3607
g56
(g72
g58
NtRp3608
(dp3609
g61
(dp3610
sg70
g3604
sg63
(lp3611
g56
(g77
g58
NtRp3612
(dp3613
g61
(dp3614
g81
g82
ssg70
g3608
sg63
(lp3615
S'expiration'
p3616
asbag56
(g77
g58
NtRp3617
(dp3618
g61
(dp3619
g88
g89
ssg70
g3608
sg63
(lp3620
S':'
asbag56
(g77
g58
NtRp3621
(dp3622
g61
(dp3623
sg70
g3608
sg63
(lp3624
g56
(g57
g58
NtRp3625
(dp3626
g61
(dp3627
g69
I4
ssg70
g3621
sg63
(lp3628
S'2592000'
p3629
asbasbasbag56
(g72
g58
NtRp3630
(dp3631
g61
(dp3632
sg70
g3604
sg63
(lp3633
g56
(g77
g58
NtRp3634
(dp3635
g61
(dp3636
g81
g82
ssg70
g3630
sg63
(lp3637
S'hmac_key'
p3638
asbag56
(g77
g58
NtRp3639
(dp3640
g61
(dp3641
g88
g89
ssg70
g3630
sg63
(lp3642
S':'
asbag56
(g77
g58
NtRp3643
(dp3644
g61
(dp3645
sg70
g3630
sg63
(lp3646
g56
(g57
g58
NtRp3647
(dp3648
g61
(dp3649
g69
I4
ssg70
g3643
sg63
(lp3650
S'eceeeca4-e0d7-49bc-a679-949298c4984a'
p3651
asbasbasbag56
(g72
g58
NtRp3652
(dp3653
g61
(dp3654
sg70
g3604
sg63
(lp3655
g56
(g77
g58
NtRp3656
(dp3657
g61
(dp3658
g81
g82
ssg70
g3652
sg63
(lp3659
S'last_visit'
p3660
asbag56
(g77
g58
NtRp3661
(dp3662
g61
(dp3663
g88
g89
ssg70
g3652
sg63
(lp3664
S':'
asbag56
(g77
g58
NtRp3665
(dp3666
g61
(dp3667
sg70
g3652
sg63
(lp3668
g56
(g57
g58
NtRp3669
(dp3670
g61
(dp3671
g69
I4
ssg70
g3665
sg63
(lp3672
S'datetime.datetime(2011, 11, 28, 8, 41, 19, 979285)'
p3673
asbasbasbag56
(g72
g58
NtRp3674
(dp3675
g61
(dp3676
sg70
g3604
sg63
(lp3677
g56
(g77
g58
NtRp3678
(dp3679
g61
(dp3680
g81
g82
ssg70
g3674
sg63
(lp3681
S'remember'
p3682
asbag56
(g77
g58
NtRp3683
(dp3684
g61
(dp3685
g88
g89
ssg70
g3674
sg63
(lp3686
S':'
asbag56
(g77
g58
NtRp3687
(dp3688
g61
(dp3689
sg70
g3674
sg63
(lp3690
g56
(g57
g58
NtRp3691
(dp3692
g61
(dp3693
g69
I4
ssg70
g3687
sg63
(lp3694
g2126
asbasbasbag56
(g72
g58
NtRp3695
(dp3696
g61
(dp3697
sg70
g3604
sg63
(lp3698
g56
(g77
g58
NtRp3699
(dp3700
g61
(dp3701
g81
g82
ssg70
g3695
sg63
(lp3702
S'user'
p3703
asbag56
(g77
g58
NtRp3704
(dp3705
g61
(dp3706
g88
g89
ssg70
g3695
sg63
(lp3707
S':'
asbag56
(g77
g58
NtRp3708
(dp3709
g61
(dp3710
sg70
g3695
sg63
(lp3711
g56
(g57
g58
NtRp3712
(dp3713
g61
(dp3714
g69
I4
ssg70
g3708
sg63
(lp3715
g56
(g65
g58
NtRp3716
(dp3717
g61
(dp3718
g69
I3
ssg70
Nsg63
(lp3719
g56
(g72
g58
NtRp3720
(dp3721
g61
(dp3722
sg70
g3716
sg63
(lp3723
g56
(g77
g58
NtRp3724
(dp3725
g61
(dp3726
g81
g82
ssg70
g3720
sg63
(lp3727
S'email'
p3728
asbag56
(g77
g58
NtRp3729
(dp3730
g61
(dp3731
g88
g89
ssg70
g3720
sg63
(lp3732
S':'
asbag56
(g77
g58
NtRp3733
(dp3734
g61
(dp3735
sg70
g3720
sg63
(lp3736
g56
(g57
g58
NtRp3737
(dp3738
g61
(dp3739
g69
I3
ssg70
g3733
sg63
(lp3740
S'scottianw@gmail.com'
p3741
asbasbasbag56
(g72
g58
NtRp3742
(dp3743
g61
(dp3744
sg70
g3716
sg63
(lp3745
g56
(g77
g58
NtRp3746
(dp3747
g61
(dp3748
g81
g82
ssg70
g3742
sg63
(lp3749
S'first_name'
p3750
asbag56
(g77
g58
NtRp3751
(dp3752
g61
(dp3753
g88
g89
ssg70
g3742
sg63
(lp3754
S':'
asbag56
(g77
g58
NtRp3755
(dp3756
g61
(dp3757
sg70
g3742
sg63
(lp3758
g56
(g57
g58
NtRp3759
(dp3760
g61
(dp3761
g69
I3
ssg70
g3755
sg63
(lp3762
S'Ian'
p3763
asbasbasbag56
(g72
g58
NtRp3764
(dp3765
g61
(dp3766
sg70
g3716
sg63
(lp3767
g56
(g77
g58
NtRp3768
(dp3769
g61
(dp3770
g81
g82
ssg70
g3764
sg63
(lp3771
S'id'
p3772
asbag56
(g77
g58
NtRp3773
(dp3774
g61
(dp3775
g88
g89
ssg70
g3764
sg63
(lp3776
S':'
asbag56
(g77
g58
NtRp3777
(dp3778
g61
(dp3779
sg70
g3764
sg63
(lp3780
g56
(g57
g58
NtRp3781
(dp3782
g61
(dp3783
g69
I3
ssg70
g3777
sg63
(lp3784
S'1'
asbasbasbag56
(g72
g58
NtRp3785
(dp3786
g61
(dp3787
sg70
g3716
sg63
(lp3788
g56
(g77
g58
NtRp3789
(dp3790
g61
(dp3791
g81
g82
ssg70
g3785
sg63
(lp3792
S'last_name'
p3793
asbag56
(g77
g58
NtRp3794
(dp3795
g61
(dp3796
g88
g89
ssg70
g3785
sg63
(lp3797
S':'
asbag56
(g77
g58
NtRp3798
(dp3799
g61
(dp3800
sg70
g3785
sg63
(lp3801
g56
(g57
g58
NtRp3802
(dp3803
g61
(dp3804
g69
I3
ssg70
g3798
sg63
(lp3805
S'Scott'
p3806
asbasbasbag56
(g72
g58
NtRp3807
(dp3808
g61
(dp3809
sg70
g3716
sg63
(lp3810
g56
(g77
g58
NtRp3811
(dp3812
g61
(dp3813
g81
g82
ssg70
g3807
sg63
(lp3814
S'password'
p3815
asbag56
(g77
g58
NtRp3816
(dp3817
g61
(dp3818
g88
g89
ssg70
g3807
sg63
(lp3819
S':'
asbag56
(g77
g58
NtRp3820
(dp3821
g61
(dp3822
sg70
g3807
sg63
(lp3823
g56
(g57
g58
NtRp3824
(dp3825
g61
(dp3826
g69
I3
ssg70
g3820
sg63
(lp3827
S'6fb48d01a3959846ba0fe062b1789f17d9cf3d34d3ec5aa948f598bbf4387cb10eb60c797988f41dfea97ee691b338dd77413d430229e401cf7c84e6cd9c4458'
p3828
asbasbasbag56
(g72
g58
NtRp3829
(dp3830
g61
(dp3831
sg70
g3716
sg63
(lp3832
g56
(g77
g58
NtRp3833
(dp3834
g61
(dp3835
g81
g82
ssg70
g3829
sg63
(lp3836
S'registration_key'
p3837
asbag56
(g77
g58
NtRp3838
(dp3839
g61
(dp3840
g88
g89
ssg70
g3829
sg63
(lp3841
S':'
asbag56
(g77
g58
NtRp3842
(dp3843
g61
(dp3844
sg70
g3829
sg63
(lp3845
g56
(g57
g58
NtRp3846
(dp3847
g61
(dp3848
g69
I3
ssg70
g3842
sg63
(lp3849
S''
asbasbasbag56
(g72
g58
NtRp3850
(dp3851
g61
(dp3852
sg70
g3716
sg63
(lp3853
g56
(g77
g58
NtRp3854
(dp3855
g61
(dp3856
g81
g82
ssg70
g3850
sg63
(lp3857
S'reset_password_key'
p3858
asbag56
(g77
g58
NtRp3859
(dp3860
g61
(dp3861
g88
g89
ssg70
g3850
sg63
(lp3862
S':'
asbag56
(g77
g58
NtRp3863
(dp3864
g61
(dp3865
sg70
g3850
sg63
(lp3866
g56
(g57
g58
NtRp3867
(dp3868
g61
(dp3869
g69
I3
ssg70
g3863
sg63
(lp3870
S''
asbasbasbasbasbasbasbasbasbasbasbasbasbsS'etype'
p3871
S"<type 'exceptions.KeyError'>"
p3872
sS'date'
p3873
S'Tue Nov 29 22:22:11 2011'
p3874
sS'response'
p3875
g56
(g57
g58
NtRp3876
(dp3877
g61
(dp3878
sg63
(lp3879
g56
(g65
g58
NtRp3880
(dp3881
g61
(dp3882
g69
I5
ssg70
Nsg63
(lp3883
g56
(g72
g58
NtRp3884
(dp3885
g61
(dp3886
sg70
g3880
sg63
(lp3887
g56
(g77
g58
NtRp3888
(dp3889
g61
(dp3890
g81
g82
ssg70
g3884
sg63
(lp3891
g232
asbag56
(g77
g58
NtRp3892
(dp3893
g61
(dp3894
g88
g89
ssg70
g3884
sg63
(lp3895
S':'
asbag56
(g77
g58
NtRp3896
(dp3897
g61
(dp3898
sg70
g3884
sg63
(lp3899
g56
(g57
g58
NtRp3900
(dp3901
g61
(dp3902
g69
I5
ssg70
g3896
sg63
(lp3903
S'<cStringIO.StringO object at 0x2cd9ce0>'
p3904
asbasbasbag56
(g72
g58
NtRp3905
(dp3906
g61
(dp3907
sg70
g3880
sg63
(lp3908
g56
(g77
g58
NtRp3909
(dp3910
g61
(dp3911
g81
g82
ssg70
g3905
sg63
(lp3912
g298
asbag56
(g77
g58
NtRp3913
(dp3914
g61
(dp3915
g88
g89
ssg70
g3905
sg63
(lp3916
S':'
asbag56
(g77
g58
NtRp3917
(dp3918
g61
(dp3919
sg70
g3905
sg63
(lp3920
g56
(g57
g58
NtRp3921
(dp3922
g61
(dp3923
g69
I5
ssg70
g3917
sg63
(lp3924
g56
(g65
g58
NtRp3925
(dp3926
g61
(dp3927
g69
I4
ssg70
Nsg63
(lp3928
g56
(g72
g58
NtRp3929
(dp3930
g61
(dp3931
sg70
g3925
sg63
(lp3932
g56
(g77
g58
NtRp3933
(dp3934
g61
(dp3935
g81
g82
ssg70
g3929
sg63
(lp3936
S'session_id_topoi'
p3937
asbag56
(g77
g58
NtRp3938
(dp3939
g61
(dp3940
g88
g89
ssg70
g3929
sg63
(lp3941
S':'
asbag56
(g77
g58
NtRp3942
(dp3943
g61
(dp3944
sg70
g3929
sg63
(lp3945
g56
(g57
g58
NtRp3946
(dp3947
g61
(dp3948
g69
I4
ssg70
g3942
sg63
(lp3949
g56
(g65
g58
NtRp3950
(dp3951
g61
(dp3952
g69
I3
ssg70
Nsg63
(lp3953
g56
(g72
g58
NtRp3954
(dp3955
g61
(dp3956
sg70
g3950
sg63
(lp3957
g56
(g77
g58
NtRp3958
(dp3959
g61
(dp3960
g81
g82
ssg70
g3954
sg63
(lp3961
g348
asbag56
(g77
g58
NtRp3962
(dp3963
g61
(dp3964
g88
g89
ssg70
g3954
sg63
(lp3965
S':'
asbag56
(g77
g58
NtRp3966
(dp3967
g61
(dp3968
sg70
g3954
sg63
(lp3969
g56
(g57
g58
NtRp3970
(dp3971
g61
(dp3972
g69
I3
ssg70
g3966
sg63
(lp3973
S''
asbasbasbag56
(g72
g58
NtRp3974
(dp3975
g61
(dp3976
sg70
g3950
sg63
(lp3977
g56
(g77
g58
NtRp3978
(dp3979
g61
(dp3980
g81
g82
ssg70
g3974
sg63
(lp3981
g369
asbag56
(g77
g58
NtRp3982
(dp3983
g61
(dp3984
g88
g89
ssg70
g3974
sg63
(lp3985
S':'
asbag56
(g77
g58
NtRp3986
(dp3987
g61
(dp3988
sg70
g3974
sg63
(lp3989
g56
(g57
g58
NtRp3990
(dp3991
g61
(dp3992
g69
I3
ssg70
g3986
sg63
(lp3993
S''
asbasbasbag56
(g72
g58
NtRp3994
(dp3995
g61
(dp3996
sg70
g3950
sg63
(lp3997
g56
(g77
g58
NtRp3998
(dp3999
g61
(dp4000
g81
g82
ssg70
g3994
sg63
(lp4001
g390
asbag56
(g77
g58
NtRp4002
(dp4003
g61
(dp4004
g88
g89
ssg70
g3994
sg63
(lp4005
S':'
asbag56
(g77
g58
NtRp4006
(dp4007
g61
(dp4008
sg70
g3994
sg63
(lp4009
g56
(g57
g58
NtRp4010
(dp4011
g61
(dp4012
g69
I3
ssg70
g4006
sg63
(lp4013
S'2592000'
p4014
asbasbasbag56
(g72
g58
NtRp4015
(dp4016
g61
(dp4017
sg70
g3950
sg63
(lp4018
g56
(g77
g58
NtRp4019
(dp4020
g61
(dp4021
g81
g82
ssg70
g4015
sg63
(lp4022
g411
asbag56
(g77
g58
NtRp4023
(dp4024
g61
(dp4025
g88
g89
ssg70
g4015
sg63
(lp4026
S':'
asbag56
(g77
g58
NtRp4027
(dp4028
g61
(dp4029
sg70
g4015
sg63
(lp4030
g56
(g57
g58
NtRp4031
(dp4032
g61
(dp4033
g69
I3
ssg70
g4027
sg63
(lp4034
S''
asbasbasbag56
(g72
g58
NtRp4035
(dp4036
g61
(dp4037
sg70
g3950
sg63
(lp4038
g56
(g77
g58
NtRp4039
(dp4040
g61
(dp4041
g81
g82
ssg70
g4035
sg63
(lp4042
g432
asbag56
(g77
g58
NtRp4043
(dp4044
g61
(dp4045
g88
g89
ssg70
g4035
sg63
(lp4046
S':'
asbag56
(g77
g58
NtRp4047
(dp4048
g61
(dp4049
sg70
g4035
sg63
(lp4050
g56
(g57
g58
NtRp4051
(dp4052
g61
(dp4053
g69
I3
ssg70
g4047
sg63
(lp4054
S''
asbasbasbag56
(g72
g58
NtRp4055
(dp4056
g61
(dp4057
sg70
g3950
sg63
(lp4058
g56
(g77
g58
NtRp4059
(dp4060
g61
(dp4061
g81
g82
ssg70
g4055
sg63
(lp4062
g453
asbag56
(g77
g58
NtRp4063
(dp4064
g61
(dp4065
g88
g89
ssg70
g4055
sg63
(lp4066
S':'
asbag56
(g77
g58
NtRp4067
(dp4068
g61
(dp4069
sg70
g4055
sg63
(lp4070
g56
(g57
g58
NtRp4071
(dp4072
g61
(dp4073
g69
I3
ssg70
g4067
sg63
(lp4074
S'/'
asbasbasbag56
(g72
g58
NtRp4075
(dp4076
g61
(dp4077
sg70
g3950
sg63
(lp4078
g56
(g77
g58
NtRp4079
(dp4080
g61
(dp4081
g81
g82
ssg70
g4075
sg63
(lp4082
g474
asbag56
(g77
g58
NtRp4083
(dp4084
g61
(dp4085
g88
g89
ssg70
g4075
sg63
(lp4086
S':'
asbag56
(g77
g58
NtRp4087
(dp4088
g61
(dp4089
sg70
g4075
sg63
(lp4090
g56
(g57
g58
NtRp4091
(dp4092
g61
(dp4093
g69
I3
ssg70
g4087
sg63
(lp4094
S''
asbasbasbag56
(g72
g58
NtRp4095
(dp4096
g61
(dp4097
sg70
g3950
sg63
(lp4098
g56
(g77
g58
NtRp4099
(dp4100
g61
(dp4101
g81
g82
ssg70
g4095
sg63
(lp4102
g495
asbag56
(g77
g58
NtRp4103
(dp4104
g61
(dp4105
g88
g89
ssg70
g4095
sg63
(lp4106
S':'
asbag56
(g77
g58
NtRp4107
(dp4108
g61
(dp4109
sg70
g4095
sg63
(lp4110
g56
(g57
g58
NtRp4111
(dp4112
g61
(dp4113
g69
I3
ssg70
g4107
sg63
(lp4114
S''
asbasbasbasbasbasbasbasbasbasbasbag56
(g72
g58
NtRp4115
(dp4116
g61
(dp4117
sg70
g3880
sg63
(lp4118
g56
(g77
g58
NtRp4119
(dp4120
g61
(dp4121
g81
g82
ssg70
g4115
sg63
(lp4122
S'files'
p4123
asbag56
(g77
g58
NtRp4124
(dp4125
g61
(dp4126
g88
g89
ssg70
g4115
sg63
(lp4127
S':'
asbag56
(g77
g58
NtRp4128
(dp4129
g61
(dp4130
sg70
g4115
sg63
(lp4131
g56
(g57
g58
NtRp4132
(dp4133
g61
(dp4134
g69
I5
ssg70
g4128
sg63
(lp4135
g56
(g65
g58
NtRp4136
(dp4137
g61
(dp4138
g69
I4
ssg70
Nsg63
(lp4139
g56
(g72
g58
NtRp4140
(dp4141
g61
(dp4142
sg70
g4136
sg63
(lp4143
g56
(g77
g58
NtRp4144
(dp4145
g61
(dp4146
sg70
g4140
sg63
(lp4147
g56
(g57
g58
NtRp4148
(dp4149
g61
(dp4150
g69
I4
ssg70
g4144
sg63
(lp4151
S'/topoi/static/plugin_listandedit/plugin_listandedit.css'
p4152
asbasbasbag56
(g72
g58
NtRp4153
(dp4154
g61
(dp4155
sg70
g4136
sg63
(lp4156
g56
(g77
g58
NtRp4157
(dp4158
g61
(dp4159
sg70
g4153
sg63
(lp4160
g56
(g57
g58
NtRp4161
(dp4162
g61
(dp4163
g69
I4
ssg70
g4157
sg63
(lp4164
S'/topoi/static/plugin_listandedit/plugin_listandedit.js'
p4165
asbasbasbasbasbasbasbag56
(g72
g58
NtRp4166
(dp4167
g61
(dp4168
sg70
g3880
sg63
(lp4169
g56
(g77
g58
NtRp4170
(dp4171
g61
(dp4172
g81
g82
ssg70
g4166
sg63
(lp4173
S'flash'
p4174
asbag56
(g77
g58
NtRp4175
(dp4176
g61
(dp4177
g88
g89
ssg70
g4166
sg63
(lp4178
S':'
asbag56
(g77
g58
NtRp4179
(dp4180
g61
(dp4181
sg70
g4166
sg63
(lp4182
g56
(g57
g58
NtRp4183
(dp4184
g61
(dp4185
g69
I5
ssg70
g4179
sg63
(lp4186
S''
asbasbasbag56
(g72
g58
NtRp4187
(dp4188
g61
(dp4189
sg70
g3880
sg63
(lp4190
g56
(g77
g58
NtRp4191
(dp4192
g61
(dp4193
g81
g82
ssg70
g4187
sg63
(lp4194
S'generic_patterns'
p4195
asbag56
(g77
g58
NtRp4196
(dp4197
g61
(dp4198
g88
g89
ssg70
g4187
sg63
(lp4199
S':'
asbag56
(g77
g58
NtRp4200
(dp4201
g61
(dp4202
sg70
g4187
sg63
(lp4203
g56
(g57
g58
NtRp4204
(dp4205
g61
(dp4206
g69
I5
ssg70
g4200
sg63
(lp4207
g56
(g65
g58
NtRp4208
(dp4209
g61
(dp4210
g69
I4
ssg70
Nsg63
(lp4211
g56
(g72
g58
NtRp4212
(dp4213
g61
(dp4214
sg70
g4208
sg63
(lp4215
g56
(g77
g58
NtRp4216
(dp4217
g61
(dp4218
sg70
g4212
sg63
(lp4219
g56
(g57
g58
NtRp4220
(dp4221
g61
(dp4222
g69
I4
ssg70
g4216
sg63
(lp4223
S'*'
asbasbasbasbasbasbasbag56
(g72
g58
NtRp4224
(dp4225
g61
(dp4226
sg70
g3880
sg63
(lp4227
g56
(g77
g58
NtRp4228
(dp4229
g61
(dp4230
g81
g82
ssg70
g4224
sg63
(lp4231
S'headers'
p4232
asbag56
(g77
g58
NtRp4233
(dp4234
g61
(dp4235
g88
g89
ssg70
g4224
sg63
(lp4236
S':'
asbag56
(g77
g58
NtRp4237
(dp4238
g61
(dp4239
sg70
g4224
sg63
(lp4240
g56
(g57
g58
NtRp4241
(dp4242
g61
(dp4243
g69
I5
ssg70
g4237
sg63
(lp4244
g56
(g65
g58
NtRp4245
(dp4246
g61
(dp4247
g69
I4
ssg70
Nsg63
(lp4248
g56
(g72
g58
NtRp4249
(dp4250
g61
(dp4251
sg70
g4245
sg63
(lp4252
g56
(g77
g58
NtRp4253
(dp4254
g61
(dp4255
g81
g82
ssg70
g4249
sg63
(lp4256
S'Cache-Control'
p4257
asbag56
(g77
g58
NtRp4258
(dp4259
g61
(dp4260
g88
g89
ssg70
g4249
sg63
(lp4261
S':'
asbag56
(g77
g58
NtRp4262
(dp4263
g61
(dp4264
sg70
g4249
sg63
(lp4265
g56
(g57
g58
NtRp4266
(dp4267
g61
(dp4268
g69
I4
ssg70
g4262
sg63
(lp4269
S'no-store, no-cache, must-revalidate, post-check=0, pre-check=0'
p4270
asbasbasbag56
(g72
g58
NtRp4271
(dp4272
g61
(dp4273
sg70
g4245
sg63
(lp4274
g56
(g77
g58
NtRp4275
(dp4276
g61
(dp4277
g81
g82
ssg70
g4271
sg63
(lp4278
S'Content-Type'
p4279
asbag56
(g77
g58
NtRp4280
(dp4281
g61
(dp4282
g88
g89
ssg70
g4271
sg63
(lp4283
S':'
asbag56
(g77
g58
NtRp4284
(dp4285
g61
(dp4286
sg70
g4271
sg63
(lp4287
g56
(g57
g58
NtRp4288
(dp4289
g61
(dp4290
g69
I4
ssg70
g4284
sg63
(lp4291
S'text/html; charset=utf-8'
p4292
asbasbasbag56
(g72
g58
NtRp4293
(dp4294
g61
(dp4295
sg70
g4245
sg63
(lp4296
g56
(g77
g58
NtRp4297
(dp4298
g61
(dp4299
g81
g82
ssg70
g4293
sg63
(lp4300
S'Expires'
p4301
asbag56
(g77
g58
NtRp4302
(dp4303
g61
(dp4304
g88
g89
ssg70
g4293
sg63
(lp4305
S':'
asbag56
(g77
g58
NtRp4306
(dp4307
g61
(dp4308
sg70
g4293
sg63
(lp4309
g56
(g57
g58
NtRp4310
(dp4311
g61
(dp4312
g69
I4
ssg70
g4306
sg63
(lp4313
S'Wed, 30 Nov 2011 03:22:10 GMT'
p4314
asbasbasbag56
(g72
g58
NtRp4315
(dp4316
g61
(dp4317
sg70
g4245
sg63
(lp4318
g56
(g77
g58
NtRp4319
(dp4320
g61
(dp4321
g81
g82
ssg70
g4315
sg63
(lp4322
S'Pragma'
p4323
asbag56
(g77
g58
NtRp4324
(dp4325
g61
(dp4326
g88
g89
ssg70
g4315
sg63
(lp4327
S':'
asbag56
(g77
g58
NtRp4328
(dp4329
g61
(dp4330
sg70
g4315
sg63
(lp4331
g56
(g57
g58
NtRp4332
(dp4333
g61
(dp4334
g69
I4
ssg70
g4328
sg63
(lp4335
S'no-cache'
p4336
asbasbasbag56
(g72
g58
NtRp4337
(dp4338
g61
(dp4339
sg70
g4245
sg63
(lp4340
g56
(g77
g58
NtRp4341
(dp4342
g61
(dp4343
g81
g82
ssg70
g4337
sg63
(lp4344
S'X-Powered-By'
p4345
asbag56
(g77
g58
NtRp4346
(dp4347
g61
(dp4348
g88
g89
ssg70
g4337
sg63
(lp4349
S':'
asbag56
(g77
g58
NtRp4350
(dp4351
g61
(dp4352
sg70
g4337
sg63
(lp4353
g56
(g57
g58
NtRp4354
(dp4355
g61
(dp4356
g69
I4
ssg70
g4350
sg63
(lp4357
S'web2py'
p4358
asbasbasbasbasbasbasbag56
(g72
g58
NtRp4359
(dp4360
g61
(dp4361
sg70
g3880
sg63
(lp4362
g56
(g77
g58
NtRp4363
(dp4364
g61
(dp4365
g81
g82
ssg70
g4359
sg63
(lp4366
S'menu'
p4367
asbag56
(g77
g58
NtRp4368
(dp4369
g61
(dp4370
g88
g89
ssg70
g4359
sg63
(lp4371
S':'
asbag56
(g77
g58
NtRp4372
(dp4373
g61
(dp4374
sg70
g4359
sg63
(lp4375
g56
(g57
g58
NtRp4376
(dp4377
g61
(dp4378
g69
I5
ssg70
g4372
sg63
(lp4379
g56
(g65
g58
NtRp4380
(dp4381
g61
(dp4382
g69
I4
ssg70
Nsg63
(lp4383
g56
(g72
g58
NtRp4384
(dp4385
g61
(dp4386
sg70
g4380
sg63
(lp4387
g56
(g77
g58
NtRp4388
(dp4389
g61
(dp4390
sg70
g4384
sg63
(lp4391
g56
(g57
g58
NtRp4392
(dp4393
g61
(dp4394
g69
I4
ssg70
g4388
sg63
(lp4395
g56
(g65
g58
NtRp4396
(dp4397
g61
(dp4398
g69
I3
ssg70
Nsg63
(lp4399
g56
(g72
g58
NtRp4400
(dp4401
g61
(dp4402
sg70
g4396
sg63
(lp4403
g56
(g77
g58
NtRp4404
(dp4405
g61
(dp4406
sg70
g4400
sg63
(lp4407
g56
(g57
g58
NtRp4408
(dp4409
g61
(dp4410
g69
I3
ssg70
g4404
sg63
(lp4411
cgluon.languages
lazyT_unpickle
p4412
(S't\x04\x00\x00\x00Home'
tRp4413
asbasbasbag56
(g72
g58
NtRp4414
(dp4415
g61
(dp4416
sg70
g4396
sg63
(lp4417
g56
(g77
g58
NtRp4418
(dp4419
g61
(dp4420
sg70
g4414
sg63
(lp4421
g56
(g57
g58
NtRp4422
(dp4423
g61
(dp4424
g69
I3
ssg70
g4418
sg63
(lp4425
g99
asbasbasbag56
(g72
g58
NtRp4426
(dp4427
g61
(dp4428
sg70
g4396
sg63
(lp4429
g56
(g77
g58
NtRp4430
(dp4431
g61
(dp4432
sg70
g4426
sg63
(lp4433
g56
(g57
g58
NtRp4434
(dp4435
g61
(dp4436
g69
I3
ssg70
g4430
sg63
(lp4437
S'/topoi/default/index'
p4438
asbasbasbag56
(g72
g58
NtRp4439
(dp4440
g61
(dp4441
sg70
g4396
sg63
(lp4442
g56
(g77
g58
NtRp4443
(dp4444
g61
(dp4445
sg70
g4439
sg63
(lp4446
g56
(g57
g58
NtRp4447
(dp4448
g61
(dp4449
g69
I3
ssg70
g4443
sg63
(lp4450
g56
(g65
g58
NtRp4451
(dp4452
g61
(dp4453
g69
I2
ssg70
Nsg63
(lp4454
sbasbasbasbasbasbasbasbag56
(g72
g58
NtRp4455
(dp4456
g61
(dp4457
sg70
g4380
sg63
(lp4458
g56
(g77
g58
NtRp4459
(dp4460
g61
(dp4461
sg70
g4455
sg63
(lp4462
g56
(g57
g58
NtRp4463
(dp4464
g61
(dp4465
g69
I4
ssg70
g4459
sg63
(lp4466
g56
(g65
g58
NtRp4467
(dp4468
g61
(dp4469
g69
I3
ssg70
Nsg63
(lp4470
g56
(g72
g58
NtRp4471
(dp4472
g61
(dp4473
sg70
g4467
sg63
(lp4474
g56
(g77
g58
NtRp4475
(dp4476
g61
(dp4477
sg70
g4471
sg63
(lp4478
g56
(g57
g58
NtRp4479
(dp4480
g61
(dp4481
g69
I3
ssg70
g4475
sg63
(lp4482
g4412
(S's\x08\x00\x00\x00This App'
tRp4483
asbasbasbag56
(g72
g58
NtRp4484
(dp4485
g61
(dp4486
sg70
g4467
sg63
(lp4487
g56
(g77
g58
NtRp4488
(dp4489
g61
(dp4490
sg70
g4484
sg63
(lp4491
g56
(g57
g58
NtRp4492
(dp4493
g61
(dp4494
g69
I3
ssg70
g4488
sg63
(lp4495
g99
asbasbasbag56
(g72
g58
NtRp4496
(dp4497
g61
(dp4498
sg70
g4467
sg63
(lp4499
g56
(g77
g58
NtRp4500
(dp4501
g61
(dp4502
sg70
g4496
sg63
(lp4503
g56
(g57
g58
NtRp4504
(dp4505
g61
(dp4506
g69
I3
ssg70
g4500
sg63
(lp4507
S'/admin/default/design/topoi'
p4508
asbasbasbag56
(g72
g58
NtRp4509
(dp4510
g61
(dp4511
sg70
g4467
sg63
(lp4512
g56
(g77
g58
NtRp4513
(dp4514
g61
(dp4515
sg70
g4509
sg63
(lp4516
g56
(g57
g58
NtRp4517
(dp4518
g61
(dp4519
g69
I3
ssg70
g4513
sg63
(lp4520
g56
(g65
g58
NtRp4521
(dp4522
g61
(dp4523
g69
I2
ssg70
Nsg63
(lp4524
g56
(g72
g58
NtRp4525
(dp4526
g61
(dp4527
sg70
g4521
sg63
(lp4528
g56
(g77
g58
NtRp4529
(dp4530
g61
(dp4531
sg70
g4525
sg63
(lp4532
g56
(g57
g58
NtRp4533
(dp4534
g61
(dp4535
g69
I2
ssg70
g4529
sg63
(lp4536
g56
(g65
g58
NtRp4537
(dp4538
g61
(dp4539
g69
I1
ssg70
Nsg63
(lp4540
g56
(g72
g58
NtRp4541
(dp4542
g61
(dp4543
sg70
g4537
sg63
(lp4544
g56
(g77
g58
NtRp4545
(dp4546
g61
(dp4547
sg70
g4541
sg63
(lp4548
g56
(g57
g58
NtRp4549
(dp4550
g61
(dp4551
g69
I1
ssg70
g4545
sg63
(lp4552
g4412
(S't\n\x00\x00\x00Controller'
tRp4553
asbasbasbag56
(g72
g58
NtRp4554
(dp4555
g61
(dp4556
sg70
g4537
sg63
(lp4557
g56
(g77
g58
NtRp4558
(dp4559
g61
(dp4560
sg70
g4554
sg63
(lp4561
g56
(g57
g58
NtRp4562
(dp4563
g61
(dp4564
g69
I1
ssg70
g4558
sg63
(lp4565
I00
asbasbasbag56
(g72
g58
NtRp4566
(dp4567
g61
(dp4568
sg70
g4537
sg63
(lp4569
g56
(g77
g58
NtRp4570
(dp4571
g61
(dp4572
sg70
g4566
sg63
(lp4573
g56
(g57
g58
NtRp4574
(dp4575
g61
(dp4576
g69
I1
ssg70
g4570
sg63
(lp4577
S'/admin/default/edit/topoi/controllers/plugin_listandedit.py'
p4578
asbasbasbasbasbasbasbag56
(g72
g58
NtRp4579
(dp4580
g61
(dp4581
sg70
g4521
sg63
(lp4582
g56
(g77
g58
NtRp4583
(dp4584
g61
(dp4585
sg70
g4579
sg63
(lp4586
g56
(g57
g58
NtRp4587
(dp4588
g61
(dp4589
g69
I2
ssg70
g4583
sg63
(lp4590
g56
(g65
g58
NtRp4591
(dp4592
g61
(dp4593
g69
I1
ssg70
Nsg63
(lp4594
g56
(g72
g58
NtRp4595
(dp4596
g61
(dp4597
sg70
g4591
sg63
(lp4598
g56
(g77
g58
NtRp4599
(dp4600
g61
(dp4601
sg70
g4595
sg63
(lp4602
g56
(g57
g58
NtRp4603
(dp4604
g61
(dp4605
g69
I1
ssg70
g4599
sg63
(lp4606
g4412
(S't\x04\x00\x00\x00View'
tRp4607
asbasbasbag56
(g72
g58
NtRp4608
(dp4609
g61
(dp4610
sg70
g4591
sg63
(lp4611
g56
(g77
g58
NtRp4612
(dp4613
g61
(dp4614
sg70
g4608
sg63
(lp4615
g56
(g57
g58
NtRp4616
(dp4617
g61
(dp4618
g69
I1
ssg70
g4612
sg63
(lp4619
I00
asbasbasbag56
(g72
g58
NtRp4620
(dp4621
g61
(dp4622
sg70
g4591
sg63
(lp4623
g56
(g77
g58
NtRp4624
(dp4625
g61
(dp4626
sg70
g4620
sg63
(lp4627
g56
(g57
g58
NtRp4628
(dp4629
g61
(dp4630
g69
I1
ssg70
g4624
sg63
(lp4631
S'/admin/default/edit/topoi/views/plugin_listandedit/list.html'
p4632
asbasbasbasbasbasbasbag56
(g72
g58
NtRp4633
(dp4634
g61
(dp4635
sg70
g4521
sg63
(lp4636
g56
(g77
g58
NtRp4637
(dp4638
g61
(dp4639
sg70
g4633
sg63
(lp4640
g56
(g57
g58
NtRp4641
(dp4642
g61
(dp4643
g69
I2
ssg70
g4637
sg63
(lp4644
g56
(g65
g58
NtRp4645
(dp4646
g61
(dp4647
g69
I1
ssg70
Nsg63
(lp4648
g56
(g72
g58
NtRp4649
(dp4650
g61
(dp4651
sg70
g4645
sg63
(lp4652
g56
(g77
g58
NtRp4653
(dp4654
g61
(dp4655
sg70
g4649
sg63
(lp4656
g56
(g57
g58
NtRp4657
(dp4658
g61
(dp4659
g69
I1
ssg70
g4653
sg63
(lp4660
g4412
(S't\x06\x00\x00\x00Layout'
tRp4661
asbasbasbag56
(g72
g58
NtRp4662
(dp4663
g61
(dp4664
sg70
g4645
sg63
(lp4665
g56
(g77
g58
NtRp4666
(dp4667
g61
(dp4668
sg70
g4662
sg63
(lp4669
g56
(g57
g58
NtRp4670
(dp4671
g61
(dp4672
g69
I1
ssg70
g4666
sg63
(lp4673
I00
asbasbasbag56
(g72
g58
NtRp4674
(dp4675
g61
(dp4676
sg70
g4645
sg63
(lp4677
g56
(g77
g58
NtRp4678
(dp4679
g61
(dp4680
sg70
g4674
sg63
(lp4681
g56
(g57
g58
NtRp4682
(dp4683
g61
(dp4684
g69
I1
ssg70
g4678
sg63
(lp4685
S'/admin/default/edit/topoi/views/layout.html'
p4686
asbasbasbasbasbasbasbag56
(g72
g58
NtRp4687
(dp4688
g61
(dp4689
sg70
g4521
sg63
(lp4690
g56
(g77
g58
NtRp4691
(dp4692
g61
(dp4693
sg70
g4687
sg63
(lp4694
g56
(g57
g58
NtRp4695
(dp4696
g61
(dp4697
g69
I2
ssg70
g4691
sg63
(lp4698
g56
(g65
g58
NtRp4699
(dp4700
g61
(dp4701
g69
I1
ssg70
Nsg63
(lp4702
g56
(g72
g58
NtRp4703
(dp4704
g61
(dp4705
sg70
g4699
sg63
(lp4706
g56
(g77
g58
NtRp4707
(dp4708
g61
(dp4709
sg70
g4703
sg63
(lp4710
g56
(g57
g58
NtRp4711
(dp4712
g61
(dp4713
g69
I1
ssg70
g4707
sg63
(lp4714
g4412
(S't\n\x00\x00\x00Stylesheet'
tRp4715
asbasbasbag56
(g72
g58
NtRp4716
(dp4717
g61
(dp4718
sg70
g4699
sg63
(lp4719
g56
(g77
g58
NtRp4720
(dp4721
g61
(dp4722
sg70
g4716
sg63
(lp4723
g56
(g57
g58
NtRp4724
(dp4725
g61
(dp4726
g69
I1
ssg70
g4720
sg63
(lp4727
I00
asbasbasbag56
(g72
g58
NtRp4728
(dp4729
g61
(dp4730
sg70
g4699
sg63
(lp4731
g56
(g77
g58
NtRp4732
(dp4733
g61
(dp4734
sg70
g4728
sg63
(lp4735
g56
(g57
g58
NtRp4736
(dp4737
g61
(dp4738
g69
I1
ssg70
g4732
sg63
(lp4739
S'/admin/default/edit/topoi/static/base.css'
p4740
asbasbasbasbasbasbasbag56
(g72
g58
NtRp4741
(dp4742
g61
(dp4743
sg70
g4521
sg63
(lp4744
g56
(g77
g58
NtRp4745
(dp4746
g61
(dp4747
sg70
g4741
sg63
(lp4748
g56
(g57
g58
NtRp4749
(dp4750
g61
(dp4751
g69
I2
ssg70
g4745
sg63
(lp4752
g56
(g65
g58
NtRp4753
(dp4754
g61
(dp4755
g69
I1
ssg70
Nsg63
(lp4756
g56
(g72
g58
NtRp4757
(dp4758
g61
(dp4759
sg70
g4753
sg63
(lp4760
g56
(g77
g58
NtRp4761
(dp4762
g61
(dp4763
sg70
g4757
sg63
(lp4764
g56
(g57
g58
NtRp4765
(dp4766
g61
(dp4767
g69
I1
ssg70
g4761
sg63
(lp4768
g4412
(S's\x08\x00\x00\x00DB Model'
tRp4769
asbasbasbag56
(g72
g58
NtRp4770
(dp4771
g61
(dp4772
sg70
g4753
sg63
(lp4773
g56
(g77
g58
NtRp4774
(dp4775
g61
(dp4776
sg70
g4770
sg63
(lp4777
g56
(g57
g58
NtRp4778
(dp4779
g61
(dp4780
g69
I1
ssg70
g4774
sg63
(lp4781
I00
asbasbasbag56
(g72
g58
NtRp4782
(dp4783
g61
(dp4784
sg70
g4753
sg63
(lp4785
g56
(g77
g58
NtRp4786
(dp4787
g61
(dp4788
sg70
g4782
sg63
(lp4789
g56
(g57
g58
NtRp4790
(dp4791
g61
(dp4792
g69
I1
ssg70
g4786
sg63
(lp4793
S'/admin/default/edit/topoi/models/db.py'
p4794
asbasbasbasbasbasbasbag56
(g72
g58
NtRp4795
(dp4796
g61
(dp4797
sg70
g4521
sg63
(lp4798
g56
(g77
g58
NtRp4799
(dp4800
g61
(dp4801
sg70
g4795
sg63
(lp4802
g56
(g57
g58
NtRp4803
(dp4804
g61
(dp4805
g69
I2
ssg70
g4799
sg63
(lp4806
g56
(g65
g58
NtRp4807
(dp4808
g61
(dp4809
g69
I1
ssg70
Nsg63
(lp4810
g56
(g72
g58
NtRp4811
(dp4812
g61
(dp4813
sg70
g4807
sg63
(lp4814
g56
(g77
g58
NtRp4815
(dp4816
g61
(dp4817
sg70
g4811
sg63
(lp4818
g56
(g57
g58
NtRp4819
(dp4820
g61
(dp4821
g69
I1
ssg70
g4815
sg63
(lp4822
g4412
(S's\n\x00\x00\x00Menu Model'
tRp4823
asbasbasbag56
(g72
g58
NtRp4824
(dp4825
g61
(dp4826
sg70
g4807
sg63
(lp4827
g56
(g77
g58
NtRp4828
(dp4829
g61
(dp4830
sg70
g4824
sg63
(lp4831
g56
(g57
g58
NtRp4832
(dp4833
g61
(dp4834
g69
I1
ssg70
g4828
sg63
(lp4835
I00
asbasbasbag56
(g72
g58
NtRp4836
(dp4837
g61
(dp4838
sg70
g4807
sg63
(lp4839
g56
(g77
g58
NtRp4840
(dp4841
g61
(dp4842
sg70
g4836
sg63
(lp4843
g56
(g57
g58
NtRp4844
(dp4845
g61
(dp4846
g69
I1
ssg70
g4840
sg63
(lp4847
S'/admin/default/edit/topoi/models/menu.py'
p4848
asbasbasbasbasbasbasbag56
(g72
g58
NtRp4849
(dp4850
g61
(dp4851
sg70
g4521
sg63
(lp4852
g56
(g77
g58
NtRp4853
(dp4854
g61
(dp4855
sg70
g4849
sg63
(lp4856
g56
(g57
g58
NtRp4857
(dp4858
g61
(dp4859
g69
I2
ssg70
g4853
sg63
(lp4860
g56
(g65
g58
NtRp4861
(dp4862
g61
(dp4863
g69
I1
ssg70
Nsg63
(lp4864
g56
(g72
g58
NtRp4865
(dp4866
g61
(dp4867
sg70
g4861
sg63
(lp4868
g56
(g77
g58
NtRp4869
(dp4870
g61
(dp4871
sg70
g4865
sg63
(lp4872
g56
(g57
g58
NtRp4873
(dp4874
g61
(dp4875
g69
I1
ssg70
g4869
sg63
(lp4876
g4412
(S't\x08\x00\x00\x00Database'
tRp4877
asbasbasbag56
(g72
g58
NtRp4878
(dp4879
g61
(dp4880
sg70
g4861
sg63
(lp4881
g56
(g77
g58
NtRp4882
(dp4883
g61
(dp4884
sg70
g4878
sg63
(lp4885
g56
(g57
g58
NtRp4886
(dp4887
g61
(dp4888
g69
I1
ssg70
g4882
sg63
(lp4889
I00
asbasbasbag56
(g72
g58
NtRp4890
(dp4891
g61
(dp4892
sg70
g4861
sg63
(lp4893
g56
(g77
g58
NtRp4894
(dp4895
g61
(dp4896
sg70
g4890
sg63
(lp4897
g56
(g57
g58
NtRp4898
(dp4899
g61
(dp4900
g69
I1
ssg70
g4894
sg63
(lp4901
S'/topoi/appadmin/index'
p4902
asbasbasbasbasbasbasbag56
(g72
g58
NtRp4903
(dp4904
g61
(dp4905
sg70
g4521
sg63
(lp4906
g56
(g77
g58
NtRp4907
(dp4908
g61
(dp4909
sg70
g4903
sg63
(lp4910
g56
(g57
g58
NtRp4911
(dp4912
g61
(dp4913
g69
I2
ssg70
g4907
sg63
(lp4914
g56
(g65
g58
NtRp4915
(dp4916
g61
(dp4917
g69
I1
ssg70
Nsg63
(lp4918
g56
(g72
g58
NtRp4919
(dp4920
g61
(dp4921
sg70
g4915
sg63
(lp4922
g56
(g77
g58
NtRp4923
(dp4924
g61
(dp4925
sg70
g4919
sg63
(lp4926
g56
(g57
g58
NtRp4927
(dp4928
g61
(dp4929
g69
I1
ssg70
g4923
sg63
(lp4930
g4412
(S't\x06\x00\x00\x00Errors'
tRp4931
asbasbasbag56
(g72
g58
NtRp4932
(dp4933
g61
(dp4934
sg70
g4915
sg63
(lp4935
g56
(g77
g58
NtRp4936
(dp4937
g61
(dp4938
sg70
g4932
sg63
(lp4939
g56
(g57
g58
NtRp4940
(dp4941
g61
(dp4942
g69
I1
ssg70
g4936
sg63
(lp4943
I00
asbasbasbag56
(g72
g58
NtRp4944
(dp4945
g61
(dp4946
sg70
g4915
sg63
(lp4947
g56
(g77
g58
NtRp4948
(dp4949
g61
(dp4950
sg70
g4944
sg63
(lp4951
g56
(g57
g58
NtRp4952
(dp4953
g61
(dp4954
g69
I1
ssg70
g4948
sg63
(lp4955
S'/admin/default/errors/topoi'
p4956
asbasbasbasbasbasbasbag56
(g72
g58
NtRp4957
(dp4958
g61
(dp4959
sg70
g4521
sg63
(lp4960
g56
(g77
g58
NtRp4961
(dp4962
g61
(dp4963
sg70
g4957
sg63
(lp4964
g56
(g57
g58
NtRp4965
(dp4966
g61
(dp4967
g69
I2
ssg70
g4961
sg63
(lp4968
g56
(g65
g58
NtRp4969
(dp4970
g61
(dp4971
g69
I1
ssg70
Nsg63
(lp4972
g56
(g72
g58
NtRp4973
(dp4974
g61
(dp4975
sg70
g4969
sg63
(lp4976
g56
(g77
g58
NtRp4977
(dp4978
g61
(dp4979
sg70
g4973
sg63
(lp4980
g56
(g57
g58
NtRp4981
(dp4982
g61
(dp4983
g69
I1
ssg70
g4977
sg63
(lp4984
g4412
(S't\x05\x00\x00\x00About'
tRp4985
asbasbasbag56
(g72
g58
NtRp4986
(dp4987
g61
(dp4988
sg70
g4969
sg63
(lp4989
g56
(g77
g58
NtRp4990
(dp4991
g61
(dp4992
sg70
g4986
sg63
(lp4993
g56
(g57
g58
NtRp4994
(dp4995
g61
(dp4996
g69
I1
ssg70
g4990
sg63
(lp4997
I00
asbasbasbag56
(g72
g58
NtRp4998
(dp4999
g61
(dp5000
sg70
g4969
sg63
(lp5001
g56
(g77
g58
NtRp5002
(dp5003
g61
(dp5004
sg70
g4998
sg63
(lp5005
g56
(g57
g58
NtRp5006
(dp5007
g61
(dp5008
g69
I1
ssg70
g5002
sg63
(lp5009
S'/admin/default/about/topoi'
p5010
asbasbasbasbasbasbasbasbasbasbasbasbasbasbasbasbasbasbasbag56
(g72
g58
NtRp5011
(dp5012
g61
(dp5013
sg70
g3880
sg63
(lp5014
g56
(g77
g58
NtRp5015
(dp5016
g61
(dp5017
g81
g82
ssg70
g5011
sg63
(lp5018
S'meta'
p5019
asbag56
(g77
g58
NtRp5020
(dp5021
g61
(dp5022
g88
g89
ssg70
g5011
sg63
(lp5023
S':'
asbag56
(g77
g58
NtRp5024
(dp5025
g61
(dp5026
sg70
g5011
sg63
(lp5027
g56
(g57
g58
NtRp5028
(dp5029
g61
(dp5030
g69
I5
ssg70
g5024
sg63
(lp5031
g56
(g65
g58
NtRp5032
(dp5033
g61
(dp5034
g69
I4
ssg70
Nsg63
(lp5035
g56
(g72
g58
NtRp5036
(dp5037
g61
(dp5038
sg70
g5032
sg63
(lp5039
g56
(g77
g58
NtRp5040
(dp5041
g61
(dp5042
g81
g82
ssg70
g5036
sg63
(lp5043
S'author'
p5044
asbag56
(g77
g58
NtRp5045
(dp5046
g61
(dp5047
g88
g89
ssg70
g5036
sg63
(lp5048
S':'
asbag56
(g77
g58
NtRp5049
(dp5050
g61
(dp5051
sg70
g5036
sg63
(lp5052
g56
(g57
g58
NtRp5053
(dp5054
g61
(dp5055
g69
I4
ssg70
g5049
sg63
(lp5056
S'Ian W. Scott'
p5057
asbasbasbag56
(g72
g58
NtRp5058
(dp5059
g61
(dp5060
sg70
g5032
sg63
(lp5061
g56
(g77
g58
NtRp5062
(dp5063
g61
(dp5064
g81
g82
ssg70
g5058
sg63
(lp5065
S'copyright'
p5066
asbag56
(g77
g58
NtRp5067
(dp5068
g61
(dp5069
g88
g89
ssg70
g5058
sg63
(lp5070
S':'
asbag56
(g77
g58
NtRp5071
(dp5072
g61
(dp5073
sg70
g5058
sg63
(lp5074
g56
(g57
g58
NtRp5075
(dp5076
g61
(dp5077
g69
I4
ssg70
g5071
sg63
(lp5078
S'Copyright 2011'
p5079
asbasbasbag56
(g72
g58
NtRp5080
(dp5081
g61
(dp5082
sg70
g5032
sg63
(lp5083
g56
(g77
g58
NtRp5084
(dp5085
g61
(dp5086
g81
g82
ssg70
g5080
sg63
(lp5087
S'description'
p5088
asbag56
(g77
g58
NtRp5089
(dp5090
g61
(dp5091
g88
g89
ssg70
g5080
sg63
(lp5092
S':'
asbag56
(g77
g58
NtRp5093
(dp5094
g61
(dp5095
sg70
g5080
sg63
(lp5096
g56
(g57
g58
NtRp5097
(dp5098
g61
(dp5099
g69
I4
ssg70
g5093
sg63
(lp5100
S'A web-app for managing primary-text research in the humanities.'
p5101
asbasbasbag56
(g72
g58
NtRp5102
(dp5103
g61
(dp5104
sg70
g5032
sg63
(lp5105
g56
(g77
g58
NtRp5106
(dp5107
g61
(dp5108
g81
g82
ssg70
g5102
sg63
(lp5109
S'generator'
p5110
asbag56
(g77
g58
NtRp5111
(dp5112
g61
(dp5113
g88
g89
ssg70
g5102
sg63
(lp5114
S':'
asbag56
(g77
g58
NtRp5115
(dp5116
g61
(dp5117
sg70
g5102
sg63
(lp5118
g56
(g57
g58
NtRp5119
(dp5120
g61
(dp5121
g69
I4
ssg70
g5115
sg63
(lp5122
S'Web2py Enterprise Framework'
p5123
asbasbasbag56
(g72
g58
NtRp5124
(dp5125
g61
(dp5126
sg70
g5032
sg63
(lp5127
g56
(g77
g58
NtRp5128
(dp5129
g61
(dp5130
g81
g82
ssg70
g5124
sg63
(lp5131
S'keywords'
p5132
asbag56
(g77
g58
NtRp5133
(dp5134
g61
(dp5135
g88
g89
ssg70
g5124
sg63
(lp5136
S':'
asbag56
(g77
g58
NtRp5137
(dp5138
g61
(dp5139
sg70
g5124
sg63
(lp5140
g56
(g57
g58
NtRp5141
(dp5142
g61
(dp5143
g69
I4
ssg70
g5137
sg63
(lp5144
S'research, humanities, biblical'
p5145
asbasbasbasbasbasbasbag56
(g72
g58
NtRp5146
(dp5147
g61
(dp5148
sg70
g3880
sg63
(lp5149
g56
(g77
g58
NtRp5150
(dp5151
g61
(dp5152
g81
g82
ssg70
g5146
sg63
(lp5153
S'postprocessing'
p5154
asbag56
(g77
g58
NtRp5155
(dp5156
g61
(dp5157
g88
g89
ssg70
g5146
sg63
(lp5158
S':'
asbag56
(g77
g58
NtRp5159
(dp5160
g61
(dp5161
sg70
g5146
sg63
(lp5162
g56
(g57
g58
NtRp5163
(dp5164
g61
(dp5165
g69
I5
ssg70
g5159
sg63
(lp5166
g56
(g65
g58
NtRp5167
(dp5168
g61
(dp5169
g69
I4
ssg70
Nsg63
(lp5170
sbasbasbasbag56
(g72
g58
NtRp5171
(dp5172
g61
(dp5173
sg70
g3880
sg63
(lp5174
g56
(g77
g58
NtRp5175
(dp5176
g61
(dp5177
g81
g82
ssg70
g5171
sg63
(lp5178
S'session_file'
p5179
asbag56
(g77
g58
NtRp5180
(dp5181
g61
(dp5182
g88
g89
ssg70
g5171
sg63
(lp5183
S':'
asbag56
(g77
g58
NtRp5184
(dp5185
g61
(dp5186
sg70
g5171
sg63
(lp5187
g56
(g57
g58
NtRp5188
(dp5189
g61
(dp5190
g69
I5
ssg70
g5184
sg63
(lp5191
S"<open file '/home/ian/web2py/applications/topoi/sessions/127.0.0.1-af13e654-cdbc-4583-8d75-e46cda6f6e34', mode 'rb+' at 0x2b59780>"
p5192
asbasbasbag56
(g72
g58
NtRp5193
(dp5194
g61
(dp5195
sg70
g3880
sg63
(lp5196
g56
(g77
g58
NtRp5197
(dp5198
g61
(dp5199
g81
g82
ssg70
g5193
sg63
(lp5200
S'session_filename'
p5201
asbag56
(g77
g58
NtRp5202
(dp5203
g61
(dp5204
g88
g89
ssg70
g5193
sg63
(lp5205
S':'
asbag56
(g77
g58
NtRp5206
(dp5207
g61
(dp5208
sg70
g5193
sg63
(lp5209
g56
(g57
g58
NtRp5210
(dp5211
g61
(dp5212
g69
I5
ssg70
g5206
sg63
(lp5213
S'/home/ian/web2py/applications/topoi/sessions/127.0.0.1-af13e654-cdbc-4583-8d75-e46cda6f6e34'
p5214
asbasbasbag56
(g72
g58
NtRp5215
(dp5216
g61
(dp5217
sg70
g3880
sg63
(lp5218
g56
(g77
g58
NtRp5219
(dp5220
g61
(dp5221
g81
g82
ssg70
g5215
sg63
(lp5222
S'session_id'
p5223
asbag56
(g77
g58
NtRp5224
(dp5225
g61
(dp5226
g88
g89
ssg70
g5215
sg63
(lp5227
S':'
asbag56
(g77
g58
NtRp5228
(dp5229
g61
(dp5230
sg70
g5215
sg63
(lp5231
g56
(g57
g58
NtRp5232
(dp5233
g61
(dp5234
g69
I5
ssg70
g5228
sg63
(lp5235
S'127.0.0.1-af13e654-cdbc-4583-8d75-e46cda6f6e34'
p5236
asbasbasbag56
(g72
g58
NtRp5237
(dp5238
g61
(dp5239
sg70
g3880
sg63
(lp5240
g56
(g77
g58
NtRp5241
(dp5242
g61
(dp5243
g81
g82
ssg70
g5237
sg63
(lp5244
S'session_id_name'
p5245
asbag56
(g77
g58
NtRp5246
(dp5247
g61
(dp5248
g88
g89
ssg70
g5237
sg63
(lp5249
S':'
asbag56
(g77
g58
NtRp5250
(dp5251
g61
(dp5252
sg70
g5237
sg63
(lp5253
g56
(g57
g58
NtRp5254
(dp5255
g61
(dp5256
g69
I5
ssg70
g5250
sg63
(lp5257
g3937
asbasbasbag56
(g72
g58
NtRp5258
(dp5259
g61
(dp5260
sg70
g3880
sg63
(lp5261
g56
(g77
g58
NtRp5262
(dp5263
g61
(dp5264
g81
g82
ssg70
g5258
sg63
(lp5265
S'session_locked'
p5266
asbag56
(g77
g58
NtRp5267
(dp5268
g61
(dp5269
g88
g89
ssg70
g5258
sg63
(lp5270
S':'
asbag56
(g77
g58
NtRp5271
(dp5272
g61
(dp5273
sg70
g5258
sg63
(lp5274
g56
(g57
g58
NtRp5275
(dp5276
g61
(dp5277
g69
I5
ssg70
g5271
sg63
(lp5278
g2126
asbasbasbag56
(g72
g58
NtRp5279
(dp5280
g61
(dp5281
sg70
g3880
sg63
(lp5282
g56
(g77
g58
NtRp5283
(dp5284
g61
(dp5285
g81
g82
ssg70
g5279
sg63
(lp5286
S'session_new'
p5287
asbag56
(g77
g58
NtRp5288
(dp5289
g61
(dp5290
g88
g89
ssg70
g5279
sg63
(lp5291
S':'
asbag56
(g77
g58
NtRp5292
(dp5293
g61
(dp5294
sg70
g5279
sg63
(lp5295
g56
(g57
g58
NtRp5296
(dp5297
g61
(dp5298
g69
I5
ssg70
g5292
sg63
(lp5299
g99
asbasbasbag56
(g72
g58
NtRp5300
(dp5301
g61
(dp5302
sg70
g3880
sg63
(lp5303
g56
(g77
g58
NtRp5304
(dp5305
g61
(dp5306
g81
g82
ssg70
g5300
sg63
(lp5307
S'status'
p5308
asbag56
(g77
g58
NtRp5309
(dp5310
g61
(dp5311
g88
g89
ssg70
g5300
sg63
(lp5312
S':'
asbag56
(g77
g58
NtRp5313
(dp5314
g61
(dp5315
sg70
g5300
sg63
(lp5316
g56
(g57
g58
NtRp5317
(dp5318
g61
(dp5319
g69
I5
ssg70
g5313
sg63
(lp5320
S'200'
p5321
asbasbasbag56
(g72
g58
NtRp5322
(dp5323
g61
(dp5324
sg70
g3880
sg63
(lp5325
g56
(g77
g58
NtRp5326
(dp5327
g61
(dp5328
g81
g82
ssg70
g5322
sg63
(lp5329
S'subtitle'
p5330
asbag56
(g77
g58
NtRp5331
(dp5332
g61
(dp5333
g88
g89
ssg70
g5322
sg63
(lp5334
S':'
asbag56
(g77
g58
NtRp5335
(dp5336
g61
(dp5337
sg70
g5322
sg63
(lp5338
g56
(g57
g58
NtRp5339
(dp5340
g61
(dp5341
g69
I5
ssg70
g5335
sg63
(lp5342
g4412
(S's;\x00\x00\x00A tool for managing primary-text research in the humanities'
tRp5343
asbasbasbag56
(g72
g58
NtRp5344
(dp5345
g61
(dp5346
sg70
g3880
sg63
(lp5347
g56
(g77
g58
NtRp5348
(dp5349
g61
(dp5350
g81
g82
ssg70
g5344
sg63
(lp5351
S'title'
p5352
asbag56
(g77
g58
NtRp5353
(dp5354
g61
(dp5355
g88
g89
ssg70
g5344
sg63
(lp5356
S':'
asbag56
(g77
g58
NtRp5357
(dp5358
g61
(dp5359
sg70
g5344
sg63
(lp5360
g56
(g57
g58
NtRp5361
(dp5362
g61
(dp5363
g69
I5
ssg70
g5357
sg63
(lp5364
g121
asbasbasbag56
(g72
g58
NtRp5365
(dp5366
g61
(dp5367
sg70
g3880
sg63
(lp5368
g56
(g77
g58
NtRp5369
(dp5370
g61
(dp5371
g81
g82
ssg70
g5365
sg63
(lp5372
g2792
asbag56
(g77
g58
NtRp5373
(dp5374
g61
(dp5375
g88
g89
ssg70
g5365
sg63
(lp5376
S':'
asbag56
(g77
g58
NtRp5377
(dp5378
g61
(dp5379
sg70
g5365
sg63
(lp5380
g56
(g57
g58
NtRp5381
(dp5382
g61
(dp5383
g69
I5
ssg70
g5377
sg63
(lp5384
g2805
asbasbasbag56
(g72
g58
NtRp5385
(dp5386
g61
(dp5387
sg70
g3880
sg63
(lp5388
g56
(g77
g58
NtRp5389
(dp5390
g61
(dp5391
g81
g82
ssg70
g5385
sg63
(lp5392
S'view'
p5393
asbag56
(g77
g58
NtRp5394
(dp5395
g61
(dp5396
g88
g89
ssg70
g5385
sg63
(lp5397
S':'
asbag56
(g77
g58
NtRp5398
(dp5399
g61
(dp5400
sg70
g5385
sg63
(lp5401
g56
(g57
g58
NtRp5402
(dp5403
g61
(dp5404
g69
I5
ssg70
g5398
sg63
(lp5405
S'plugin_listandedit/list.html'
p5406
asbasbasbasbasbsS'locals'
p5407
(dp5408
S'self'
p5409
S"<DAL {'auth_event': <Table {'origin': <gluon.dal.../web2py/applications/topoi/databases/sql.log'}>}>"
p5410
sS'key'
p5411
S"'statics'"
p5412
sssS'traceback'
p5413
S'Traceback (most recent call last):\n  File "/home/ian/web2py/gluon/restricted.py", line 194, in restricted\n    exec ccode in environment\n  File "/home/ian/web2py/applications/topoi/controllers/plugin_listandedit.py", line 37, in <module>\n  File "/home/ian/web2py/gluon/globals.py", line 149, in <lambda>\n    self._caller = lambda f: f()\n  File "/home/ian/web2py/applications/topoi/controllers/plugin_listandedit.py", line 13, in list\n    fieldname = db[tablename].fields[1]\n  File "/home/ian/web2py/gluon/dal.py", line 4505, in __getitem__\n    return dict.__getitem__(self, str(key))\nKeyError: \'statics\'\n'
p5414
s.